	.section .mdebug.abi32
	.previous
	.nan	legacy
	.module	softfloat
	.module	oddspreg
	.text
.Ltext0:
	.cfi_sections	.debug_frame
	.align	2
.LFB42 = .
	.file 1 "process/proc.c"
	.loc 1 87 0
	.cfi_startproc
	.set	nomips16
	.set	nomicromips
	.ent	init_main
	.type	init_main, @function
init_main:
	.frame	$sp,24,$31		# vars= 0, regs= 1/0, args= 16, gp= 0
	.mask	0x80000000,-4
	.fmask	0x00000000,0
	.set	noreorder
	.set	nomacro
.LVL0 = .
	addiu	$sp,$sp,-24
	.cfi_def_cfa_offset 24
	sw	$31,20($sp)
	.cfi_offset 31, -4
	.loc 1 90 0
	li	$4,1431633920			# 0x55550000
.LVL1 = .
	jal	writeValTo7SegsHex
	addiu	$4,$4,21845

.LVL2 = .
	.loc 1 91 0
	lw	$31,20($sp)
	jr	$31
	addiu	$sp,$sp,24

	.cfi_def_cfa_offset 0
	.cfi_restore 31
	.set	macro
	.set	reorder
	.end	init_main
	.cfi_endproc
.LFE42:
	.size	init_main, .-init_main
	.align	2
.LFB37 = .
	.loc 1 19 0
	.cfi_startproc
	.set	nomips16
	.set	nomicromips
	.ent	alloc_proc
	.type	alloc_proc, @function
alloc_proc:
	.frame	$sp,24,$31		# vars= 0, regs= 2/0, args= 16, gp= 0
	.mask	0x80010000,-4
	.fmask	0x00000000,0
	.set	noreorder
	.set	nomacro
.LVL3 = .
	addiu	$sp,$sp,-24
	.cfi_def_cfa_offset 24
	sw	$31,20($sp)
	sw	$16,16($sp)
	.cfi_offset 31, -4
	.cfi_offset 16, -8
	.loc 1 20 0
	jal	kmalloc
	li	$5,104			# 0x68

.LVL4 = .
	.loc 1 23 0
	beq	$2,$0,.L4
	move	$16,$2

	.loc 1 24 0
	li	$2,-1			# 0xffffffffffffffff
.LVL5 = .
	sw	$2,8($16)
	.loc 1 25 0
	sw	$0,32($16)
	.loc 1 26 0
	sw	$0,28($16)
	.loc 1 27 0
	sw	$0,36($16)
	.loc 1 29 0
	addiu	$4,$16,40
	move	$5,$0
	jal	memset
	li	$6,44			# 0x2c

.LVL6 = .
	.loc 1 31 0
	addiu	$4,$16,12
	move	$5,$0
	jal	memset
	li	$6,15			# 0xf

.LVL7 = .
.L4:
	.loc 1 37 0
	move	$2,$16
	lw	$31,20($sp)
	lw	$16,16($sp)
.LVL8 = .
	jr	$31
	addiu	$sp,$sp,24

	.cfi_def_cfa_offset 0
	.cfi_restore 16
	.cfi_restore 31
	.set	macro
	.set	reorder
	.end	alloc_proc
	.cfi_endproc
.LFE37:
	.size	alloc_proc, .-alloc_proc
	.align	2
	.globl	set_proc_name
.LFB38 = .
	.loc 1 42 0
	.cfi_startproc
	.set	nomips16
	.set	nomicromips
	.ent	set_proc_name
	.type	set_proc_name, @function
set_proc_name:
	.frame	$sp,32,$31		# vars= 0, regs= 3/0, args= 16, gp= 0
	.mask	0x80030000,-4
	.fmask	0x00000000,0
	.set	noreorder
	.set	nomacro
.LVL9 = .
	addiu	$sp,$sp,-32
	.cfi_def_cfa_offset 32
	sw	$31,28($sp)
	sw	$17,24($sp)
	sw	$16,20($sp)
	.cfi_offset 31, -4
	.cfi_offset 17, -8
	.cfi_offset 16, -12
	move	$17,$5
	.loc 1 43 0
	addiu	$16,$4,12
	move	$4,$16
.LVL10 = .
	move	$5,$0
.LVL11 = .
	jal	memset
	li	$6,16			# 0x10

.LVL12 = .
	.loc 1 44 0
	move	$4,$16
	move	$5,$17
	jal	memcpy
	li	$6,15			# 0xf

.LVL13 = .
	.loc 1 45 0
	lw	$31,28($sp)
	lw	$17,24($sp)
.LVL14 = .
	lw	$16,20($sp)
.LVL15 = .
	jr	$31
	addiu	$sp,$sp,32

	.cfi_def_cfa_offset 0
	.cfi_restore 16
	.cfi_restore 17
	.cfi_restore 31
	.set	macro
	.set	reorder
	.end	set_proc_name
	.cfi_endproc
.LFE38:
	.size	set_proc_name, .-set_proc_name
	.align	2
	.globl	set_current
.LFB39 = .
	.loc 1 49 0
	.cfi_startproc
	.set	nomips16
	.set	nomicromips
	.ent	set_current
	.type	set_current, @function
set_current:
	.frame	$sp,0,$31		# vars= 0, regs= 0/0, args= 0, gp= 0
	.mask	0x00000000,0
	.fmask	0x00000000,0
	.set	noreorder
	.set	nomacro
.LVL16 = .
	.loc 1 50 0
	jr	$31
	sw	$4,%gp_rel(current)($28)

	.set	macro
	.set	reorder
	.end	set_current
	.cfi_endproc
.LFE39:
	.size	set_current, .-set_current
	.align	2
	.globl	proc_run
.LFB40 = .
	.loc 1 62 0
	.cfi_startproc
	.set	nomips16
	.set	nomicromips
	.ent	proc_run
	.type	proc_run, @function
proc_run:
	.frame	$sp,32,$31		# vars= 0, regs= 3/0, args= 16, gp= 0
	.mask	0x80030000,-4
	.fmask	0x00000000,0
	.set	noreorder
	.set	nomacro
.LVL17 = .
	addiu	$sp,$sp,-32
	.cfi_def_cfa_offset 32
	sw	$31,28($sp)
	sw	$17,24($sp)
	sw	$16,20($sp)
	.cfi_offset 31, -4
	.cfi_offset 17, -8
	.cfi_offset 16, -12
	.loc 1 64 0
	lw	$17,%gp_rel(current)($28)
	beq	$4,$17,.L9
	move	$16,$4

.LVL18 = .
.LBB15 = .
.LBB16 = .
.LBB17 = .
	.loc 1 50 0
	sw	$4,%gp_rel(current)($28)
.LVL19 = .
.LBE17 = .
.LBE16 = .
	.loc 1 68 0
	jal	writeValTo7SegsHex
	lw	$4,80($4)

.LVL20 = .
	.loc 1 70 0
	li	$4,343277568			# 0x14760000
	jal	writeValTo7SegsHex
	addiu	$4,$4,26214

.LVL21 = .
	.loc 1 73 0
	jal	writeValTo7SegsHex
	lw	$4,72($16)

.LVL22 = .
	.loc 1 74 0
	addiu	$4,$17,40
	jal	switch_to
	addiu	$5,$16,40

.LVL23 = .
	.loc 1 75 0
	li	$4,123076608			# 0x7560000
	jal	writeValTo7SegsHex
	addiu	$4,$4,26214

.LVL24 = .
.LBB18 = .
.LBB19 = .
	.loc 1 50 0
	sw	$17,%gp_rel(current)($28)
.LVL25 = .
.L9:
.LBE19 = .
.LBE18 = .
.LBE15 = .
	.loc 1 79 0
	lw	$31,28($sp)
	lw	$17,24($sp)
	lw	$16,20($sp)
	jr	$31
	addiu	$sp,$sp,32

	.cfi_def_cfa_offset 0
	.cfi_restore 16
	.cfi_restore 17
	.cfi_restore 31
	.set	macro
	.set	reorder
	.end	proc_run
	.cfi_endproc
.LFE40:
	.size	proc_run, .-proc_run
	.align	2
	.globl	create_proc
.LFB44 = .
	.loc 1 104 0
	.cfi_startproc
	.set	nomips16
	.set	nomicromips
	.ent	create_proc
	.type	create_proc, @function
create_proc:
	.frame	$sp,40,$31		# vars= 0, regs= 6/0, args= 16, gp= 0
	.mask	0x801f0000,-4
	.fmask	0x00000000,0
	.set	noreorder
	.set	nomacro
.LVL26 = .
	addiu	$sp,$sp,-40
	.cfi_def_cfa_offset 40
	sw	$31,36($sp)
	sw	$20,32($sp)
	sw	$19,28($sp)
	sw	$18,24($sp)
	sw	$17,20($sp)
	sw	$16,16($sp)
	.cfi_offset 31, -4
	.cfi_offset 20, -8
	.cfi_offset 19, -12
	.cfi_offset 18, -16
	.cfi_offset 17, -20
	.cfi_offset 16, -24
	.loc 1 109 0
	lw	$17,%gp_rel(tno)($28)
	addiu	$2,$17,1
	sw	$2,%gp_rel(tno)($28)
.LVL27 = .
	.loc 1 111 0
	lw	$3,%gp_rel(nr_process)($28)
	slt	$3,$3,1025
	beq	$3,$0,.L15
	move	$2,$20

	move	$19,$6
	move	$18,$4
.LVL28 = .
	.loc 1 114 0
	jal	alloc_proc
	move	$4,$17

.LVL29 = .
	.loc 1 116 0
	beq	$2,$0,.L13
	move	$16,$2

	.loc 1 120 0
	lw	$2,%gp_rel(current)($28)
.LVL30 = .
	sw	$2,36($16)
	.loc 1 121 0
	sw	$19,4($16)
	.loc 1 123 0
	sw	$17,0($16)
.LVL31 = .
.LBB26 = .
.LBB27 = .
	.loc 1 83 0
	move	$4,$17
	jal	kmalloc
	li	$5,4096			# 0x1000

.LVL32 = .
	sw	$2,28($16)
.LBE27 = .
.LBE26 = .
	.loc 1 126 0
	sw	$18,80($16)
	.loc 1 127 0
	addiu	$2,$2,4096
	sw	$2,72($16)
	.loc 1 130 0
	addiu	$3,$16,84
.LVL33 = .
.LBB28 = .
.LBB29 = .
	.file 2 "./include/lib/list.h"
	.loc 2 41 0
	addiu	$2,$28,%gp_rel(proc_list)
	lw	$4,0($2)
.LVL34 = .
.LBB30 = .
.LBB31 = .
	.loc 2 33 0
	sw	$3,4($4)
	.loc 2 34 0
	sw	$4,84($16)
	.loc 2 35 0
	sw	$2,88($16)
	.loc 2 36 0
	sw	$3,0($2)
.LBE31 = .
.LBE30 = .
.LBE29 = .
.LBE28 = .
	.loc 1 133 0
	lw	$2,%gp_rel(nr_process)($28)
	addiu	$2,$2,1
	sw	$2,%gp_rel(nr_process)($28)
.LVL35 = .
	.loc 1 134 0
	jal	wakeup_proc
	move	$4,$16

.LVL36 = .
	.loc 1 136 0
	lw	$20,0($16)
.LVL37 = .
.L13:
	.loc 1 140 0
	move	$2,$20
.L15:
	lw	$31,36($sp)
	lw	$20,32($sp)
.LVL38 = .
	lw	$19,28($sp)
	lw	$18,24($sp)
	lw	$17,20($sp)
.LVL39 = .
	lw	$16,16($sp)
	jr	$31
	addiu	$sp,$sp,40

	.cfi_def_cfa_offset 0
	.cfi_restore 16
	.cfi_restore 17
	.cfi_restore 18
	.cfi_restore 19
	.cfi_restore 20
	.cfi_restore 31
	.set	macro
	.set	reorder
	.end	create_proc
	.cfi_endproc
.LFE44:
	.size	create_proc, .-create_proc
	.section	.rodata.str1.4,"aMS",@progbits,1
	.align	2
.LC0:
	.ascii	"idle\000"
	.text
	.align	2
	.globl	proc_init
.LFB45 = .
	.loc 1 143 0
	.cfi_startproc
	.set	nomips16
	.set	nomicromips
	.ent	proc_init
	.type	proc_init, @function
proc_init:
	.frame	$sp,24,$31		# vars= 0, regs= 2/0, args= 16, gp= 0
	.mask	0x80010000,-4
	.fmask	0x00000000,0
	.set	noreorder
	.set	nomacro
	addiu	$sp,$sp,-24
	.cfi_def_cfa_offset 24
	sw	$31,20($sp)
	sw	$16,16($sp)
	.cfi_offset 31, -4
	.cfi_offset 16, -8
.LVL40 = .
.LBB36 = .
.LBB37 = .
	.loc 2 26 0
	addiu	$2,$28,%gp_rel(proc_list)
	sw	$2,0($2)
	.loc 2 27 0
	sw	$2,4($2)
.LBE37 = .
.LBE36 = .
	.loc 1 148 0
	lw	$16,%gp_rel(tno)($28)
	addiu	$2,$16,1
	sw	$2,%gp_rel(tno)($28)
.LVL41 = .
	.loc 1 149 0
	jal	alloc_proc
	move	$4,$16

.LVL42 = .
	sw	$2,%gp_rel(idleproc)($28)
	.loc 1 152 0
	sw	$16,0($2)
	.loc 1 153 0
	lw	$2,%gp_rel(idleproc)($28)
	sw	$0,8($2)
	.loc 1 154 0
	sw	$0,4($2)
	.loc 1 155 0
	li	$3,1			# 0x1
	sw	$3,32($2)
	.loc 1 156 0
	li	$4,-1718026240			# 0xffffffff99990000
	jal	writeValTo7SegsHex
	ori	$4,$4,0x9999

.LVL43 = .
	.loc 1 157 0
	jal	writeValTo7SegsHex
	lw	$4,%gp_rel(idleproc)($28)

.LVL44 = .
	.loc 1 159 0
	lw	$4,%gp_rel(idleproc)($28)
	lui	$5,%hi(.LC0)
	jal	set_proc_name
	addiu	$5,$5,%lo(.LC0)

.LVL45 = .
	.loc 1 160 0
	lw	$2,%gp_rel(nr_process)($28)
	addiu	$2,$2,1
	sw	$2,%gp_rel(nr_process)($28)
	.loc 1 161 0
	lw	$4,%gp_rel(idleproc)($28)
.LVL46 = .
	.loc 1 162 0
	jal	writeValTo7SegsHex
	sw	$4,%gp_rel(current)($28)

.LVL47 = .
	.loc 1 163 0
	li	$4,338034688			# 0x14260000
	jal	writeValTo7SegsHex
	addiu	$4,$4,26214

.LVL48 = .
	.loc 1 164 0
	lui	$4,%hi(init_main)
	addiu	$4,$4,%lo(init_main)
	move	$5,$0
	jal	create_proc
	li	$6,1			# 0x1

.LVL49 = .
	.loc 1 169 0
	jal	writeValTo7SegsHex
	lw	$4,%gp_rel(current)($28)

.LVL50 = .
	.loc 1 170 0
	lw	$2,%gp_rel(current)($28)
	lw	$4,32($2)
	jal	writeValTo7SegsHex
	nop

.LVL51 = .
	.loc 1 172 0
	lw	$31,20($sp)
	lw	$16,16($sp)
.LVL52 = .
	jr	$31
	addiu	$sp,$sp,24

	.cfi_def_cfa_offset 0
	.cfi_restore 16
	.cfi_restore 31
	.set	macro
	.set	reorder
	.end	proc_init
	.cfi_endproc
.LFE45:
	.size	proc_init, .-proc_init
	.align	2
	.globl	cpu_idle
.LFB46 = .
	.loc 1 175 0
	.cfi_startproc
	.set	nomips16
	.set	nomicromips
	.ent	cpu_idle
	.type	cpu_idle, @function
cpu_idle:
	.frame	$sp,32,$31		# vars= 0, regs= 3/0, args= 16, gp= 0
	.mask	0x80030000,-4
	.fmask	0x00000000,0
	.set	noreorder
	.set	nomacro
	addiu	$sp,$sp,-32
	.cfi_def_cfa_offset 32
	sw	$31,28($sp)
	sw	$17,24($sp)
	sw	$16,20($sp)
	.cfi_offset 31, -4
	.cfi_offset 17, -8
	.cfi_offset 16, -12
.LBB38 = .
	.loc 1 179 0
	li	$17,286326784			# 0x11110000
	addiu	$17,$17,8806
.LBE38 = .
	.loc 1 182 0
	li	$16,373358592			# 0x16410000
	addiu	$16,$16,8806
	.loc 1 178 0
	lw	$2,%gp_rel(current)($28)
.L22:
	lw	$2,32($2)
	beq	$2,$0,.L19
	nop

.LBB39 = .
	.loc 1 179 0
	jal	writeValTo7SegsHex
	move	$4,$17

.LVL53 = .
	.loc 1 180 0
	jal	schedule
	nop

.LVL54 = .
.L19:
.LBE39 = .
	.loc 1 182 0
	jal	writeValTo7SegsHex
	move	$4,$16

.LVL55 = .
	.loc 1 183 0
	b	.L22
	lw	$2,%gp_rel(current)($28)

	.set	macro
	.set	reorder
	.end	cpu_idle
	.cfi_endproc
.LFE46:
	.size	cpu_idle, .-cpu_idle
	.globl	tno
	.section	.sbss,"aw",@nobits
	.align	2
	.type	tno, @object
	.size	tno, 4
tno:
	.space	4
	.local	nr_process
	.comm	nr_process,4,4
	.globl	current
	.align	2
	.type	current, @object
	.size	current, 4
current:
	.space	4
	.globl	idleproc
	.align	2
	.type	idleproc, @object
	.size	idleproc, 4
idleproc:
	.space	4

	.comm	proc_list,8,4

	.comm	pte_p,4,4
	.text
.Letext0:
	.file 3 "c:\\progra~1\\imagin~1\\toolch~1\\mips-mti-elf\\2016.05-03\\mips-mti-elf\\include\\machine\\_default_types.h"
	.file 4 "c:\\progra~1\\imagin~1\\toolch~1\\mips-mti-elf\\2016.05-03\\mips-mti-elf\\include\\stdint.h"
	.file 5 "c:\\progra~1\\imagin~1\\toolch~1\\mips-mti-elf\\2016.05-03\\lib\\gcc\\mips-mti-elf\\4.9.2\\include\\stddef.h"
	.file 6 "c:\\progra~1\\imagin~1\\toolch~1\\mips-mti-elf\\2016.05-03\\mips-mti-elf\\include\\sys\\types.h"
	.file 7 "./include/types.h"
	.file 8 "./include/task/proc.h"
	.file 9 "./include/mm/vmm.h"
	.file 10 "./include/debug.h"
	.file 11 "./include/string.h"
	.file 12 "./include/mm/mm.h"