	.section .mdebug.abi32
	.previous
	.nan	legacy
	.module	softfloat
	.module	oddspreg
	.text
.Ltext0:
	.cfi_sections	.debug_frame
	.align	2
	.globl	led_red
.LFB3 = .
	.file 1 "debug.c"
	.loc 1 70 0
	.cfi_startproc
	.set	nomips16
	.set	nomicromips
	.ent	led_red
	.type	led_red, @function
led_red:
	.frame	$sp,0,$31		# vars= 0, regs= 0/0, args= 0, gp= 0
	.mask	0x00000000,0
	.fmask	0x00000000,0
	.set	noreorder
	.set	nomacro
.LVL0 = .
	.loc 1 72 0
	li	$2,-1082130432			# 0xffffffffbf800000
	sw	$4,0($2)
	jr	$31
	nop

	.set	macro
	.set	reorder
	.end	led_red
	.cfi_endproc
.LFE3:
	.size	led_red, .-led_red
	.align	2
	.globl	delay
.LFB4 = .
	.loc 1 75 0
	.cfi_startproc
	.set	nomips16
	.set	nomicromips
	.ent	delay
	.type	delay, @function
delay:
	.frame	$sp,8,$31		# vars= 8, regs= 0/0, args= 0, gp= 0
	.mask	0x00000000,0
	.fmask	0x00000000,0
	.set	noreorder
	.set	nomacro
	addiu	$sp,$sp,-8
	.cfi_def_cfa_offset 8
	.loc 1 77 0
	sw	$0,0($sp)
	lw	$3,0($sp)
	li	$2,6946816			# 0x6a0000
	ori	$2,$2,0xcfc0
	sltu	$2,$3,$2
	beq	$2,$0,.L2
	nop

	.loc 1 77 0 is_stmt 0 discriminator 3
	li	$3,6946816			# 0x6a0000
	ori	$3,$3,0xcfc0
.L5:
	lw	$2,0($sp)
	addiu	$2,$2,1
	sw	$2,0($sp)
	lw	$2,0($sp)
	sltu	$2,$2,$3
	bne	$2,$0,.L5
	nop

.L2:
	.loc 1 78 0 is_stmt 1
	jr	$31
	addiu	$sp,$sp,8

	.cfi_def_cfa_offset 0
	.set	macro
	.set	reorder
	.end	delay
	.cfi_endproc
.LFE4:
	.size	delay, .-delay
	.align	2
	.globl	writeValTo7SegsDec
.LFB0 = .
	.loc 1 5 0
	.cfi_startproc
	.set	nomips16
	.set	nomicromips
	.ent	writeValTo7SegsDec
	.type	writeValTo7SegsDec, @function
writeValTo7SegsDec:
	.frame	$sp,40,$31		# vars= 16, regs= 1/0, args= 16, gp= 0
	.mask	0x80000000,-4
	.fmask	0x00000000,0
	.set	noreorder
	.set	nomacro
.LVL1 = .
	addiu	$sp,$sp,-40
	.cfi_def_cfa_offset 40
	sw	$31,36($sp)
	.cfi_offset 31, -4
.LVL2 = .
	.loc 1 9 0
	sw	$0,20($sp)
	sw	$0,24($sp)
.LVL3 = .
	.loc 1 10 0
	li	$5,-1082130432			# 0xffffffffbf800000
	addiu	$5,$5,20
	.loc 1 14 0
	li	$7,-859045888			# 0xffffffffcccc0000
	ori	$7,$7,0xcccd
	.loc 1 17 0
	li	$8,1			# 0x1
.LVL4 = .
	.loc 1 14 0 discriminator 2
	multu	$4,$7
.L13:
	mfhi	$6
	srl	$2,$6,3
	sll	$3,$2,1
	sll	$2,$2,3
	addu	$2,$3,$2
	subu	$2,$4,$2
	sw	$2,16($sp)
	.loc 1 15 0 discriminator 2
	lw	$2,16($sp)
	sw	$2,0($5)
	.loc 1 16 0 discriminator 2
	srl	$4,$6,3
.LVL5 = .
	.loc 1 17 0 discriminator 2
	lw	$2,20($sp)
	sll	$2,$8,$2
	sw	$2,28($sp)
	.loc 1 18 0 discriminator 2
	lw	$3,24($sp)
	lw	$2,28($sp)
	or	$2,$2,$3
	sw	$2,24($sp)
	.loc 1 19 0 discriminator 2
	addiu	$5,$5,4
.LVL6 = .
	.loc 1 20 0 discriminator 2
	lw	$2,20($sp)
	addiu	$2,$2,1
	sw	$2,20($sp)
	.loc 1 21 0 discriminator 2
	beq	$4,$0,.L9
	nop

	.loc 1 21 0 is_stmt 0 discriminator 1
	lw	$2,20($sp)
	slt	$2,$2,8
	bne	$2,$0,.L13
	multu	$4,$7

.L9:
	.loc 1 23 0 is_stmt 1
	lw	$2,24($sp)
	nor	$2,$0,$2
	li	$3,-1082130432			# 0xffffffffbf800000
	sw	$2,16($3)
	.loc 1 25 0
	jal	delay
	nop

.LVL7 = .
	.loc 1 27 0
	lw	$31,36($sp)
	jr	$31
	addiu	$sp,$sp,40

	.cfi_def_cfa_offset 0
	.cfi_restore 31
	.set	macro
	.set	reorder
	.end	writeValTo7SegsDec
	.cfi_endproc
.LFE0:
	.size	writeValTo7SegsDec, .-writeValTo7SegsDec
	.align	2
	.globl	writeValTo7SegsHex
.LFB1 = .
	.loc 1 29 0
	.cfi_startproc
	.set	nomips16
	.set	nomicromips
	.ent	writeValTo7SegsHex
	.type	writeValTo7SegsHex, @function
writeValTo7SegsHex:
	.frame	$sp,32,$31		# vars= 8, regs= 1/0, args= 16, gp= 0
	.mask	0x80000000,-4
	.fmask	0x00000000,0
	.set	noreorder
	.set	nomacro
.LVL8 = .
	addiu	$sp,$sp,-32
	.cfi_def_cfa_offset 32
	sw	$31,28($sp)
	.cfi_offset 31, -4
.LVL9 = .
	.loc 1 42 0
	li	$2,-1082130432			# 0xffffffffbf800000
	sw	$0,16($2)
	.loc 1 44 0
	sw	$4,16($sp)
	.loc 1 46 0
	lw	$3,16($sp)
	sw	$3,20($2)
	.loc 1 47 0
	lw	$3,16($sp)
	srl	$3,$3,4
	sw	$3,16($sp)
	.loc 1 48 0
	lw	$3,16($sp)
	sw	$3,24($2)
	.loc 1 49 0
	lw	$3,16($sp)
	srl	$3,$3,4
	sw	$3,16($sp)
	.loc 1 50 0
	lw	$3,16($sp)
	sw	$3,28($2)
	.loc 1 51 0
	lw	$3,16($sp)
	srl	$3,$3,4
	sw	$3,16($sp)
	.loc 1 52 0
	lw	$3,16($sp)
	sw	$3,32($2)
	.loc 1 53 0
	lw	$3,16($sp)
	srl	$3,$3,4
	sw	$3,16($sp)
	.loc 1 54 0
	lw	$3,16($sp)
	sw	$3,36($2)
	.loc 1 55 0
	lw	$3,16($sp)
	srl	$3,$3,4
	sw	$3,16($sp)
	.loc 1 56 0
	lw	$3,16($sp)
	sw	$3,40($2)
	.loc 1 57 0
	lw	$3,16($sp)
	srl	$3,$3,4
	sw	$3,16($sp)
	.loc 1 58 0
	lw	$3,16($sp)
	sw	$3,44($2)
	.loc 1 59 0
	lw	$3,16($sp)
	srl	$3,$3,4
	sw	$3,16($sp)
	.loc 1 60 0
	lw	$3,16($sp)
	sw	$3,48($2)
	.loc 1 61 0
	lw	$2,16($sp)
	srl	$2,$2,4
	sw	$2,16($sp)
	.loc 1 63 0
	jal	delay
	nop

.LVL10 = .
	.loc 1 64 0
	lw	$31,28($sp)
	jr	$31
	addiu	$sp,$sp,32

	.cfi_def_cfa_offset 0
	.cfi_restore 31
	.set	macro
	.set	reorder
	.end	writeValTo7SegsHex
	.cfi_endproc
.LFE1:
	.size	writeValTo7SegsHex, .-writeValTo7SegsHex
	.align	2
	.globl	writeValTo7SegsHex1
.LFB2 = .
	.loc 1 66 0
	.cfi_startproc
	.set	nomips16
	.set	nomicromips
	.ent	writeValTo7SegsHex1
	.type	writeValTo7SegsHex1, @function
writeValTo7SegsHex1:
	.frame	$sp,24,$31		# vars= 0, regs= 1/0, args= 16, gp= 0
	.mask	0x80000000,-4
	.fmask	0x00000000,0
	.set	noreorder
	.set	nomacro
.LVL11 = .
	addiu	$sp,$sp,-24
	.cfi_def_cfa_offset 24
	sw	$31,20($sp)
	.cfi_offset 31, -4
	.loc 1 67 0
	sll	$4,$4,16
.LVL12 = .
	jal	writeValTo7SegsHex
	addu	$4,$4,$5

.LVL13 = .
	.loc 1 68 0
	lw	$31,20($sp)
	jr	$31
	addiu	$sp,$sp,24

	.cfi_def_cfa_offset 0
	.cfi_restore 31
	.set	macro
	.set	reorder
	.end	writeValTo7SegsHex1
	.cfi_endproc
.LFE2:
	.size	writeValTo7SegsHex1, .-writeValTo7SegsHex1
	.globl	value_global
	.section	.sbss,"aw",@nobits
	.align	2
	.type	value_global, @object
	.size	value_global, 4
value_global:
	.space	4
	.text
.Letext0: