
FPGA_Ram.elf:     file format elf32-tradlittlemips


Disassembly of section .bootrom:

9fc00000 <__reset_vector>:
9fc00000:	3c069fc0 	lui	a2,0x9fc0
9fc00004:	24c60014 	addiu	a2,a2,20
9fc00008:	00c00008 	jr	a2
9fc0000c:	40804800 	mtc0	zero,c0_count
9fc00010:	00000000 	nop

9fc00014 <__cpu_init>:
9fc00014:	40116000 	mfc0	s1,c0_status
9fc00018:	7e3104c0 	ext	s1,s1,0x13,0x1
9fc0001c:	12200002 	beqz	s1,9fc00028 <init_resources>
9fc00020:	00000000 	nop
9fc00024:	7000003f 	sdbbp

9fc00028 <init_resources>:
9fc00028:	3c069fc0 	lui	a2,0x9fc0
9fc0002c:	24c60288 	addiu	a2,a2,648
9fc00030:	00c0f809 	jalr	a2
9fc00034:	00000000 	nop
9fc00038:	3c069fc0 	lui	a2,0x9fc0
9fc0003c:	24c60308 	addiu	a2,a2,776
9fc00040:	00c0f809 	jalr	a2
9fc00044:	00000000 	nop
9fc00048:	3c069fc0 	lui	a2,0x9fc0
9fc0004c:	24c600a8 	addiu	a2,a2,168
9fc00050:	00c0f809 	jalr	a2
9fc00054:	00000000 	nop
9fc00058:	3c069fc0 	lui	a2,0x9fc0
9fc0005c:	24c60160 	addiu	a2,a2,352
9fc00060:	2405000f 	li	a1,15
9fc00064:	7ca6ef44 	ins	a2,a1,0x1d,0x1
9fc00068:	00c0f809 	jalr	a2
9fc0006c:	00000000 	nop
9fc00070:	3c069fc0 	lui	a2,0x9fc0
9fc00074:	24c60100 	addiu	a2,a2,256
9fc00078:	00c0f809 	jalr	a2
9fc0007c:	00000000 	nop
9fc00080:	3c1f9fc0 	lui	ra,0x9fc0
9fc00084:	27ff00a0 	addiu	ra,ra,160
9fc00088:	00002025 	move	a0,zero
9fc0008c:	3c028000 	lui	v0,0x8000
9fc00090:	24420324 	addiu	v0,v0,804
9fc00094:	4082f000 	mtc0	v0,c0_errorepc
9fc00098:	000000c0 	ehb
9fc0009c:	42000018 	eret

9fc000a0 <all_done>:
9fc000a0:	1000ffff 	b	9fc000a0 <all_done>
9fc000a4:	00000000 	nop

9fc000a8 <init_icache>:
9fc000a8:	40028001 	mfc0	v0,c0_config1
9fc000ac:	7c4314c0 	ext	v1,v0,0x13,0x3
9fc000b0:	10600011 	beqz	v1,9fc000f8 <done_icache>
9fc000b4:	00000000 	nop
9fc000b8:	24060002 	li	a2,2
9fc000bc:	00661804 	sllv	v1,a2,v1
9fc000c0:	7c441580 	ext	a0,v0,0x16,0x3
9fc000c4:	24060040 	li	a2,64
9fc000c8:	00862004 	sllv	a0,a2,a0
9fc000cc:	7c451400 	ext	a1,v0,0x10,0x3
9fc000d0:	20a50001 	addi	a1,a1,1
9fc000d4:	70852002 	mul	a0,a0,a1
9fc000d8:	3c068000 	lui	a2,0x8000
9fc000dc:	4080e000 	mtc0	zero,c0_taglo
9fc000e0:	4080e800 	mtc0	zero,c0_taghi
9fc000e4:	00803825 	move	a3,a0

9fc000e8 <next_icache_tag>:
9fc000e8:	bcc80000 	cache	0x8,0(a2)
9fc000ec:	20e7ffff 	addi	a3,a3,-1
9fc000f0:	14e0fffd 	bnez	a3,9fc000e8 <next_icache_tag>
9fc000f4:	00c33020 	add	a2,a2,v1

9fc000f8 <done_icache>:
9fc000f8:	03e00008 	jr	ra
9fc000fc:	00000000 	nop

9fc00100 <init_dcache>:
9fc00100:	40028001 	mfc0	v0,c0_config1
9fc00104:	7c431280 	ext	v1,v0,0xa,0x3
9fc00108:	10600013 	beqz	v1,9fc00158 <done_dcache>
9fc0010c:	00000000 	nop
9fc00110:	24060002 	li	a2,2
9fc00114:	00661804 	sllv	v1,a2,v1
9fc00118:	7c441340 	ext	a0,v0,0xd,0x3
9fc0011c:	24060040 	li	a2,64
9fc00120:	00862004 	sllv	a0,a2,a0
9fc00124:	7c4511c0 	ext	a1,v0,0x7,0x3
9fc00128:	20a50001 	addi	a1,a1,1
9fc0012c:	70852002 	mul	a0,a0,a1
9fc00130:	3c068000 	lui	a2,0x8000
9fc00134:	4080e000 	mtc0	zero,c0_taglo
9fc00138:	4080e800 	mtc0	zero,c0_taghi
9fc0013c:	4080e002 	mtc0	zero,c0_taglo1
9fc00140:	4080e802 	mtc0	zero,c0_taghi1
9fc00144:	00803825 	move	a3,a0

9fc00148 <next_dcache_tag>:
9fc00148:	bcc90000 	cache	0x9,0(a2)
9fc0014c:	20e7ffff 	addi	a3,a3,-1
9fc00150:	14e0fffd 	bnez	a3,9fc00148 <next_dcache_tag>
9fc00154:	00c33020 	add	a2,a2,v1

9fc00158 <done_dcache>:
9fc00158:	03e00008 	jr	ra
9fc0015c:	00000000 	nop

9fc00160 <change_k0_cca>:
9fc00160:	40028000 	mfc0	v0,c0_config
9fc00164:	24030003 	li	v1,3
9fc00168:	7c621004 	ins	v0,v1,0x0,0x3
9fc0016c:	40828000 	mtc0	v0,c0_config
9fc00170:	03e00408 	jr.hb	ra
9fc00174:	00000000 	nop
	...
9fc00200:	7000003f 	sdbbp
	...
9fc00280:	7000003f 	sdbbp
9fc00284:	00000000 	nop

9fc00288 <init_cp0>:
9fc00288:	3c030040 	lui	v1,0x40
9fc0028c:	34630404 	ori	v1,v1,0x404
9fc00290:	40836000 	mtc0	v1,c0_status
9fc00294:	40028001 	mfc0	v0,c0_config1
9fc00298:	7c4300c0 	ext	v1,v0,0x3,0x1
9fc0029c:	10600011 	beqz	v1,9fc002e4 <done_wr>
9fc002a0:	24030007 	li	v1,7
9fc002a4:	40839800 	mtc0	v1,c0_watchhi
9fc002a8:	40809000 	mtc0	zero,c0_watchlo
9fc002ac:	40839801 	mtc0	v1,c0_watchhi,1
9fc002b0:	40809001 	mtc0	zero,c0_watchlo,1
9fc002b4:	40839802 	mtc0	v1,c0_watchhi,2
9fc002b8:	40809002 	mtc0	zero,c0_watchlo,2
9fc002bc:	40839803 	mtc0	v1,c0_watchhi,3
9fc002c0:	40809003 	mtc0	zero,c0_watchlo,3
9fc002c4:	40839804 	mtc0	v1,c0_watchhi,4
9fc002c8:	40809004 	mtc0	zero,c0_watchlo,4
9fc002cc:	40839805 	mtc0	v1,c0_watchhi,5
9fc002d0:	40809005 	mtc0	zero,c0_watchlo,5
9fc002d4:	40839806 	mtc0	v1,c0_watchhi,6
9fc002d8:	40809006 	mtc0	zero,c0_watchlo,6
9fc002dc:	40839807 	mtc0	v1,c0_watchhi,7
9fc002e0:	40809007 	mtc0	zero,c0_watchlo,7

9fc002e4 <done_wr>:
9fc002e4:	40806800 	mtc0	zero,c0_cause
9fc002e8:	40805800 	mtc0	zero,c0_compare
9fc002ec:	03e00008 	jr	ra
9fc002f0:	00000000 	nop
	...
9fc00300:	7000003f 	sdbbp
9fc00304:	00000000 	nop

9fc00308 <init_tlb>:
9fc00308:	40038000 	mfc0	v1,c0_config
9fc0030c:	7c6311c0 	ext	v1,v1,0x7,0x3
9fc00310:	24070001 	li	a3,1
9fc00314:	1467000f 	bne	v1,a3,9fc00354 <done_init_tlb>
9fc00318:	40028001 	mfc0	v0,c0_config1
9fc0031c:	00000000 	nop

9fc00320 <start_init_tlb>:
9fc00320:	7c432e40 	ext	v1,v0,0x19,0x6
9fc00324:	40801000 	mtc0	zero,c0_entrylo0
9fc00328:	40801800 	mtc0	zero,c0_entrylo1
9fc0032c:	40802800 	mtc0	zero,c0_pagemask
9fc00330:	40803000 	mtc0	zero,c0_wired
9fc00334:	3c048000 	lui	a0,0x8000

9fc00338 <next_tlb_entry_pair>:
9fc00338:	40830000 	mtc0	v1,c0_index
9fc0033c:	40845000 	mtc0	a0,c0_entryhi
9fc00340:	000000c0 	ehb
9fc00344:	42000002 	tlbwi
9fc00348:	20844000 	addi	a0,a0,16384
9fc0034c:	1460fffa 	bnez	v1,9fc00338 <next_tlb_entry_pair>
9fc00350:	2063ffff 	addi	v1,v1,-1

9fc00354 <done_init_tlb>:
9fc00354:	03e00008 	jr	ra
9fc00358:	00000000 	nop
	...
9fc00380:	3c1abf80 	lui	k0,0xbf80
9fc00384:	241b5555 	li	k1,21845
9fc00388:	af5b0000 	sw	k1,0(k0)
9fc0038c:	42000018 	eret
	...
9fc00480:	3c18bf80 	lui	t8,0xbf80
9fc00484:	4084f800 	mtc0	a0,c0_desave
9fc00488:	4004c000 	mfc0	a0,c0_depc
9fc0048c:	af040000 	sw	a0,0(t8)
9fc00490:	4004f800 	mfc0	a0,c0_desave
9fc00494:	1000ffff 	b	9fc00494 <done_init_tlb+0x140>
9fc00498:	00000000 	nop
9fc0049c:	00000000 	nop

Disassembly of section .exception_vector:

80000000 <__exception_entry>:
80000000:	3c1b8000 	lui	k1,0x8000
80000004:	277b2e88 	addiu	k1,k1,11912
80000008:	8f7b0000 	lw	k1,0(k1)
8000000c:	13600003 	beqz	k1,8000001c <__exception_entry+0x1c>
80000010:	00000000 	nop
80000014:	080000c9 	j	80000324 <_start>
80000018:	00000000 	nop
8000001c:	3c1b8000 	lui	k1,0x8000
80000020:	277b2370 	addiu	k1,k1,9072
80000024:	1360fff6 	beqz	k1,80000000 <__exception_entry>
80000028:	00000000 	nop
8000002c:	03600008 	jr	k1
80000030:	00000000 	nop
	...

80000080 <__xtlb_refill_loop>:
80000080:	3c1b8000 	lui	k1,0x8000
80000084:	277b2370 	addiu	k1,k1,9072
80000088:	1360fffd 	beqz	k1,80000080 <__xtlb_refill_loop>
8000008c:	00000000 	nop
80000090:	03600008 	jr	k1
80000094:	00000000 	nop
	...

80000100 <__cache_error_loop>:
80000100:	3c1b0000 	lui	k1,0x0
80000104:	277b0000 	addiu	k1,k1,0
80000108:	1360fffd 	beqz	k1,80000100 <__cache_error_loop>
8000010c:	00000000 	nop
80000110:	03600008 	jr	k1
80000114:	00000000 	nop
	...
80000180:	afbbffc8 	sw	k1,-56(sp)
80000184:	3c1b8000 	lui	k1,0x8000
80000188:	277b2370 	addiu	k1,k1,9072
8000018c:	03600008 	jr	k1
80000190:	00000000 	nop
	...

80000200 <__isr_vec>:
80000200:	3c1b0000 	lui	k1,0x0
80000204:	277b0000 	addiu	k1,k1,0
80000208:	1360003d 	beqz	k1,80000300 <__isr_vec_fallback>
8000020c:	00000000 	nop
80000210:	03600008 	jr	k1
80000214:	00000000 	nop
	...

80000220 <__isr_vec_sw1>:
80000220:	3c1b0000 	lui	k1,0x0
80000224:	277b0000 	addiu	k1,k1,0
80000228:	13600035 	beqz	k1,80000300 <__isr_vec_fallback>
8000022c:	00000000 	nop
80000230:	03600008 	jr	k1
80000234:	00000000 	nop
	...

80000240 <__isr_vec_hw0>:
80000240:	3c1b0000 	lui	k1,0x0
80000244:	277b0000 	addiu	k1,k1,0
80000248:	1360002d 	beqz	k1,80000300 <__isr_vec_fallback>
8000024c:	00000000 	nop
80000250:	03600008 	jr	k1
80000254:	00000000 	nop
	...

80000260 <__isr_vec_hw1>:
80000260:	3c1b0000 	lui	k1,0x0
80000264:	277b0000 	addiu	k1,k1,0
80000268:	13600025 	beqz	k1,80000300 <__isr_vec_fallback>
8000026c:	00000000 	nop
80000270:	03600008 	jr	k1
80000274:	00000000 	nop
	...

80000280 <__isr_vec_hw2>:
80000280:	3c1b0000 	lui	k1,0x0
80000284:	277b0000 	addiu	k1,k1,0
80000288:	1360001d 	beqz	k1,80000300 <__isr_vec_fallback>
8000028c:	00000000 	nop
80000290:	03600008 	jr	k1
80000294:	00000000 	nop
	...

800002a0 <__isr_vec_hw3>:
800002a0:	3c1b0000 	lui	k1,0x0
800002a4:	277b0000 	addiu	k1,k1,0
800002a8:	13600015 	beqz	k1,80000300 <__isr_vec_fallback>
800002ac:	00000000 	nop
800002b0:	03600008 	jr	k1
800002b4:	00000000 	nop
	...

800002c0 <__isr_vec_hw4>:
800002c0:	3c1b0000 	lui	k1,0x0
800002c4:	277b0000 	addiu	k1,k1,0
800002c8:	1360000d 	beqz	k1,80000300 <__isr_vec_fallback>
800002cc:	00000000 	nop
800002d0:	03600008 	jr	k1
800002d4:	00000000 	nop
	...

800002e0 <__isr_vec_hw5>:
800002e0:	3c1b0000 	lui	k1,0x0
800002e4:	277b0000 	addiu	k1,k1,0
800002e8:	13600005 	beqz	k1,80000300 <__isr_vec_fallback>
800002ec:	00000000 	nop
800002f0:	03600008 	jr	k1
800002f4:	00000000 	nop
	...

80000300 <__isr_vec_fallback>:
80000300:	3c1b0000 	lui	k1,0x0
80000304:	277b0000 	addiu	k1,k1,0
80000308:	1360fffd 	beqz	k1,80000300 <__isr_vec_fallback>
8000030c:	00000000 	nop
80000310:	03600008 	jr	k1
80000314:	00000000 	nop
	...

Disassembly of section .text:

80000320 <_ftext>:
80000320:	00000000 	nop

80000324 <_start>:
80000324:	3c088000 	lui	t0,0x8000
80000328:	25082a50 	addiu	t0,t0,10832
8000032c:	ad040000 	sw	a0,0(t0)
80000330:	ad050004 	sw	a1,4(t0)
80000334:	ad060008 	sw	a2,8(t0)
80000338:	3c198000 	lui	t9,0x8000
8000033c:	27391f74 	addiu	t9,t9,8052
80000340:	13200006 	beqz	t9,8000035c <_start+0x38>
80000344:	00000000 	nop
80000348:	03e02025 	move	a0,ra
8000034c:	0320f809 	jalr	t9
80000350:	00000000 	nop
80000354:	10000004 	b	80000368 <_start+0x44>
80000358:	00000000 	nop
8000035c:	40806800 	mtc0	zero,c0_cause
80000360:	00000000 	nop
80000364:	00001025 	move	v0,zero
80000368:	3c088000 	lui	t0,0x8000
8000036c:	25082590 	addiu	t0,t0,9616
80000370:	3c098000 	lui	t1,0x8000
80000374:	252925a8 	addiu	t1,t1,9640
80000378:	2529ffe8 	addiu	t1,t1,-24
8000037c:	15090021 	bne	t0,t1,80000404 <_start+0xe0>
80000380:	00000000 	nop
80000384:	91090002 	lbu	t1,2(t0)
80000388:	2d230003 	sltiu	v1,t1,3
8000038c:	10600003 	beqz	v1,8000039c <_start+0x78>
80000390:	39290040 	xori	t1,t1,0x40
80000394:	3c030010 	lui	v1,0x10
80000398:	00431025 	or	v0,v0,v1
8000039c:	15200002 	bnez	t1,800003a8 <_start+0x84>
800003a0:	240300e0 	li	v1,224
800003a4:	00431025 	or	v0,v0,v1
800003a8:	8d09000c 	lw	t1,12(t0)
800003ac:	31290013 	andi	t1,t1,0x13
800003b0:	11200002 	beqz	t1,800003bc <_start+0x98>
800003b4:	3c030100 	lui	v1,0x100
800003b8:	00431025 	or	v0,v0,v1
800003bc:	91090007 	lbu	t1,7(t0)
800003c0:	39290003 	xori	t1,t1,0x3
800003c4:	11200010 	beqz	t1,80000408 <_start+0xe4>
800003c8:	3c032000 	lui	v1,0x2000
800003cc:	00431025 	or	v0,v0,v1
800003d0:	91090005 	lbu	t1,5(t0)
800003d4:	39290002 	xori	t1,t1,0x2
800003d8:	15200002 	bnez	t1,800003e4 <_start+0xc0>
800003dc:	3c030400 	lui	v1,0x400
800003e0:	00431025 	or	v0,v0,v1
800003e4:	8d09000c 	lw	t1,12(t0)
800003e8:	31290200 	andi	t1,t1,0x200
800003ec:	11200006 	beqz	t1,80000408 <_start+0xe4>
800003f0:	3c030400 	lui	v1,0x400
800003f4:	00431025 	or	v0,v0,v1
800003f8:	3c030800 	lui	v1,0x800
800003fc:	10000002 	b	80000408 <_start+0xe4>
80000400:	40838005 	mtc0	v1,$16,5
80000404:	24020000 	li	v0,0
80000408:	40826000 	mtc0	v0,c0_status
8000040c:	00000000 	nop
80000410:	3c080000 	lui	t0,0x0
80000414:	25080000 	addiu	t0,t0,0
80000418:	11000003 	beqz	t0,80000428 <_start+0x104>
8000041c:	00000000 	nop
80000420:	0100f809 	jalr	t0
80000424:	00000000 	nop
80000428:	3c028000 	lui	v0,0x8000
8000042c:	24420438 	addiu	v0,v0,1080
80000430:	00400008 	jr	v0
80000434:	00000000 	nop
80000438:	3c1c8001 	lui	gp,0x8001
8000043c:	279caee8 	addiu	gp,gp,-20760

80000440 <zerobss>:
80000440:	3c028000 	lui	v0,0x8000
80000444:	24422ef8 	addiu	v0,v0,12024
80000448:	3c038040 	lui	v1,0x8040
8000044c:	24633144 	addiu	v1,v1,12612
80000450:	10430004 	beq	v0,v1,80000464 <zerobss+0x24>
80000454:	00000000 	nop
80000458:	24420004 	addiu	v0,v0,4
8000045c:	1443fffe 	bne	v0,v1,80000458 <zerobss+0x18>
80000460:	ac40fffc 	sw	zero,-4(v0)
80000464:	3c088004 	lui	t0,0x8004
80000468:	25080000 	addiu	t0,t0,0
8000046c:	1500000b 	bnez	t0,8000049c <zerobss+0x5c>
80000470:	00000000 	nop
80000474:	3c1d8040 	lui	sp,0x8040
80000478:	27bd3550 	addiu	sp,sp,13648
8000047c:	24040000 	li	a0,0
80000480:	3c058040 	lui	a1,0x8040
80000484:	0c0005df 	jal	8000177c <_get_ram_range>
80000488:	24a53550 	addiu	a1,a1,13648
8000048c:	3c048040 	lui	a0,0x8040
80000490:	24843550 	addiu	a0,a0,13648
80000494:	8c880000 	lw	t0,0(a0)
80000498:	8d00fffc 	lw	zero,-4(t0)
8000049c:	2508ffc0 	addiu	t0,t0,-64
800004a0:	0100e825 	move	sp,t0

800004a4 <init>:
800004a4:	3c190000 	lui	t9,0x0
800004a8:	27390000 	addiu	t9,t9,0
800004ac:	13200003 	beqz	t9,800004bc <init+0x18>
800004b0:	00000000 	nop
800004b4:	0320f809 	jalr	t9
800004b8:	00000000 	nop
800004bc:	3c190000 	lui	t9,0x0
800004c0:	27390000 	addiu	t9,t9,0
800004c4:	13200003 	beqz	t9,800004d4 <init+0x30>
800004c8:	00000000 	nop
800004cc:	0320f809 	jalr	t9
800004d0:	00000000 	nop
800004d4:	3c048000 	lui	a0,0x8000
800004d8:	2484255c 	addiu	a0,a0,9564
800004dc:	0c0004d2 	jal	80001348 <atexit>
800004e0:	00000000 	nop
800004e4:	0c00094e 	jal	80002538 <_init>
800004e8:	00000000 	nop
800004ec:	3c088000 	lui	t0,0x8000
800004f0:	25082a50 	addiu	t0,t0,10832
800004f4:	8d040000 	lw	a0,0(t0)
800004f8:	8d050004 	lw	a1,4(t0)
800004fc:	8d060008 	lw	a2,8(t0)
80000500:	3c088000 	lui	t0,0x8000
80000504:	25082210 	addiu	t0,t0,8720
80000508:	11000003 	beqz	t0,80000518 <init+0x74>
8000050c:	00000000 	nop
80000510:	0100f809 	jalr	t0
80000514:	00000000 	nop
80000518:	1c800013 	bgtz	a0,80000568 <init+0xc4>
8000051c:	00000000 	nop
80000520:	1080000c 	beqz	a0,80000554 <init+0xb0>
80000524:	00000000 	nop
80000528:	2884ffff 	slti	a0,a0,-1
8000052c:	14800009 	bnez	a0,80000554 <init+0xb0>
80000530:	00000000 	nop
80000534:	3c088000 	lui	t0,0x8000
80000538:	250816c4 	addiu	t0,t0,5828
8000053c:	11000005 	beqz	t0,80000554 <init+0xb0>
80000540:	00000000 	nop
80000544:	0100f809 	jalr	t0
80000548:	00000000 	nop
8000054c:	10000006 	b	80000568 <init+0xc4>
80000550:	00000000 	nop
80000554:	00002025 	move	a0,zero
80000558:	27a50020 	addiu	a1,sp,32
8000055c:	27a60028 	addiu	a2,sp,40
80000560:	aca00000 	sw	zero,0(a1)
80000564:	acc00000 	sw	zero,0(a2)
80000568:	0c0004be 	jal	800012f8 <main>
8000056c:	00000000 	nop
80000570:	0c0004dc 	jal	80001370 <exit>
80000574:	00402025 	move	a0,v0

80000578 <_exit>:
80000578:	3c088000 	lui	t0,0x8000
8000057c:	25082a50 	addiu	t0,t0,10832
80000580:	ad040000 	sw	a0,0(t0)
80000584:	3c080000 	lui	t0,0x0
80000588:	25080000 	addiu	t0,t0,0
8000058c:	11000003 	beqz	t0,8000059c <_exit+0x24>
80000590:	00000000 	nop
80000594:	0100f809 	jalr	t0
80000598:	00000000 	nop
8000059c:	3c088000 	lui	t0,0x8000
800005a0:	25082a50 	addiu	t0,t0,10832
800005a4:	0c00058f 	jal	8000163c <__exit>
800005a8:	8d040000 	lw	a0,0(t0)
800005ac:	03ff000d 	break	0x3ff
800005b0:	1000fff1 	b	80000578 <_exit>
800005b4:	00000000 	nop

800005b8 <deregister_tm_clones>:
800005b8:	3c048000 	lui	a0,0x8000
800005bc:	3c028000 	lui	v0,0x8000
800005c0:	24842ee8 	addiu	a0,a0,12008
800005c4:	24422eeb 	addiu	v0,v0,12011
800005c8:	00441023 	subu	v0,v0,a0
800005cc:	2c420007 	sltiu	v0,v0,7
800005d0:	14400006 	bnez	v0,800005ec <deregister_tm_clones+0x34>
800005d4:	3c190000 	lui	t9,0x0
800005d8:	27390000 	addiu	t9,t9,0
800005dc:	13200003 	beqz	t9,800005ec <deregister_tm_clones+0x34>
800005e0:	00000000 	nop
800005e4:	03200008 	jr	t9
800005e8:	00000000 	nop
800005ec:	03e00008 	jr	ra
800005f0:	00000000 	nop

800005f4 <register_tm_clones>:
800005f4:	3c048000 	lui	a0,0x8000
800005f8:	3c028000 	lui	v0,0x8000
800005fc:	24842ee8 	addiu	a0,a0,12008
80000600:	24422ee8 	addiu	v0,v0,12008
80000604:	00441023 	subu	v0,v0,a0
80000608:	00021083 	sra	v0,v0,0x2
8000060c:	00022fc2 	srl	a1,v0,0x1f
80000610:	00a22821 	addu	a1,a1,v0
80000614:	00052843 	sra	a1,a1,0x1
80000618:	10a00006 	beqz	a1,80000634 <register_tm_clones+0x40>
8000061c:	3c190000 	lui	t9,0x0
80000620:	27390000 	addiu	t9,t9,0
80000624:	13200003 	beqz	t9,80000634 <register_tm_clones+0x40>
80000628:	00000000 	nop
8000062c:	03200008 	jr	t9
80000630:	00000000 	nop
80000634:	03e00008 	jr	ra
80000638:	00000000 	nop

8000063c <__do_global_dtors_aux>:
8000063c:	27bdffd8 	addiu	sp,sp,-40
80000640:	afb10018 	sw	s1,24(sp)
80000644:	3c118000 	lui	s1,0x8000
80000648:	afbf0024 	sw	ra,36(sp)
8000064c:	afb30020 	sw	s3,32(sp)
80000650:	afb2001c 	sw	s2,28(sp)
80000654:	afb00014 	sw	s0,20(sp)
80000658:	92222f08 	lbu	v0,12040(s1)
8000065c:	14400020 	bnez	v0,800006e0 <__do_global_dtors_aux+0xa4>
80000660:	3c028000 	lui	v0,0x8000
80000664:	3c108000 	lui	s0,0x8000
80000668:	24422588 	addiu	v0,v0,9608
8000066c:	2610258c 	addiu	s0,s0,9612
80000670:	3c138000 	lui	s3,0x8000
80000674:	02028023 	subu	s0,s0,v0
80000678:	00409025 	move	s2,v0
8000067c:	00108083 	sra	s0,s0,0x2
80000680:	2610ffff 	addiu	s0,s0,-1
80000684:	8e622f0c 	lw	v0,12044(s3)
80000688:	0050182b 	sltu	v1,v0,s0
8000068c:	10600009 	beqz	v1,800006b4 <__do_global_dtors_aux+0x78>
80000690:	24420001 	addiu	v0,v0,1
80000694:	ae622f0c 	sw	v0,12044(s3)
80000698:	00021080 	sll	v0,v0,0x2
8000069c:	02421021 	addu	v0,s2,v0
800006a0:	8c420000 	lw	v0,0(v0)
800006a4:	0040f809 	jalr	v0
800006a8:	00000000 	nop
800006ac:	1000fff6 	b	80000688 <__do_global_dtors_aux+0x4c>
800006b0:	8e622f0c 	lw	v0,12044(s3)
800006b4:	0c00016e 	jal	800005b8 <deregister_tm_clones>
800006b8:	00000000 	nop
800006bc:	3c020000 	lui	v0,0x0
800006c0:	24420000 	addiu	v0,v0,0
800006c4:	10400005 	beqz	v0,800006dc <__do_global_dtors_aux+0xa0>
800006c8:	24020001 	li	v0,1
800006cc:	3c048000 	lui	a0,0x8000
800006d0:	0c000000 	jal	80000000 <__app_start>
800006d4:	24842578 	addiu	a0,a0,9592
800006d8:	24020001 	li	v0,1
800006dc:	a2222f08 	sb	v0,12040(s1)
800006e0:	8fbf0024 	lw	ra,36(sp)
800006e4:	8fb30020 	lw	s3,32(sp)
800006e8:	8fb2001c 	lw	s2,28(sp)
800006ec:	8fb10018 	lw	s1,24(sp)
800006f0:	8fb00014 	lw	s0,20(sp)
800006f4:	03e00008 	jr	ra
800006f8:	27bd0028 	addiu	sp,sp,40

800006fc <frame_dummy>:
800006fc:	3c020000 	lui	v0,0x0
80000700:	27bdffe8 	addiu	sp,sp,-24
80000704:	24420000 	addiu	v0,v0,0
80000708:	10400006 	beqz	v0,80000724 <frame_dummy+0x28>
8000070c:	afbf0014 	sw	ra,20(sp)
80000710:	3c048000 	lui	a0,0x8000
80000714:	3c058000 	lui	a1,0x8000
80000718:	24842578 	addiu	a0,a0,9592
8000071c:	0c000000 	jal	80000000 <__app_start>
80000720:	24a52f10 	addiu	a1,a1,12048
80000724:	3c048000 	lui	a0,0x8000
80000728:	2484257c 	addiu	a0,a0,9596
8000072c:	8c820000 	lw	v0,0(a0)
80000730:	10400008 	beqz	v0,80000754 <frame_dummy+0x58>
80000734:	8fbf0014 	lw	ra,20(sp)
80000738:	3c020000 	lui	v0,0x0
8000073c:	24420000 	addiu	v0,v0,0
80000740:	10400004 	beqz	v0,80000754 <frame_dummy+0x58>
80000744:	00000000 	nop
80000748:	0040f809 	jalr	v0
8000074c:	00000000 	nop
80000750:	8fbf0014 	lw	ra,20(sp)
80000754:	0800017d 	j	800005f4 <register_tm_clones>
80000758:	27bd0018 	addiu	sp,sp,24

8000075c <memcpy>:
8000075c:	10c00006 	beqz	a2,80000778 <memcpy+0x1c>
80000760:	00863021 	addu	a2,a0,a2
80000764:	24840001 	addiu	a0,a0,1
80000768:	24a50001 	addiu	a1,a1,1
8000076c:	90a2ffff 	lbu	v0,-1(a1)
80000770:	1486fffc 	bne	a0,a2,80000764 <memcpy+0x8>
80000774:	a082ffff 	sb	v0,-1(a0)
80000778:	03e00008 	jr	ra
8000077c:	00000000 	nop

80000780 <memset>:
80000780:	10c00005 	beqz	a2,80000798 <memset+0x18>
80000784:	30a500ff 	andi	a1,a1,0xff
80000788:	00863021 	addu	a2,a0,a2
8000078c:	24840001 	addiu	a0,a0,1
80000790:	1486fffe 	bne	a0,a2,8000078c <memset+0xc>
80000794:	a085ffff 	sb	a1,-1(a0)
80000798:	03e00008 	jr	ra
8000079c:	00000000 	nop

800007a0 <bzero>:
800007a0:	10a00004 	beqz	a1,800007b4 <bzero+0x14>
800007a4:	00852821 	addu	a1,a0,a1
800007a8:	24840001 	addiu	a0,a0,1
800007ac:	1485fffe 	bne	a0,a1,800007a8 <bzero+0x8>
800007b0:	a080ffff 	sb	zero,-1(a0)
800007b4:	03e00008 	jr	ra
800007b8:	00000000 	nop

800007bc <pmm_alloc_page>:
800007bc:	8f828010 	lw	v0,-32752(gp)
800007c0:	2403ffff 	li	v1,-1
800007c4:	1043000b 	beq	v0,v1,800007f4 <pmm_alloc_page+0x38>
800007c8:	2443ffff 	addiu	v1,v0,-1
800007cc:	af838010 	sw	v1,-32752(gp)
800007d0:	00021080 	sll	v0,v0,0x2
800007d4:	3c038000 	lui	v1,0x8000
800007d8:	24632f28 	addiu	v1,v1,12072
800007dc:	00431021 	addu	v0,v0,v1
800007e0:	8c420000 	lw	v0,0(v0)
800007e4:	8f838014 	lw	v1,-32748(gp)
800007e8:	2463ffff 	addiu	v1,v1,-1
800007ec:	03e00008 	jr	ra
800007f0:	af838014 	sw	v1,-32748(gp)
800007f4:	03e00008 	jr	ra
800007f8:	00001025 	move	v0,zero

800007fc <pmm_free_page>:
800007fc:	3c02000f 	lui	v0,0xf
80000800:	3442fffc 	ori	v0,v0,0xfffc
80000804:	8f838010 	lw	v1,-32752(gp)
80000808:	1462000b 	bne	v1,v0,80000838 <pmm_free_page+0x3c>
8000080c:	3c02000f 	lui	v0,0xf
80000810:	3442fffd 	ori	v0,v0,0xfffd
80000814:	af828010 	sw	v0,-32752(gp)
80000818:	3c030040 	lui	v1,0x40
8000081c:	3c028000 	lui	v0,0x8000
80000820:	24422f28 	addiu	v0,v0,12072
80000824:	00621021 	addu	v0,v1,v0
80000828:	ac44fff4 	sw	a0,-12(v0)
8000082c:	8f828014 	lw	v0,-32748(gp)
80000830:	24420001 	addiu	v0,v0,1
80000834:	af828014 	sw	v0,-32748(gp)
80000838:	03e00008 	jr	ra
8000083c:	00000000 	nop

80000840 <pmm_init>:
80000840:	27bdffe0 	addiu	sp,sp,-32
80000844:	afbf001c 	sw	ra,28(sp)
80000848:	afb10018 	sw	s1,24(sp)
8000084c:	afb00014 	sw	s0,20(sp)
80000850:	2402ffff 	li	v0,-1
80000854:	af828014 	sw	v0,-32748(gp)
80000858:	af828010 	sw	v0,-32752(gp)
8000085c:	3c108004 	lui	s0,0x8004
80000860:	26103000 	addiu	s0,s0,12288
80000864:	3c118003 	lui	s1,0x8003
80000868:	3631f000 	ori	s1,s1,0xf000
8000086c:	0c0001ff 	jal	800007fc <pmm_free_page>
80000870:	02002025 	move	a0,s0
80000874:	26101000 	addiu	s0,s0,4096
80000878:	8f828014 	lw	v0,-32748(gp)
8000087c:	24420001 	addiu	v0,v0,1
80000880:	1611fffa 	bne	s0,s1,8000086c <pmm_init+0x2c>
80000884:	af828014 	sw	v0,-32748(gp)
80000888:	8fbf001c 	lw	ra,28(sp)
8000088c:	8fb10018 	lw	s1,24(sp)
80000890:	8fb00014 	lw	s0,20(sp)
80000894:	03e00008 	jr	ra
80000898:	27bd0020 	addiu	sp,sp,32

8000089c <free_pages_count>:
8000089c:	03e00008 	jr	ra
800008a0:	8f828014 	lw	v0,-32748(gp)

800008a4 <vmm_init>:
800008a4:	3c028004 	lui	v0,0x8004
800008a8:	24421000 	addiu	v0,v0,4096
800008ac:	af828018 	sw	v0,-32744(gp)
800008b0:	00001825 	move	v1,zero
800008b4:	3c06000f 	lui	a2,0xf
800008b8:	34c6fffc 	ori	a2,a2,0xfffc
800008bc:	24080030 	li	t0,48
800008c0:	00004825 	move	t1,zero
800008c4:	3c058005 	lui	a1,0x8005
800008c8:	24a51000 	addiu	a1,a1,4096
800008cc:	0066202b 	sltu	a0,v1,a2
800008d0:	50800006 	beqzl	a0,800008ec <vmm_init+0x48>
800008d4:	ac480000 	sw	t0,0(v0)
800008d8:	8c440000 	lw	a0,0(v0)
800008dc:	7c042904 	ins	a0,zero,0x4,0x2
800008e0:	ac440000 	sw	a0,0(v0)
800008e4:	10000002 	b	800008f0 <vmm_init+0x4c>
800008e8:	ac400004 	sw	zero,4(v0)
800008ec:	ac490004 	sw	t1,4(v0)
800008f0:	8f828018 	lw	v0,-32744(gp)
800008f4:	24420008 	addiu	v0,v0,8
800008f8:	af828018 	sw	v0,-32744(gp)
800008fc:	0045202b 	sltu	a0,v0,a1
80000900:	1480fff2 	bnez	a0,800008cc <vmm_init+0x28>
80000904:	24630001 	addiu	v1,v1,1
80000908:	3c048040 	lui	a0,0x8040
8000090c:	a4802fc8 	sh	zero,12232(a0)
80000910:	3c038040 	lui	v1,0x8040
80000914:	3c021000 	lui	v0,0x1000
80000918:	ac622f54 	sw	v0,12116(v1)
8000091c:	3c028040 	lui	v0,0x8040
80000920:	24050400 	li	a1,1024
80000924:	a4452f18 	sh	a1,12056(v0)
80000928:	24842fc8 	addiu	a0,a0,12232
8000092c:	a4850002 	sh	a1,2(a0)
80000930:	24632f54 	addiu	v1,v1,12116
80000934:	3c050800 	lui	a1,0x800
80000938:	ac650004 	sw	a1,4(v1)
8000093c:	24422f18 	addiu	v0,v0,12056
80000940:	24050200 	li	a1,512
80000944:	a4450002 	sh	a1,2(v0)
80000948:	24050600 	li	a1,1536
8000094c:	a4850004 	sh	a1,4(a0)
80000950:	3c050400 	lui	a1,0x400
80000954:	ac650008 	sw	a1,8(v1)
80000958:	24050100 	li	a1,256
8000095c:	a4450004 	sh	a1,4(v0)
80000960:	24060700 	li	a2,1792
80000964:	a4860006 	sh	a2,6(a0)
80000968:	3c060200 	lui	a2,0x200
8000096c:	ac66000c 	sw	a2,12(v1)
80000970:	a4450006 	sh	a1,6(v0)
80000974:	24060800 	li	a2,2048
80000978:	a4860008 	sh	a2,8(a0)
8000097c:	3c040100 	lui	a0,0x100
80000980:	ac640010 	sw	a0,16(v1)
80000984:	a4450008 	sh	a1,8(v0)
80000988:	3c068040 	lui	a2,0x8040
8000098c:	24c62fd2 	addiu	a2,a2,12242
80000990:	3c058040 	lui	a1,0x8040
80000994:	24a52f68 	addiu	a1,a1,12136
80000998:	3c048040 	lui	a0,0x8040
8000099c:	24842f22 	addiu	a0,a0,12066
800009a0:	3c030080 	lui	v1,0x80
800009a4:	24020900 	li	v0,2304
800009a8:	24080080 	li	t0,128
800009ac:	24070d00 	li	a3,3328
800009b0:	a4c20000 	sh	v0,0(a2)
800009b4:	24420080 	addiu	v0,v0,128
800009b8:	aca30000 	sw	v1,0(a1)
800009bc:	00031843 	sra	v1,v1,0x1
800009c0:	a4880000 	sh	t0,0(a0)
800009c4:	24c60002 	addiu	a2,a2,2
800009c8:	24a50004 	addiu	a1,a1,4
800009cc:	1447fff8 	bne	v0,a3,800009b0 <vmm_init+0x10c>
800009d0:	24840002 	addiu	a0,a0,2
800009d4:	3c068040 	lui	a2,0x8040
800009d8:	24c62fe2 	addiu	a2,a2,12258
800009dc:	3c058040 	lui	a1,0x8040
800009e0:	24a52f88 	addiu	a1,a1,12168
800009e4:	3c048040 	lui	a0,0x8040
800009e8:	24842f32 	addiu	a0,a0,12082
800009ec:	24080040 	li	t0,64
800009f0:	24070f00 	li	a3,3840
800009f4:	a4c20000 	sh	v0,0(a2)
800009f8:	24420040 	addiu	v0,v0,64
800009fc:	aca30000 	sw	v1,0(a1)
80000a00:	00031843 	sra	v1,v1,0x1
80000a04:	a4880000 	sh	t0,0(a0)
80000a08:	24c60002 	addiu	a2,a2,2
80000a0c:	24a50004 	addiu	a1,a1,4
80000a10:	1447fff8 	bne	v0,a3,800009f4 <vmm_init+0x150>
80000a14:	24840002 	addiu	a0,a0,2
80000a18:	3c068040 	lui	a2,0x8040
80000a1c:	24c62ff2 	addiu	a2,a2,12274
80000a20:	3c058040 	lui	a1,0x8040
80000a24:	24a52fa8 	addiu	a1,a1,12200
80000a28:	3c048040 	lui	a0,0x8040
80000a2c:	24842f42 	addiu	a0,a0,12098
80000a30:	24080020 	li	t0,32
80000a34:	24071000 	li	a3,4096
80000a38:	a4c20000 	sh	v0,0(a2)
80000a3c:	24420020 	addiu	v0,v0,32
80000a40:	aca30000 	sw	v1,0(a1)
80000a44:	00031843 	sra	v1,v1,0x1
80000a48:	a4880000 	sh	t0,0(a0)
80000a4c:	24c60002 	addiu	a2,a2,2
80000a50:	24a50004 	addiu	a1,a1,4
80000a54:	1447fff8 	bne	v0,a3,80000a38 <vmm_init+0x194>
80000a58:	24840002 	addiu	a0,a0,2
80000a5c:	03e00008 	jr	ra
80000a60:	00000000 	nop

80000a64 <get_ppn_from_page>:
80000a64:	03e00008 	jr	ra
80000a68:	00041302 	srl	v0,a0,0xc

80000a6c <get_ppn_from_pte>:
80000a6c:	03e00008 	jr	ra
80000a70:	00041682 	srl	v0,a0,0x1a

80000a74 <get_vpn_from_pte>:
80000a74:	3c0203ff 	lui	v0,0x3ff
80000a78:	3442ffc0 	ori	v0,v0,0xffc0
80000a7c:	00821024 	and	v0,a0,v0
80000a80:	03e00008 	jr	ra
80000a84:	00021182 	srl	v0,v0,0x6

80000a88 <get_pid_from_pte>:
80000a88:	03e00008 	jr	ra
80000a8c:	3082000f 	andi	v0,a0,0xf

80000a90 <get_pte_by_page_addr>:
80000a90:	00042302 	srl	a0,a0,0xc
80000a94:	3c028004 	lui	v0,0x8004
80000a98:	24431000 	addiu	v1,v0,4096
80000a9c:	af838018 	sw	v1,-32744(gp)
80000aa0:	8c431000 	lw	v1,4096(v0)
80000aa4:	3c0203ff 	lui	v0,0x3ff
80000aa8:	3442ffc0 	ori	v0,v0,0xffc0
80000aac:	00621024 	and	v0,v1,v0
80000ab0:	00021182 	srl	v0,v0,0x6
80000ab4:	14820010 	bne	a0,v0,80000af8 <get_pte_by_page_addr+0x68>
80000ab8:	3c028004 	lui	v0,0x8004
80000abc:	10000008 	b	80000ae0 <get_pte_by_page_addr+0x50>
80000ac0:	00000000 	nop
80000ac4:	8c430000 	lw	v1,0(v0)
80000ac8:	00661824 	and	v1,v1,a2
80000acc:	00031982 	srl	v1,v1,0x6
80000ad0:	54830005 	bnel	a0,v1,80000ae8 <get_pte_by_page_addr+0x58>
80000ad4:	24420008 	addiu	v0,v0,8
80000ad8:	03e00008 	jr	ra
80000adc:	00000000 	nop
80000ae0:	03e00008 	jr	ra
80000ae4:	24421000 	addiu	v0,v0,4096
80000ae8:	1445fff6 	bne	v0,a1,80000ac4 <get_pte_by_page_addr+0x34>
80000aec:	af828018 	sw	v0,-32744(gp)
80000af0:	03e00008 	jr	ra
80000af4:	00001025 	move	v0,zero
80000af8:	24421008 	addiu	v0,v0,4104
80000afc:	af828018 	sw	v0,-32744(gp)
80000b00:	3c0603ff 	lui	a2,0x3ff
80000b04:	34c6ffc0 	ori	a2,a2,0xffc0
80000b08:	3c058005 	lui	a1,0x8005
80000b0c:	1000ffed 	b	80000ac4 <get_pte_by_page_addr+0x34>
80000b10:	24a51000 	addiu	a1,a1,4096

80000b14 <get_vpn_from_page_addr>:
80000b14:	03e00008 	jr	ra
80000b18:	00041302 	srl	v0,a0,0xc

80000b1c <get_ppn_by_vpn>:
80000b1c:	3c028004 	lui	v0,0x8004
80000b20:	24431000 	addiu	v1,v0,4096
80000b24:	af838018 	sw	v1,-32744(gp)
80000b28:	8c421000 	lw	v0,4096(v0)
80000b2c:	3c0303ff 	lui	v1,0x3ff
80000b30:	3463ffc0 	ori	v1,v1,0xffc0
80000b34:	00431824 	and	v1,v0,v1
80000b38:	00031982 	srl	v1,v1,0x6
80000b3c:	1483000f 	bne	a0,v1,80000b7c <get_ppn_by_vpn+0x60>
80000b40:	3c038004 	lui	v1,0x8004
80000b44:	03e00008 	jr	ra
80000b48:	00021682 	srl	v0,v0,0x1a
80000b4c:	8c620000 	lw	v0,0(v1)
80000b50:	00472824 	and	a1,v0,a3
80000b54:	00052982 	srl	a1,a1,0x6
80000b58:	14850003 	bne	a0,a1,80000b68 <get_ppn_by_vpn+0x4c>
80000b5c:	24630008 	addiu	v1,v1,8
80000b60:	03e00008 	jr	ra
80000b64:	00021682 	srl	v0,v0,0x1a
80000b68:	1466fff8 	bne	v1,a2,80000b4c <get_ppn_by_vpn+0x30>
80000b6c:	af838018 	sw	v1,-32744(gp)
80000b70:	00001025 	move	v0,zero
80000b74:	03e00008 	jr	ra
80000b78:	00000000 	nop
80000b7c:	24631008 	addiu	v1,v1,4104
80000b80:	af838018 	sw	v1,-32744(gp)
80000b84:	3c0703ff 	lui	a3,0x3ff
80000b88:	34e7ffc0 	ori	a3,a3,0xffc0
80000b8c:	3c068005 	lui	a2,0x8005
80000b90:	1000ffee 	b	80000b4c <get_ppn_by_vpn+0x30>
80000b94:	24c61000 	addiu	a2,a2,4096

80000b98 <get_phy_addr_by_vir_addr>:
80000b98:	27bdffe8 	addiu	sp,sp,-24
80000b9c:	afbf0014 	sw	ra,20(sp)
80000ba0:	afb00010 	sw	s0,16(sp)
80000ba4:	00808025 	move	s0,a0
80000ba8:	0c0002c7 	jal	80000b1c <get_ppn_by_vpn>
80000bac:	00042302 	srl	a0,a0,0xc
80000bb0:	00021300 	sll	v0,v0,0xc
80000bb4:	7c105804 	ins	s0,zero,0x0,0xc
80000bb8:	00501025 	or	v0,v0,s0
80000bbc:	8fbf0014 	lw	ra,20(sp)
80000bc0:	8fb00010 	lw	s0,16(sp)
80000bc4:	03e00008 	jr	ra
80000bc8:	27bd0018 	addiu	sp,sp,24

80000bcc <set_page_status>:
80000bcc:	2ca20003 	sltiu	v0,a1,3
80000bd0:	1040001b 	beqz	v0,80000c40 <set_page_status+0x74>
80000bd4:	3c028004 	lui	v0,0x8004
80000bd8:	8c431000 	lw	v1,4096(v0)
80000bdc:	8c481004 	lw	t0,4100(v0)
80000be0:	00031682 	srl	v0,v1,0x1a
80000be4:	1082000a 	beq	a0,v0,80000c10 <set_page_status+0x44>
80000be8:	3c028004 	lui	v0,0x8004
80000bec:	24421008 	addiu	v0,v0,4104
80000bf0:	3c078004 	lui	a3,0x8004
80000bf4:	34e79000 	ori	a3,a3,0x9000
80000bf8:	8c430000 	lw	v1,0(v0)
80000bfc:	00033682 	srl	a2,v1,0x1a
80000c00:	1486000c 	bne	a0,a2,80000c34 <set_page_status+0x68>
80000c04:	8c480004 	lw	t0,4(v0)
80000c08:	10000003 	b	80000c18 <set_page_status+0x4c>
80000c0c:	7c032904 	ins	v1,zero,0x4,0x2
80000c10:	24421000 	addiu	v0,v0,4096
80000c14:	7c032904 	ins	v1,zero,0x4,0x2
80000c18:	00052900 	sll	a1,a1,0x4
80000c1c:	000527c3 	sra	a0,a1,0x1f
80000c20:	00651825 	or	v1,v1,a1
80000c24:	ac430000 	sw	v1,0(v0)
80000c28:	01044025 	or	t0,t0,a0
80000c2c:	03e00008 	jr	ra
80000c30:	ac480004 	sw	t0,4(v0)
80000c34:	24420008 	addiu	v0,v0,8
80000c38:	5447fff0 	bnel	v0,a3,80000bfc <set_page_status+0x30>
80000c3c:	8c430000 	lw	v1,0(v0)
80000c40:	03e00008 	jr	ra
80000c44:	00000000 	nop

80000c48 <set_page_unallocated>:
80000c48:	27bdffe8 	addiu	sp,sp,-24
80000c4c:	afbf0014 	sw	ra,20(sp)
80000c50:	0c0002f3 	jal	80000bcc <set_page_status>
80000c54:	00002825 	move	a1,zero
80000c58:	8fbf0014 	lw	ra,20(sp)
80000c5c:	03e00008 	jr	ra
80000c60:	27bd0018 	addiu	sp,sp,24

80000c64 <set_page_allocated>:
80000c64:	27bdffe8 	addiu	sp,sp,-24
80000c68:	afbf0014 	sw	ra,20(sp)
80000c6c:	0c0002f3 	jal	80000bcc <set_page_status>
80000c70:	24050001 	li	a1,1
80000c74:	8fbf0014 	lw	ra,20(sp)
80000c78:	03e00008 	jr	ra
80000c7c:	27bd0018 	addiu	sp,sp,24

80000c80 <set_page_reserved>:
80000c80:	27bdffe8 	addiu	sp,sp,-24
80000c84:	afbf0014 	sw	ra,20(sp)
80000c88:	0c0002f3 	jal	80000bcc <set_page_status>
80000c8c:	24050002 	li	a1,2
80000c90:	8fbf0014 	lw	ra,20(sp)
80000c94:	03e00008 	jr	ra
80000c98:	27bd0018 	addiu	sp,sp,24

80000c9c <judge_is_split_block>:
80000c9c:	03e00008 	jr	ra
80000ca0:	24020001 	li	v0,1

80000ca4 <get_suitable_block_from_pte>:
80000ca4:	3c048040 	lui	a0,0x8040
80000ca8:	24842f50 	addiu	a0,a0,12112
80000cac:	3c078040 	lui	a3,0x8040
80000cb0:	24e72fc4 	addiu	a3,a3,12228
80000cb4:	2402001c 	li	v0,28
80000cb8:	10000004 	b	80000ccc <get_suitable_block_from_pte+0x28>
80000cbc:	2408ffff 	li	t0,-1
80000cc0:	2484fffe 	addiu	a0,a0,-2
80000cc4:	1048000b 	beq	v0,t0,80000cf4 <get_suitable_block_from_pte+0x50>
80000cc8:	24e7fffc 	addiu	a3,a3,-4
80000ccc:	94830000 	lhu	v1,0(a0)
80000cd0:	0066182b 	sltu	v1,v1,a2
80000cd4:	5460fffa 	bnezl	v1,80000cc0 <get_suitable_block_from_pte+0x1c>
80000cd8:	2442ffff 	addiu	v0,v0,-1
80000cdc:	8ce30000 	lw	v1,0(a3)
80000ce0:	00a31824 	and	v1,a1,v1
80000ce4:	5460fff6 	bnezl	v1,80000cc0 <get_suitable_block_from_pte+0x1c>
80000ce8:	2442ffff 	addiu	v0,v0,-1
80000cec:	03e00008 	jr	ra
80000cf0:	00000000 	nop
80000cf4:	03e00008 	jr	ra
80000cf8:	2402ffff 	li	v0,-1

80000cfc <up_round>:
80000cfc:	2c830021 	sltiu	v1,a0,33
80000d00:	1460000e 	bnez	v1,80000d3c <up_round+0x40>
80000d04:	24020020 	li	v0,32
80000d08:	2c830041 	sltiu	v1,a0,65
80000d0c:	1460000b 	bnez	v1,80000d3c <up_round+0x40>
80000d10:	24020040 	li	v0,64
80000d14:	2c830081 	sltiu	v1,a0,129
80000d18:	14600008 	bnez	v1,80000d3c <up_round+0x40>
80000d1c:	24020080 	li	v0,128
80000d20:	2c830101 	sltiu	v1,a0,257
80000d24:	14600005 	bnez	v1,80000d3c <up_round+0x40>
80000d28:	24020100 	li	v0,256
80000d2c:	2c840201 	sltiu	a0,a0,513
80000d30:	24020400 	li	v0,1024
80000d34:	24030200 	li	v1,512
80000d38:	0064100b 	movn	v0,v1,a0
80000d3c:	03e00008 	jr	ra
80000d40:	00000000 	nop

80000d44 <alloc_block>:
80000d44:	30840fff 	andi	a0,a0,0xfff
80000d48:	3c028040 	lui	v0,0x8040
80000d4c:	94422fc8 	lhu	v0,12232(v0)
80000d50:	1044000c 	beq	v0,a0,80000d84 <alloc_block+0x40>
80000d54:	3c038040 	lui	v1,0x8040
80000d58:	24632fca 	addiu	v1,v1,12234
80000d5c:	24020001 	li	v0,1
80000d60:	2406001d 	li	a2,29
80000d64:	94650000 	lhu	a1,0(v1)
80000d68:	50a40008 	beql	a1,a0,80000d8c <alloc_block+0x48>
80000d6c:	8f848018 	lw	a0,-32744(gp)
80000d70:	24420001 	addiu	v0,v0,1
80000d74:	1446fffb 	bne	v0,a2,80000d64 <alloc_block+0x20>
80000d78:	24630002 	addiu	v1,v1,2
80000d7c:	10000003 	b	80000d8c <alloc_block+0x48>
80000d80:	8f848018 	lw	a0,-32744(gp)
80000d84:	00001025 	move	v0,zero
80000d88:	8f848018 	lw	a0,-32744(gp)
80000d8c:	00021080 	sll	v0,v0,0x2
80000d90:	3c038040 	lui	v1,0x8040
80000d94:	24632f54 	addiu	v1,v1,12116
80000d98:	00431021 	addu	v0,v0,v1
80000d9c:	8c430000 	lw	v1,0(v0)
80000da0:	8c820004 	lw	v0,4(a0)
80000da4:	00431025 	or	v0,v0,v1
80000da8:	03e00008 	jr	ra
80000dac:	ac820004 	sw	v0,4(a0)

80000db0 <free_block>:
80000db0:	27bdffe8 	addiu	sp,sp,-24
80000db4:	afbf0014 	sw	ra,20(sp)
80000db8:	afb00010 	sw	s0,16(sp)
80000dbc:	00802825 	move	a1,a0
80000dc0:	30a50fff 	andi	a1,a1,0xfff
80000dc4:	3c028040 	lui	v0,0x8040
80000dc8:	94422fc8 	lhu	v0,12232(v0)
80000dcc:	1045000d 	beq	v0,a1,80000e04 <free_block+0x54>
80000dd0:	7c045804 	ins	a0,zero,0x0,0xc
80000dd4:	3c028040 	lui	v0,0x8040
80000dd8:	24422fca 	addiu	v0,v0,12234
80000ddc:	24100001 	li	s0,1
80000de0:	2406001d 	li	a2,29
80000de4:	94430000 	lhu	v1,0(v0)
80000de8:	10650007 	beq	v1,a1,80000e08 <free_block+0x58>
80000dec:	00000000 	nop
80000df0:	26100001 	addiu	s0,s0,1
80000df4:	1606fffb 	bne	s0,a2,80000de4 <free_block+0x34>
80000df8:	24420002 	addiu	v0,v0,2
80000dfc:	10000002 	b	80000e08 <free_block+0x58>
80000e00:	00000000 	nop
80000e04:	00008025 	move	s0,zero
80000e08:	0c0002a4 	jal	80000a90 <get_pte_by_page_addr>
80000e0c:	00108080 	sll	s0,s0,0x2
80000e10:	af828018 	sw	v0,-32744(gp)
80000e14:	3c038040 	lui	v1,0x8040
80000e18:	24632f54 	addiu	v1,v1,12116
80000e1c:	02038021 	addu	s0,s0,v1
80000e20:	8e030000 	lw	v1,0(s0)
80000e24:	00032027 	nor	a0,zero,v1
80000e28:	8c430004 	lw	v1,4(v0)
80000e2c:	00641824 	and	v1,v1,a0
80000e30:	ac430004 	sw	v1,4(v0)
80000e34:	8fbf0014 	lw	ra,20(sp)
80000e38:	8fb00010 	lw	s0,16(sp)
80000e3c:	03e00008 	jr	ra
80000e40:	27bd0018 	addiu	sp,sp,24

80000e44 <find_block>:
80000e44:	27bdffe8 	addiu	sp,sp,-24
80000e48:	afbf0014 	sw	ra,20(sp)
80000e4c:	afb00010 	sw	s0,16(sp)
80000e50:	3c038004 	lui	v1,0x8004
80000e54:	24621000 	addiu	v0,v1,4096
80000e58:	af828018 	sw	v0,-32744(gp)
80000e5c:	8c701000 	lw	s0,4096(v1)
80000e60:	3202000f 	andi	v0,s0,0xf
80000e64:	14820020 	bne	a0,v0,80000ee8 <find_block+0xa4>
80000e68:	8c681004 	lw	t0,4100(v1)
80000e6c:	10000006 	b	80000e88 <find_block+0x44>
80000e70:	00a03025 	move	a2,a1
80000e74:	8c500000 	lw	s0,0(v0)
80000e78:	3203000f 	andi	v1,s0,0xf
80000e7c:	14640013 	bne	v1,a0,80000ecc <find_block+0x88>
80000e80:	8c480004 	lw	t0,4(v0)
80000e84:	00a03025 	move	a2,a1
80000e88:	02002025 	move	a0,s0
80000e8c:	0c000329 	jal	80000ca4 <get_suitable_block_from_pte>
80000e90:	01002825 	move	a1,t0
80000e94:	2403ffff 	li	v1,-1
80000e98:	10430011 	beq	v0,v1,80000ee0 <find_block+0x9c>
80000e9c:	3c0303ff 	lui	v1,0x3ff
80000ea0:	3463ffc0 	ori	v1,v1,0xffc0
80000ea4:	02038024 	and	s0,s0,v1
80000ea8:	00108182 	srl	s0,s0,0x6
80000eac:	00021040 	sll	v0,v0,0x1
80000eb0:	3c038040 	lui	v1,0x8040
80000eb4:	24632fc8 	addiu	v1,v1,12232
80000eb8:	00431021 	addu	v0,v0,v1
80000ebc:	94420000 	lhu	v0,0(v0)
80000ec0:	2442000c 	addiu	v0,v0,12
80000ec4:	1000000e 	b	80000f00 <find_block+0xbc>
80000ec8:	00501004 	sllv	v0,s0,v0
80000ecc:	24420008 	addiu	v0,v0,8
80000ed0:	1447ffe8 	bne	v0,a3,80000e74 <find_block+0x30>
80000ed4:	af828018 	sw	v0,-32744(gp)
80000ed8:	1000000a 	b	80000f04 <find_block+0xc0>
80000edc:	8fbf0014 	lw	ra,20(sp)
80000ee0:	10000007 	b	80000f00 <find_block+0xbc>
80000ee4:	00001025 	move	v0,zero
80000ee8:	3c028004 	lui	v0,0x8004
80000eec:	24421008 	addiu	v0,v0,4104
80000ef0:	af828018 	sw	v0,-32744(gp)
80000ef4:	3c078005 	lui	a3,0x8005
80000ef8:	1000ffde 	b	80000e74 <find_block+0x30>
80000efc:	24e71000 	addiu	a3,a3,4096
80000f00:	8fbf0014 	lw	ra,20(sp)
80000f04:	8fb00010 	lw	s0,16(sp)
80000f08:	03e00008 	jr	ra
80000f0c:	27bd0018 	addiu	sp,sp,24

80000f10 <vmm_alloc_page>:
80000f10:	8f828004 	lw	v0,-32764(gp)
80000f14:	00042302 	srl	a0,a0,0xc
80000f18:	3c038004 	lui	v1,0x8004
80000f1c:	24671000 	addiu	a3,v1,4096
80000f20:	af878018 	sw	a3,-32744(gp)
80000f24:	8c631000 	lw	v1,4096(v1)
80000f28:	00031e82 	srl	v1,v1,0x1a
80000f2c:	1483002d 	bne	a0,v1,80000fe4 <vmm_alloc_page+0xd4>
80000f30:	3c038004 	lui	v1,0x8004
80000f34:	10000007 	b	80000f54 <vmm_alloc_page+0x44>
80000f38:	24631000 	addiu	v1,v1,4096
80000f3c:	8c670000 	lw	a3,0(v1)
80000f40:	00073e82 	srl	a3,a3,0x1a
80000f44:	54870023 	bnel	a0,a3,80000fd4 <vmm_alloc_page+0xc4>
80000f48:	24630008 	addiu	v1,v1,8
80000f4c:	10000002 	b	80000f58 <vmm_alloc_page+0x48>
80000f50:	00004025 	move	t0,zero
80000f54:	00004025 	move	t0,zero
80000f58:	00004825 	move	t1,zero
80000f5c:	ac680000 	sw	t0,0(v1)
80000f60:	ac690004 	sw	t1,4(v1)
80000f64:	8f878018 	lw	a3,-32744(gp)
80000f68:	00042680 	sll	a0,a0,0x1a
80000f6c:	8ce30000 	lw	v1,0(a3)
80000f70:	00642025 	or	a0,v1,a0
80000f74:	ace40000 	sw	a0,0(a3)
80000f78:	8f878018 	lw	a3,-32744(gp)
80000f7c:	00021b02 	srl	v1,v0,0xc
80000f80:	00032180 	sll	a0,v1,0x6
80000f84:	8ce30000 	lw	v1,0(a3)
80000f88:	00641825 	or	v1,v1,a0
80000f8c:	ace30000 	sw	v1,0(a3)
80000f90:	8f848018 	lw	a0,-32744(gp)
80000f94:	8c830000 	lw	v1,0(a0)
80000f98:	34630010 	ori	v1,v1,0x10
80000f9c:	ac830000 	sw	v1,0(a0)
80000fa0:	8f848018 	lw	a0,-32744(gp)
80000fa4:	30a5000f 	andi	a1,a1,0xf
80000fa8:	8c830000 	lw	v1,0(a0)
80000fac:	00652825 	or	a1,v1,a1
80000fb0:	24030001 	li	v1,1
80000fb4:	14c30010 	bne	a2,v1,80000ff8 <vmm_alloc_page+0xe8>
80000fb8:	ac850000 	sw	a1,0(a0)
80000fbc:	8f848018 	lw	a0,-32744(gp)
80000fc0:	8c830004 	lw	v1,4(a0)
80000fc4:	3c058000 	lui	a1,0x8000
80000fc8:	00651825 	or	v1,v1,a1
80000fcc:	1000000a 	b	80000ff8 <vmm_alloc_page+0xe8>
80000fd0:	ac830004 	sw	v1,4(a0)
80000fd4:	1468ffd9 	bne	v1,t0,80000f3c <vmm_alloc_page+0x2c>
80000fd8:	af838018 	sw	v1,-32744(gp)
80000fdc:	10000007 	b	80000ffc <vmm_alloc_page+0xec>
80000fe0:	8f838004 	lw	v1,-32764(gp)
80000fe4:	24631008 	addiu	v1,v1,4104
80000fe8:	af838018 	sw	v1,-32744(gp)
80000fec:	3c088005 	lui	t0,0x8005
80000ff0:	1000ffd2 	b	80000f3c <vmm_alloc_page+0x2c>
80000ff4:	25081000 	addiu	t0,t0,4096
80000ff8:	8f838004 	lw	v1,-32764(gp)
80000ffc:	24631000 	addiu	v1,v1,4096
80001000:	03e00008 	jr	ra
80001004:	af838004 	sw	v1,-32764(gp)

80001008 <vmm_free_page>:
80001008:	27bdffe8 	addiu	sp,sp,-24
8000100c:	afbf0014 	sw	ra,20(sp)
80001010:	0c000312 	jal	80000c48 <set_page_unallocated>
80001014:	00042302 	srl	a0,a0,0xc
80001018:	8fbf0014 	lw	ra,20(sp)
8000101c:	03e00008 	jr	ra
80001020:	27bd0018 	addiu	sp,sp,24

80001024 <addr_to_ptr>:
80001024:	03e00008 	jr	ra
80001028:	00801025 	move	v0,a0

8000102c <mm_init>:
8000102c:	3c028040 	lui	v0,0x8040
80001030:	24423044 	addiu	v0,v0,12356
80001034:	3c038040 	lui	v1,0x8040
80001038:	24633004 	addiu	v1,v1,12292
8000103c:	3c048040 	lui	a0,0x8040
80001040:	24843144 	addiu	a0,a0,12612
80001044:	ac400000 	sw	zero,0(v0)
80001048:	a0600000 	sb	zero,0(v1)
8000104c:	24420004 	addiu	v0,v0,4
80001050:	1444fffc 	bne	v0,a0,80001044 <mm_init+0x18>
80001054:	24630001 	addiu	v1,v1,1
80001058:	03e00008 	jr	ra
8000105c:	af80801c 	sw	zero,-32740(gp)

80001060 <kmalloc>:
80001060:	27bdffd8 	addiu	sp,sp,-40
80001064:	afbf0024 	sw	ra,36(sp)
80001068:	afb40020 	sw	s4,32(sp)
8000106c:	afb3001c 	sw	s3,28(sp)
80001070:	afb20018 	sw	s2,24(sp)
80001074:	afb10014 	sw	s1,20(sp)
80001078:	afb00010 	sw	s0,16(sp)
8000107c:	00809025 	move	s2,a0
80001080:	2ca20401 	sltiu	v0,a1,1025
80001084:	14400005 	bnez	v0,8000109c <kmalloc+0x3c>
80001088:	00a08025 	move	s0,a1
8000108c:	14a00018 	bnez	a1,800010f0 <kmalloc+0x90>
80001090:	00008825 	move	s1,zero
80001094:	1000003b 	b	80001184 <kmalloc+0x124>
80001098:	00000000 	nop
8000109c:	0c000391 	jal	80000e44 <find_block>
800010a0:	00000000 	nop
800010a4:	14400040 	bnez	v0,800011a8 <kmalloc+0x148>
800010a8:	8fbf0024 	lw	ra,36(sp)
800010ac:	0c000227 	jal	8000089c <free_pages_count>
800010b0:	00000000 	nop
800010b4:	1040003b 	beqz	v0,800011a4 <kmalloc+0x144>
800010b8:	00001025 	move	v0,zero
800010bc:	0c0001ef 	jal	800007bc <pmm_alloc_page>
800010c0:	00000000 	nop
800010c4:	00402025 	move	a0,v0
800010c8:	02402825 	move	a1,s2
800010cc:	0c0003c4 	jal	80000f10 <vmm_alloc_page>
800010d0:	24060001 	li	a2,1
800010d4:	02402025 	move	a0,s2
800010d8:	0c000391 	jal	80000e44 <find_block>
800010dc:	02002825 	move	a1,s0
800010e0:	10400026 	beqz	v0,8000117c <kmalloc+0x11c>
800010e4:	8fbf0024 	lw	ra,36(sp)
800010e8:	10000030 	b	800011ac <kmalloc+0x14c>
800010ec:	8fb40020 	lw	s4,32(sp)
800010f0:	2610f000 	addiu	s0,s0,-4096
800010f4:	1600fffe 	bnez	s0,800010f0 <kmalloc+0x90>
800010f8:	26310001 	addiu	s1,s1,1
800010fc:	0c0001ef 	jal	800007bc <pmm_alloc_page>
80001100:	02209825 	move	s3,s1
80001104:	00402025 	move	a0,v0
80001108:	02402825 	move	a1,s2
8000110c:	0c0003c4 	jal	80000f10 <vmm_alloc_page>
80001110:	00003025 	move	a2,zero
80001114:	0040a025 	move	s4,v0
80001118:	2a220002 	slti	v0,s1,2
8000111c:	14400009 	bnez	v0,80001144 <kmalloc+0xe4>
80001120:	24100001 	li	s0,1
80001124:	0c0001ef 	jal	800007bc <pmm_alloc_page>
80001128:	26100001 	addiu	s0,s0,1
8000112c:	00402025 	move	a0,v0
80001130:	02402825 	move	a1,s2
80001134:	0c0003c4 	jal	80000f10 <vmm_alloc_page>
80001138:	00003025 	move	a2,zero
8000113c:	1613fff9 	bne	s0,s3,80001124 <kmalloc+0xc4>
80001140:	00000000 	nop
80001144:	8f82801c 	lw	v0,-32740(gp)
80001148:	00022080 	sll	a0,v0,0x2
8000114c:	3c038040 	lui	v1,0x8040
80001150:	24633044 	addiu	v1,v1,12356
80001154:	00831821 	addu	v1,a0,v1
80001158:	ac740000 	sw	s4,0(v1)
8000115c:	24430001 	addiu	v1,v0,1
80001160:	af83801c 	sw	v1,-32740(gp)
80001164:	3c038040 	lui	v1,0x8040
80001168:	24633004 	addiu	v1,v1,12292
8000116c:	00431021 	addu	v0,v0,v1
80001170:	a0510000 	sb	s1,0(v0)
80001174:	1000000b 	b	800011a4 <kmalloc+0x144>
80001178:	02801025 	move	v0,s4
8000117c:	10000009 	b	800011a4 <kmalloc+0x144>
80001180:	00001025 	move	v0,zero
80001184:	0c0001ef 	jal	800007bc <pmm_alloc_page>
80001188:	00008825 	move	s1,zero
8000118c:	00402025 	move	a0,v0
80001190:	02402825 	move	a1,s2
80001194:	0c0003c4 	jal	80000f10 <vmm_alloc_page>
80001198:	00003025 	move	a2,zero
8000119c:	1000ffe9 	b	80001144 <kmalloc+0xe4>
800011a0:	0040a025 	move	s4,v0
800011a4:	8fbf0024 	lw	ra,36(sp)
800011a8:	8fb40020 	lw	s4,32(sp)
800011ac:	8fb3001c 	lw	s3,28(sp)
800011b0:	8fb20018 	lw	s2,24(sp)
800011b4:	8fb10014 	lw	s1,20(sp)
800011b8:	8fb00010 	lw	s0,16(sp)
800011bc:	03e00008 	jr	ra
800011c0:	27bd0028 	addiu	sp,sp,40

800011c4 <kfree>:
800011c4:	27bdffd8 	addiu	sp,sp,-40
800011c8:	afbf0024 	sw	ra,36(sp)
800011cc:	afb40020 	sw	s4,32(sp)
800011d0:	afb3001c 	sw	s3,28(sp)
800011d4:	afb20018 	sw	s2,24(sp)
800011d8:	afb10014 	sw	s1,20(sp)
800011dc:	afb00010 	sw	s0,16(sp)
800011e0:	8f85801c 	lw	a1,-32740(gp)
800011e4:	18a0003a 	blez	a1,800012d0 <kfree+0x10c>
800011e8:	3c028040 	lui	v0,0x8040
800011ec:	8c423044 	lw	v0,12356(v0)
800011f0:	14820031 	bne	a0,v0,800012b8 <kfree+0xf4>
800011f4:	00808825 	move	s1,a0
800011f8:	10000006 	b	80001214 <kfree+0x50>
800011fc:	00008025 	move	s0,zero
80001200:	8c43fffc 	lw	v1,-4(v0)
80001204:	56230030 	bnel	s1,v1,800012c8 <kfree+0x104>
80001208:	26100001 	addiu	s0,s0,1
8000120c:	10000002 	b	80001218 <kfree+0x54>
80001210:	3c028040 	lui	v0,0x8040
80001214:	3c028040 	lui	v0,0x8040
80001218:	24423004 	addiu	v0,v0,12292
8000121c:	02021021 	addu	v0,s0,v0
80001220:	90540000 	lbu	s4,0(v0)
80001224:	1a80000d 	blez	s4,8000125c <kfree+0x98>
80001228:	26040001 	addiu	a0,s0,1
8000122c:	00009025 	move	s2,zero
80001230:	0c0002e6 	jal	80000b98 <get_phy_addr_by_vir_addr>
80001234:	02202025 	move	a0,s1
80001238:	00409825 	move	s3,v0
8000123c:	0c0001ff 	jal	800007fc <pmm_free_page>
80001240:	00402025 	move	a0,v0
80001244:	0c000402 	jal	80001008 <vmm_free_page>
80001248:	02602025 	move	a0,s3
8000124c:	26520001 	addiu	s2,s2,1
80001250:	1692fff7 	bne	s4,s2,80001230 <kfree+0x6c>
80001254:	26311000 	addiu	s1,s1,4096
80001258:	26040001 	addiu	a0,s0,1
8000125c:	8f86801c 	lw	a2,-32740(gp)
80001260:	0086102a 	slt	v0,a0,a2
80001264:	50400012 	beqzl	v0,800012b0 <kfree+0xec>
80001268:	24c6ffff 	addiu	a2,a2,-1
8000126c:	00041080 	sll	v0,a0,0x2
80001270:	3c038040 	lui	v1,0x8040
80001274:	24633044 	addiu	v1,v1,12356
80001278:	00621821 	addu	v1,v1,v0
8000127c:	3c028040 	lui	v0,0x8040
80001280:	24423004 	addiu	v0,v0,12292
80001284:	00441021 	addu	v0,v0,a0
80001288:	8c650000 	lw	a1,0(v1)
8000128c:	ac65fffc 	sw	a1,-4(v1)
80001290:	90450000 	lbu	a1,0(v0)
80001294:	a045ffff 	sb	a1,-1(v0)
80001298:	24840001 	addiu	a0,a0,1
8000129c:	24630004 	addiu	v1,v1,4
800012a0:	0086282a 	slt	a1,a0,a2
800012a4:	14a0fff8 	bnez	a1,80001288 <kfree+0xc4>
800012a8:	24420001 	addiu	v0,v0,1
800012ac:	24c6ffff 	addiu	a2,a2,-1
800012b0:	10000009 	b	800012d8 <kfree+0x114>
800012b4:	af86801c 	sw	a2,-32740(gp)
800012b8:	3c028040 	lui	v0,0x8040
800012bc:	24423048 	addiu	v0,v0,12360
800012c0:	00008025 	move	s0,zero
800012c4:	26100001 	addiu	s0,s0,1
800012c8:	1605ffcd 	bne	s0,a1,80001200 <kfree+0x3c>
800012cc:	24420004 	addiu	v0,v0,4
800012d0:	0c00036c 	jal	80000db0 <free_block>
800012d4:	00000000 	nop
800012d8:	8fbf0024 	lw	ra,36(sp)
800012dc:	8fb40020 	lw	s4,32(sp)
800012e0:	8fb3001c 	lw	s3,28(sp)
800012e4:	8fb20018 	lw	s2,24(sp)
800012e8:	8fb10014 	lw	s1,20(sp)
800012ec:	8fb00010 	lw	s0,16(sp)
800012f0:	03e00008 	jr	ra
800012f4:	27bd0028 	addiu	sp,sp,40

800012f8 <main>:
800012f8:	03e00008 	jr	ra
800012fc:	00001025 	move	v0,zero

80001300 <__do_global_ctors_aux>:
80001300:	27bdffe0 	addiu	sp,sp,-32
80001304:	afb00014 	sw	s0,20(sp)
80001308:	3c108000 	lui	s0,0x8000
8000130c:	afb10018 	sw	s1,24(sp)
80001310:	2411ffff 	li	s1,-1
80001314:	26102580 	addiu	s0,s0,9600
80001318:	afbf001c 	sw	ra,28(sp)
8000131c:	8e020000 	lw	v0,0(s0)
80001320:	10510005 	beq	v0,s1,80001338 <__do_global_ctors_aux+0x38>
80001324:	8fbf001c 	lw	ra,28(sp)
80001328:	0040f809 	jalr	v0
8000132c:	2610fffc 	addiu	s0,s0,-4
80001330:	1000fffb 	b	80001320 <__do_global_ctors_aux+0x20>
80001334:	8e020000 	lw	v0,0(s0)
80001338:	8fb10018 	lw	s1,24(sp)
8000133c:	8fb00014 	lw	s0,20(sp)
80001340:	03e00008 	jr	ra
80001344:	27bd0020 	addiu	sp,sp,32

80001348 <atexit>:
80001348:	27bdffe8 	addiu	sp,sp,-24
8000134c:	00802825 	move	a1,a0
80001350:	00003025 	move	a2,zero
80001354:	00002025 	move	a0,zero
80001358:	afbf0014 	sw	ra,20(sp)
8000135c:	0c0004eb 	jal	800013ac <__register_exitproc>
80001360:	00003825 	move	a3,zero
80001364:	8fbf0014 	lw	ra,20(sp)
80001368:	03e00008 	jr	ra
8000136c:	27bd0018 	addiu	sp,sp,24

80001370 <exit>:
80001370:	27bdffe8 	addiu	sp,sp,-24
80001374:	00002825 	move	a1,zero
80001378:	afb00010 	sw	s0,16(sp)
8000137c:	afbf0014 	sw	ra,20(sp)
80001380:	0c00052f 	jal	800014bc <__call_exitprocs>
80001384:	00808025 	move	s0,a0
80001388:	3c028000 	lui	v0,0x8000
8000138c:	8c442ef0 	lw	a0,12016(v0)
80001390:	8c82003c 	lw	v0,60(a0)
80001394:	10400003 	beqz	v0,800013a4 <exit+0x34>
80001398:	00000000 	nop
8000139c:	0040f809 	jalr	v0
800013a0:	00000000 	nop
800013a4:	0c00015e 	jal	80000578 <_exit>
800013a8:	02002025 	move	a0,s0

800013ac <__register_exitproc>:
800013ac:	27bdffd8 	addiu	sp,sp,-40
800013b0:	3c028000 	lui	v0,0x8000
800013b4:	afb00010 	sw	s0,16(sp)
800013b8:	8c502ef0 	lw	s0,12016(v0)
800013bc:	afb40020 	sw	s4,32(sp)
800013c0:	00c0a025 	move	s4,a2
800013c4:	afb3001c 	sw	s3,28(sp)
800013c8:	00e09825 	move	s3,a3
800013cc:	afb20018 	sw	s2,24(sp)
800013d0:	00a09025 	move	s2,a1
800013d4:	afb10014 	sw	s1,20(sp)
800013d8:	afbf0024 	sw	ra,36(sp)
800013dc:	8e020148 	lw	v0,328(s0)
800013e0:	14400003 	bnez	v0,800013f0 <__register_exitproc+0x44>
800013e4:	00808825 	move	s1,a0
800013e8:	2602014c 	addiu	v0,s0,332
800013ec:	ae020148 	sw	v0,328(s0)
800013f0:	8c430004 	lw	v1,4(v0)
800013f4:	28630020 	slti	v1,v1,32
800013f8:	14600011 	bnez	v1,80001440 <__register_exitproc+0x94>
800013fc:	00000000 	nop
80001400:	3c020000 	lui	v0,0x0
80001404:	24420000 	addiu	v0,v0,0
80001408:	14400003 	bnez	v0,80001418 <__register_exitproc+0x6c>
8000140c:	00000000 	nop
80001410:	10000022 	b	8000149c <__register_exitproc+0xf0>
80001414:	2402ffff 	li	v0,-1
80001418:	0c000000 	jal	80000000 <__app_start>
8000141c:	24040190 	li	a0,400
80001420:	1040fffb 	beqz	v0,80001410 <__register_exitproc+0x64>
80001424:	00000000 	nop
80001428:	8e030148 	lw	v1,328(s0)
8000142c:	ac400004 	sw	zero,4(v0)
80001430:	ac430000 	sw	v1,0(v0)
80001434:	ae020148 	sw	v0,328(s0)
80001438:	ac400188 	sw	zero,392(v0)
8000143c:	ac40018c 	sw	zero,396(v0)
80001440:	1220000f 	beqz	s1,80001480 <__register_exitproc+0xd4>
80001444:	8c430004 	lw	v1,4(v0)
80001448:	00034080 	sll	t0,v1,0x2
8000144c:	24060001 	li	a2,1
80001450:	00484021 	addu	t0,v0,t0
80001454:	00663004 	sllv	a2,a2,v1
80001458:	24040002 	li	a0,2
8000145c:	ad140088 	sw	s4,136(t0)
80001460:	8c490188 	lw	t1,392(v0)
80001464:	01264825 	or	t1,t1,a2
80001468:	ac490188 	sw	t1,392(v0)
8000146c:	16240004 	bne	s1,a0,80001480 <__register_exitproc+0xd4>
80001470:	ad130108 	sw	s3,264(t0)
80001474:	8c44018c 	lw	a0,396(v0)
80001478:	00863025 	or	a2,a0,a2
8000147c:	ac46018c 	sw	a2,396(v0)
80001480:	24640001 	addiu	a0,v1,1
80001484:	24630002 	addiu	v1,v1,2
80001488:	ac440004 	sw	a0,4(v0)
8000148c:	00031880 	sll	v1,v1,0x2
80001490:	00431021 	addu	v0,v0,v1
80001494:	ac520000 	sw	s2,0(v0)
80001498:	00001025 	move	v0,zero
8000149c:	8fbf0024 	lw	ra,36(sp)
800014a0:	8fb40020 	lw	s4,32(sp)
800014a4:	8fb3001c 	lw	s3,28(sp)
800014a8:	8fb20018 	lw	s2,24(sp)
800014ac:	8fb10014 	lw	s1,20(sp)
800014b0:	8fb00010 	lw	s0,16(sp)
800014b4:	03e00008 	jr	ra
800014b8:	27bd0028 	addiu	sp,sp,40

800014bc <__call_exitprocs>:
800014bc:	27bdffc0 	addiu	sp,sp,-64
800014c0:	3c028000 	lui	v0,0x8000
800014c4:	afb30024 	sw	s3,36(sp)
800014c8:	3c130000 	lui	s3,0x0
800014cc:	afb70034 	sw	s7,52(sp)
800014d0:	24170001 	li	s7,1
800014d4:	afb60030 	sw	s6,48(sp)
800014d8:	26730000 	addiu	s3,s3,0
800014dc:	afb40028 	sw	s4,40(sp)
800014e0:	0080b025 	move	s6,a0
800014e4:	afbf003c 	sw	ra,60(sp)
800014e8:	00a0a025 	move	s4,a1
800014ec:	afbe0038 	sw	s8,56(sp)
800014f0:	afb5002c 	sw	s5,44(sp)
800014f4:	afb20020 	sw	s2,32(sp)
800014f8:	afb1001c 	sw	s1,28(sp)
800014fc:	afb00018 	sw	s0,24(sp)
80001500:	8c422ef0 	lw	v0,12016(v0)
80001504:	afa20010 	sw	v0,16(sp)
80001508:	8fa20010 	lw	v0,16(sp)
8000150c:	24520148 	addiu	s2,v0,328
80001510:	8c500148 	lw	s0,328(v0)
80001514:	1200003e 	beqz	s0,80001610 <__call_exitprocs+0x154>
80001518:	8fbf003c 	lw	ra,60(sp)
8000151c:	8e110004 	lw	s1,4(s0)
80001520:	2635ffff 	addiu	s5,s1,-1
80001524:	00118880 	sll	s1,s1,0x2
80001528:	02118821 	addu	s1,s0,s1
8000152c:	06a0001e 	bltz	s5,800015a8 <__call_exitprocs+0xec>
80001530:	00000000 	nop
80001534:	12800004 	beqz	s4,80001548 <__call_exitprocs+0x8c>
80001538:	00000000 	nop
8000153c:	8e230104 	lw	v1,260(s1)
80001540:	14740016 	bne	v1,s4,8000159c <__call_exitprocs+0xe0>
80001544:	00000000 	nop
80001548:	8e040004 	lw	a0,4(s0)
8000154c:	2484ffff 	addiu	a0,a0,-1
80001550:	16a40003 	bne	s5,a0,80001560 <__call_exitprocs+0xa4>
80001554:	8e230004 	lw	v1,4(s1)
80001558:	10000002 	b	80001564 <__call_exitprocs+0xa8>
8000155c:	ae150004 	sw	s5,4(s0)
80001560:	ae200004 	sw	zero,4(s1)
80001564:	1060000d 	beqz	v1,8000159c <__call_exitprocs+0xe0>
80001568:	02b72004 	sllv	a0,s7,s5
8000156c:	8e050188 	lw	a1,392(s0)
80001570:	00852824 	and	a1,a0,a1
80001574:	14a0001a 	bnez	a1,800015e0 <__call_exitprocs+0x124>
80001578:	8e1e0004 	lw	s8,4(s0)
8000157c:	0060f809 	jalr	v1
80001580:	00000000 	nop
80001584:	8e030004 	lw	v1,4(s0)
80001588:	17c3ffe0 	bne	s8,v1,8000150c <__call_exitprocs+0x50>
8000158c:	8fa20010 	lw	v0,16(sp)
80001590:	8e430000 	lw	v1,0(s2)
80001594:	1470ffdd 	bne	v1,s0,8000150c <__call_exitprocs+0x50>
80001598:	00000000 	nop
8000159c:	26b5ffff 	addiu	s5,s5,-1
800015a0:	1000ffe2 	b	8000152c <__call_exitprocs+0x70>
800015a4:	2631fffc 	addiu	s1,s1,-4
800015a8:	12600019 	beqz	s3,80001610 <__call_exitprocs+0x154>
800015ac:	8fbf003c 	lw	ra,60(sp)
800015b0:	8e030004 	lw	v1,4(s0)
800015b4:	14600007 	bnez	v1,800015d4 <__call_exitprocs+0x118>
800015b8:	8e020000 	lw	v0,0(s0)
800015bc:	10400005 	beqz	v0,800015d4 <__call_exitprocs+0x118>
800015c0:	02002025 	move	a0,s0
800015c4:	0c000000 	jal	80000000 <__app_start>
800015c8:	ae420000 	sw	v0,0(s2)
800015cc:	1000ffd1 	b	80001514 <__call_exitprocs+0x58>
800015d0:	8e500000 	lw	s0,0(s2)
800015d4:	02009025 	move	s2,s0
800015d8:	1000ffce 	b	80001514 <__call_exitprocs+0x58>
800015dc:	00408025 	move	s0,v0
800015e0:	8e06018c 	lw	a2,396(s0)
800015e4:	00863024 	and	a2,a0,a2
800015e8:	14c00005 	bnez	a2,80001600 <__call_exitprocs+0x144>
800015ec:	8e250084 	lw	a1,132(s1)
800015f0:	0060f809 	jalr	v1
800015f4:	02c02025 	move	a0,s6
800015f8:	1000ffe3 	b	80001588 <__call_exitprocs+0xcc>
800015fc:	8e030004 	lw	v1,4(s0)
80001600:	0060f809 	jalr	v1
80001604:	00a02025 	move	a0,a1
80001608:	1000ffdf 	b	80001588 <__call_exitprocs+0xcc>
8000160c:	8e030004 	lw	v1,4(s0)
80001610:	8fbe0038 	lw	s8,56(sp)
80001614:	8fb70034 	lw	s7,52(sp)
80001618:	8fb60030 	lw	s6,48(sp)
8000161c:	8fb5002c 	lw	s5,44(sp)
80001620:	8fb40028 	lw	s4,40(sp)
80001624:	8fb30024 	lw	s3,36(sp)
80001628:	8fb20020 	lw	s2,32(sp)
8000162c:	8fb1001c 	lw	s1,28(sp)
80001630:	8fb00018 	lw	s0,24(sp)
80001634:	03e00008 	jr	ra
80001638:	27bd0040 	addiu	sp,sp,64

8000163c <__exit>:
8000163c:	27bdffd8 	addiu	sp,sp,-40
80001640:	afb2001c 	sw	s2,28(sp)
80001644:	3c128000 	lui	s2,0x8000
80001648:	afb10018 	sw	s1,24(sp)
8000164c:	3c118000 	lui	s1,0x8000
80001650:	afb00014 	sw	s0,20(sp)
80001654:	3c100000 	lui	s0,0x0
80001658:	263121f8 	addiu	s1,s1,8696
8000165c:	afb30020 	sw	s3,32(sp)
80001660:	26100001 	addiu	s0,s0,1
80001664:	afbf0024 	sw	ra,36(sp)
80001668:	265220a0 	addiu	s2,s2,8352
8000166c:	00809825 	move	s3,a0
80001670:	02602025 	move	a0,s3
80001674:	24190001 	li	t9,1
80001678:	24020001 	li	v0,1
8000167c:	0000004c 	syscall	0x1
80001680:	24020002 	li	v0,2
80001684:	16020005 	bne	s0,v0,8000169c <__exit+0x60>
80001688:	24020001 	li	v0,1
8000168c:	1240fff9 	beqz	s2,80001674 <__exit+0x38>
80001690:	02602025 	move	a0,s3
80001694:	0c000828 	jal	800020a0 <__return_to_boot>
80001698:	02602025 	move	a0,s3
8000169c:	1602fff5 	bne	s0,v0,80001674 <__exit+0x38>
800016a0:	02602025 	move	a0,s3
800016a4:	1220fff4 	beqz	s1,80001678 <__exit+0x3c>
800016a8:	24190001 	li	t9,1
800016ac:	0c00087e 	jal	800021f8 <__get_startup_BEV>
800016b0:	00000000 	nop
800016b4:	1040fff5 	beqz	v0,8000168c <__exit+0x50>
800016b8:	02602025 	move	a0,s3
800016bc:	1000ffee 	b	80001678 <__exit+0x3c>
800016c0:	24190001 	li	t9,1

800016c4 <__getargs>:
800016c4:	00004025 	move	t0,zero
800016c8:	00004825 	move	t1,zero
800016cc:	24190009 	li	t9,9
800016d0:	24020001 	li	v0,1
800016d4:	0000004c 	syscall	0x1
800016d8:	18400022 	blez	v0,80001764 <__getargs+0xa0>
800016dc:	00000000 	nop
800016e0:	00404025 	move	t0,v0
800016e4:	00085880 	sll	t3,t0,0x2
800016e8:	256b0007 	addiu	t3,t3,7
800016ec:	2401fff8 	li	at,-8
800016f0:	01615824 	and	t3,t3,at
800016f4:	03abe823 	subu	sp,sp,t3
800016f8:	03a04825 	move	t1,sp
800016fc:	00005025 	move	t2,zero
80001700:	2419000a 	li	t9,10
80001704:	24020001 	li	v0,1
80001708:	01402025 	move	a0,t2
8000170c:	0000004c 	syscall	0x1
80001710:	18400014 	blez	v0,80001764 <__getargs+0xa0>
80001714:	00000000 	nop
80001718:	24420001 	addiu	v0,v0,1
8000171c:	24420007 	addiu	v0,v0,7
80001720:	2401fff8 	li	at,-8
80001724:	00411024 	and	v0,v0,at
80001728:	03a2e823 	subu	sp,sp,v0
8000172c:	000a5880 	sll	t3,t2,0x2
80001730:	01695821 	addu	t3,t3,t1
80001734:	ad7d0000 	sw	sp,0(t3)
80001738:	2419000b 	li	t9,11
8000173c:	24020001 	li	v0,1
80001740:	01402025 	move	a0,t2
80001744:	03a02825 	move	a1,sp
80001748:	0000004c 	syscall	0x1
8000174c:	04400005 	bltz	v0,80001764 <__getargs+0xa0>
80001750:	00000000 	nop
80001754:	254a0001 	addiu	t2,t2,1
80001758:	0148102a 	slt	v0,t2,t0
8000175c:	1440ffe8 	bnez	v0,80001700 <__getargs+0x3c>
80001760:	00000000 	nop
80001764:	01002025 	move	a0,t0
80001768:	01202825 	move	a1,t1
8000176c:	27bdffe0 	addiu	sp,sp,-32
80001770:	27a60010 	addiu	a2,sp,16
80001774:	03e00008 	jr	ra
80001778:	acc00000 	sw	zero,0(a2)

8000177c <_get_ram_range>:
8000177c:	3c030002 	lui	v1,0x2
80001780:	00803025 	move	a2,a0
80001784:	2463f800 	addiu	v1,v1,-2048
80001788:	00a03825 	move	a3,a1
8000178c:	2419000c 	li	t9,12
80001790:	10600007 	beqz	v1,800017b0 <_get_ram_range+0x34>
80001794:	24020001 	li	v0,1
80001798:	3c028000 	lui	v0,0x8000
8000179c:	10800002 	beqz	a0,800017a8 <_get_ram_range+0x2c>
800017a0:	24420000 	addiu	v0,v0,0
800017a4:	ac820000 	sw	v0,0(a0)
800017a8:	10000005 	b	800017c0 <_get_ram_range+0x44>
800017ac:	00621821 	addu	v1,v1,v0
800017b0:	0000004c 	syscall	0x1
800017b4:	10c00002 	beqz	a2,800017c0 <_get_ram_range+0x44>
800017b8:	00000000 	nop
800017bc:	acc20000 	sw	v0,0(a2)
800017c0:	03e00008 	jr	ra
800017c4:	ace30000 	sw	v1,0(a3)

800017c8 <putsnds.constprop.0>:
800017c8:	27bdffd8 	addiu	sp,sp,-40
800017cc:	afb20020 	sw	s2,32(sp)
800017d0:	00a09025 	move	s2,a1
800017d4:	afb1001c 	sw	s1,28(sp)
800017d8:	00808825 	move	s1,a0
800017dc:	afb00018 	sw	s0,24(sp)
800017e0:	00c08025 	move	s0,a2
800017e4:	10800007 	beqz	a0,80001804 <putsnds.constprop.0+0x3c>
800017e8:	afbf0024 	sw	ra,36(sp)
800017ec:	0c0008a8 	jal	800022a0 <strlen>
800017f0:	00000000 	nop
800017f4:	24040001 	li	a0,1
800017f8:	02202825 	move	a1,s1
800017fc:	0c0008af 	jal	800022bc <write>
80001800:	00403025 	move	a2,v0
80001804:	3c048000 	lui	a0,0x8000
80001808:	00001825 	move	v1,zero
8000180c:	24842624 	addiu	a0,a0,9764
80001810:	24060008 	li	a2,8
80001814:	00031023 	negu	v0,v1
80001818:	27a50010 	addiu	a1,sp,16
8000181c:	00021080 	sll	v0,v0,0x2
80001820:	24630001 	addiu	v1,v1,1
80001824:	2442001c 	addiu	v0,v0,28
80001828:	00a33821 	addu	a3,a1,v1
8000182c:	00521006 	srlv	v0,s2,v0
80001830:	3042000f 	andi	v0,v0,0xf
80001834:	00441021 	addu	v0,v0,a0
80001838:	90420000 	lbu	v0,0(v0)
8000183c:	1466fff5 	bne	v1,a2,80001814 <putsnds.constprop.0+0x4c>
80001840:	a0e2ffff 	sb	v0,-1(a3)
80001844:	24040001 	li	a0,1
80001848:	0c0008af 	jal	800022bc <write>
8000184c:	24060008 	li	a2,8
80001850:	12000008 	beqz	s0,80001874 <putsnds.constprop.0+0xac>
80001854:	8fbf0024 	lw	ra,36(sp)
80001858:	0c0008a8 	jal	800022a0 <strlen>
8000185c:	02002025 	move	a0,s0
80001860:	24040001 	li	a0,1
80001864:	02002825 	move	a1,s0
80001868:	0c0008af 	jal	800022bc <write>
8000186c:	00403025 	move	a2,v0
80001870:	8fbf0024 	lw	ra,36(sp)
80001874:	8fb20020 	lw	s2,32(sp)
80001878:	8fb1001c 	lw	s1,28(sp)
8000187c:	8fb00018 	lw	s0,24(sp)
80001880:	03e00008 	jr	ra
80001884:	27bd0028 	addiu	sp,sp,40

80001888 <putsns>:
80001888:	080005f2 	j	800017c8 <putsnds.constprop.0>
8000188c:	00000000 	nop

80001890 <__exception_handle>:
80001890:	27bdffe0 	addiu	sp,sp,-32
80001894:	24a2ffff 	addiu	v0,a1,-1
80001898:	2c43001e 	sltiu	v1,v0,30
8000189c:	afb00010 	sw	s0,16(sp)
800018a0:	afbf001c 	sw	ra,28(sp)
800018a4:	00808025 	move	s0,a0
800018a8:	afb20018 	sw	s2,24(sp)
800018ac:	106000d7 	beqz	v1,80001c0c <__exception_handle+0x37c>
800018b0:	afb10014 	sw	s1,20(sp)
800018b4:	00021880 	sll	v1,v0,0x2
800018b8:	3c028000 	lui	v0,0x8000
800018bc:	244225a8 	addiu	v0,v0,9640
800018c0:	00431021 	addu	v0,v0,v1
800018c4:	8c420000 	lw	v0,0(v0)
800018c8:	00400008 	jr	v0
800018cc:	00000000 	nop
800018d0:	3c058000 	lui	a1,0x8000
800018d4:	24040001 	li	a0,1
800018d8:	100000a7 	b	80001b78 <__exception_handle+0x2e8>
800018dc:	24a52638 	addiu	a1,a1,9784
800018e0:	3c048000 	lui	a0,0x8000
800018e4:	10000006 	b	80001900 <__exception_handle+0x70>
800018e8:	24842654 	addiu	a0,a0,9812
800018ec:	3c048000 	lui	a0,0x8000
800018f0:	10000003 	b	80001900 <__exception_handle+0x70>
800018f4:	24842670 	addiu	a0,a0,9840
800018f8:	3c048000 	lui	a0,0x8000
800018fc:	2484268c 	addiu	a0,a0,9868
80001900:	8e050080 	lw	a1,128(s0)
80001904:	0c000622 	jal	80001888 <putsns>
80001908:	00003025 	move	a2,zero
8000190c:	3c048000 	lui	a0,0x8000
80001910:	100000a8 	b	80001bb4 <__exception_handle+0x324>
80001914:	24842860 	addiu	a0,a0,10336
80001918:	3c048000 	lui	a0,0x8000
8000191c:	1000fff8 	b	80001900 <__exception_handle+0x70>
80001920:	248426ac 	addiu	a0,a0,9900
80001924:	3c058000 	lui	a1,0x8000
80001928:	24040001 	li	a0,1
8000192c:	24a526cc 	addiu	a1,a1,9932
80001930:	24060016 	li	a2,22
80001934:	0c0008af 	jal	800022bc <write>
80001938:	3c118000 	lui	s1,0x8000
8000193c:	100000ba 	b	80001c28 <__exception_handle+0x398>
80001940:	3c048000 	lui	a0,0x8000
80001944:	3c058000 	lui	a1,0x8000
80001948:	24040001 	li	a0,1
8000194c:	24a526e4 	addiu	a1,a1,9956
80001950:	1000fff8 	b	80001934 <__exception_handle+0xa4>
80001954:	2406000f 	li	a2,15
80001958:	8c830060 	lw	v1,96(a0)
8000195c:	24020017 	li	v0,23
80001960:	14620014 	bne	v1,v0,800019b4 <__exception_handle+0x124>
80001964:	3c020000 	lui	v0,0x0
80001968:	8c83000c 	lw	v1,12(a0)
8000196c:	24020001 	li	v0,1
80001970:	14620005 	bne	v1,v0,80001988 <__exception_handle+0xf8>
80001974:	24040001 	li	a0,1
80001978:	3c058000 	lui	a1,0x8000
8000197c:	2406001d 	li	a2,29
80001980:	10000004 	b	80001994 <__exception_handle+0x104>
80001984:	24a526f4 	addiu	a1,a1,9972
80001988:	3c058000 	lui	a1,0x8000
8000198c:	2406001b 	li	a2,27
80001990:	24a52714 	addiu	a1,a1,10004
80001994:	0c0008af 	jal	800022bc <write>
80001998:	00000000 	nop
8000199c:	3c028000 	lui	v0,0x8000
800019a0:	2442163c 	addiu	v0,v0,5692
800019a4:	ae02007c 	sw	v0,124(s0)
800019a8:	240200ff 	li	v0,255
800019ac:	1000016b 	b	80001f5c <__exception_handle+0x6cc>
800019b0:	ae02000c 	sw	v0,12(s0)
800019b4:	24030002 	li	v1,2
800019b8:	24420001 	addiu	v0,v0,1
800019bc:	1443000b 	bne	v0,v1,800019ec <__exception_handle+0x15c>
800019c0:	24030001 	li	v1,1
800019c4:	3c028000 	lui	v0,0x8000
800019c8:	24422140 	addiu	v0,v0,8512
800019cc:	10400011 	beqz	v0,80001a14 <__exception_handle+0x184>
800019d0:	8fbf001c 	lw	ra,28(sp)
800019d4:	02002025 	move	a0,s0
800019d8:	8fb20018 	lw	s2,24(sp)
800019dc:	8fb10014 	lw	s1,20(sp)
800019e0:	8fb00010 	lw	s0,16(sp)
800019e4:	08000850 	j	80002140 <__chain_uhi_excpt>
800019e8:	27bd0020 	addiu	sp,sp,32
800019ec:	1443000a 	bne	v0,v1,80001a18 <__exception_handle+0x188>
800019f0:	8fbf001c 	lw	ra,28(sp)
800019f4:	3c028000 	lui	v0,0x8000
800019f8:	244221f8 	addiu	v0,v0,8696
800019fc:	10400007 	beqz	v0,80001a1c <__exception_handle+0x18c>
80001a00:	02002025 	move	a0,s0
80001a04:	0c00087e 	jal	800021f8 <__get_startup_BEV>
80001a08:	00000000 	nop
80001a0c:	1040ffee 	beqz	v0,800019c8 <__exception_handle+0x138>
80001a10:	3c028000 	lui	v0,0x8000
80001a14:	8fbf001c 	lw	ra,28(sp)
80001a18:	02002025 	move	a0,s0
80001a1c:	8fb20018 	lw	s2,24(sp)
80001a20:	8fb10014 	lw	s1,20(sp)
80001a24:	8fb00010 	lw	s0,16(sp)
80001a28:	080008c8 	j	80002320 <__uhi_indirect>
80001a2c:	27bd0020 	addiu	sp,sp,32
80001a30:	3c048000 	lui	a0,0x8000
80001a34:	1000005f 	b	80001bb4 <__exception_handle+0x324>
80001a38:	24842730 	addiu	a0,a0,10032
80001a3c:	3c048000 	lui	a0,0x8000
80001a40:	1000005c 	b	80001bb4 <__exception_handle+0x324>
80001a44:	24842740 	addiu	a0,a0,10048
80001a48:	3c048000 	lui	a0,0x8000
80001a4c:	10000059 	b	80001bb4 <__exception_handle+0x324>
80001a50:	24842758 	addiu	a0,a0,10072
80001a54:	3c058000 	lui	a1,0x8000
80001a58:	24040001 	li	a0,1
80001a5c:	24a52774 	addiu	a1,a1,10100
80001a60:	1000ffb4 	b	80001934 <__exception_handle+0xa4>
80001a64:	24060009 	li	a2,9
80001a68:	3c058000 	lui	a1,0x8000
80001a6c:	24040001 	li	a0,1
80001a70:	24a52780 	addiu	a1,a1,10112
80001a74:	1000ffaf 	b	80001934 <__exception_handle+0xa4>
80001a78:	24060005 	li	a2,5
80001a7c:	3c020000 	lui	v0,0x0
80001a80:	24420001 	addiu	v0,v0,1
80001a84:	10400010 	beqz	v0,80001ac8 <__exception_handle+0x238>
80001a88:	3c058000 	lui	a1,0x8000
80001a8c:	787e0899 	cfcmsa	v0,msa_csr
80001a90:	7c420440 	ext	v0,v0,0x11,0x1
80001a94:	1040000c 	beqz	v0,80001ac8 <__exception_handle+0x238>
80001a98:	3c058000 	lui	a1,0x8000
80001a9c:	787e08d9 	cfcmsa	v1,msa_csr
80001aa0:	3c040100 	lui	a0,0x100
80001aa4:	00641824 	and	v1,v1,a0
80001aa8:	14600007 	bnez	v1,80001ac8 <__exception_handle+0x238>
80001aac:	3c058000 	lui	a1,0x8000
80001ab0:	787e0899 	cfcmsa	v0,msa_csr
80001ab4:	7c028c44 	ins	v0,zero,0x11,0x1
80001ab8:	00441025 	or	v0,v0,a0
80001abc:	783e1059 	ctcmsa	msa_csr,v0
80001ac0:	10000127 	b	80001f60 <__exception_handle+0x6d0>
80001ac4:	8fbf001c 	lw	ra,28(sp)
80001ac8:	24040001 	li	a0,1
80001acc:	24a52788 	addiu	a1,a1,10120
80001ad0:	1000ff98 	b	80001934 <__exception_handle+0xa4>
80001ad4:	24060019 	li	a2,25
80001ad8:	3c020000 	lui	v0,0x0
80001adc:	24420001 	addiu	v0,v0,1
80001ae0:	10400010 	beqz	v0,80001b24 <__exception_handle+0x294>
80001ae4:	3c058000 	lui	a1,0x8000
80001ae8:	4442f800 	cfc1	v0,c1_fcsr
80001aec:	7c420440 	ext	v0,v0,0x11,0x1
80001af0:	1040000c 	beqz	v0,80001b24 <__exception_handle+0x294>
80001af4:	3c058000 	lui	a1,0x8000
80001af8:	4443f800 	cfc1	v1,c1_fcsr
80001afc:	3c040100 	lui	a0,0x100
80001b00:	00641824 	and	v1,v1,a0
80001b04:	14600007 	bnez	v1,80001b24 <__exception_handle+0x294>
80001b08:	3c058000 	lui	a1,0x8000
80001b0c:	4442f800 	cfc1	v0,c1_fcsr
80001b10:	7c028c44 	ins	v0,zero,0x11,0x1
80001b14:	00441025 	or	v0,v0,a0
80001b18:	44c2f800 	ctc1	v0,c1_fcsr
80001b1c:	10000110 	b	80001f60 <__exception_handle+0x6d0>
80001b20:	8fbf001c 	lw	ra,28(sp)
80001b24:	24040001 	li	a0,1
80001b28:	24a5278c 	addiu	a1,a1,10124
80001b2c:	1000ff81 	b	80001934 <__exception_handle+0xa4>
80001b30:	24060015 	li	a2,21
80001b34:	3c058000 	lui	a1,0x8000
80001b38:	24040001 	li	a0,1
80001b3c:	10000004 	b	80001b50 <__exception_handle+0x2c0>
80001b40:	24a527a4 	addiu	a1,a1,10148
80001b44:	3c058000 	lui	a1,0x8000
80001b48:	24040001 	li	a0,1
80001b4c:	24a527cc 	addiu	a1,a1,10188
80001b50:	1000ff78 	b	80001934 <__exception_handle+0xa4>
80001b54:	24060027 	li	a2,39
80001b58:	3c058000 	lui	a1,0x8000
80001b5c:	24040001 	li	a0,1
80001b60:	24a527f4 	addiu	a1,a1,10228
80001b64:	1000ff73 	b	80001934 <__exception_handle+0xa4>
80001b68:	24060020 	li	a2,32
80001b6c:	3c058000 	lui	a1,0x8000
80001b70:	24040001 	li	a0,1
80001b74:	24a52818 	addiu	a1,a1,10264
80001b78:	1000ff6e 	b	80001934 <__exception_handle+0xa4>
80001b7c:	2406001b 	li	a2,27
80001b80:	3c058000 	lui	a1,0x8000
80001b84:	24040001 	li	a0,1
80001b88:	24a52834 	addiu	a1,a1,10292
80001b8c:	1000ff69 	b	80001934 <__exception_handle+0xa4>
80001b90:	2406001e 	li	a2,30
80001b94:	3c048000 	lui	a0,0x8000
80001b98:	10000006 	b	80001bb4 <__exception_handle+0x324>
80001b9c:	24842854 	addiu	a0,a0,10324
80001ba0:	3c048000 	lui	a0,0x8000
80001ba4:	10000003 	b	80001bb4 <__exception_handle+0x324>
80001ba8:	24842868 	addiu	a0,a0,10344
80001bac:	3c048000 	lui	a0,0x8000
80001bb0:	2484287c 	addiu	a0,a0,10364
80001bb4:	10000017 	b	80001c14 <__exception_handle+0x384>
80001bb8:	8e05007c 	lw	a1,124(s0)
80001bbc:	3c058000 	lui	a1,0x8000
80001bc0:	24040001 	li	a0,1
80001bc4:	24a5288c 	addiu	a1,a1,10380
80001bc8:	1000ff5a 	b	80001934 <__exception_handle+0xa4>
80001bcc:	24060014 	li	a2,20
80001bd0:	3c058000 	lui	a1,0x8000
80001bd4:	24040001 	li	a0,1
80001bd8:	24a528a4 	addiu	a1,a1,10404
80001bdc:	1000ff55 	b	80001934 <__exception_handle+0xa4>
80001be0:	24060011 	li	a2,17
80001be4:	3c058000 	lui	a1,0x8000
80001be8:	24040001 	li	a0,1
80001bec:	24a528b8 	addiu	a1,a1,10424
80001bf0:	1000ff50 	b	80001934 <__exception_handle+0xa4>
80001bf4:	2406000d 	li	a2,13
80001bf8:	3c058000 	lui	a1,0x8000
80001bfc:	24040001 	li	a0,1
80001c00:	24a528c8 	addiu	a1,a1,10440
80001c04:	1000ff4b 	b	80001934 <__exception_handle+0xa4>
80001c08:	2406000c 	li	a2,12
80001c0c:	3c048000 	lui	a0,0x8000
80001c10:	248428d8 	addiu	a0,a0,10456
80001c14:	3c068000 	lui	a2,0x8000
80001c18:	0c000622 	jal	80001888 <putsns>
80001c1c:	24c628c4 	addiu	a2,a2,10436
80001c20:	3c118000 	lui	s1,0x8000
80001c24:	3c048000 	lui	a0,0x8000
80001c28:	00002825 	move	a1,zero
80001c2c:	248428f0 	addiu	a0,a0,10480
80001c30:	262628f8 	addiu	a2,s1,10488
80001c34:	0c000622 	jal	80001888 <putsns>
80001c38:	3c128000 	lui	s2,0x8000
80001c3c:	3c048000 	lui	a0,0x8000
80001c40:	8e050000 	lw	a1,0(s0)
80001c44:	262628f8 	addiu	a2,s1,10488
80001c48:	0c000622 	jal	80001888 <putsns>
80001c4c:	248428fc 	addiu	a0,a0,10492
80001c50:	3c048000 	lui	a0,0x8000
80001c54:	8e050004 	lw	a1,4(s0)
80001c58:	262628f8 	addiu	a2,s1,10488
80001c5c:	0c000622 	jal	80001888 <putsns>
80001c60:	24842904 	addiu	a0,a0,10500
80001c64:	3c048000 	lui	a0,0x8000
80001c68:	8e050008 	lw	a1,8(s0)
80001c6c:	264628c4 	addiu	a2,s2,10436
80001c70:	0c000622 	jal	80001888 <putsns>
80001c74:	2484290c 	addiu	a0,a0,10508
80001c78:	3c048000 	lui	a0,0x8000
80001c7c:	8e05000c 	lw	a1,12(s0)
80001c80:	262628f8 	addiu	a2,s1,10488
80001c84:	0c000622 	jal	80001888 <putsns>
80001c88:	24842914 	addiu	a0,a0,10516
80001c8c:	3c048000 	lui	a0,0x8000
80001c90:	8e050010 	lw	a1,16(s0)
80001c94:	262628f8 	addiu	a2,s1,10488
80001c98:	0c000622 	jal	80001888 <putsns>
80001c9c:	2484291c 	addiu	a0,a0,10524
80001ca0:	3c048000 	lui	a0,0x8000
80001ca4:	8e050014 	lw	a1,20(s0)
80001ca8:	262628f8 	addiu	a2,s1,10488
80001cac:	0c000622 	jal	80001888 <putsns>
80001cb0:	24842924 	addiu	a0,a0,10532
80001cb4:	3c048000 	lui	a0,0x8000
80001cb8:	8e050018 	lw	a1,24(s0)
80001cbc:	264628c4 	addiu	a2,s2,10436
80001cc0:	0c000622 	jal	80001888 <putsns>
80001cc4:	2484292c 	addiu	a0,a0,10540
80001cc8:	3c048000 	lui	a0,0x8000
80001ccc:	8e05001c 	lw	a1,28(s0)
80001cd0:	262628f8 	addiu	a2,s1,10488
80001cd4:	0c000622 	jal	80001888 <putsns>
80001cd8:	24842934 	addiu	a0,a0,10548
80001cdc:	3c048000 	lui	a0,0x8000
80001ce0:	8e050020 	lw	a1,32(s0)
80001ce4:	262628f8 	addiu	a2,s1,10488
80001ce8:	0c000622 	jal	80001888 <putsns>
80001cec:	2484293c 	addiu	a0,a0,10556
80001cf0:	3c048000 	lui	a0,0x8000
80001cf4:	8e050024 	lw	a1,36(s0)
80001cf8:	262628f8 	addiu	a2,s1,10488
80001cfc:	0c000622 	jal	80001888 <putsns>
80001d00:	24842944 	addiu	a0,a0,10564
80001d04:	3c048000 	lui	a0,0x8000
80001d08:	8e050028 	lw	a1,40(s0)
80001d0c:	264628c4 	addiu	a2,s2,10436
80001d10:	0c000622 	jal	80001888 <putsns>
80001d14:	2484294c 	addiu	a0,a0,10572
80001d18:	3c048000 	lui	a0,0x8000
80001d1c:	8e05002c 	lw	a1,44(s0)
80001d20:	262628f8 	addiu	a2,s1,10488
80001d24:	0c000622 	jal	80001888 <putsns>
80001d28:	24842954 	addiu	a0,a0,10580
80001d2c:	3c048000 	lui	a0,0x8000
80001d30:	8e050030 	lw	a1,48(s0)
80001d34:	262628f8 	addiu	a2,s1,10488
80001d38:	0c000622 	jal	80001888 <putsns>
80001d3c:	2484295c 	addiu	a0,a0,10588
80001d40:	3c048000 	lui	a0,0x8000
80001d44:	8e050034 	lw	a1,52(s0)
80001d48:	262628f8 	addiu	a2,s1,10488
80001d4c:	0c000622 	jal	80001888 <putsns>
80001d50:	24842964 	addiu	a0,a0,10596
80001d54:	3c048000 	lui	a0,0x8000
80001d58:	8e050038 	lw	a1,56(s0)
80001d5c:	264628c4 	addiu	a2,s2,10436
80001d60:	0c000622 	jal	80001888 <putsns>
80001d64:	2484296c 	addiu	a0,a0,10604
80001d68:	3c048000 	lui	a0,0x8000
80001d6c:	8e05003c 	lw	a1,60(s0)
80001d70:	262628f8 	addiu	a2,s1,10488
80001d74:	0c000622 	jal	80001888 <putsns>
80001d78:	24842974 	addiu	a0,a0,10612
80001d7c:	3c048000 	lui	a0,0x8000
80001d80:	8e050040 	lw	a1,64(s0)
80001d84:	262628f8 	addiu	a2,s1,10488
80001d88:	0c000622 	jal	80001888 <putsns>
80001d8c:	2484297c 	addiu	a0,a0,10620
80001d90:	3c048000 	lui	a0,0x8000
80001d94:	8e050044 	lw	a1,68(s0)
80001d98:	262628f8 	addiu	a2,s1,10488
80001d9c:	0c000622 	jal	80001888 <putsns>
80001da0:	24842984 	addiu	a0,a0,10628
80001da4:	3c048000 	lui	a0,0x8000
80001da8:	8e050048 	lw	a1,72(s0)
80001dac:	264628c4 	addiu	a2,s2,10436
80001db0:	0c000622 	jal	80001888 <putsns>
80001db4:	2484298c 	addiu	a0,a0,10636
80001db8:	3c048000 	lui	a0,0x8000
80001dbc:	8e05004c 	lw	a1,76(s0)
80001dc0:	262628f8 	addiu	a2,s1,10488
80001dc4:	0c000622 	jal	80001888 <putsns>
80001dc8:	24842994 	addiu	a0,a0,10644
80001dcc:	3c048000 	lui	a0,0x8000
80001dd0:	8e050050 	lw	a1,80(s0)
80001dd4:	262628f8 	addiu	a2,s1,10488
80001dd8:	0c000622 	jal	80001888 <putsns>
80001ddc:	2484299c 	addiu	a0,a0,10652
80001de0:	3c048000 	lui	a0,0x8000
80001de4:	8e050054 	lw	a1,84(s0)
80001de8:	262628f8 	addiu	a2,s1,10488
80001dec:	0c000622 	jal	80001888 <putsns>
80001df0:	248429a4 	addiu	a0,a0,10660
80001df4:	3c048000 	lui	a0,0x8000
80001df8:	8e050058 	lw	a1,88(s0)
80001dfc:	264628c4 	addiu	a2,s2,10436
80001e00:	0c000622 	jal	80001888 <putsns>
80001e04:	248429ac 	addiu	a0,a0,10668
80001e08:	3c048000 	lui	a0,0x8000
80001e0c:	8e05005c 	lw	a1,92(s0)
80001e10:	262628f8 	addiu	a2,s1,10488
80001e14:	0c000622 	jal	80001888 <putsns>
80001e18:	248429b4 	addiu	a0,a0,10676
80001e1c:	3c048000 	lui	a0,0x8000
80001e20:	8e050060 	lw	a1,96(s0)
80001e24:	262628f8 	addiu	a2,s1,10488
80001e28:	0c000622 	jal	80001888 <putsns>
80001e2c:	248429bc 	addiu	a0,a0,10684
80001e30:	3c048000 	lui	a0,0x8000
80001e34:	8e050064 	lw	a1,100(s0)
80001e38:	262628f8 	addiu	a2,s1,10488
80001e3c:	0c000622 	jal	80001888 <putsns>
80001e40:	248429c4 	addiu	a0,a0,10692
80001e44:	3c048000 	lui	a0,0x8000
80001e48:	8e050068 	lw	a1,104(s0)
80001e4c:	264628c4 	addiu	a2,s2,10436
80001e50:	0c000622 	jal	80001888 <putsns>
80001e54:	248429cc 	addiu	a0,a0,10700
80001e58:	3c048000 	lui	a0,0x8000
80001e5c:	8e05006c 	lw	a1,108(s0)
80001e60:	262628f8 	addiu	a2,s1,10488
80001e64:	0c000622 	jal	80001888 <putsns>
80001e68:	248429d4 	addiu	a0,a0,10708
80001e6c:	3c048000 	lui	a0,0x8000
80001e70:	8e050070 	lw	a1,112(s0)
80001e74:	262628f8 	addiu	a2,s1,10488
80001e78:	0c000622 	jal	80001888 <putsns>
80001e7c:	248429dc 	addiu	a0,a0,10716
80001e80:	3c048000 	lui	a0,0x8000
80001e84:	8e050074 	lw	a1,116(s0)
80001e88:	262628f8 	addiu	a2,s1,10488
80001e8c:	0c000622 	jal	80001888 <putsns>
80001e90:	248429e4 	addiu	a0,a0,10724
80001e94:	3c048000 	lui	a0,0x8000
80001e98:	8e050078 	lw	a1,120(s0)
80001e9c:	264628c4 	addiu	a2,s2,10436
80001ea0:	0c000622 	jal	80001888 <putsns>
80001ea4:	248429ec 	addiu	a0,a0,10732
80001ea8:	3c048000 	lui	a0,0x8000
80001eac:	8e050084 	lw	a1,132(s0)
80001eb0:	262628f8 	addiu	a2,s1,10488
80001eb4:	0c000622 	jal	80001888 <putsns>
80001eb8:	248429f4 	addiu	a0,a0,10740
80001ebc:	3c048000 	lui	a0,0x8000
80001ec0:	8e050088 	lw	a1,136(s0)
80001ec4:	264628c4 	addiu	a2,s2,10436
80001ec8:	0c000622 	jal	80001888 <putsns>
80001ecc:	248429fc 	addiu	a0,a0,10748
80001ed0:	3c048000 	lui	a0,0x8000
80001ed4:	8e05007c 	lw	a1,124(s0)
80001ed8:	264628c4 	addiu	a2,s2,10436
80001edc:	0c000622 	jal	80001888 <putsns>
80001ee0:	24842a04 	addiu	a0,a0,10756
80001ee4:	3c048000 	lui	a0,0x8000
80001ee8:	8e050080 	lw	a1,128(s0)
80001eec:	264628c4 	addiu	a2,s2,10436
80001ef0:	0c000622 	jal	80001888 <putsns>
80001ef4:	24842a10 	addiu	a0,a0,10768
80001ef8:	3c048000 	lui	a0,0x8000
80001efc:	8e050090 	lw	a1,144(s0)
80001f00:	264628c4 	addiu	a2,s2,10436
80001f04:	0c0005f2 	jal	800017c8 <putsnds.constprop.0>
80001f08:	24842a1c 	addiu	a0,a0,10780
80001f0c:	3c048000 	lui	a0,0x8000
80001f10:	8e050094 	lw	a1,148(s0)
80001f14:	264628c4 	addiu	a2,s2,10436
80001f18:	0c0005f2 	jal	800017c8 <putsnds.constprop.0>
80001f1c:	24842a28 	addiu	a0,a0,10792
80001f20:	3c048000 	lui	a0,0x8000
80001f24:	8e050098 	lw	a1,152(s0)
80001f28:	264628c4 	addiu	a2,s2,10436
80001f2c:	0c0005f2 	jal	800017c8 <putsnds.constprop.0>
80001f30:	24842a34 	addiu	a0,a0,10804
80001f34:	3c048000 	lui	a0,0x8000
80001f38:	8e05009c 	lw	a1,156(s0)
80001f3c:	264628c4 	addiu	a2,s2,10436
80001f40:	0c0005f2 	jal	800017c8 <putsnds.constprop.0>
80001f44:	24842a40 	addiu	a0,a0,10816
80001f48:	00002825 	move	a1,zero
80001f4c:	0c0008c3 	jal	8000230c <__uhi_exception>
80001f50:	02002025 	move	a0,s0
80001f54:	1440fe92 	bnez	v0,800019a0 <__exception_handle+0x110>
80001f58:	3c028000 	lui	v0,0x8000
80001f5c:	8fbf001c 	lw	ra,28(sp)
80001f60:	8fb20018 	lw	s2,24(sp)
80001f64:	8fb10014 	lw	s1,20(sp)
80001f68:	8fb00010 	lw	s0,16(sp)
80001f6c:	03e00008 	jr	ra
80001f70:	27bd0020 	addiu	sp,sp,32

80001f74 <__register_excpt_handler>:
80001f74:	40056000 	mfc0	a1,c0_status
80001f78:	3c0a0040 	lui	t2,0x40
80001f7c:	408a6000 	mtc0	t2,c0_status
80001f80:	000000c0 	ehb
80001f84:	3c098000 	lui	t1,0x8000
80001f88:	25292024 	addiu	t1,t1,8228
80001f8c:	11200005 	beqz	t1,80001fa4 <__register_excpt_handler+0x30>
80001f90:	00000000 	nop
80001f94:	03e03025 	move	a2,ra
80001f98:	0120f809 	jalr	t1
80001f9c:	00000000 	nop
80001fa0:	0040f825 	move	ra,v0
80001fa4:	3c098000 	lui	t1,0x8000
80001fa8:	25292e88 	addiu	t1,t1,11912
80001fac:	ad200000 	sw	zero,0(t1)
80001fb0:	400c8003 	mfc0	t4,c0_config3
80001fb4:	3c0a8000 	lui	t2,0x8000
80001fb8:	254a0000 	addiu	t2,t2,0
80001fbc:	354a0800 	ori	t2,t2,0x800
80001fc0:	408a7801 	mtc0	t2,c0_ebase
80001fc4:	000000c0 	ehb
80001fc8:	00001025 	move	v0,zero
80001fcc:	3c090000 	lui	t1,0x0
80001fd0:	25290020 	addiu	t1,t1,32
80001fd4:	7d8a0140 	ext	t2,t4,0x5,0x1
80001fd8:	7d8b0180 	ext	t3,t4,0x6,0x1
80001fdc:	014b5025 	or	t2,t2,t3
80001fe0:	11400005 	beqz	t2,80001ff8 <__register_excpt_handler+0x84>
80001fe4:	00000000 	nop
80001fe8:	400a6001 	mfc0	t2,c0_intctl
80001fec:	7d2a4804 	ins	t2,t1,0x0,0xa
80001ff0:	10000003 	b	80002000 <__register_excpt_handler+0x8c>
80001ff4:	408a6001 	mtc0	t2,c0_intctl
80001ff8:	15200008 	bnez	t1,8000201c <__register_excpt_handler+0xa8>
80001ffc:	00000000 	nop
80002000:	3c090080 	lui	t1,0x80
80002004:	40896800 	mtc0	t1,c0_cause
80002008:	000000c0 	ehb
8000200c:	7d8a0180 	ext	t2,t4,0x6,0x1
80002010:	15400002 	bnez	t2,8000201c <__register_excpt_handler+0xa8>
80002014:	00000000 	nop
80002018:	34420001 	ori	v0,v0,0x1
8000201c:	03e00008 	jr	ra
80002020:	00000000 	nop

80002024 <__register_excpt_boot>:
80002024:	3c098000 	lui	t1,0x8000
80002028:	25292e8c 	addiu	t1,t1,11916
8000202c:	ad240038 	sw	a0,56(t1)
80002030:	ad250000 	sw	a1,0(t1)
80002034:	ad300004 	sw	s0,4(t1)
80002038:	ad310008 	sw	s1,8(t1)
8000203c:	ad32000c 	sw	s2,12(t1)
80002040:	ad330010 	sw	s3,16(t1)
80002044:	ad340014 	sw	s4,20(t1)
80002048:	ad350018 	sw	s5,24(t1)
8000204c:	ad36001c 	sw	s6,28(t1)
80002050:	ad370020 	sw	s7,32(t1)
80002054:	ad3a0024 	sw	k0,36(t1)
80002058:	ad3b0028 	sw	k1,40(t1)
8000205c:	ad3c002c 	sw	gp,44(t1)
80002060:	ad3d0030 	sw	sp,48(t1)
80002064:	ad3e0034 	sw	s8,52(t1)
80002068:	400c8003 	mfc0	t4,c0_config3
8000206c:	400c6001 	mfc0	t4,c0_intctl
80002070:	ad2c003c 	sw	t4,60(t1)
80002074:	400a7801 	mfc0	t2,c0_ebase
80002078:	ad2a0040 	sw	t2,64(t1)
8000207c:	3c0b0040 	lui	t3,0x40
80002080:	010b5824 	and	t3,t0,t3
80002084:	11600003 	beqz	t3,80002094 <__register_excpt_boot+0x70>
80002088:	00000000 	nop
8000208c:	3c0abfc0 	lui	t2,0xbfc0
80002090:	354a0200 	ori	t2,t2,0x200
80002094:	ad2a0044 	sw	t2,68(t1)
80002098:	03e00008 	jr	ra
8000209c:	00c01025 	move	v0,a2

800020a0 <__return_to_boot>:
800020a0:	41606000 	di
800020a4:	000000c0 	ehb
800020a8:	40096000 	mfc0	t1,c0_status
800020ac:	3c0a0040 	lui	t2,0x40
800020b0:	012a4825 	or	t1,t1,t2
800020b4:	40896000 	mtc0	t1,c0_status
800020b8:	000000c0 	ehb
800020bc:	3c098000 	lui	t1,0x8000
800020c0:	25292e8c 	addiu	t1,t1,11916
800020c4:	8d290040 	lw	t1,64(t1)
800020c8:	352a0800 	ori	t2,t1,0x800
800020cc:	408a7801 	mtc0	t2,c0_ebase
800020d0:	312b0800 	andi	t3,t1,0x800
800020d4:	15600002 	bnez	t3,800020e0 <__return_to_boot+0x40>
800020d8:	00000000 	nop
800020dc:	40897801 	mtc0	t1,c0_ebase
800020e0:	000000c0 	ehb
800020e4:	3c098000 	lui	t1,0x8000
800020e8:	25292e8c 	addiu	t1,t1,11916
800020ec:	8d300004 	lw	s0,4(t1)
800020f0:	8d310008 	lw	s1,8(t1)
800020f4:	8d32000c 	lw	s2,12(t1)
800020f8:	8d330010 	lw	s3,16(t1)
800020fc:	8d340014 	lw	s4,20(t1)
80002100:	8d350018 	lw	s5,24(t1)
80002104:	8d36001c 	lw	s6,28(t1)
80002108:	8d370020 	lw	s7,32(t1)
8000210c:	8d3a0024 	lw	k0,36(t1)
80002110:	8d3b0028 	lw	k1,40(t1)
80002114:	8d3c002c 	lw	gp,44(t1)
80002118:	8d3d0030 	lw	sp,48(t1)
8000211c:	8d3e0034 	lw	s8,52(t1)
80002120:	8d3f0038 	lw	ra,56(t1)
80002124:	8d22003c 	lw	v0,60(t1)
80002128:	40826001 	mtc0	v0,c0_intctl
8000212c:	8d290000 	lw	t1,0(t1)
80002130:	40896000 	mtc0	t1,c0_status
80002134:	40806800 	mtc0	zero,c0_cause
80002138:	03e00408 	jr.hb	ra
8000213c:	00801025 	move	v0,a0

80002140 <__chain_uhi_excpt>:
80002140:	00801825 	move	v1,a0
80002144:	8c690084 	lw	t1,132(v1)
80002148:	8c6a0088 	lw	t2,136(v1)
8000214c:	01200011 	mthi	t1
80002150:	01400013 	mtlo	t2
80002154:	8c690090 	lw	t1,144(v1)
80002158:	40896000 	mtc0	t1,c0_status
8000215c:	8c69007c 	lw	t1,124(v1)
80002160:	40897000 	mtc0	t1,c0_epc
80002164:	000000c0 	ehb
80002168:	8c610000 	lw	at,0(v1)
8000216c:	8c620004 	lw	v0,4(v1)
80002170:	8c64000c 	lw	a0,12(v1)
80002174:	8c650010 	lw	a1,16(v1)
80002178:	8c660014 	lw	a2,20(v1)
8000217c:	8c670018 	lw	a3,24(v1)
80002180:	8c68001c 	lw	t0,28(v1)
80002184:	8c690020 	lw	t1,32(v1)
80002188:	8c6a0024 	lw	t2,36(v1)
8000218c:	8c6b0028 	lw	t3,40(v1)
80002190:	8c6c002c 	lw	t4,44(v1)
80002194:	8c6d0030 	lw	t5,48(v1)
80002198:	8c6e0034 	lw	t6,52(v1)
8000219c:	8c6f0038 	lw	t7,56(v1)
800021a0:	8c70003c 	lw	s0,60(v1)
800021a4:	8c710040 	lw	s1,64(v1)
800021a8:	8c720044 	lw	s2,68(v1)
800021ac:	8c730048 	lw	s3,72(v1)
800021b0:	8c74004c 	lw	s4,76(v1)
800021b4:	8c750050 	lw	s5,80(v1)
800021b8:	8c760054 	lw	s6,84(v1)
800021bc:	8c770058 	lw	s7,88(v1)
800021c0:	8c78005c 	lw	t8,92(v1)
800021c4:	8c790060 	lw	t9,96(v1)
800021c8:	8c7c006c 	lw	gp,108(v1)
800021cc:	8c7d0070 	lw	sp,112(v1)
800021d0:	8c7e0074 	lw	s8,116(v1)
800021d4:	8c7f0078 	lw	ra,120(v1)
800021d8:	3c038000 	lui	v1,0x8000
800021dc:	24632e8c 	addiu	v1,v1,11916
800021e0:	8c7a0024 	lw	k0,36(v1)
800021e4:	8c7b0028 	lw	k1,40(v1)
800021e8:	8c630044 	lw	v1,68(v1)
800021ec:	24630180 	addiu	v1,v1,384
800021f0:	00600008 	jr	v1
800021f4:	00000000 	nop

800021f8 <__get_startup_BEV>:
800021f8:	3c028000 	lui	v0,0x8000
800021fc:	24422e8c 	addiu	v0,v0,11916
80002200:	8c420000 	lw	v0,0(v0)
80002204:	3c030040 	lui	v1,0x40
80002208:	03e00008 	jr	ra
8000220c:	00431024 	and	v0,v0,v1

80002210 <__convert_argv_pointers>:
80002210:	18800021 	blez	a0,80002298 <__convert_argv_pointers+0x88>
80002214:	00000000 	nop
80002218:	3c088000 	lui	t0,0x8000
8000221c:	25082e8c 	addiu	t0,t0,11916
80002220:	8d080000 	lw	t0,0(t0)
80002224:	7d0901c0 	ext	t1,t0,0x7,0x1
80002228:	1120001b 	beqz	t1,80002298 <__convert_argv_pointers+0x88>
8000222c:	00000000 	nop
80002230:	00804025 	move	t0,a0
80002234:	00084880 	sll	t1,t0,0x2
80002238:	25290007 	addiu	t1,t1,7
8000223c:	2401fff8 	li	at,-8
80002240:	01214824 	and	t1,t1,at
80002244:	03a9e823 	subu	sp,sp,t1
80002248:	03a05025 	move	t2,sp
8000224c:	00a05825 	move	t3,a1
80002250:	2409ffff 	li	t1,-1
80002254:	8d780000 	lw	t8,0(t3)
80002258:	8d790004 	lw	t9,4(t3)
8000225c:	13200005 	beqz	t9,80002274 <__convert_argv_pointers+0x64>
80002260:	00000000 	nop
80002264:	13290003 	beq	t9,t1,80002274 <__convert_argv_pointers+0x64>
80002268:	00000000 	nop
8000226c:	3c188000 	lui	t8,0x8000
80002270:	27182ed4 	addiu	t8,t8,11988
80002274:	ad580000 	sw	t8,0(t2)
80002278:	254a0004 	addiu	t2,t2,4
8000227c:	256b0008 	addiu	t3,t3,8
80002280:	2508ffff 	addiu	t0,t0,-1
80002284:	1500fff3 	bnez	t0,80002254 <__convert_argv_pointers+0x44>
80002288:	00000000 	nop
8000228c:	03a02825 	move	a1,sp
80002290:	27bdfff0 	addiu	sp,sp,-16
80002294:	00003025 	move	a2,zero
80002298:	03e00008 	jr	ra
8000229c:	00000000 	nop

800022a0 <strlen>:
800022a0:	24820001 	addiu	v0,a0,1
800022a4:	90830000 	lbu	v1,0(a0)
800022a8:	00000000 	nop
800022ac:	1460fffd 	bnez	v1,800022a4 <strlen+0x4>
800022b0:	24840001 	addiu	a0,a0,1
800022b4:	03e00008 	jr	ra
800022b8:	00821023 	subu	v0,a0,v0

800022bc <write>:
800022bc:	27bdffe0 	addiu	sp,sp,-32
800022c0:	24190005 	li	t9,5
800022c4:	24020001 	li	v0,1
800022c8:	afbf001c 	sw	ra,28(sp)
800022cc:	afb00018 	sw	s0,24(sp)
800022d0:	0000004c 	syscall	0x1
800022d4:	00408025 	move	s0,v0
800022d8:	2402ffff 	li	v0,-1
800022dc:	16020007 	bne	s0,v0,800022fc <write+0x40>
800022e0:	8fbf001c 	lw	ra,28(sp)
800022e4:	afa30010 	sw	v1,16(sp)
800022e8:	0c0008d9 	jal	80002364 <__errno>
800022ec:	00000000 	nop
800022f0:	8fa30010 	lw	v1,16(sp)
800022f4:	ac430000 	sw	v1,0(v0)
800022f8:	8fbf001c 	lw	ra,28(sp)
800022fc:	02001025 	move	v0,s0
80002300:	8fb00018 	lw	s0,24(sp)
80002304:	03e00008 	jr	ra
80002308:	27bd0020 	addiu	sp,sp,32

8000230c <__uhi_exception>:
8000230c:	2419000f 	li	t9,15
80002310:	24020001 	li	v0,1
80002314:	0000004c 	syscall	0x1
80002318:	03e00008 	jr	ra
8000231c:	00000000 	nop

80002320 <__uhi_indirect>:
80002320:	00804025 	move	t0,a0
80002324:	8c84000c 	lw	a0,12(a0)
80002328:	24020001 	li	v0,1
8000232c:	8d050010 	lw	a1,16(t0)
80002330:	8d060014 	lw	a2,20(t0)
80002334:	8d070018 	lw	a3,24(t0)
80002338:	8d190060 	lw	t9,96(t0)
8000233c:	7000007f 	sdbbp	0x1
80002340:	ad020004 	sw	v0,4(t0)
80002344:	8d02007c 	lw	v0,124(t0)
80002348:	ad030008 	sw	v1,8(t0)
8000234c:	ad04000c 	sw	a0,12(t0)
80002350:	24420004 	addiu	v0,v0,4
80002354:	ad050010 	sw	a1,16(t0)
80002358:	ad02007c 	sw	v0,124(t0)
8000235c:	03e00008 	jr	ra
80002360:	24020001 	li	v0,1

80002364 <__errno>:
80002364:	3c028000 	lui	v0,0x8000
80002368:	03e00008 	jr	ra
8000236c:	8c422ef4 	lw	v0,12020(v0)

80002370 <__exception_save>:
80002370:	03a0d825 	move	k1,sp
80002374:	27bdff50 	addiu	sp,sp,-176
80002378:	afa10010 	sw	at,16(sp)
8000237c:	afa20014 	sw	v0,20(sp)
80002380:	afa30018 	sw	v1,24(sp)
80002384:	afa4001c 	sw	a0,28(sp)
80002388:	afa50020 	sw	a1,32(sp)
8000238c:	afa60024 	sw	a2,36(sp)
80002390:	afa70028 	sw	a3,40(sp)
80002394:	afa8002c 	sw	t0,44(sp)
80002398:	afa90030 	sw	t1,48(sp)
8000239c:	afaa0034 	sw	t2,52(sp)
800023a0:	afab0038 	sw	t3,56(sp)
800023a4:	afac003c 	sw	t4,60(sp)
800023a8:	afad0040 	sw	t5,64(sp)
800023ac:	afae0044 	sw	t6,68(sp)
800023b0:	afaf0048 	sw	t7,72(sp)
800023b4:	afb0004c 	sw	s0,76(sp)
800023b8:	afb10050 	sw	s1,80(sp)
800023bc:	afb20054 	sw	s2,84(sp)
800023c0:	afb30058 	sw	s3,88(sp)
800023c4:	afb4005c 	sw	s4,92(sp)
800023c8:	afb50060 	sw	s5,96(sp)
800023cc:	afb60064 	sw	s6,100(sp)
800023d0:	afb70068 	sw	s7,104(sp)
800023d4:	afb8006c 	sw	t8,108(sp)
800023d8:	afb90070 	sw	t9,112(sp)
800023dc:	afba0074 	sw	k0,116(sp)
800023e0:	afbc007c 	sw	gp,124(sp)
800023e4:	afbb0080 	sw	k1,128(sp)
800023e8:	afbe0084 	sw	s8,132(sp)
800023ec:	afbf0088 	sw	ra,136(sp)
800023f0:	afa0009c 	sw	zero,156(sp)
800023f4:	00004810 	mfhi	t1
800023f8:	00005012 	mflo	t2
800023fc:	afa90094 	sw	t1,148(sp)
80002400:	afaa0098 	sw	t2,152(sp)
80002404:	401f7000 	mfc0	ra,c0_epc
80002408:	40136800 	mfc0	s3,c0_cause
8000240c:	afbf008c 	sw	ra,140(sp)
80002410:	40094000 	mfc0	t1,c0_badvaddr
80002414:	afa90090 	sw	t1,144(sp)
80002418:	afb300a4 	sw	s3,164(sp)
8000241c:	00005825 	move	t3,zero
80002420:	00006025 	move	t4,zero
80002424:	40098003 	mfc0	t1,c0_config3
80002428:	7d2a06c0 	ext	t2,t1,0x1b,0x1
8000242c:	11400002 	beqz	t2,80002438 <__exception_save+0xc8>
80002430:	00000000 	nop
80002434:	400b4002 	mfc0	t3,$8,2
80002438:	7d290680 	ext	t1,t1,0x1a,0x1
8000243c:	11200002 	beqz	t1,80002448 <__exception_save+0xd8>
80002440:	00000000 	nop
80002444:	400c4001 	mfc0	t4,$8,1
80002448:	afab00ac 	sw	t3,172(sp)
8000244c:	afac00a8 	sw	t4,168(sp)
80002450:	03a02025 	move	a0,sp
80002454:	40156000 	mfc0	s5,c0_status
80002458:	afb500a0 	sw	s5,160(sp)
8000245c:	3c090000 	lui	t1,0x0
80002460:	2529fffd 	addiu	t1,t1,-3
80002464:	02a9a824 	and	s5,s5,t1
80002468:	40956000 	mtc0	s5,c0_status
8000246c:	3c1f8000 	lui	ra,0x8000
80002470:	27ff2490 	addiu	ra,ra,9360
80002474:	3265007c 	andi	a1,s3,0x7c
80002478:	24840010 	addiu	a0,a0,16
8000247c:	00052882 	srl	a1,a1,0x2
80002480:	3c198000 	lui	t9,0x8000
80002484:	27391890 	addiu	t9,t9,6288
80002488:	03200008 	jr	t9
8000248c:	00000000 	nop
80002490:	8fa90094 	lw	t1,148(sp)
80002494:	8faa0098 	lw	t2,152(sp)
80002498:	01200011 	mthi	t1
8000249c:	01400013 	mtlo	t2
800024a0:	8fa10010 	lw	at,16(sp)
800024a4:	8fa20014 	lw	v0,20(sp)
800024a8:	8fa30018 	lw	v1,24(sp)
800024ac:	8fa4001c 	lw	a0,28(sp)
800024b0:	8fa50020 	lw	a1,32(sp)
800024b4:	8fa60024 	lw	a2,36(sp)
800024b8:	8fa70028 	lw	a3,40(sp)
800024bc:	8fa8002c 	lw	t0,44(sp)
800024c0:	8fa90030 	lw	t1,48(sp)
800024c4:	8faa0034 	lw	t2,52(sp)
800024c8:	8fab0038 	lw	t3,56(sp)
800024cc:	8fac003c 	lw	t4,60(sp)
800024d0:	8fad0040 	lw	t5,64(sp)
800024d4:	8fae0044 	lw	t6,68(sp)
800024d8:	8faf0048 	lw	t7,72(sp)
800024dc:	8fb0004c 	lw	s0,76(sp)
800024e0:	8fb10050 	lw	s1,80(sp)
800024e4:	8fb20054 	lw	s2,84(sp)
800024e8:	8fb30058 	lw	s3,88(sp)
800024ec:	8fb4005c 	lw	s4,92(sp)
800024f0:	8fb50060 	lw	s5,96(sp)
800024f4:	8fb60064 	lw	s6,100(sp)
800024f8:	8fb70068 	lw	s7,104(sp)
800024fc:	8fb8006c 	lw	t8,108(sp)
80002500:	8fb90070 	lw	t9,112(sp)
80002504:	8fbc007c 	lw	gp,124(sp)
80002508:	8fbe0084 	lw	s8,132(sp)
8000250c:	8fbf0088 	lw	ra,136(sp)
80002510:	41606000 	di
80002514:	8fba00a0 	lw	k0,160(sp)
80002518:	8fbb008c 	lw	k1,140(sp)
8000251c:	409a6000 	mtc0	k0,c0_status
80002520:	409b7000 	mtc0	k1,c0_epc
80002524:	000000c0 	ehb
80002528:	8fba0074 	lw	k0,116(sp)
8000252c:	8fbb0078 	lw	k1,120(sp)
80002530:	8fbd0080 	lw	sp,128(sp)
80002534:	42000018 	eret

Disassembly of section .init:

80002538 <_init>:
80002538:	27bdffe0 	addiu	sp,sp,-32
8000253c:	afbf0014 	sw	ra,20(sp)
80002540:	0c0001bf 	jal	800006fc <frame_dummy>
80002544:	00000000 	nop
80002548:	0c0004c0 	jal	80001300 <__do_global_ctors_aux>
8000254c:	00000000 	nop

80002550 <init>:
80002550:	8fbf0014 	lw	ra,20(sp)
80002554:	03e00008 	jr	ra
80002558:	27bd0020 	addiu	sp,sp,32

Disassembly of section .fini:

8000255c <_fini>:
8000255c:	27bdffe0 	addiu	sp,sp,-32
80002560:	afbf0014 	sw	ra,20(sp)
80002564:	0c00018f 	jal	8000063c <__do_global_dtors_aux>
80002568:	00000000 	nop

8000256c <fini>:
8000256c:	8fbf0014 	lw	ra,20(sp)
80002570:	03e00008 	jr	ra
80002574:	27bd0020 	addiu	sp,sp,32

Disassembly of section .eh_frame:

80002578 <__EH_FRAME_BEGIN__>:
80002578:	00000000 	nop

Disassembly of section .jcr:

8000257c <__JCR_END__>:
8000257c:	00000000 	nop

Disassembly of section .ctors:

80002580 <__CTOR_LIST__>:
80002580:	ffffffff 	sdc3	$31,-1(ra)

80002584 <__CTOR_END__>:
80002584:	00000000 	nop

Disassembly of section .dtors:

80002588 <__DTOR_LIST__>:
80002588:	ffffffff 	sdc3	$31,-1(ra)

8000258c <__DTOR_END__>:
8000258c:	00000000 	nop

Disassembly of section .MIPS.abiflags:

80002590 <__MIPS_abiflags_start>:
80002590:	02200000 	0x2200000
80002594:	03000001 	movf	zero,t8,$fcc0
80002598:	00000000 	nop
8000259c:	00000008 	jr	zero
800025a0:	00000001 	movf	zero,zero,$fcc0
800025a4:	00000000 	nop

Disassembly of section .rodata:

800025a8 <.rodata>:
800025a8:	800018d0 	lb	zero,6352(zero)
800025ac:	800018e0 	lb	zero,6368(zero)
800025b0:	800018ec 	lb	zero,6380(zero)
800025b4:	800018f8 	lb	zero,6392(zero)
800025b8:	80001918 	lb	zero,6424(zero)
800025bc:	80001924 	lb	zero,6436(zero)
800025c0:	80001944 	lb	zero,6468(zero)
800025c4:	80001958 	lb	zero,6488(zero)
800025c8:	80001a30 	lb	zero,6704(zero)
800025cc:	80001a3c 	lb	zero,6716(zero)
800025d0:	80001a48 	lb	zero,6728(zero)
800025d4:	80001a54 	lb	zero,6740(zero)
800025d8:	80001a68 	lb	zero,6760(zero)
800025dc:	80001a7c 	lb	zero,6780(zero)
800025e0:	80001ad8 	lb	zero,6872(zero)
800025e4:	80001b34 	lb	zero,6964(zero)
800025e8:	80001b44 	lb	zero,6980(zero)
800025ec:	80001b58 	lb	zero,7000(zero)
800025f0:	80001b6c 	lb	zero,7020(zero)
800025f4:	80001b80 	lb	zero,7040(zero)
800025f8:	80001b94 	lb	zero,7060(zero)
800025fc:	80001ba0 	lb	zero,7072(zero)
80002600:	80001bac 	lb	zero,7084(zero)
80002604:	80001bbc 	lb	zero,7100(zero)
80002608:	80001bd0 	lb	zero,7120(zero)
8000260c:	80001be4 	lb	zero,7140(zero)
80002610:	80001c0c 	lb	zero,7180(zero)
80002614:	80001c0c 	lb	zero,7180(zero)
80002618:	80001c0c 	lb	zero,7180(zero)
8000261c:	80001bf8 	lb	zero,7160(zero)
80002620:	00000043 	sra	zero,zero,0x1
80002624:	33323130 	andi	s2,t9,0x3130
80002628:	37363534 	ori	s6,t9,0x3534
8000262c:	42413938 	c0	0x413938
80002630:	46454443 	c1	0x454443
80002634:	00000000 	nop
80002638:	20424c54 	addi	v0,v0,19540
8000263c:	69646f6d 	0x69646f6d
80002640:	61636966 	0x61636966
80002644:	6e6f6974 	0x6e6f6974
80002648:	63786520 	0x63786520
8000264c:	69747065 	0x69747065
80002650:	000a6e6f 	0xa6e6f
80002654:	20424c54 	addi	v0,v0,19540
80002658:	6f727265 	0x6f727265
8000265c:	6e6f2072 	0x6e6f2072
80002660:	616f6c20 	0x616f6c20
80002664:	72662064 	s8ldi	xr1,s3,-120,ptn1
80002668:	30206d6f 	andi	zero,at,0x6d6f
8000266c:	00000078 	0x78
80002670:	20424c54 	addi	v0,v0,19540
80002674:	6f727265 	0x6f727265
80002678:	6e6f2072 	0x6e6f2072
8000267c:	6f747320 	0x6f747320
80002680:	74206572 	jalx	808195c8 <__lstack+0x416078>
80002684:	7830206f 	0x7830206f
80002688:	00000000 	nop
8000268c:	72646441 	0x72646441
80002690:	20737365 	addi	s3,v1,29541
80002694:	6f727265 	0x6f727265
80002698:	6e6f2072 	0x6e6f2072
8000269c:	616f6c20 	0x616f6c20
800026a0:	72662064 	s8ldi	xr1,s3,-120,ptn1
800026a4:	30206d6f 	andi	zero,at,0x6d6f
800026a8:	00000078 	0x78
800026ac:	72646441 	0x72646441
800026b0:	20737365 	addi	s3,v1,29541
800026b4:	6f727265 	0x6f727265
800026b8:	6e6f2072 	0x6e6f2072
800026bc:	6f747320 	0x6f747320
800026c0:	74206572 	jalx	808195c8 <__lstack+0x416078>
800026c4:	7830206f 	0x7830206f
800026c8:	00000000 	nop
800026cc:	74736e49 	jalx	81cdb924 <__lstack+0x18d83d4>
800026d0:	74637572 	jalx	818dd5c8 <__lstack+0x14da078>
800026d4:	206e6f69 	addi	t6,v1,28521
800026d8:	20737562 	addi	s3,v1,30050
800026dc:	6f727265 	0x6f727265
800026e0:	00000a72 	tlt	zero,zero,0x29
800026e4:	61746144 	0x61746144
800026e8:	73756220 	0x73756220
800026ec:	72726520 	0x72726520
800026f0:	000a726f 	0xa726f
800026f4:	6320324c 	0x6320324c
800026f8:	65686361 	0x65686361
800026fc:	6e6f6320 	0x6e6f6320
80002700:	75676966 	jalx	859da598 <__lstack+0x55d7048>
80002704:	69746172 	0x69746172
80002708:	65206e6f 	0x65206e6f
8000270c:	726f7272 	0x726f7272
80002710:	0000000a 	movz	zero,zero,zero
80002714:	6e6b6e55 	0x6e6b6e55
80002718:	206e776f 	addi	t6,v1,30575
8000271c:	746f6f62 	jalx	81bdbd88 <__lstack+0x17d8838>
80002720:	69616620 	0x69616620
80002724:	6572756c 	0x6572756c
80002728:	72726520 	0x72726520
8000272c:	000a726f 	0xa726f
80002730:	61657242 	0x61657242
80002734:	696f706b 	0x696f706b
80002738:	4020746e 	0x4020746e
8000273c:	00007830 	tge	zero,zero,0x1e0
80002740:	656c6c49 	0x656c6c49
80002744:	206c6167 	addi	t4,v1,24935
80002748:	74736e69 	jalx	81cdb9a4 <__lstack+0x18d8454>
8000274c:	74637572 	jalx	818dd5c8 <__lstack+0x14da078>
80002750:	206e6f69 	addi	t6,v1,28521
80002754:	00783040 	0x783040
80002758:	72706f43 	0x72706f43
8000275c:	7365636f 	0x7365636f
80002760:	20726f73 	addi	s2,v1,28531
80002764:	73756e75 	q16slr	xr9,xr11,xr5,xr13,13
80002768:	656c6261 	0x656c6261
8000276c:	78304020 	ld.b	$w0,48(t0)
80002770:	00000000 	nop
80002774:	7265764f 	d16mace	xr9,xr13,xr5,xr9,SA,LW
80002778:	776f6c66 	jalx	8dbdb198 <__lstack+0xd7d7c48>
8000277c:	0000000a 	movz	zero,zero,zero
80002780:	70617254 	s32ldi	xr9,v1,368
80002784:	0000000a 	movz	zero,zero,zero
80002788:	2041534d 	addi	at,v0,21325
8000278c:	616f6c46 	0x616f6c46
80002790:	676e6974 	0x676e6974
80002794:	696f7020 	0x696f7020
80002798:	6520746e 	0x6520746e
8000279c:	726f7272 	0x726f7272
800027a0:	0000000a 	movz	zero,zero,zero
800027a4:	6c706d49 	0x6c706d49
800027a8:	6e656d65 	0x6e656d65
800027ac:	69746174 	0x69746174
800027b0:	73206e6f 	0x73206e6f
800027b4:	69636570 	0x69636570
800027b8:	20636966 	addi	v1,v1,26982
800027bc:	65637865 	0x65637865
800027c0:	6f697470 	0x6f697470
800027c4:	3128206e 	andi	t0,t1,0x206e
800027c8:	000a2936 	tne	zero,t2,0xa4
800027cc:	6c706d49 	0x6c706d49
800027d0:	6e656d65 	0x6e656d65
800027d4:	69746174 	0x69746174
800027d8:	73206e6f 	0x73206e6f
800027dc:	69636570 	0x69636570
800027e0:	20636966 	addi	v1,v1,26982
800027e4:	65637865 	0x65637865
800027e8:	6f697470 	0x6f697470
800027ec:	3128206e 	andi	t0,t1,0x206e
800027f0:	000a2937 	0xa2937
800027f4:	63657250 	0x63657250
800027f8:	20657369 	addi	a1,v1,29545
800027fc:	72706f43 	0x72706f43
80002800:	7365636f 	0x7365636f
80002804:	20726f73 	addi	s2,v1,28531
80002808:	78652032 	0x78652032
8000280c:	74706563 	jalx	81c1958c <__lstack+0x181603c>
80002810:	0a6e6f69 	j	89b9bda4 <__lstack+0x9798854>
80002814:	00000000 	nop
80002818:	20424c54 	addi	v0,v0,19540
8000281c:	64616572 	0x64616572
80002820:	686e6920 	0x686e6920
80002824:	74696269 	jalx	81a589a4 <__lstack+0x1655454>
80002828:	63786520 	0x63786520
8000282c:	69747065 	0x69747065
80002830:	000a6e6f 	0xa6e6f
80002834:	20424c54 	addi	v0,v0,19540
80002838:	63657865 	0x63657865
8000283c:	20657475 	addi	a1,v1,29813
80002840:	69686e69 	0x69686e69
80002844:	20746962 	addi	s4,v1,26978
80002848:	65637865 	0x65637865
8000284c:	6f697470 	0x6f697470
80002850:	00000a6e 	0xa6e
80002854:	2041534d 	addi	at,v0,21325
80002858:	73756e75 	q16slr	xr9,xr11,xr5,xr13,13
8000285c:	656c6261 	0x656c6261
80002860:	78304020 	ld.b	$w0,48(t0)
80002864:	00000000 	nop
80002868:	584d444d 	0x584d444d
8000286c:	63786520 	0x63786520
80002870:	69747065 	0x69747065
80002874:	40206e6f 	0x40206e6f
80002878:	00007830 	tge	zero,zero,0x1e0
8000287c:	63746157 	0x63746157
80002880:	696f7068 	0x696f7068
80002884:	4020746e 	0x4020746e
80002888:	00007830 	tge	zero,zero,0x1e0
8000288c:	6863614d 	0x6863614d
80002890:	20656e69 	addi	a1,v1,28265
80002894:	63656863 	0x63656863
80002898:	7265206b 	s16std	xr1,s3,-368,ptn0
8000289c:	0a726f72 	j	89c9bdc8 <__lstack+0x9898878>
800028a0:	00000000 	nop
800028a4:	65726854 	0x65726854
800028a8:	65206461 	0x65206461
800028ac:	70656378 	0x70656378
800028b0:	6e6f6974 	0x6e6f6974
800028b4:	0000000a 	movz	zero,zero,zero
800028b8:	20505344 	addi	s0,v0,21316
800028bc:	73756e75 	q16slr	xr9,xr11,xr5,xr13,13
800028c0:	656c6261 	0x656c6261
800028c4:	0000000a 	movz	zero,zero,zero
800028c8:	68636143 	0x68636143
800028cc:	72652065 	s8sdi	xr1,s3,72,ptn1
800028d0:	0a726f72 	j	89c9bdc8 <__lstack+0x9898878>
800028d4:	00000000 	nop
800028d8:	61686e55 	0x61686e55
800028dc:	656c646e 	0x656c646e
800028e0:	78652064 	st.b	$w1,101(a0)
800028e4:	74706563 	jalx	81c1958c <__lstack+0x181603c>
800028e8:	206e6f69 	addi	t6,v1,28521
800028ec:	00000000 	nop
800028f0:	093a3020 	j	84e8c080 <__lstack+0x4a88b30>
800028f4:	00000000 	nop
800028f8:	00000009 	jalr	zero,zero
800028fc:	093a7461 	j	84e9d184 <__lstack+0x4a99c34>
80002900:	00000000 	nop
80002904:	093a3076 	j	84e8c1d8 <__lstack+0x4a88c88>
80002908:	00000000 	nop
8000290c:	093a3176 	j	84e8c5d8 <__lstack+0x4a89088>
80002910:	00000000 	nop
80002914:	093a3061 	j	84e8c184 <__lstack+0x4a88c34>
80002918:	00000000 	nop
8000291c:	093a3161 	j	84e8c584 <__lstack+0x4a89034>
80002920:	00000000 	nop
80002924:	093a3261 	j	84e8c984 <__lstack+0x4a89434>
80002928:	00000000 	nop
8000292c:	093a3361 	j	84e8cd84 <__lstack+0x4a89834>
80002930:	00000000 	nop
80002934:	093a3074 	j	84e8c1d0 <__lstack+0x4a88c80>
80002938:	00000000 	nop
8000293c:	093a3174 	j	84e8c5d0 <__lstack+0x4a89080>
80002940:	00000000 	nop
80002944:	093a3274 	j	84e8c9d0 <__lstack+0x4a89480>
80002948:	00000000 	nop
8000294c:	093a3374 	j	84e8cdd0 <__lstack+0x4a89880>
80002950:	00000000 	nop
80002954:	093a3474 	j	84e8d1d0 <__lstack+0x4a89c80>
80002958:	00000000 	nop
8000295c:	093a3574 	j	84e8d5d0 <__lstack+0x4a8a080>
80002960:	00000000 	nop
80002964:	093a3674 	j	84e8d9d0 <__lstack+0x4a8a480>
80002968:	00000000 	nop
8000296c:	093a3774 	j	84e8ddd0 <__lstack+0x4a8a880>
80002970:	00000000 	nop
80002974:	093a3073 	j	84e8c1cc <__lstack+0x4a88c7c>
80002978:	00000000 	nop
8000297c:	093a3173 	j	84e8c5cc <__lstack+0x4a8907c>
80002980:	00000000 	nop
80002984:	093a3273 	j	84e8c9cc <__lstack+0x4a8947c>
80002988:	00000000 	nop
8000298c:	093a3373 	j	84e8cdcc <__lstack+0x4a8987c>
80002990:	00000000 	nop
80002994:	093a3473 	j	84e8d1cc <__lstack+0x4a89c7c>
80002998:	00000000 	nop
8000299c:	093a3573 	j	84e8d5cc <__lstack+0x4a8a07c>
800029a0:	00000000 	nop
800029a4:	093a3673 	j	84e8d9cc <__lstack+0x4a8a47c>
800029a8:	00000000 	nop
800029ac:	093a3773 	j	84e8ddcc <__lstack+0x4a8a87c>
800029b0:	00000000 	nop
800029b4:	093a3874 	j	84e8e1d0 <__lstack+0x4a8ac80>
800029b8:	00000000 	nop
800029bc:	093a3974 	j	84e8e5d0 <__lstack+0x4a8b080>
800029c0:	00000000 	nop
800029c4:	093a306b 	j	84e8c1ac <__lstack+0x4a88c5c>
800029c8:	00000000 	nop
800029cc:	093a316b 	j	84e8c5ac <__lstack+0x4a8905c>
800029d0:	00000000 	nop
800029d4:	093a7067 	j	84e9c19c <__lstack+0x4a98c4c>
800029d8:	00000000 	nop
800029dc:	093a7073 	j	84e9c1cc <__lstack+0x4a98c7c>
800029e0:	00000000 	nop
800029e4:	093a7066 	j	84e9c198 <__lstack+0x4a98c48>
800029e8:	00000000 	nop
800029ec:	093a6172 	j	84e985c8 <__lstack+0x4a95078>
800029f0:	00000000 	nop
800029f4:	093a6968 	j	84e9a5a0 <__lstack+0x4a97050>
800029f8:	00000000 	nop
800029fc:	093a6f6c 	j	84e9bdb0 <__lstack+0x4a98860>
80002a00:	00000000 	nop
80002a04:	3a637065 	xori	v1,s3,0x7065
80002a08:	20202020 	addi	zero,at,8224
80002a0c:	00000920 	0x920
80002a10:	56646142 	bnel	s3,a0,8001af1c <__global+0x10034>
80002a14:	72646441 	0x72646441
80002a18:	0000093a 	0x93a
80002a1c:	74617453 	jalx	8185d14c <__lstack+0x1459bfc>
80002a20:	203a7375 	addi	k0,at,29557
80002a24:	00092020 	add	a0,zero,t1
80002a28:	73756143 	0x73756143
80002a2c:	20203a65 	addi	zero,at,14949
80002a30:	00092020 	add	a0,zero,t1
80002a34:	49646142 	0x49646142
80002a38:	7274736e 	0x7274736e
80002a3c:	0009203a 	0x9203a
80002a40:	50646142 	beql	v1,a0,8001af4c <__global+0x10064>
80002a44:	74736e49 	jalx	81cdb924 <__lstack+0x18d83d4>
80002a48:	00093a72 	tlt	zero,t1,0xe9

Disassembly of section .data:

80002a50 <_fdata>:
	...

80002a60 <impure_data>:
80002a60:	00000000 	nop
80002a64:	80002d4c 	lb	zero,11596(zero)
80002a68:	80002db4 	lb	zero,11700(zero)
80002a6c:	80002e1c 	lb	zero,11804(zero)
	...
80002a94:	80002620 	lb	zero,9760(zero)
	...
80002b08:	00000001 	movf	zero,zero,$fcc0
80002b0c:	00000000 	nop
80002b10:	abcd330e 	swl	t5,13070(s8)
80002b14:	e66d1234 	swc1	$f13,4660(s3)
80002b18:	0005deec 	0x5deec
80002b1c:	0000000b 	movn	zero,zero,zero
	...

80002e88 <__first_boot>:
80002e88:	00000001 	movf	zero,zero,$fcc0

80002e8c <__start_ctx>:
	...

80002ed4 <__MIPS_UHI_BAD_POINTER>:
80002ed4:	3a494855 	xori	t1,s2,0x4855
80002ed8:	44414220 	0x44414220
80002edc:	494f5020 	0x494f5020
80002ee0:	5245544e 	beql	s2,a1,8001801c <__global+0xd134>
80002ee4:	00000000 	nop

Disassembly of section .sdata:

80002ee8 <__TMC_END__>:
80002ee8:	00000000 	nop

80002eec <vmm_page_addr>:
80002eec:	00043000 	sll	a2,a0,0x0

80002ef0 <_global_impure_ptr>:
80002ef0:	80002a60 	lb	zero,10848(zero)

80002ef4 <_impure_ptr>:
80002ef4:	80002a60 	lb	zero,10848(zero)

Disassembly of section .sbss:

80002ef8 <_edata>:
80002ef8:	00000000 	nop

80002efc <phy_page_count>:
80002efc:	00000000 	nop

80002f00 <pte_p>:
80002f00:	00000000 	nop

80002f04 <idx>:
80002f04:	00000000 	nop

Disassembly of section .bss:

80002f08 <_bss_start>:
80002f08:	00000000 	nop

80002f0c <dtor_idx.3451>:
80002f0c:	00000000 	nop

80002f10 <object.3461>:
	...

80002f28 <pmm_stack>:
	...

80402f18 <block_size>:
	...

80402f54 <block_flag>:
	...

80402fc8 <block_offset>:
	...

80403004 <page_alloc_counts>:
	...

80403044 <page_alloc_addrs>:
	...

Disassembly of section .startdata:

80403150 <__lstack-0x400>:
	...

80403550 <__lstack>:
	...

Disassembly of section .debug_aranges:

00000000 <.debug_aranges>:
   0:	0000001c 	0x1c
   4:	00000002 	srl	zero,zero,0x0
   8:	00040000 	sll	zero,a0,0x0
   c:	00000000 	nop
  10:	80000320 	lb	zero,800(zero)
  14:	00000298 	0x298
	...
  20:	0000001c 	0x1c
  24:	00e60002 	0xe60002
  28:	00040000 	sll	zero,a0,0x0
  2c:	00000000 	nop
  30:	9fc00000 	0x9fc00000
  34:	0000049c 	0x49c
	...
  40:	0000001c 	0x1c
  44:	01340002 	0x1340002
  48:	00040000 	sll	zero,a0,0x0
  4c:	00000000 	nop
  50:	8000075c 	lb	zero,1884(zero)
  54:	00000060 	0x60
	...
  60:	0000001c 	0x1c
  64:	02d40002 	0x2d40002
  68:	00040000 	sll	zero,a0,0x0
  6c:	00000000 	nop
  70:	800007bc 	lb	zero,1980(zero)
  74:	000000e8 	0xe8
	...
  80:	0000001c 	0x1c
  84:	042d0002 	0x42d0002
  88:	00040000 	sll	zero,a0,0x0
  8c:	00000000 	nop
  90:	800008a4 	lb	zero,2212(zero)
  94:	00000780 	sll	zero,zero,0x1e
	...
  a0:	0000001c 	0x1c
  a4:	0c920002 	jal	2480008 <__memory_size+0x2460808>
  a8:	00040000 	sll	zero,a0,0x0
  ac:	00000000 	nop
  b0:	80001024 	lb	zero,4132(zero)
  b4:	000002d4 	0x2d4
	...
  c0:	0000001c 	0x1c
  c4:	10ed0002 	beq	a3,t5,d0 <__isr_vec_space+0xb0>
  c8:	00040000 	sll	zero,a0,0x0
  cc:	00000000 	nop
  d0:	800012f8 	lb	zero,4856(zero)
  d4:	00000008 	jr	zero
  d8:	00000000 	nop
  dc:	00000000 	nop
  e0:	0000001c 	0x1c
  e4:	118d0002 	beq	t4,t5,f0 <__isr_vec_space+0xd0>
  e8:	00040000 	sll	zero,a0,0x0
  ec:	00000000 	nop
  f0:	80001348 	lb	zero,4936(zero)
  f4:	00000028 	0x28
	...
 100:	0000001c 	0x1c
 104:	12930002 	beq	s4,s3,110 <__isr_vec_space+0xf0>
 108:	00040000 	sll	zero,a0,0x0
 10c:	00000000 	nop
 110:	80001370 	lb	zero,4976(zero)
 114:	0000003c 	0x3c
	...
 120:	00000014 	0x14
 124:	1b730002 	0x1b730002
 128:	00040000 	sll	zero,a0,0x0
	...
 138:	0000001c 	0x1c
 13c:	24030002 	li	v1,2
 140:	00040000 	sll	zero,a0,0x0
 144:	00000000 	nop
 148:	800013ac 	lb	zero,5036(zero)
 14c:	00000110 	0x110
	...
 158:	0000001c 	0x1c
 15c:	2d330002 	sltiu	s3,t1,2
 160:	00040000 	sll	zero,a0,0x0
 164:	00000000 	nop
 168:	800014bc 	lb	zero,5308(zero)
 16c:	00000180 	sll	zero,zero,0x6
	...
 178:	0000001c 	0x1c
 17c:	36880002 	ori	t0,s4,0x2
 180:	00040000 	sll	zero,a0,0x0
 184:	00000000 	nop
 188:	8000163c 	lb	zero,5692(zero)
 18c:	00000088 	0x88
	...
 198:	0000001c 	0x1c
 19c:	37ae0002 	ori	t6,sp,0x2
 1a0:	00040000 	sll	zero,a0,0x0
 1a4:	00000000 	nop
 1a8:	800016c4 	lb	zero,5828(zero)
 1ac:	000000b8 	0xb8
	...
 1b8:	0000001c 	0x1c
 1bc:	389b0002 	xori	k1,a0,0x2
 1c0:	00040000 	sll	zero,a0,0x0
 1c4:	00000000 	nop
 1c8:	8000177c 	lb	zero,6012(zero)
 1cc:	0000004c 	syscall	0x1
	...
 1d8:	00000024 	and	zero,zero,zero
 1dc:	39aa0002 	xori	t2,t5,0x2
 1e0:	00040000 	sll	zero,a0,0x0
 1e4:	00000000 	nop
 1e8:	80000000 	lb	zero,0(zero)
 1ec:	00000194 	0x194
 1f0:	80002370 	lb	zero,9072(zero)
 1f4:	000001c8 	0x1c8
	...
 200:	0000001c 	0x1c
 204:	3a980002 	xori	t8,s4,0x2
 208:	00040000 	sll	zero,a0,0x0
 20c:	00000000 	nop
 210:	800017c8 	lb	zero,6088(zero)
 214:	000007ac 	0x7ac
	...
 220:	0000001c 	0x1c
 224:	46270002 	mul.d	$f0,$f0,$f7
 228:	00040000 	sll	zero,a0,0x0
 22c:	00000000 	nop
 230:	80001f74 	lb	zero,8052(zero)
 234:	000000b0 	tge	zero,zero,0x2
	...
 240:	0000001c 	0x1c
 244:	471c0002 	bz.b	$w28,250 <__isr_vec_space+0x230>
 248:	00040000 	sll	zero,a0,0x0
 24c:	00000000 	nop
 250:	80002024 	lb	zero,8228(zero)
 254:	0000027c 	0x27c
	...
 260:	0000001c 	0x1c
 264:	480d0002 	mfc2	t5,$0,2
 268:	00040000 	sll	zero,a0,0x0
 26c:	00000000 	nop
 270:	80000200 	lb	zero,512(zero)
 274:	00000118 	0x118
	...
 280:	00000014 	0x14
 284:	48fd0002 	mthc2	sp,$0,2
 288:	00040000 	sll	zero,a0,0x0
	...
 298:	0000001c 	0x1c
 29c:	496b0002 	0x496b0002
 2a0:	00040000 	sll	zero,a0,0x0
 2a4:	00000000 	nop
 2a8:	800022bc 	lb	zero,8892(zero)
 2ac:	00000050 	0x50
	...
 2b8:	0000001c 	0x1c
 2bc:	4ae90002 	c2	0xe90002
 2c0:	00040000 	sll	zero,a0,0x0
 2c4:	00000000 	nop
 2c8:	8000230c 	lb	zero,8972(zero)
 2cc:	00000014 	0x14
	...
 2d8:	0000001c 	0x1c
 2dc:	4d990002 	0x4d990002
 2e0:	00040000 	sll	zero,a0,0x0
 2e4:	00000000 	nop
 2e8:	80002320 	lb	zero,8992(zero)
 2ec:	00000044 	0x44
	...
 2f8:	0000001c 	0x1c
 2fc:	504f0002 	beql	v0,t7,308 <__isr_vec_space+0x2e8>
 300:	00040000 	sll	zero,a0,0x0
 304:	00000000 	nop
 308:	80002364 	lb	zero,9060(zero)
 30c:	0000000c 	syscall
	...

Disassembly of section .debug_info:

00000000 <.debug_info>:
       0:	000000e2 	0xe2
       4:	00000002 	srl	zero,zero,0x0
       8:	01040000 	0x1040000
       c:	00000000 	nop
      10:	80000320 	lb	zero,800(zero)
      14:	800005b8 	lb	zero,1464(zero)
      18:	7263732f 	0x7263732f
      1c:	68637461 	0x68637461
      20:	66706d2f 	0x66706d2f
      24:	626f6a2f 	0x626f6a2f
      28:	34352f73 	ori	s5,at,0x2f73
      2c:	2f353933 	sltiu	s5,t9,14643
      30:	39303834 	xori	s0,t1,0x3834
      34:	34322f34 	ori	s2,at,0x2f34
      38:	38393130 	xori	t9,at,0x3130
      3c:	6168732f 	0x6168732f
      40:	2f646572 	sltiu	a0,k1,25970
      44:	2f636367 	sltiu	v1,k1,25447
      48:	6762696c 	0x6762696c
      4c:	73736f6c 	s16ldi	xr13,k1,438,ptn2
      50:	70696d2f 	0x70696d2f
      54:	61682f73 	0x61682f73
      58:	72632f6c 	s16ldi	xr13,s3,406,ptn0
      5c:	532e3074 	beql	t9,t6,c230 <__isr_vec_space+0xc210>
      60:	63732f00 	0x63732f00
      64:	63746172 	0x63746172
      68:	706d2f68 	lxhu	a1,v1,t5,3
      6c:	6f6a2f66 	0x6f6a2f66
      70:	352f7362 	ori	t7,t1,0x7362
      74:	35393334 	ori	t9,t1,0x3334
      78:	3038342f 	andi	t8,at,0x342f
      7c:	322f3439 	andi	t7,s1,0x3439
      80:	36323034 	ori	s2,s1,0x3034
      84:	6f772f32 	0x6f772f32
      88:	6f2f6b72 	0x6f2f6b72
      8c:	6d2d6a62 	0x6d2d6a62
      90:	2d737069 	sltiu	s3,t3,28777
      94:	2d69746d 	sltiu	t1,t3,29805
      98:	2f666c65 	sltiu	a2,k1,27749
      9c:	2f636367 	sltiu	v1,k1,25447
      a0:	7370696d 	s16sdi	xr5,k1,52,
      a4:	69746d2d 	0x69746d2d
      a8:	666c652d 	0x666c652d
      ac:	70696d2f 	0x70696d2f
      b0:	2d6c6573 	sltiu	t4,t3,25971
      b4:	732d3272 	0x732d3272
      b8:	2d74666f 	sltiu	s4,t3,26223
      bc:	6c77656e 	0x6c77656e
      c0:	6c2f6269 	0x6c2f6269
      c4:	6c2f6269 	0x6c2f6269
      c8:	6c676269 	0x6c676269
      cc:	2f73736f 	sltiu	s3,k1,29551
      d0:	7370696d 	s16sdi	xr5,k1,52,
      d4:	554e4700 	bnel	t2,t6,11cd8 <__isr_vec_space+0x11cb8>
      d8:	20534120 	addi	s3,v0,16672
      dc:	34322e32 	ori	s2,at,0x2e32
      e0:	0030392e 	0x30392e
      e4:	004a8001 	0x4a8001
      e8:	00020000 	sll	zero,v0,0x0
      ec:	00000014 	0x14
      f0:	00f90104 	0xf90104
      f4:	00000000 	nop
      f8:	049c9fc0 	0x49c9fc0
      fc:	6f629fc0 	0x6f629fc0
     100:	622f746f 	0x622f746f
     104:	2e746f6f 	sltiu	s4,s3,28527
     108:	3a430053 	xori	v1,s2,0x53
     10c:	6d6f435c 	0x6d6f435c
     110:	68657270 	0x68657270
     114:	69736e65 	0x69736e65
     118:	4f5c6576 	nmadd.ps	$f21,$f26,$f12,$f28
     11c:	735c5853 	udi3	k0,gp,t3,0x1
     120:	47006372 	bz.b	$w0,18eec <__isr_vec_space+0x18ecc>
     124:	4120554e 	0x4120554e
     128:	2e322053 	sltiu	s2,s1,8275
     12c:	392e3432 	xori	t6,t1,0x3432
     130:	80010030 	lb	at,48(zero)
     134:	0000019c 	0x19c
     138:	00280004 	sllv	zero,t0,at
     13c:	01040000 	0x1040000
     140:	00000019 	multu	zero,zero
     144:	00009901 	0x9901
     148:	0000c000 	sll	t8,zero,0x0
     14c:	00075c00 	sll	t3,a3,0x10
     150:	00006080 	sll	t4,zero,0x2
     154:	00022200 	sll	a0,v0,0x8
     158:	07080200 	tgei	t8,512
     15c:	0000006c 	0x6c
     160:	00050802 	srl	at,a1,0x0
     164:	03000000 	0x3000000
     168:	00000c70 	tge	zero,zero,0x31
     16c:	003e1b02 	ror	v1,s8,0xc
     170:	04020000 	bltzl	zero,174 <__isr_vec_space+0x154>
     174:	00007607 	0x7607
     178:	05040400 	0x5040400
     17c:	00746e69 	0x746e69
     180:	ad070202 	sw	a3,514(t0)
     184:	02000000 	0x2000000
     188:	00d90502 	0xd90502
     18c:	83030000 	lb	v1,0(t8)
     190:	02000000 	0x2000000
     194:	0000651f 	0x651f
     198:	08010200 	j	40800 <__memory_size+0x21000>
     19c:	0000008b 	0x8b
     1a0:	94080102 	lhu	t0,258(zero)
     1a4:	05000000 	bltz	t0,1a8 <__isr_vec_space+0x188>
     1a8:	000000e3 	0xe3
     1ac:	ac030901 	sw	v1,2305(zero)
     1b0:	06000000 	bltz	s0,1b4 <__isr_vec_space+0x194>
     1b4:	0000000e 	0xe
     1b8:	00ac0901 	0xac0901
     1bc:	76070000 	jalx	81c0000 <__memory_size+0x81a0800>
     1c0:	01006c61 	0x1006c61
     1c4:	00005a09 	0x5a09
     1c8:	656c0700 	0x656c0700
     1cc:	0901006e 	j	40401b8 <__memory_size+0x40209b8>
     1d0:	00000033 	tltu	zero,zero
     1d4:	74736408 	jalx	1cd9020 <__memory_size+0x1cb9820>
     1d8:	ae0a0100 	sw	t2,256(s0)
     1dc:	00000000 	nop
     1e0:	040a0409 	tlti	zero,1033
     1e4:	0000005a 	0x5a
     1e8:	0000a60b 	0xa60b
     1ec:	5c030100 	0x5c030100
     1f0:	24800007 	addiu	zero,a0,7
     1f4:	01000000 	0x1000000
     1f8:	0000f79c 	0xf79c
     1fc:	000e0c00 	sll	at,t6,0x10
     200:	03010000 	0x3010000
     204:	000000ae 	0xae
     208:	00000000 	nop
     20c:	6372730d 	0x6372730d
     210:	f7030100 	sdc1	$f3,256(t8)
     214:	1e000000 	bgtz	s0,218 <__isr_vec_space+0x1f8>
     218:	0d000000 	jal	4000000 <__memory_size+0x3fe0800>
     21c:	006e656c 	0x6e656c
     220:	00330301 	0x330301
     224:	003c0000 	0x3c0000
     228:	0a000000 	j	8000000 <__memory_size+0x7fe0800>
     22c:	0000fd04 	0xfd04
     230:	005a0e00 	0x5a0e00
     234:	730f0000 	madd	t8,t7
     238:	80000000 	lb	zero,0(zero)
     23c:	20800007 	addi	zero,a0,7
     240:	01000000 	0x1000000
     244:	0001369c 	0x1369c
     248:	007f1000 	0x7f1000
     24c:	005d0000 	0x5d0000
     250:	8a110000 	lwl	s1,0(s0)
     254:	01000000 	0x1000000
     258:	00951055 	0x951055
     25c:	007e0000 	0x7e0000
     260:	a0120000 	sb	s2,0(zero)
     264:	01000000 	0x1000000
     268:	13130054 	beq	t8,s3,3bc <__isr_vec_space+0x39c>
     26c:	01000000 	0x1000000
     270:	0007a011 	0x7a011
     274:	00001c80 	sll	v1,zero,0x12
     278:	0c9c0100 	jal	2700400 <__memory_size+0x26e0c00>
     27c:	0000000e 	0xe
     280:	00ac1101 	0xac1101
     284:	009f0000 	0x9f0000
     288:	6c0d0000 	0x6c0d0000
     28c:	01006e65 	0x1006e65
     290:	00003311 	0x3311
     294:	0000c000 	sll	t8,zero,0x0
     298:	00731400 	0x731400
     29c:	07a00000 	bltz	sp,2a0 <__isr_vec_space+0x280>
     2a0:	001c8000 	sll	s0,gp,0x0
     2a4:	12010000 	beq	s0,at,2a8 <__isr_vec_space+0x288>
     2a8:	00009510 	0x9510
     2ac:	0000e100 	sll	gp,zero,0x4
     2b0:	008a1500 	0x8a1500
     2b4:	10000000 	b	2b8 <__isr_vec_space+0x298>
     2b8:	0000007f 	0x7f
     2bc:	0000009f 	0x9f
     2c0:	0007a016 	0x7a016
     2c4:	00001c80 	sll	v1,zero,0x12
     2c8:	00a01200 	0xa01200
     2cc:	54010000 	bnel	zero,at,2d0 <__isr_vec_space+0x2b0>
     2d0:	00000000 	nop
     2d4:	00000155 	0x155
     2d8:	014e0004 	sllv	zero,t6,t2
     2dc:	01040000 	0x1040000
     2e0:	00000019 	multu	zero,zero
     2e4:	0000f801 	movf	ra,zero,$fcc0
     2e8:	0000c000 	sll	t8,zero,0x0
     2ec:	0007bc00 	sll	s7,a3,0x10
     2f0:	0000e880 	sll	sp,zero,0x2
     2f4:	00028c00 	sll	s1,v0,0x10
     2f8:	07080200 	tgei	t8,512
     2fc:	0000006c 	0x6c
     300:	00050802 	srl	at,a1,0x0
     304:	03000000 	0x3000000
     308:	00000c70 	tge	zero,zero,0x31
     30c:	003e1b02 	ror	v1,s8,0xc
     310:	04020000 	bltzl	zero,314 <__isr_vec_space+0x2f4>
     314:	00007607 	0x7607
     318:	05040400 	0x5040400
     31c:	00746e69 	0x746e69
     320:	ad070202 	sw	a3,514(t0)
     324:	02000000 	0x2000000
     328:	00d90502 	0xd90502
     32c:	01020000 	0x1020000
     330:	00008b08 	0x8b08
     334:	08010200 	j	40800 <__memory_size+0x21000>
     338:	00000094 	0x94
     33c:	00011205 	0x11205
     340:	331a0100 	andi	k0,t8,0x100
     344:	bc000000 	cache	0x0,0(zero)
     348:	40800007 	mtc0	zero,$0,7
     34c:	01000000 	0x1000000
     350:	0000919c 	0x919c
     354:	011c0600 	0x11c0600
     358:	21010000 	addi	at,t0,0
     35c:	00000033 	tltu	zero,zero
     360:	00000102 	srl	zero,zero,0x4
     364:	013a0700 	0x13a0700
     368:	27010000 	addiu	at,t8,0
     36c:	800007fc 	lb	zero,2044(zero)
     370:	00000044 	0x44
     374:	00b29c01 	0xb29c01
     378:	70080000 	madd	zero,t0
     37c:	33270100 	andi	a3,t9,0x100
     380:	01000000 	0x1000000
     384:	48090054 	0x48090054
     388:	01000001 	movf	zero,t0,$fcc0
     38c:	0008400d 	break	0x8,0x100
     390:	00005c80 	sll	t3,zero,0x12
     394:	f69c0100 	sdc1	$f28,256(s4)
     398:	06000000 	bltz	s0,39c <__isr_vec_space+0x37c>
     39c:	00000191 	0x191
     3a0:	00331001 	0x331001
     3a4:	01150000 	0x1150000
     3a8:	630a0000 	0x630a0000
     3ac:	0100746e 	0x100746e
     3b0:	00004511 	0x4511
     3b4:	00013800 	sll	a3,at,0x0
     3b8:	08740b00 	j	1d02c00 <__memory_size+0x1ce3400>
     3bc:	00918000 	0x918000
     3c0:	010c0000 	0x10c0000
     3c4:	00800254 	0x800254
     3c8:	010d0000 	0x10d0000
     3cc:	01000001 	movf	zero,t0,$fcc0
     3d0:	00003331 	tgeu	zero,zero,0xcc
     3d4:	00089c00 	sll	s3,t0,0x10
     3d8:	00000880 	sll	at,zero,0x2
     3dc:	0e9c0100 	jal	a700400 <__memory_size+0xa6e0c00>
     3e0:	00000033 	tltu	zero,zero
     3e4:	0000011e 	0x11e
     3e8:	00011e0f 	0x11e0f
     3ec:	0ffffb00 	jal	fffec00 <__memory_size+0xffdf400>
     3f0:	04020000 	bltzl	zero,3f4 <__isr_vec_space+0x3d4>
     3f4:	00015107 	0x15107
     3f8:	01211000 	0x1211000
     3fc:	05010000 	bgez	t0,400 <__isr_vec_space+0x3e0>
     400:	0000010b 	0x10b
     404:	2f280305 	sltiu	t0,t9,773
     408:	ea108000 	swc2	$16,-32768(s0)
     40c:	01000000 	0x1000000
     410:	00003308 	0x3308
     414:	f8030500 	sdc2	$3,1280(zero)
     418:	1180002e 	beqz	t4,4d4 <__isr_vec_space+0x4b4>
     41c:	0000012b 	0x12b
     420:	00330b01 	0x330b01
     424:	03050000 	0x3050000
     428:	80002efc 	lb	zero,12028(zero)
     42c:	00086100 	sll	t4,t0,0x4
     430:	61000400 	0x61000400
     434:	04000002 	bltz	zero,440 <__isr_vec_space+0x420>
     438:	00001901 	0x1901
     43c:	01c30100 	0x1c30100
     440:	00c00000 	0xc00000
     444:	08a40000 	j	2900000 <__memory_size+0x28e0800>
     448:	07808000 	bltz	gp,fffe044c <__entry+0x403e044c>
     44c:	03060000 	0x3060000
     450:	08020000 	j	80000 <__memory_size+0x60800>
     454:	00006c07 	0x6c07
     458:	01880300 	0x1880300
     45c:	02040000 	0x2040000
     460:	00004514 	0x4514
     464:	01f90400 	0x1f90400
     468:	04000000 	bltz	zero,46c <__isr_vec_space+0x44c>
     46c:	0000015a 	0x15a
     470:	88050001 	lwl	a1,1(zero)
     474:	02000001 	movf	zero,s0,$fcc0
     478:	00002c17 	0x2c17
     47c:	019b0500 	0x19b0500
     480:	19020000 	0x19020000
     484:	00000025 	move	zero,zero
     488:	00050802 	srl	at,a1,0x0
     48c:	05000000 	bltz	t0,490 <__isr_vec_space+0x470>
     490:	00000c70 	tge	zero,zero,0x31
     494:	006d1b02 	0x6d1b02
     498:	04020000 	bltzl	zero,49c <__isr_vec_space+0x47c>
     49c:	00007607 	0x7607
     4a0:	0b4c0500 	j	d301400 <__memory_size+0xd2e1c00>
     4a4:	1c020000 	0x1c020000
     4a8:	0000007f 	0x7f
     4ac:	69050406 	0x69050406
     4b0:	0500746e 	bltz	t0,1d66c <__isr_vec_space+0x1d64c>
     4b4:	00000305 	0x305
     4b8:	00911d02 	0x911d02
     4bc:	02020000 	0x2020000
     4c0:	0000ad07 	0xad07
     4c4:	05020200 	bltzl	t0,cc8 <__isr_vec_space+0xca8>
     4c8:	000000d9 	0xd9
     4cc:	8b080102 	lwl	t0,258(t8)
     4d0:	02000000 	0x2000000
     4d4:	00940801 	movf	at,a0,$fcc5
     4d8:	5f050000 	0x5f050000
     4dc:	02000001 	movf	zero,s0,$fcc0
     4e0:	00006d21 	0x6d21
     4e4:	01a40500 	0x1a40500
     4e8:	28020000 	slti	v0,zero,0
     4ec:	00000074 	teq	zero,zero,0x1
     4f0:	00033d05 	0x33d05
     4f4:	502b0200 	beql	at,t3,cf8 <__isr_vec_space+0xcd8>
     4f8:	07000000 	bltz	t8,4fc <__isr_vec_space+0x4dc>
     4fc:	00000176 	tne	zero,zero,0x5
     500:	08a41101 	j	2904404 <__memory_size+0x28e4c04>
     504:	01c08000 	0x1c08000
     508:	9c010000 	0x9c010000
     50c:	0000014b 	0x14b
     510:	746e6308 	jalx	1b98c20 <__memory_size+0x1b79420>
     514:	7f140100 	ext	s4,t8,0x4,0x1
     518:	4c000000 	lwxc1	$f0,zero(zero)
     51c:	09000001 	j	4000004 <__memory_size+0x3fe0804>
     520:	00000171 	tgeu	zero,zero,0x5
     524:	00501501 	0x501501
     528:	ffcf0000 	sdc3	$15,0(s8)
     52c:	6908ffff 	0x6908ffff
     530:	01007864 	0x1007864
     534:	00007f1f 	0x7f1f
     538:	00016b00 	sll	t5,at,0xc
     53c:	02450a00 	0x2450a00
     540:	1f010000 	0x1f010000
     544:	0000007f 	0x7f
     548:	000001bb 	0x1bb
     54c:	0001f40a 	0x1f40a
     550:	7f1f0100 	ext	ra,t8,0x4,0x1
     554:	20000000 	addi	zero,zero,0
     558:	0a000002 	j	8000008 <__memory_size+0x7fe0808>
     55c:	0000016c 	0x16c
     560:	007f1f01 	0x7f1f01
     564:	02870000 	0x2870000
     568:	6b080000 	0x6b080000
     56c:	7f2f0100 	ext	t7,t9,0x4,0x1
     570:	e0000000 	sc	zero,0(zero)
     574:	00000002 	srl	zero,zero,0x0
     578:	0003220b 	0x3220b
     57c:	625b0100 	0x625b0100
     580:	01000000 	0x1000000
     584:	00000167 	0x167
     588:	0001cc0c 	syscall	0x730
     58c:	625b0100 	0x625b0100
     590:	00000000 	nop
     594:	00014b0d 	break	0x1,0x12c
     598:	000a6400 	sll	t4,t2,0x10
     59c:	00000880 	sll	at,zero,0x2
     5a0:	829c0100 	lb	gp,256(s4)
     5a4:	0e000001 	jal	8000004 <__memory_size+0x7fe0804>
     5a8:	0000015b 	0x15b
     5ac:	0b005401 	j	c015004 <__memory_size+0xbff5804>
     5b0:	00000212 	0x212
     5b4:	00626001 	0x626001
     5b8:	9e010000 	0x9e010000
     5bc:	0f000001 	jal	c000004 <__memory_size+0xbfe0804>
     5c0:	00657470 	tge	v1,a1,0x1d1
     5c4:	00c36001 	0xc36001
     5c8:	0d000000 	jal	4000000 <__memory_size+0x3fe0800>
     5cc:	00000182 	srl	zero,zero,0x6
     5d0:	80000a6c 	lb	zero,2668(zero)
     5d4:	00000008 	jr	zero
     5d8:	01be9c01 	0x1be9c01
     5dc:	920e0000 	lbu	t6,0(s0)
     5e0:	06000001 	bltz	s0,5e8 <__isr_vec_space+0x5c8>
     5e4:	55049354 	bnel	t0,a0,fffe5338 <__entry+0x403e5338>
     5e8:	0b000493 	j	c00124c <__memory_size+0xbfe1a4c>
     5ec:	00000355 	0x355
     5f0:	00626501 	0x626501
     5f4:	da010000 	ldc2	$1,0(s0)
     5f8:	0f000001 	jal	c000004 <__memory_size+0xbfe0804>
     5fc:	00657470 	tge	v1,a1,0x1d1
     600:	00c36501 	0xc36501
     604:	0d000000 	jal	4000000 <__memory_size+0x3fe0800>
     608:	000001be 	0x1be
     60c:	80000a74 	lb	zero,2676(zero)
     610:	00000014 	0x14
     614:	01fa9c01 	0x1fa9c01
     618:	ce0e0000 	pref	0xe,0(s0)
     61c:	06000001 	bltz	s0,624 <__isr_vec_space+0x604>
     620:	55049354 	bnel	t0,a0,fffe5374 <__entry+0x403e5374>
     624:	0b000493 	j	c00124c <__memory_size+0xbfe1a4c>
     628:	00000223 	0x223
     62c:	00626a01 	0x626a01
     630:	16010000 	bne	s0,at,634 <__isr_vec_space+0x614>
     634:	0f000002 	jal	c000008 <__memory_size+0xbfe0808>
     638:	00657470 	tge	v1,a1,0x1d1
     63c:	00c36a01 	0xc36a01
     640:	0d000000 	jal	4000000 <__memory_size+0x3fe0800>
     644:	000001fa 	0x1fa
     648:	80000a88 	lb	zero,2696(zero)
     64c:	00000008 	jr	zero
     650:	02369c01 	0x2369c01
     654:	0a0e0000 	j	8380000 <__memory_size+0x8360800>
     658:	06000002 	bltz	s0,664 <__isr_vec_space+0x644>
     65c:	55049354 	bnel	t0,a0,fffe53b0 <__entry+0x403e53b0>
     660:	0b000493 	j	c00124c <__memory_size+0xbfe1a4c>
     664:	0000028b 	0x28b
     668:	00627d01 	0x627d01
     66c:	52010000 	beql	s0,at,670 <__isr_vec_space+0x650>
     670:	0c000002 	jal	8 <ABIFlags_isa_ext>
     674:	00000191 	0x191
     678:	00627d01 	0x627d01
     67c:	10000000 	b	680 <__isr_vec_space+0x660>
     680:	00000258 	0x258
     684:	02cb6f01 	0x2cb6f01
     688:	0a900000 	j	a400000 <__memory_size+0xa3e0800>
     68c:	00848000 	0x848000
     690:	9c010000 	0x9c010000
     694:	000002cb 	0x2cb
     698:	00019111 	0x19111
     69c:	626f0100 	0x626f0100
     6a0:	18000000 	blez	zero,6a4 <__isr_vec_space+0x684>
     6a4:	12000003 	beqz	s0,6b4 <__isr_vec_space+0x694>
     6a8:	006e7076 	tne	v1,t6,0x1c1
     6ac:	007f7201 	0x7f7201
     6b0:	63080000 	0x63080000
     6b4:	0100746e 	0x100746e
     6b8:	00007f73 	tltu	zero,zero,0x1fd
     6bc:	00034e00 	sll	t1,v1,0x18
     6c0:	02361300 	0x2361300
     6c4:	0a900000 	j	a400000 <__memory_size+0xa3e0800>
     6c8:	00048000 	sll	s0,a0,0x0
     6cc:	72010000 	madd	s0,at
     6d0:	000002b1 	tgeu	zero,zero,0xa
     6d4:	00024614 	0x24614
     6d8:	00038600 	sll	s0,v1,0x18
     6dc:	be150000 	cache	0x15,0(s0)
     6e0:	a0000001 	sb	zero,1(zero)
     6e4:	0080000a 	movz	zero,a0,zero
     6e8:	01000000 	0x1000000
     6ec:	01ce1476 	tne	t6,t6,0x51
     6f0:	03b10000 	0x3b10000
     6f4:	00000000 	nop
     6f8:	00c30416 	0xc30416
     6fc:	360d0000 	ori	t5,s0,0x0
     700:	14000002 	bnez	zero,70c <__isr_vec_space+0x6ec>
     704:	0880000b 	j	200002c <__memory_size+0x1fe082c>
     708:	01000000 	0x1000000
     70c:	0002ec9c 	0x2ec9c
     710:	02460e00 	0x2460e00
     714:	54010000 	bnel	zero,at,718 <__isr_vec_space+0x6f8>
     718:	02ec1000 	0x2ec1000
     71c:	82010000 	lb	at,0(s0)
     720:	00000062 	0x62
     724:	80000b1c 	lb	zero,2844(zero)
     728:	0000007c 	0x7c
     72c:	033b9c01 	0x33b9c01
     730:	76170000 	jalx	85c0000 <__memory_size+0x85a0800>
     734:	01006e70 	tge	t0,zero,0x1b9
     738:	00006282 	srl	t4,zero,0xa
     73c:	08540100 	j	1500400 <__memory_size+0x14e0c00>
     740:	00746e63 	0x746e63
     744:	007f8401 	0x7f8401
     748:	03f50000 	0x3f50000
     74c:	be150000 	cache	0x15,0(s0)
     750:	2c000001 	sltiu	zero,zero,1
     754:	2080000b 	addi	zero,a0,11
     758:	01000000 	0x1000000
     75c:	01ce1487 	0x1ce1487
     760:	04210000 	bgez	at,764 <__isr_vec_space+0x744>
     764:	00000000 	nop
     768:	0001aa10 	0x1aa10
     76c:	628e0100 	0x628e0100
     770:	98000000 	lwr	zero,0(zero)
     774:	3480000b 	ori	zero,a0,0xb
     778:	01000000 	0x1000000
     77c:	00039f9c 	0x39f9c
     780:	01ba1100 	0x1ba1100
     784:	8e010000 	lw	at,0(s0)
     788:	00000062 	0x62
     78c:	0000047a 	0x47a
     790:	6e707612 	0x6e707612
     794:	62900100 	0x62900100
     798:	08000000 	j	0 <hardware_exit_hook>
     79c:	006e7070 	tge	v1,t6,0x1c1
     7a0:	00629101 	0x629101
     7a4:	04a60000 	0x4a60000
     7a8:	340a0000 	li	t2,0x0
     7ac:	01000003 	0x1000003
     7b0:	00006292 	0x6292
     7b4:	0004b900 	sll	s7,a0,0x4
     7b8:	0bb01800 	j	ec06000 <__memory_size+0xebe6800>
     7bc:	02ec8000 	0x2ec8000
     7c0:	01190000 	0x1190000
     7c4:	00800454 	0x800454
     7c8:	0000253c 	0x253c
     7cc:	0001da07 	0x1da07
     7d0:	cca00100 	pref	0x0,256(a1)
     7d4:	7c80000b 	0x7c80000b
     7d8:	01000000 	0x1000000
     7dc:	0004279c 	0x4279c
     7e0:	70701a00 	0x70701a00
     7e4:	a001006e 	sb	at,110(zero)
     7e8:	00000062 	0x62
     7ec:	000004e2 	0x4e2
     7f0:	0001e311 	0x1e311
     7f4:	7fa00100 	ext	zero,sp,0x4,0x1
     7f8:	0e000000 	jal	8000000 <__memory_size+0x7fe0800>
     7fc:	0a000005 	j	8000014 <__memory_size+0x7fe0814>
     800:	0000031c 	0x31c
     804:	02cba401 	0x2cba401
     808:	053b0000 	0x53b0000
     80c:	63080000 	0x63080000
     810:	0100746e 	0x100746e
     814:	00007fa5 	0x7fa5
     818:	00057900 	sll	t7,a1,0x4
     81c:	01821b00 	0x1821b00
     820:	0be00000 	j	f800000 <__memory_size+0xf7e0800>
     824:	00408000 	0x408000
     828:	a8010000 	swl	at,0(zero)
     82c:	0000040d 	break	0x0,0x10
     830:	00019214 	0x19214
     834:	00059900 	sll	s3,a1,0x4
     838:	141c0000 	bne	zero,gp,83c <__isr_vec_space+0x81c>
     83c:	2080000c 	addi	zero,a0,12
     840:	0a000000 	j	8000000 <__memory_size+0x7fe0800>
     844:	00000171 	tgeu	zero,zero,0x5
     848:	007fa901 	0x7fa901
     84c:	05f40000 	0x5f40000
     850:	00000000 	nop
     854:	00027607 	0x27607
     858:	48960100 	0x48960100
     85c:	1c80000c 	bgtz	a0,890 <__isr_vec_space+0x870>
     860:	01000000 	0x1000000
     864:	0004629c 	0x4629c
     868:	70701a00 	0x70701a00
     86c:	9601006e 	lhu	at,110(s0)
     870:	00000062 	0x62
     874:	00000609 	0x609
     878:	000c5818 	0xc5818
     87c:	00039f80 	sll	s3,v1,0x1e
     880:	55011900 	bnel	t0,at,6c84 <__isr_vec_space+0x6c64>
     884:	01193001 	movt	a2,t0,$fcc6
     888:	01f30354 	0x1f30354
     88c:	07000054 	bltz	t8,9e0 <__isr_vec_space+0x9c0>
     890:	000001ff 	0x1ff
     894:	0c649901 	jal	1926404 <__memory_size+0x1906c04>
     898:	001c8000 	sll	s0,gp,0x0
     89c:	9c010000 	0x9c010000
     8a0:	0000049d 	0x49d
     8a4:	6e70701a 	0x6e70701a
     8a8:	62990100 	0x62990100
     8ac:	2a000000 	slti	zero,s0,0
     8b0:	18000006 	blez	zero,8cc <__isr_vec_space+0x8ac>
     8b4:	80000c74 	lb	zero,3188(zero)
     8b8:	0000039f 	0x39f
     8bc:	01550119 	0x1550119
     8c0:	54011931 	bnel	zero,at,6d88 <__isr_vec_space+0x6d68>
     8c4:	5401f303 	bnel	zero,at,ffffd4d4 <__entry+0x403fd4d4>
     8c8:	43070000 	c0	0x1070000
     8cc:	01000003 	0x1000003
     8d0:	000c809c 	0xc809c
     8d4:	00001c80 	sll	v1,zero,0x12
     8d8:	d89c0100 	ldc2	$28,256(a0)
     8dc:	1a000004 	blez	s0,8f0 <__isr_vec_space+0x8d0>
     8e0:	006e7070 	tge	v1,t6,0x1c1
     8e4:	00629c01 	0x629c01
     8e8:	064b0000 	tltiu	s2,0
     8ec:	90180000 	lbu	t8,0(zero)
     8f0:	9f80000c 	0x9f80000c
     8f4:	19000003 	blez	t0,904 <__isr_vec_space+0x8e4>
     8f8:	32015501 	andi	at,s0,0x5501
     8fc:	03540119 	0x3540119
     900:	005401f3 	tltu	v0,s4,0x7
     904:	02d71000 	0x2d71000
     908:	b1010000 	0xb1010000
     90c:	00000045 	lsa	zero,zero,zero,0x2
     910:	80000c9c 	lb	zero,3228(zero)
     914:	00000008 	jr	zero
     918:	04ff9c01 	synci	-25599(a3)
     91c:	ea1d0000 	swc2	$29,0(s0)
     920:	01000001 	movf	zero,t0,$fcc0
     924:	000062b1 	tgeu	zero,zero,0x18a
     928:	00540100 	0x540100
     92c:	0002a210 	0x2a210
     930:	7fb80100 	ext	t8,sp,0x4,0x1
     934:	a4000000 	sh	zero,0(zero)
     938:	5880000c 	blezl	a0,96c <__isr_vec_space+0x94c>
     93c:	01000000 	0x1000000
     940:	0005519c 	0x5519c
     944:	74701a00 	jalx	1c06800 <__memory_size+0x1be7000>
     948:	b8010065 	swr	at,101(zero)
     94c:	000000c3 	sra	zero,zero,0x3
     950:	0000066c 	0x66c
     954:	00016c1d 	0x16c1d
     958:	adb80100 	sw	t8,256(t5)
     95c:	01000000 	0x1000000
     960:	64690856 	0x64690856
     964:	ba010078 	swr	at,120(s0)
     968:	0000007f 	0x7f
     96c:	00000694 	0x694
     970:	0001ea1e 	0x1ea1e
     974:	62bb0100 	0x62bb0100
     978:	01000000 	0x1000000
     97c:	13100055 	beq	t8,s0,ad4 <__isr_vec_space+0xab4>
     980:	01000003 	0x1000003
     984:	0000adc8 	0xadc8
     988:	000cfc00 	sll	ra,t4,0x10
     98c:	00004880 	sll	t1,zero,0x2
     990:	7a9c0100 	nori.b	$w4,$w0,0x9c
     994:	11000005 	beqz	t0,9ac <__isr_vec_space+0x98c>
     998:	0000016c 	0x16c
     99c:	00adc801 	movt	t9,a1,$fcc3
     9a0:	06b30000 	bgezall	s5,9a4 <__isr_vec_space+0x984>
     9a4:	07000000 	bltz	t8,9a8 <__isr_vec_space+0x988>
     9a8:	0000024c 	syscall	0x9
     9ac:	0d44db01 	jal	5136c04 <__memory_size+0x5117404>
     9b0:	006c8000 	0x6c8000
     9b4:	9c010000 	0x9c010000
     9b8:	000005bd 	0x5bd
     9bc:	0003c911 	0x3c911
     9c0:	62db0100 	0x62db0100
     9c4:	d4000000 	ldc1	$f0,0(zero)
     9c8:	0a000006 	j	8000018 <__memory_size+0x7fe0818>
     9cc:	00000245 	0x245
     9d0:	0062dc01 	0x62dc01
     9d4:	06f50000 	0x6f50000
     9d8:	69080000 	0x69080000
     9dc:	01007864 	0x1007864
     9e0:	00007fdd 	0x7fdd
     9e4:	00071a00 	sll	v1,a3,0x8
     9e8:	be070000 	cache	0x7,0(s0)
     9ec:	01000002 	0x1000002
     9f0:	000db0e5 	0xdb0e5
     9f4:	00009480 	sll	s2,zero,0x12
     9f8:	189c0100 	0x189c0100
     9fc:	11000006 	beqz	t0,a18 <__isr_vec_space+0x9f8>
     a00:	000003c9 	0x3c9
     a04:	0062e501 	0x62e501
     a08:	07450000 	0x7450000
     a0c:	910a0000 	lbu	t2,0(t0)
     a10:	01000001 	movf	zero,t0,$fcc0
     a14:	000062e6 	0x62e6
     a18:	00077100 	sll	t6,a3,0x4
     a1c:	02450a00 	0x2450a00
     a20:	e7010000 	swc1	$f1,0(t8)
     a24:	00000062 	0x62
     a28:	00000796 	0x796
     a2c:	78646908 	0x78646908
     a30:	7fe80100 	ext	t0,ra,0x4,0x1
     a34:	bb000000 	swr	zero,0(t8)
     a38:	1f000007 	bgtz	t8,a58 <__isr_vec_space+0xa38>
     a3c:	80000e10 	lb	zero,3600(zero)
     a40:	00000252 	0x252
     a44:	02341000 	0x2341000
     a48:	f1010000 	0xf1010000
     a4c:	00000062 	0x62
     a50:	80000e44 	lb	zero,3652(zero)
     a54:	000000cc 	syscall	0x3
     a58:	06d59c01 	0x6d59c01
     a5c:	701a0000 	madd	zero,k0
     a60:	01006469 	0x1006469
     a64:	0000b8f1 	tgeu	zero,zero,0x2e3
     a68:	0007e600 	sll	gp,a3,0x18
     a6c:	016c1100 	0x16c1100
     a70:	f1010000 	0xf1010000
     a74:	000000ad 	0xad
     a78:	00000839 	0x839
     a7c:	00030e20 	0x30e20
     a80:	adf50100 	sw	s5,256(t7)
     a84:	08000000 	j	0 <hardware_exit_hook>
     a88:	00746e63 	0x746e63
     a8c:	007ff601 	0x7ff601
     a90:	08970000 	j	25c0000 <__memory_size+0x25a0800>
     a94:	fa1b0000 	sdc2	$27,0(s0)
     a98:	60000001 	0x60000001
     a9c:	5880000e 	blezl	a0,ad8 <__isr_vec_space+0xab8>
     aa0:	01000000 	0x1000000
     aa4:	000686f9 	0x686f9
     aa8:	020a1400 	0x20a1400
     aac:	08c30000 	j	30c0000 <__memory_size+0x30a0800>
     ab0:	1c000000 	bgtz	zero,ab4 <__isr_vec_space+0xa94>
     ab4:	80000e88 	lb	zero,3720(zero)
     ab8:	00000044 	0x44
     abc:	0002fb0a 	0x2fb0a
     ac0:	7ffa0100 	ext	k0,ra,0x4,0x1
     ac4:	2c000000 	sltiu	zero,zero,0
     ac8:	20000009 	addi	zero,zero,9
     acc:	000003c9 	0x3c9
     ad0:	0062fd01 	0x62fd01
     ad4:	be130000 	cache	0x13,0(s0)
     ad8:	a0000001 	sb	zero,1(zero)
     adc:	0c80000e 	jal	2000038 <__memory_size+0x1fe0838>
     ae0:	01000000 	0x1000000
     ae4:	0006c2fd 	0x6c2fd
     ae8:	01ce2100 	0x1ce2100
     aec:	18000000 	blez	zero,af0 <__isr_vec_space+0xad0>
     af0:	80000e94 	lb	zero,3732(zero)
     af4:	000004ff 	0x4ff
     af8:	03560119 	0x3560119
     afc:	005501f3 	tltu	v0,s5,0x7
     b00:	66220000 	0x66220000
     b04:	01000003 	0x1000003
     b08:	00620103 	0x620103
     b0c:	0f100000 	jal	c400000 <__memory_size+0xc3e0800>
     b10:	00f88000 	0xf88000
     b14:	9c010000 	0x9c010000
     b18:	00000792 	0x792
     b1c:	00019123 	0x19123
     b20:	01030100 	0x1030100
     b24:	00000062 	0x62
     b28:	0000093f 	0x93f
     b2c:	64697024 	0x64697024
     b30:	01030100 	0x1030100
     b34:	000000b8 	0xb8
     b38:	00000960 	0x960
     b3c:	0002dd25 	0x2dd25
     b40:	01030100 	0x1030100
     b44:	00000045 	lsa	zero,zero,zero,0x2
     b48:	7f265601 	0x7f265601
     b4c:	01000001 	movf	zero,t0,$fcc0
     b50:	00620105 	0x620105
     b54:	52010000 	beql	s0,at,b58 <__isr_vec_space+0xb38>
     b58:	6e707027 	0x6e707027
     b5c:	01060100 	0x1060100
     b60:	00000062 	0x62
     b64:	6e707628 	0x6e707628
     b68:	01070100 	0x1070100
     b6c:	00000062 	0x62
     b70:	3c007205 	lui	zero,0x7205
     b74:	63299f25 	0x63299f25
     b78:	0100746e 	0x100746e
     b7c:	007f0108 	0x7f0108
     b80:	099a0000 	j	6680000 <__memory_size+0x6660800>
     b84:	4b2a0000 	c2	0x12a0000
     b88:	14000001 	bnez	zero,b90 <__isr_vec_space+0xb70>
     b8c:	0480000f 	bltz	a0,bcc <__isr_vec_space+0xbac>
     b90:	01000000 	0x1000000
     b94:	07770106 	0x7770106
     b98:	5b140000 	0x5b140000
     b9c:	c6000001 	lwc1	$f0,1(s0)
     ba0:	00000009 	jalr	zero,zero
     ba4:	0001822b 	0x1822b
     ba8:	000f2400 	sll	a0,t7,0x10
     bac:	00007080 	sll	t6,zero,0x2
     bb0:	010b0100 	0x10b0100
     bb4:	00019214 	0x19214
     bb8:	0009e700 	sll	gp,t1,0x1c
     bbc:	2c000000 	sltiu	zero,zero,0
     bc0:	000002c9 	0x2c9
     bc4:	08011a01 	j	46804 <__memory_size+0x27004>
     bc8:	1c800010 	bgtz	a0,c0c <__isr_vec_space+0xbec>
     bcc:	01000000 	0x1000000
     bd0:	0007d89c 	0x7d89c
     bd4:	01912300 	0x1912300
     bd8:	1a010000 	0x1a010000
     bdc:	00006201 	0x6201
     be0:	000a1b00 	sll	v1,t2,0xc
     be4:	70702700 	0x70702700
     be8:	1f01006e 	0x1f01006e
     bec:	00006201 	0x6201
     bf0:	10181800 	beq	zero,t8,6bf4 <__isr_vec_space+0x6bd4>
     bf4:	04278000 	aset	0x0,0(at)
     bf8:	01190000 	0x1190000
     bfc:	01f30554 	0x1f30554
     c00:	00253c54 	0x253c54
     c04:	026d2d00 	0x26d2d00
     c08:	03010000 	0x3010000
     c0c:	000002cb 	0x2cb
     c10:	8090a080 	lb	s0,-24448(a0)
     c14:	031c2e78 	0x31c2e78
     c18:	11030000 	beq	t0,v1,c1c <__isr_vec_space+0xbfc>
     c1c:	000002cb 	0x2cb
     c20:	2f000305 	sltiu	zero,t8,773
     c24:	8d2e8000 	lw	t6,-32768(t1)
     c28:	01000001 	movf	zero,t0,$fcc0
     c2c:	0000620e 	0x620e
     c30:	ec030500 	swc3	$3,1280(zero)
     c34:	2f80002e 	sltiu	zero,gp,46
     c38:	00000086 	0x86
     c3c:	0000081a 	0x81a
     c40:	00081a30 	tge	zero,t0,0x68
     c44:	02001c00 	0x2001c00
     c48:	01510704 	0x1510704
     c4c:	3f2e0000 	0x3f2e0000
     c50:	01000002 	0x1000002
     c54:	00080a06 	0x80a06
     c58:	c8030500 	lwc2	$3,1280(zero)
     c5c:	2f80402f 	sltiu	zero,gp,16431
     c60:	00000062 	0x62
     c64:	00000842 	srl	at,zero,0x1
     c68:	00081a30 	tge	zero,t0,0x68
     c6c:	2e001c00 	sltiu	zero,s0,7168
     c70:	000001ee 	0x1ee
     c74:	08320901 	j	c82404 <__memory_size+0xc62c04>
     c78:	03050000 	0x3050000
     c7c:	80402f54 	lb	zero,12116(v0)
     c80:	0001662e 	0x1662e
     c84:	0a0c0100 	j	8300400 <__memory_size+0x82e0c00>
     c88:	05000008 	bltz	t0,cac <__isr_vec_space+0xc8c>
     c8c:	402f1803 	0x402f1803
     c90:	04570080 	0x4570080
     c94:	00040000 	sll	zero,a0,0x0
     c98:	00000526 	0x526
     c9c:	00190104 	0x190104
     ca0:	92010000 	lbu	at,0(s0)
     ca4:	c0000003 	ll	zero,3(zero)
     ca8:	24000000 	li	zero,0
     cac:	d4800010 	ldc1	$f0,16(a0)
     cb0:	38000002 	xori	zero,zero,0x2
     cb4:	02000005 	lsa	zero,s0,zero,0x1
     cb8:	00000188 	0x188
     cbc:	3e140204 	0x3e140204
     cc0:	03000000 	0x3000000
     cc4:	000001f9 	0x1f9
     cc8:	015a0300 	0x15a0300
     ccc:	00010000 	sll	zero,at,0x0
     cd0:	00018804 	sllv	s1,at,zero
     cd4:	25170200 	addiu	s7,t0,512
     cd8:	04000000 	bltz	zero,cdc <__isr_vec_space+0xcbc>
     cdc:	0000019b 	0x19b
     ce0:	00541902 	0x541902
     ce4:	08050000 	j	140000 <__memory_size+0x120800>
     ce8:	00006c07 	0x6c07
     cec:	05080500 	tgei	t0,1280
     cf0:	00000000 	nop
     cf4:	000c7004 	sllv	t6,t4,zero
     cf8:	6d1b0200 	0x6d1b0200
     cfc:	05000000 	bltz	t0,d00 <__isr_vec_space+0xce0>
     d00:	00760704 	0x760704
     d04:	4c040000 	lwxc1	$f0,a0(zero)
     d08:	0200000b 	movn	zero,s0,zero
     d0c:	00007f1c 	0x7f1c
     d10:	05040600 	0x5040600
     d14:	00746e69 	0x746e69
     d18:	ad070205 	sw	a3,517(t0)
     d1c:	05000000 	bltz	t0,d20 <__isr_vec_space+0xd00>
     d20:	00d90502 	0xd90502
     d24:	83040000 	lb	a0,0(t8)
     d28:	02000000 	0x2000000
     d2c:	00009f1f 	0x9f1f
     d30:	08010500 	j	41400 <__memory_size+0x21c00>
     d34:	0000008b 	0x8b
     d38:	94080105 	lhu	t0,261(zero)
     d3c:	04000000 	bltz	zero,d40 <__isr_vec_space+0xd20>
     d40:	0000015f 	0x15f
     d44:	006d2102 	0x6d2102
     d48:	a4040000 	sh	a0,0(zero)
     d4c:	02000001 	movf	zero,s0,$fcc0
     d50:	00007428 	0x7428
     d54:	033d0400 	0x33d0400
     d58:	2b020000 	slti	v0,t8,0
     d5c:	00000049 	0x49
     d60:	0003b907 	0x3b907
     d64:	ea090100 	swc2	$9,256(s0)
     d68:	01000000 	0x1000000
     d6c:	000000ea 	0xea
     d70:	00019608 	0x19608
     d74:	62090100 	0x62090100
     d78:	00000000 	nop
     d7c:	ce0a0409 	pref	0xa,1033(s0)
     d80:	24000000 	li	zero,0
     d84:	08800010 	j	2000040 <__memory_size+0x1fe0840>
     d88:	01000000 	0x1000000
     d8c:	0001079c 	0x1079c
     d90:	00de0b00 	0xde0b00
     d94:	54010000 	bnel	zero,at,d98 <__isr_vec_space+0xd78>
     d98:	01490c00 	0x1490c00
     d9c:	0d010000 	jal	4040000 <__memory_size+0x4020800>
     da0:	8000102c 	lb	zero,4140(zero)
     da4:	00000034 	teq	zero,zero
     da8:	7b0d9c01 	0x7b0d9c01
     dac:	01000003 	0x1000003
     db0:	0000ea19 	0xea19
     db4:	00106000 	sll	t4,s0,0x0
     db8:	00016480 	sll	t4,at,0x12
     dbc:	779c0100 	jalx	e700400 <__memory_size+0xe6e0c00>
     dc0:	0e000002 	jal	8000008 <__memory_size+0x7fe0808>
     dc4:	00646970 	tge	v1,a0,0x1a5
     dc8:	00b81901 	0xb81901
     dcc:	0a3c0000 	j	8f00000 <__memory_size+0x8ee0800>
     dd0:	6c0f0000 	0x6c0f0000
     dd4:	01000001 	movf	zero,t0,$fcc0
     dd8:	0000ad19 	0xad19
     ddc:	000a9400 	sll	s2,t2,0x10
     de0:	00881000 	0x881000
     de4:	01f60000 	0x1f60000
     de8:	13110000 	beq	t8,s1,dec <__isr_vec_space+0xdcc>
     dec:	01000008 	jr	t0
     df0:	00007f42 	srl	t7,zero,0x1d
     df4:	000ad300 	sll	k0,t2,0xc
     df8:	01cc1100 	0x1cc1100
     dfc:	48010000 	mfc2	at,$0
     e00:	00000062 	0x62
     e04:	00000afe 	0xafe
     e08:	00039a11 	0x39a11
     e0c:	62490100 	0x62490100
     e10:	27000000 	addiu	zero,t8,0
     e14:	1200000b 	beqz	s0,e44 <__isr_vec_space+0xe24>
     e18:	4c010069 	msub.d	$f1,$f0,$f0,$f1
     e1c:	0000007f 	0x7f
     e20:	00000b50 	0xb50
     e24:	00110413 	0x110413
     e28:	0003c180 	sll	t8,v1,0x6
     e2c:	11141400 	beq	t0,s4,5e30 <__isr_vec_space+0x5e10>
     e30:	03d28000 	0x3d28000
     e34:	01b40000 	0x1b40000
     e38:	01150000 	0x1150000
     e3c:	15300156 	bne	t1,s0,1398 <__isr_vec_space+0x1378>
     e40:	82025501 	lb	v0,21761(s0)
     e44:	2c130000 	sltiu	s3,zero,0
     e48:	c1800011 	ll	zero,17(t4)
     e4c:	14000003 	bnez	zero,e5c <__isr_vec_space+0xe3c>
     e50:	8000113c 	lb	zero,4412(zero)
     e54:	000003d2 	0x3d2
     e58:	000001d6 	0x1d6
     e5c:	01560115 	0x1560115
     e60:	55011530 	bnel	t0,at,6324 <__isr_vec_space+0x6304>
     e64:	00008202 	srl	s0,zero,0x8
     e68:	00118c13 	0x118c13
     e6c:	0003c180 	sll	t8,v1,0x6
     e70:	119c1600 	beq	t4,gp,6674 <__isr_vec_space+0x6654>
     e74:	03d28000 	0x3d28000
     e78:	01150000 	0x1150000
     e7c:	00810256 	0x810256
     e80:	02550115 	0x2550115
     e84:	00000082 	srl	zero,zero,0x2
     e88:	00109c17 	0x109c17
     e8c:	00005480 	sll	t2,zero,0x12
     e90:	03831100 	0x3831100
     e94:	2e010000 	sltiu	at,s0,0
     e98:	00000062 	0x62
     e9c:	00000b7b 	0xb7b
     ea0:	0010ac18 	0x10ac18
     ea4:	00003c80 	sll	a3,zero,0x12
     ea8:	00026c00 	sll	t5,v0,0x10
     eac:	01cc1100 	0x1cc1100
     eb0:	36010000 	ori	at,s0,0x0
     eb4:	00000062 	0x62
     eb8:	00000b99 	0xb99
     ebc:	0010b413 	0x10b413
     ec0:	0003f180 	sll	s8,v1,0x6
     ec4:	10c41300 	beq	a2,a0,5ac8 <__isr_vec_space+0x5aa8>
     ec8:	03c18000 	0x3c18000
     ecc:	d4140000 	ldc1	$f20,0(zero)
     ed0:	d2800010 	0xd2800010
     ed4:	55000003 	bnezl	t0,ee4 <__isr_vec_space+0xec4>
     ed8:	15000002 	bnez	t0,ee4 <__isr_vec_space+0xec4>
     edc:	31015601 	andi	at,t0,0x5601
     ee0:	02550115 	0x2550115
     ee4:	16000082 	bnez	s0,10f0 <__isr_vec_space+0x10d0>
     ee8:	800010e0 	lb	zero,4320(zero)
     eec:	000003fc 	0x3fc
     ef0:	02550115 	0x2550115
     ef4:	01150080 	0x1150080
     ef8:	00820254 	0x820254
     efc:	a4130000 	sh	s3,0(zero)
     f00:	fc800010 	sdc3	$0,16(a0)
     f04:	00000003 	sra	zero,zero,0x0
     f08:	03751900 	0x3751900
     f0c:	5a010000 	0x5a010000
     f10:	800011c4 	lb	zero,4548(zero)
     f14:	00000134 	teq	zero,zero,0x4
     f18:	03509c01 	0x3509c01
     f1c:	700e0000 	madd	zero,t6
     f20:	01007274 	teq	t0,zero,0x1c9
     f24:	0000ea5a 	0xea5a
     f28:	000bac00 	sll	s5,t3,0x10
     f2c:	03c51100 	0x3c51100
     f30:	5b010000 	0x5b010000
     f34:	00000062 	0x62
     f38:	00000be6 	0xbe6
     f3c:	00019111 	0x19111
     f40:	625c0100 	0x625c0100
     f44:	20000000 	addi	zero,zero,0
     f48:	1200000c 	beqz	s0,f7c <__isr_vec_space+0xf5c>
     f4c:	5f010069 	0x5f010069
     f50:	0000007f 	0x7f
     f54:	00000c6e 	0xc6e
     f58:	00121418 	0x121418
     f5c:	0000ac80 	sll	s5,zero,0x12
     f60:	00034600 	sll	t0,v1,0x18
     f64:	03341100 	0x3341100
     f68:	63010000 	0x63010000
     f6c:	00000062 	0x62
     f70:	00000cea 	0xcea
     f74:	0001ba11 	0x1ba11
     f78:	62630100 	0x62630100
     f7c:	08000000 	j	0 <hardware_exit_hook>
     f80:	1100000d 	beqz	t0,fb8 <__isr_vec_space+0xf98>
     f84:	00000813 	mtlo	zero,$ac1
     f88:	007f6501 	0x7f6501
     f8c:	0d260000 	jal	4980000 <__memory_size+0x4960800>
     f90:	6a120000 	0x6a120000
     f94:	7f660100 	ext	a2,k1,0x4,0x1
     f98:	39000000 	xori	zero,t0,0x0
     f9c:	1400000d 	bnez	zero,fd4 <__isr_vec_space+0xfb4>
     fa0:	80001238 	lb	zero,4664(zero)
     fa4:	00000416 	0x416
     fa8:	00000321 	0x321
     fac:	02540115 	0x2540115
     fb0:	14000081 	bnez	zero,11b8 <__isr_vec_space+0x1198>
     fb4:	80001244 	lb	zero,4676(zero)
     fb8:	0000042b 	0x42b
     fbc:	00000335 	0x335
     fc0:	02540115 	0x2540115
     fc4:	16000083 	bnez	s0,11d4 <__isr_vec_space+0x11b4>
     fc8:	8000124c 	lb	zero,4684(zero)
     fcc:	0000043c 	0x43c
     fd0:	02540115 	0x2540115
     fd4:	00000083 	sra	zero,zero,0x2
     fd8:	0012d813 	0x12d813
     fdc:	00044d80 	sll	t1,a0,0x16
     fe0:	1c1a0000 	0x1c1a0000
     fe4:	03000003 	0x3000003
     fe8:	00036111 	0x36111
     fec:	00030500 	sll	zero,v1,0x14
     ff0:	1b80002f 	blez	gp,10b0 <__isr_vec_space+0x1090>
     ff4:	0000c304 	0xc304
     ff8:	00621c00 	0x621c00
     ffc:	03770000 	0x3770000
    1000:	771d0000 	jalx	c740000 <__memory_size+0xc720800>
    1004:	3f000003 	0x3f000003
    1008:	07040500 	0x7040500
    100c:	00000151 	0x151
    1010:	0003a81a 	0x3a81a
    1014:	67040100 	0x67040100
    1018:	05000003 	bltz	t0,1028 <__isr_vec_space+0x1008>
    101c:	40304403 	0x40304403
    1020:	00941c80 	0x941c80
    1024:	039f0000 	0x39f0000
    1028:	771d0000 	jalx	c740000 <__memory_size+0xc720800>
    102c:	3f000003 	0x3f000003
    1030:	03d41a00 	0x3d41a00
    1034:	05010000 	bgez	t0,1038 <__isr_vec_space+0x1018>
    1038:	0000038f 	sync	0xe
    103c:	30040305 	andi	a0,zero,0x305
    1040:	691e8040 	0x691e8040
    1044:	01007864 	0x1007864
    1048:	00007f06 	0x7f06
    104c:	04030500 	bgezl	zero,2450 <__isr_vec_space+0x2430>
    1050:	1f80002f 	bgtz	gp,1110 <__isr_vec_space+0x10f0>
    1054:	00000112 	0x112
    1058:	00622d04 	0x622d04
    105c:	03d20000 	0x3d20000
    1060:	00200000 	0x200000
    1064:	00036621 	0x36621
    1068:	62660300 	0x62660300
    106c:	f1000000 	0xf1000000
    1070:	22000003 	addi	zero,s0,3
    1074:	00000062 	0x62
    1078:	0000b822 	neg	s7,zero
    107c:	003e2200 	0x3e2200
    1080:	23000000 	addi	zero,t8,0
    1084:	00000101 	0x101
    1088:	00623204 	0x623204
    108c:	34210000 	ori	at,at,0x0
    1090:	03000002 	0x3000002
    1094:	00006270 	tge	zero,zero,0x189
    1098:	00041600 	sll	v0,a0,0x18
    109c:	00b82200 	0xb82200
    10a0:	ad220000 	sw	v0,0(t1)
    10a4:	00000000 	nop
    10a8:	0001aa21 	0x1aa21
    10ac:	62580300 	0x62580300
    10b0:	2b000000 	slti	zero,t8,0
    10b4:	22000004 	addi	zero,s0,4
    10b8:	00000062 	0x62
    10bc:	013a2400 	0x13a2400
    10c0:	2f040000 	sltiu	a0,t8,0
    10c4:	0000043c 	0x43c
    10c8:	00006222 	0x6222
    10cc:	c9240000 	lwc2	$4,0(t1)
    10d0:	03000002 	0x3000002
    10d4:	00044d67 	0x44d67
    10d8:	00622200 	0x622200
    10dc:	25000000 	addiu	zero,t0,0
    10e0:	000002be 	0x2be
    10e4:	62226d03 	0x62226d03
    10e8:	00000000 	nop
    10ec:	00009c00 	sll	s3,zero,0x10
    10f0:	37000400 	ori	zero,t8,0x400
    10f4:	04000007 	bltz	zero,1114 <__isr_vec_space+0x10f4>
    10f8:	00001901 	0x1901
    10fc:	03e60100 	0x3e60100
    1100:	00c00000 	0xc00000
    1104:	12f80000 	beq	s7,t8,1108 <__isr_vec_space+0x10e8>
    1108:	00088000 	sll	s0,t0,0x0
    110c:	061f0000 	synci	0(s0)
    1110:	9b020000 	lwr	v0,0(t8)
    1114:	02000001 	movf	zero,s0,$fcc0
    1118:	00003019 	0x3019
    111c:	07080300 	tgei	t8,768
    1120:	0000006c 	0x6c
    1124:	00050803 	sra	at,a1,0x0
    1128:	03000000 	0x3000000
    112c:	00760704 	0x760704
    1130:	04040000 	0x4040000
    1134:	746e6905 	jalx	1b9a414 <__memory_size+0x1b7ac14>
    1138:	07020300 	bltzl	t8,1d3c <__isr_vec_space+0x1d1c>
    113c:	000000ad 	0xad
    1140:	d9050203 	ldc2	$5,515(t0)
    1144:	03000000 	0x3000000
    1148:	008b0801 	0x8b0801
    114c:	01030000 	0x1030000
    1150:	00009408 	0x9408
    1154:	033d0200 	0x33d0200
    1158:	2b020000 	slti	v0,t8,0
    115c:	00000025 	move	zero,zero
    1160:	0003ed05 	0x3ed05
    1164:	45090100 	bc1t	$fcc2,1568 <__isr_vec_space+0x1548>
    1168:	f8000000 	sdc2	$0,0(zero)
    116c:	08800012 	j	2000048 <__memory_size+0x1fe0848>
    1170:	01000000 	0x1000000
    1174:	031c069c 	0x31c069c
    1178:	11030000 	beq	t0,v1,117c <__isr_vec_space+0x115c>
    117c:	00000099 	0x99
    1180:	2f000305 	sltiu	zero,t8,773
    1184:	04078000 	aset	0x0,0(zero)
    1188:	00000068 	0x68
    118c:	00010200 	sll	zero,at,0x8
    1190:	a0000400 	sb	zero,1024(zero)
    1194:	04000007 	bltz	zero,11b4 <__isr_vec_space+0x1194>
    1198:	00046d01 	0x46d01
    119c:	04010100 	b	15a0 <__isr_vec_space+0x1580>
    11a0:	13480000 	beq	k0,t0,11a4 <__isr_vec_space+0x1184>
    11a4:	00288000 	0x288000
    11a8:	067f0000 	synci	0(s3)
    11ac:	04020000 	bltzl	zero,11b0 <__isr_vec_space+0x1190>
    11b0:	00007107 	0x7107
    11b4:	05040300 	0x5040300
    11b8:	00746e69 	0x746e69
    11bc:	05050402 	0x5050402
    11c0:	02000000 	0x2000000
    11c4:	008d0601 	0x8d0601
    11c8:	01020000 	0x1020000
    11cc:	00008b08 	0x8b08
    11d0:	05020200 	bltzl	t0,19d4 <__isr_vec_space+0x19b4>
    11d4:	000000d9 	0xd9
    11d8:	ad070202 	sw	a3,514(t0)
    11dc:	02000000 	0x2000000
    11e0:	00000508 	0x508
    11e4:	08020000 	j	80000 <__memory_size+0x60800>
    11e8:	00006c07 	0x6c07
    11ec:	07040200 	0x7040200
    11f0:	00000076 	tne	zero,zero,0x1
    11f4:	51070402 	beql	t0,a3,2200 <__isr_vec_space+0x21e0>
    11f8:	04000001 	bltz	zero,1200 <__isr_vec_space+0x11e0>
    11fc:	76040504 	jalx	8101410 <__memory_size+0x80e1c10>
    1200:	06000000 	bltz	s0,1204 <__isr_vec_space+0x11e4>
    1204:	94080102 	lhu	t0,258(zero)
    1208:	07000000 	bltz	t8,120c <__isr_vec_space+0x11ec>
    120c:	000003f2 	tlt	zero,zero,0xf
    1210:	9d050204 	0x9d050204
    1214:	08000000 	j	0 <hardware_exit_hook>
    1218:	0000051e 	0x51e
    121c:	04610800 	bgez	v1,3220 <__isr_vec_space+0x3200>
    1220:	08010000 	j	40000 <__memory_size+0x20800>
    1224:	00000515 	0x515
    1228:	23090002 	addi	t1,t8,2
    122c:	03000005 	lsa	zero,t8,zero,0x1
    1230:	00002844 	0x2844
    1234:	00134800 	sll	t1,s3,0x0
    1238:	00002880 	sll	a1,zero,0x2
    123c:	e59c0100 	swc1	$f28,256(t4)
    1240:	0a000000 	j	8000000 <__memory_size+0x7fe0800>
    1244:	01006e66 	0x1006e66
    1248:	0000703d 	0x703d
    124c:	000d6300 	sll	t4,t5,0xc
    1250:	13640b00 	beq	k1,a0,3e54 <__isr_vec_space+0x3e34>
    1254:	00e58000 	0xe58000
    1258:	010c0000 	0x10c0000
    125c:	0c300157 	jal	c0055c <__memory_size+0xbe0d5c>
    1260:	30015601 	andi	at,zero,0x5601
    1264:	0355010c 	syscall	0xd5404
    1268:	0c5401f3 	jal	15007cc <__memory_size+0x14e0fcc>
    126c:	30015401 	andi	at,zero,0x5401
    1270:	4d0d0000 	lwxc1	$f0,t5(t0)
    1274:	02000004 	sllv	zero,zero,s0
    1278:	0000280d 	break	0x0,0xa0
    127c:	00280e00 	0x280e00
    1280:	700e0000 	madd	zero,t6
    1284:	0e000000 	jal	8000000 <__memory_size+0x7fe0800>
    1288:	0000006e 	0x6e
    128c:	00006e0e 	0x6e0e
    1290:	dc000000 	ldc3	$0,0(zero)
    1294:	04000008 	bltz	zero,12b8 <__isr_vec_space+0x1298>
    1298:	00085300 	sll	t2,t0,0xc
    129c:	6d010400 	0x6d010400
    12a0:	01000004 	sllv	zero,zero,t0
    12a4:	00000765 	0x765
    12a8:	80001370 	lb	zero,4976(zero)
    12ac:	0000003c 	0x3c
    12b0:	0000075a 	0x75a
    12b4:	71070402 	0x71070402
    12b8:	03000000 	0x3000000
    12bc:	6e690504 	0x6e690504
    12c0:	04020074 	bltzl	zero,1494 <__isr_vec_space+0x1474>
    12c4:	00000505 	0x505
    12c8:	06010200 	bgez	s0,1acc <__isr_vec_space+0x1aac>
    12cc:	0000008d 	break	0x0,0x2
    12d0:	8b080102 	lwl	t0,258(t8)
    12d4:	02000000 	0x2000000
    12d8:	00d90502 	0xd90502
    12dc:	02020000 	0x2020000
    12e0:	0000ad07 	0xad07
    12e4:	05080200 	tgei	t0,512
    12e8:	00000000 	nop
    12ec:	6c070802 	0x6c070802
    12f0:	04000000 	bltz	zero,12f4 <__isr_vec_space+0x12d4>
    12f4:	0000071d 	0x71d
    12f8:	00280702 	ror	zero,t0,0x1c
    12fc:	f0040000 	0xf0040000
    1300:	03000006 	srlv	zero,zero,t8
    1304:	00002f10 	0x2f10
    1308:	08270400 	j	9c1000 <__memory_size+0x9a1800>
    130c:	27030000 	addiu	v1,t8,0
    1310:	0000002f 	0x2f
    1314:	0006b505 	0x6b505
    1318:	01610400 	0x1610400
    131c:	0000008d 	break	0x0,0x2
    1320:	76070402 	jalx	81c1008 <__memory_size+0x81a1808>
    1324:	06000000 	bltz	s0,1328 <__isr_vec_space+0x1308>
    1328:	b34a0304 	0xb34a0304
    132c:	07000000 	bltz	t8,1330 <__isr_vec_space+0x1310>
    1330:	000006af 	0x6af
    1334:	00814c03 	0x814c03
    1338:	61070000 	0x61070000
    133c:	03000006 	srlv	zero,zero,t8
    1340:	0000b34d 	break	0x0,0x2cd
    1344:	3d080000 	0x3d080000
    1348:	c3000000 	ll	zero,0(t8)
    134c:	09000000 	j	4000000 <__memory_size+0x3fe0800>
    1350:	000000c3 	sra	zero,zero,0x3
    1354:	04020003 	bltzl	zero,1364 <__isr_vec_space+0x1344>
    1358:	00015107 	0x15107
    135c:	03080a00 	0x3080a00
    1360:	0000eb47 	0xeb47
    1364:	08110b00 	j	442c00 <__memory_size+0x423400>
    1368:	49030000 	bc2tl	136c <__isr_vec_space+0x134c>
    136c:	00000028 	0x28
    1370:	08190b00 	j	642c00 <__memory_size+0x623400>
    1374:	4e030000 	lwxc1	$f0,v1(s0)
    1378:	00000094 	0x94
    137c:	12040004 	beq	s0,a0,1390 <__isr_vec_space+0x1370>
    1380:	03000007 	srav	zero,zero,t8
    1384:	0000ca4f 	0xca4f
    1388:	06240400 	0x6240400
    138c:	53030000 	beql	t8,v1,1390 <__isr_vec_space+0x1370>
    1390:	00000060 	0x60
    1394:	5904040c 	0x5904040c
    1398:	05000008 	bltz	t0,13bc <__isr_vec_space+0x139c>
    139c:	00002116 	0x2116
    13a0:	06350d00 	0x6350d00
    13a4:	05180000 	0x5180000
    13a8:	0001612d 	0x1612d
    13ac:	07c50b00 	0x7c50b00
    13b0:	2f050000 	sltiu	a1,t8,0
    13b4:	00000161 	0x161
    13b8:	6b5f0e00 	0x6b5f0e00
    13bc:	28300500 	slti	s0,at,1280
    13c0:	04000000 	bltz	zero,13c4 <__isr_vec_space+0x13a4>
    13c4:	0007fc0b 	0x7fc0b
    13c8:	28300500 	slti	s0,at,1280
    13cc:	08000000 	j	0 <hardware_exit_hook>
    13d0:	00061e0b 	0x61e0b
    13d4:	28300500 	slti	s0,at,1280
    13d8:	0c000000 	jal	0 <hardware_exit_hook>
    13dc:	0008a00b 	movn	s4,zero,t0
    13e0:	28300500 	slti	s0,at,1280
    13e4:	10000000 	b	13e8 <__isr_vec_space+0x13c8>
    13e8:	00785f0e 	0x785f0e
    13ec:	01673105 	0x1673105
    13f0:	00140000 	sll	zero,s4,0x0
    13f4:	010e040f 	0x10e040f
    13f8:	03080000 	0x3080000
    13fc:	77000001 	jalx	c000004 <__memory_size+0xbfe0804>
    1400:	09000001 	j	4000004 <__memory_size+0x3fe0804>
    1404:	000000c3 	sra	zero,zero,0x3
    1408:	5c0d0000 	0x5c0d0000
    140c:	24000006 	li	zero,6
    1410:	01f03505 	0x1f03505
    1414:	8f0b0000 	lw	t3,0(t8)
    1418:	05000005 	bltz	t0,1430 <__isr_vec_space+0x1410>
    141c:	00002837 	0x2837
    1420:	2f0b0000 	sltiu	t3,t8,0
    1424:	05000008 	bltz	t0,1448 <__isr_vec_space+0x1428>
    1428:	00002838 	0x2838
    142c:	9e0b0400 	0x9e0b0400
    1430:	05000005 	bltz	t0,1448 <__isr_vec_space+0x1428>
    1434:	00002839 	0x2839
    1438:	2f0b0800 	sltiu	t3,t8,2048
    143c:	05000007 	bltz	t0,145c <__isr_vec_space+0x143c>
    1440:	0000283a 	0x283a
    1444:	dc0b0c00 	ldc3	$11,3072(zero)
    1448:	05000006 	bltz	t0,1464 <__isr_vec_space+0x1444>
    144c:	0000283b 	0x283b
    1450:	cb0b1000 	lwc2	$11,4096(t8)
    1454:	05000006 	bltz	t0,1470 <__isr_vec_space+0x1450>
    1458:	0000283c 	0x283c
    145c:	a50b1400 	sh	t3,5120(t0)
    1460:	05000008 	bltz	t0,1484 <__isr_vec_space+0x1464>
    1464:	0000283d 	0x283d
    1468:	470b1800 	bz.b	$w11,746c <__isr_vec_space+0x744c>
    146c:	05000007 	bltz	t0,148c <__isr_vec_space+0x146c>
    1470:	0000283e 	0x283e
    1474:	e00b1c00 	sc	t3,7168(zero)
    1478:	05000008 	bltz	t0,149c <__isr_vec_space+0x147c>
    147c:	0000283f 	0x283f
    1480:	10002000 	b	9484 <__isr_vec_space+0x9464>
    1484:	000005ad 	0x5ad
    1488:	48050108 	0x48050108
    148c:	00000230 	tge	zero,zero,0x8
    1490:	0006110b 	0x6110b
    1494:	30490500 	andi	t1,v0,0x500
    1498:	00000002 	srl	zero,zero,0x0
    149c:	00052a0b 	0x52a0b
    14a0:	304a0500 	andi	t2,v0,0x500
    14a4:	80000002 	lb	zero,2(zero)
    14a8:	00084b11 	0x84b11
    14ac:	034c0500 	0x34c0500
    14b0:	00000001 	movf	zero,zero,$fcc0
    14b4:	05d21101 	bltzall	t6,58bc <__isr_vec_space+0x589c>
    14b8:	4f050000 	lwxc1	$f0,a1(t8)
    14bc:	00000103 	sra	zero,zero,0x4
    14c0:	08000104 	j	410 <__isr_vec_space+0x3f0>
    14c4:	00000101 	0x101
    14c8:	00000240 	sll	zero,zero,0x9
    14cc:	0000c309 	0xc309
    14d0:	10001f00 	b	90d4 <__isr_vec_space+0x90b4>
    14d4:	00000522 	0x522
    14d8:	5b050190 	0x5b050190
    14dc:	0000027e 	0x27e
    14e0:	0007c50b 	0x7c50b
    14e4:	7e5c0500 	ext	gp,s2,0x14,0x1
    14e8:	00000002 	srl	zero,zero,0x0
    14ec:	0007dd0b 	0x7dd0b
    14f0:	285d0500 	slti	sp,v0,1280
    14f4:	04000000 	bltz	zero,14f8 <__isr_vec_space+0x14d8>
    14f8:	0006190b 	0x6190b
    14fc:	845f0500 	lh	ra,1280(v0)
    1500:	08000002 	j	8 <ABIFlags_isa_ext>
    1504:	0005ad0b 	0x5ad0b
    1508:	f0600500 	0xf0600500
    150c:	88000001 	lwl	zero,1(zero)
    1510:	40040f00 	0x40040f00
    1514:	08000002 	j	8 <ABIFlags_isa_ext>
    1518:	00000294 	0x294
    151c:	00000294 	0x294
    1520:	0000c309 	0xc309
    1524:	0f001f00 	jal	c007c00 <__memory_size+0xbfe8400>
    1528:	00029a04 	0x29a04
    152c:	510d1200 	beql	t0,t5,5d30 <__isr_vec_space+0x5d10>
    1530:	08000007 	j	1c <ABIFlags_flags2+0x8>
    1534:	02c07305 	0x2c07305
    1538:	fb0b0000 	sdc2	$11,0(t8)
    153c:	0500000b 	bltz	t0,156c <__isr_vec_space+0x154c>
    1540:	0002c074 	teq	zero,v0,0x301
    1544:	6b0b0000 	0x6b0b0000
    1548:	05000001 	bltz	t0,1550 <__isr_vec_space+0x1530>
    154c:	00002875 	0x2875
    1550:	0f000400 	jal	c001000 <__memory_size+0xbfe1800>
    1554:	00003d04 	0x3d04
    1558:	07af0d00 	0x7af0d00
    155c:	05680000 	tgei	t3,0
    1560:	0003f0b3 	tltu	zero,v1,0x3c2
    1564:	705f0e00 	0x705f0e00
    1568:	c0b40500 	ll	s4,1280(a1)
    156c:	00000002 	srl	zero,zero,0x0
    1570:	00725f0e 	0x725f0e
    1574:	0028b505 	0x28b505
    1578:	0e040000 	jal	8100000 <__memory_size+0x80e0800>
    157c:	0500775f 	bltz	t0,1f2fc <__isr_vec_space+0x1f2dc>
    1580:	000028b6 	tne	zero,zero,0xa2
    1584:	cb0b0800 	lwc2	$11,2048(t8)
    1588:	05000005 	bltz	t0,15a0 <__isr_vec_space+0x1580>
    158c:	000044b7 	0x44b7
    1590:	780b0c00 	andi.b	$w16,$w1,0xb
    1594:	05000006 	bltz	t0,15b0 <__isr_vec_space+0x1590>
    1598:	000044b8 	0x44b8
    159c:	5f0e0e00 	0x5f0e0e00
    15a0:	05006662 	bltz	t0,1af2c <__isr_vec_space+0x1af0c>
    15a4:	00029bb9 	0x29bb9
    15a8:	690b1000 	0x690b1000
    15ac:	05000005 	bltz	t0,15c4 <__isr_vec_space+0x15a4>
    15b0:	000028ba 	0x28ba
    15b4:	bb0b1800 	swr	t3,6144(t8)
    15b8:	05000005 	bltz	t0,15d0 <__isr_vec_space+0x15b0>
    15bc:	000101c1 	0x101c1
    15c0:	4c0b1c00 	0x4c0b1c00
    15c4:	05000006 	bltz	t0,15e0 <__isr_vec_space+0x15c0>
    15c8:	000553c3 	sra	t2,a1,0xf
    15cc:	c40b2000 	lwc1	$f11,8192(zero)
    15d0:	05000006 	bltz	t0,15ec <__isr_vec_space+0x15cc>
    15d4:	000582c5 	0x582c5
    15d8:	210b2400 	addi	t3,t0,9216
    15dc:	05000008 	bltz	t0,1600 <__isr_vec_space+0x15e0>
    15e0:	0005a6c8 	0x5a6c8
    15e4:	fa0b2800 	sdc2	$11,10240(s0)
    15e8:	05000008 	bltz	t0,160c <__isr_vec_space+0x15ec>
    15ec:	0005c0c9 	0x5c0c9
    15f0:	5f0e2c00 	0x5f0e2c00
    15f4:	05006275 	bltz	t0,19fcc <__isr_vec_space+0x19fac>
    15f8:	00029bcc 	syscall	0xa6f
    15fc:	5f0e3000 	0x5f0e3000
    1600:	05007075 	bltz	t0,1d7d8 <__isr_vec_space+0x1d7b8>
    1604:	0002c0cd 	break	0x2,0x303
    1608:	5f0e3800 	0x5f0e3800
    160c:	05007275 	bltz	t0,1dfe4 <__isr_vec_space+0x1dfc4>
    1610:	000028ce 	0x28ce
    1614:	980b3c00 	lwr	t3,15360(zero)
    1618:	05000005 	bltz	t0,1630 <__isr_vec_space+0x1610>
    161c:	0005c6d1 	0x5c6d1
    1620:	d20b4000 	0xd20b4000
    1624:	05000008 	bltz	t0,1648 <__isr_vec_space+0x1628>
    1628:	0005d6d2 	0x5d6d2
    162c:	5f0e4300 	0x5f0e4300
    1630:	0500626c 	bltz	t0,19fe4 <__isr_vec_space+0x19fc4>
    1634:	00029bd5 	0x29bd5
    1638:	e10b4400 	sc	t3,17408(t0)
    163c:	05000005 	bltz	t0,1654 <__isr_vec_space+0x1634>
    1640:	000028d8 	0x28d8
    1644:	440b4c00 	0x440b4c00
    1648:	05000002 	bltz	t0,1654 <__isr_vec_space+0x1634>
    164c:	00006bd9 	0x6bd9
    1650:	1f0b5000 	0x1f0b5000
    1654:	05000009 	bltz	t0,167c <__isr_vec_space+0x165c>
    1658:	00040edc 	0x40edc
    165c:	d40b5400 	ldc1	$f11,21504(zero)
    1660:	05000009 	bltz	t0,1688 <__isr_vec_space+0x1668>
    1664:	0000f6e0 	0xf6e0
    1668:	b70b5800 	0xb70b5800
    166c:	05000007 	bltz	t0,168c <__isr_vec_space+0x166c>
    1670:	0000ebe2 	0xebe2
    1674:	bc0b5c00 	cache	0xb,23552(zero)
    1678:	05000006 	bltz	t0,1694 <__isr_vec_space+0x1674>
    167c:	000028e3 	0x28e3
    1680:	13006400 	beqz	t8,1a684 <__isr_vec_space+0x1a664>
    1684:	00000028 	0x28
    1688:	0000040e 	0x40e
    168c:	00040e14 	0x40e14
    1690:	01011400 	0x1011400
    1694:	46140000 	add.s	$f0,$f0,$f20
    1698:	14000005 	bnez	zero,16b0 <__isr_vec_space+0x1690>
    169c:	00000028 	0x28
    16a0:	14040f00 	bne	zero,a0,52a4 <__isr_vec_space+0x5284>
    16a4:	15000004 	bnez	t0,16b8 <__isr_vec_space+0x1698>
    16a8:	00000804 	sllv	at,zero,zero
    16ac:	39050428 	xori	a1,t0,0x428
    16b0:	00054602 	srl	t0,a1,0x18
    16b4:	0df41600 	jal	7d05800 <__memory_size+0x7ce6000>
    16b8:	3b050000 	xori	a1,t8,0x0
    16bc:	00002802 	srl	a1,zero,0x0
    16c0:	da160000 	ldc2	$22,0(s0)
    16c4:	05000005 	bltz	t0,16dc <__isr_vec_space+0x16bc>
    16c8:	062d0240 	0x62d0240
    16cc:	16040000 	bne	s0,a0,16d0 <__isr_vec_space+0x16b0>
    16d0:	00000668 	0x668
    16d4:	2d024005 	sltiu	v0,t0,16389
    16d8:	08000006 	j	18 <ABIFlags_flags2+0x4>
    16dc:	00062d16 	0x62d16
    16e0:	02400500 	0x2400500
    16e4:	0000062d 	0x62d
    16e8:	07d8160c 	0x7d8160c
    16ec:	42050000 	c0	0x50000
    16f0:	00002802 	srl	a1,zero,0x0
    16f4:	3e161000 	0x3e161000
    16f8:	05000005 	bltz	t0,1710 <__isr_vec_space+0x16f0>
    16fc:	080f0243 	j	3c090c <__memory_size+0x3a110c>
    1700:	16140000 	bne	s0,s4,1704 <__isr_vec_space+0x16e4>
    1704:	00000881 	0x881
    1708:	28024505 	slti	v0,zero,17669
    170c:	30000000 	andi	zero,zero,0x0
    1710:	0007e216 	0x7e216
    1714:	02460500 	0x2460500
    1718:	00000577 	0x577
    171c:	06e51634 	0x6e51634
    1720:	48050000 	mfc2	a1,$0
    1724:	00002802 	srl	a1,zero,0x0
    1728:	f2163800 	0xf2163800
    172c:	05000007 	bltz	t0,174c <__isr_vec_space+0x172c>
    1730:	082a024a 	j	a80928 <__memory_size+0xa61128>
    1734:	163c0000 	bne	s1,gp,1738 <__isr_vec_space+0x1718>
    1738:	000006a7 	0x6a7
    173c:	61024d05 	0x61024d05
    1740:	40000001 	mfc0	zero,c0_mvpcontrol
    1744:	00065216 	0x65216
    1748:	024e0500 	0x24e0500
    174c:	00000028 	0x28
    1750:	09141644 	j	4505910 <__memory_size+0x44e6110>
    1754:	4f050000 	lwxc1	$f0,a1(t8)
    1758:	00016102 	srl	t4,at,0x4
    175c:	08164800 	j	592000 <__memory_size+0x572800>
    1760:	05000007 	bltz	t0,1780 <__isr_vec_space+0x1760>
    1764:	08300250 	j	c00940 <__memory_size+0xbe1140>
    1768:	164c0000 	bne	s2,t4,176c <__isr_vec_space+0x174c>
    176c:	00000670 	tge	zero,zero,0x19
    1770:	28025305 	slti	v0,zero,21253
    1774:	50000000 	beqzl	zero,1778 <__isr_vec_space+0x1758>
    1778:	0005ea16 	0x5ea16
    177c:	02540500 	0x2540500
    1780:	00000546 	0x546
    1784:	07391654 	0x7391654
    1788:	77050000 	jalx	c140000 <__memory_size+0xc120800>
    178c:	0007ed02 	srl	sp,a3,0x14
    1790:	22175800 	addi	s7,s0,22528
    1794:	05000005 	bltz	t0,17ac <__isr_vec_space+0x178c>
    1798:	027e027b 	0x27e027b
    179c:	01480000 	0x1480000
    17a0:	00068517 	0x68517
    17a4:	027c0500 	0x27c0500
    17a8:	00000240 	sll	zero,zero,0x9
    17ac:	c817014c 	lwc2	$23,332(zero)
    17b0:	05000008 	bltz	t0,17d4 <__isr_vec_space+0x17b4>
    17b4:	08410280 	j	1040a00 <__memory_size+0x1021200>
    17b8:	02dc0000 	0x2dc0000
    17bc:	0005c317 	0x5c317
    17c0:	02850500 	0x2850500
    17c4:	000005f2 	tlt	zero,zero,0x17
    17c8:	a81702e0 	swl	s7,736(zero)
    17cc:	05000005 	bltz	t0,17e4 <__isr_vec_space+0x17c4>
    17d0:	084d0286 	j	1340a18 <__memory_size+0x1321218>
    17d4:	02ec0000 	0x2ec0000
    17d8:	4c040f00 	0x4c040f00
    17dc:	02000005 	lsa	zero,s0,zero,0x1
    17e0:	00940801 	movf	at,a0,$fcc5
    17e4:	040f0000 	0x40f0000
    17e8:	000003f0 	tge	zero,zero,0xf
    17ec:	00002813 	0x2813
    17f0:	00057700 	sll	t6,a1,0x1c
    17f4:	040e1400 	tnei	zero,5120
    17f8:	01140000 	0x1140000
    17fc:	14000001 	bnez	zero,1804 <__isr_vec_space+0x17e4>
    1800:	00000577 	0x577
    1804:	00002814 	0x2814
    1808:	040f0000 	0x40f0000
    180c:	0000057d 	0x57d
    1810:	00054c18 	0x54c18
    1814:	59040f00 	0x59040f00
    1818:	13000005 	beqz	t8,1830 <__isr_vec_space+0x1810>
    181c:	00000076 	tne	zero,zero,0x1
    1820:	000005a6 	0x5a6
    1824:	00040e14 	0x40e14
    1828:	01011400 	0x1011400
    182c:	76140000 	jalx	8500000 <__memory_size+0x84e0800>
    1830:	14000000 	bnez	zero,1834 <__isr_vec_space+0x1814>
    1834:	00000028 	0x28
    1838:	88040f00 	lwl	a0,3840(zero)
    183c:	13000005 	beqz	t8,1854 <__isr_vec_space+0x1834>
    1840:	00000028 	0x28
    1844:	000005c0 	sll	zero,zero,0x17
    1848:	00040e14 	0x40e14
    184c:	01011400 	0x1011400
    1850:	0f000000 	jal	c000000 <__memory_size+0xbfe0800>
    1854:	0005ac04 	0x5ac04
    1858:	003d0800 	0x3d0800
    185c:	05d60000 	0x5d60000
    1860:	c3090000 	ll	t1,0(t8)
    1864:	02000000 	0x2000000
    1868:	003d0800 	0x3d0800
    186c:	05e60000 	0x5e60000
    1870:	c3090000 	ll	t1,0(t8)
    1874:	00000000 	nop
    1878:	075e0500 	0x75e0500
    187c:	1d050000 	0x1d050000
    1880:	0002c601 	0x2c601
    1884:	08af1900 	j	2bc6400 <__memory_size+0x2ba6c00>
    1888:	050c0000 	teqi	t0,0
    188c:	06270121 	aclr	0x0,289(s1)
    1890:	c5160000 	lwc1	$f22,0(t0)
    1894:	05000007 	bltz	t0,18b4 <__isr_vec_space+0x1894>
    1898:	06270123 	aclr	0x0,291(s1)
    189c:	16000000 	bnez	s0,18a0 <__isr_vec_space+0x1880>
    18a0:	0000067e 	0x67e
    18a4:	28012405 	slti	at,zero,9221
    18a8:	04000000 	bltz	zero,18ac <__isr_vec_space+0x188c>
    18ac:	00075816 	0x75816
    18b0:	01250500 	0x1250500
    18b4:	0000062d 	0x62d
    18b8:	040f0008 	0x40f0008
    18bc:	000005f2 	tlt	zero,zero,0x17
    18c0:	05e6040f 	0x5e6040f
    18c4:	36190000 	ori	t9,s0,0x0
    18c8:	0e000005 	jal	8000014 <__memory_size+0x7fe0814>
    18cc:	68013d05 	0x68013d05
    18d0:	16000006 	bnez	s0,18ec <__isr_vec_space+0x18cc>
    18d4:	0000080b 	movn	at,zero,zero
    18d8:	68013e05 	0x68013e05
    18dc:	00000006 	srlv	zero,zero,zero
    18e0:	00083816 	0x83816
    18e4:	013f0500 	0x13f0500
    18e8:	00000668 	0x668
    18ec:	08541606 	j	1505818 <__memory_size+0x14e6018>
    18f0:	40050000 	mfc0	a1,c0_index
    18f4:	00004b01 	0x4b01
    18f8:	08000c00 	j	3000 <__isr_vec_space+0x2fe0>
    18fc:	0000004b 	0x4b
    1900:	00000678 	0x678
    1904:	0000c309 	0xc309
    1908:	1a000200 	blez	s0,210c <__isr_vec_space+0x20ec>
    190c:	025805d0 	0x25805d0
    1910:	00000779 	0x779
    1914:	00089316 	0x89316
    1918:	025a0500 	0x25a0500
    191c:	0000008d 	break	0x0,0x2
    1920:	083e1600 	j	f85800 <__memory_size+0xf66000>
    1924:	5b050000 	0x5b050000
    1928:	00054602 	srl	t0,a1,0x18
    192c:	9a160400 	lwr	s6,1024(s0)
    1930:	05000006 	bltz	t0,194c <__isr_vec_space+0x192c>
    1934:	0779025c 	0x779025c
    1938:	16080000 	bne	s0,t0,193c <__isr_vec_space+0x191c>
    193c:	000008eb 	0x8eb
    1940:	77025d05 	jalx	c097414 <__memory_size+0xc077c14>
    1944:	24000001 	li	zero,1
    1948:	00063d16 	0x63d16
    194c:	025e0500 	0x25e0500
    1950:	00000028 	0x28
    1954:	07c01648 	bltz	s8,7278 <__isr_vec_space+0x7258>
    1958:	5f050000 	0x5f050000
    195c:	00005902 	srl	t3,zero,0x4
    1960:	01165000 	0x1165000
    1964:	05000009 	bltz	t0,198c <__isr_vec_space+0x196c>
    1968:	06330260 	bgezall	s1,22ec <__isr_vec_space+0x22cc>
    196c:	16580000 	bne	s2,t8,1970 <__isr_vec_space+0x1950>
    1970:	000007cb 	0x7cb
    1974:	eb026105 	swc2	$2,24837(t8)
    1978:	68000000 	0x68000000
    197c:	00090616 	0x90616
    1980:	02620500 	0x2620500
    1984:	000000eb 	0xeb
    1988:	05811670 	bgez	t4,734c <__isr_vec_space+0x732c>
    198c:	63050000 	0x63050000
    1990:	0000eb02 	srl	sp,zero,0xc
    1994:	be167800 	cache	0x16,30720(s0)
    1998:	05000008 	bltz	t0,19bc <__isr_vec_space+0x199c>
    199c:	07890264 	tgeiu	gp,612
    19a0:	16800000 	bnez	s4,19a4 <__isr_vec_space+0x1984>
    19a4:	0000068e 	0x68e
    19a8:	99026505 	lwr	v0,25861(t0)
    19ac:	88000007 	lwl	zero,7(zero)
    19b0:	00086116 	0x86116
    19b4:	02660500 	0x2660500
    19b8:	00000028 	0x28
    19bc:	060316a0 	bgezl	s0,7440 <__isr_vec_space+0x7420>
    19c0:	67050000 	0x67050000
    19c4:	0000eb02 	srl	sp,zero,0xc
    19c8:	7216a400 	s32madd	xr0,xr9,s0,s6
    19cc:	05000005 	bltz	t0,19e4 <__isr_vec_space+0x19c4>
    19d0:	00eb0268 	0xeb0268
    19d4:	16ac0000 	bne	s5,t4,19d8 <__isr_vec_space+0x19b8>
    19d8:	000005f2 	tlt	zero,zero,0x17
    19dc:	eb026905 	swc2	$2,26885(t8)
    19e0:	b4000000 	0xb4000000
    19e4:	00054916 	0x54916
    19e8:	026a0500 	0x26a0500
    19ec:	000000eb 	0xeb
    19f0:	055816bc 	0x55816bc
    19f4:	6b050000 	0x6b050000
    19f8:	0000eb02 	srl	sp,zero,0xc
    19fc:	3e16c400 	0x3e16c400
    1a00:	05000007 	bltz	t0,1a20 <__isr_vec_space+0x1a00>
    1a04:	0028026c 	0x28026c
    1a08:	00cc0000 	0xcc0000
    1a0c:	00054c08 	0x54c08
    1a10:	00078900 	sll	s1,a3,0x4
    1a14:	00c30900 	0xc30900
    1a18:	00190000 	sll	zero,t9,0x0
    1a1c:	00054c08 	0x54c08
    1a20:	00079900 	sll	s3,a3,0x4
    1a24:	00c30900 	0xc30900
    1a28:	00070000 	sll	zero,a3,0x0
    1a2c:	00054c08 	0x54c08
    1a30:	0007a900 	sll	s5,a3,0x4
    1a34:	00c30900 	0xc30900
    1a38:	00170000 	sll	zero,s7,0x0
    1a3c:	7105f01a 	udi10	t0,a1,s8,0x0
    1a40:	0007cd02 	srl	t9,a3,0x14
    1a44:	06d51600 	0x6d51600
    1a48:	74050000 	jalx	140000 <__memory_size+0x120800>
    1a4c:	0007cd02 	srl	t9,a3,0x14
    1a50:	b5160000 	0xb5160000
    1a54:	05000008 	bltz	t0,1a78 <__isr_vec_space+0x1a58>
    1a58:	07dd0275 	0x7dd0275
    1a5c:	00780000 	0x780000
    1a60:	0002c008 	0x2c008
    1a64:	0007dd00 	sll	k1,a3,0x14
    1a68:	00c30900 	0xc30900
    1a6c:	001d0000 	sll	zero,sp,0x0
    1a70:	00008d08 	0x8d08
    1a74:	0007ed00 	sll	sp,a3,0x14
    1a78:	00c30900 	0xc30900
    1a7c:	001d0000 	sll	zero,sp,0x0
    1a80:	5605f01b 	bnel	s0,a1,ffffdaf0 <__entry+0x403fdaf0>
    1a84:	00080f02 	srl	at,t0,0x1c
    1a88:	08041c00 	j	107000 <__memory_size+0xe7800>
    1a8c:	6d050000 	0x6d050000
    1a90:	00067802 	srl	t7,a2,0x0
    1a94:	08d81c00 	j	3607000 <__memory_size+0x35e7800>
    1a98:	76050000 	jalx	8140000 <__memory_size+0x8120800>
    1a9c:	0007a902 	srl	s5,a3,0x4
    1aa0:	4c080000 	lwxc1	$f0,t0(zero)
    1aa4:	1f000005 	bgtz	t8,1abc <__isr_vec_space+0x1a9c>
    1aa8:	09000008 	j	4000020 <__memory_size+0x3fe0820>
    1aac:	000000c3 	sra	zero,zero,0x3
    1ab0:	2a1d0018 	slti	sp,s0,24
    1ab4:	14000008 	bnez	zero,1ad8 <__isr_vec_space+0x1ab8>
    1ab8:	0000040e 	0x40e
    1abc:	1f040f00 	0x1f040f00
    1ac0:	0f000008 	jal	c000020 <__memory_size+0xbfe0820>
    1ac4:	00016104 	0x16104
    1ac8:	08411d00 	j	1047400 <__memory_size+0x1027c00>
    1acc:	28140000 	slti	s4,zero,0
    1ad0:	00000000 	nop
    1ad4:	0847040f 	j	11c103c <__memory_size+0x11a183c>
    1ad8:	040f0000 	0x40f0000
    1adc:	00000836 	tne	zero,zero,0x20
    1ae0:	0005e608 	0x5e608
    1ae4:	00085d00 	sll	t3,t0,0x14
    1ae8:	00c30900 	0xc30900
    1aec:	00020000 	sll	zero,v0,0x0
    1af0:	000a971e 	0xa971e
    1af4:	70540600 	0x70540600
    1af8:	3c800013 	0x3c800013
    1afc:	01000000 	0x1000000
    1b00:	0008ab9c 	0x8ab9c
    1b04:	0a901f00 	j	a407c00 <__memory_size+0xa3e8400>
    1b08:	3a010000 	xori	at,s0,0x0
    1b0c:	00000028 	0x28
    1b10:	00000d8f 	0xd8f
    1b14:	00138820 	add	s1,zero,s3
    1b18:	0008bc80 	sll	s7,t0,0x12
    1b1c:	00089a00 	sll	s3,t0,0x8
    1b20:	55012100 	bnel	t0,at,9f24 <__isr_vec_space+0x9f04>
    1b24:	01213001 	movt	a2,t1,$fcc0
    1b28:	00800254 	0x800254
    1b2c:	13ac2200 	beq	sp,t4,a330 <__isr_vec_space+0xa310>
    1b30:	08d28000 	j	34a0000 <__memory_size+0x3480800>
    1b34:	01210000 	0x1210000
    1b38:	00800254 	0x800254
    1b3c:	6e230000 	0x6e230000
    1b40:	05000008 	bltz	t0,1b64 <__isr_vec_space+0x1b44>
    1b44:	08b702fb 	j	2dc0bec <__memory_size+0x2da13ec>
    1b48:	0e180000 	jal	8600000 <__memory_size+0x85e0800>
    1b4c:	24000004 	li	zero,4
    1b50:	000006f7 	0x6f7
    1b54:	08d20c07 	j	348301c <__memory_size+0x346381c>
    1b58:	28140000 	slti	s4,zero,0
    1b5c:	14000000 	bnez	zero,1b60 <__isr_vec_space+0x1b40>
    1b60:	00000101 	0x101
    1b64:	0a962500 	j	a589400 <__memory_size+0xa569c00>
    1b68:	11080000 	beq	t0,t0,1b6c <__isr_vec_space+0x1b4c>
    1b6c:	00002814 	0x2814
    1b70:	8c000000 	lw	zero,0(zero)
    1b74:	04000008 	bltz	zero,1b98 <__isr_vec_space+0x1b78>
    1b78:	000a3700 	sll	a2,t2,0x1c
    1b7c:	6d010400 	0x6d010400
    1b80:	01000004 	sllv	zero,zero,t0
    1b84:	00000925 	0x925
    1b88:	00000904 	0x904
    1b8c:	05050402 	0x5050402
    1b90:	02000000 	0x2000000
    1b94:	00710704 	0x710704
    1b98:	04030000 	bgezl	zero,1b9c <__isr_vec_space+0x1b7c>
    1b9c:	746e6905 	jalx	1b9a414 <__memory_size+0x1b7ac14>
    1ba0:	06010200 	bgez	s0,23a4 <__isr_vec_space+0x2384>
    1ba4:	0000008d 	break	0x0,0x2
    1ba8:	8b080102 	lwl	t0,258(t8)
    1bac:	02000000 	0x2000000
    1bb0:	00d90502 	0xd90502
    1bb4:	02020000 	0x2020000
    1bb8:	0000ad07 	0xad07
    1bbc:	05080200 	tgei	t0,512
    1bc0:	00000000 	nop
    1bc4:	6c070802 	0x6c070802
    1bc8:	04000000 	bltz	zero,1bcc <__isr_vec_space+0x1bac>
    1bcc:	0000071d 	0x71d
    1bd0:	00270701 	0x270701
    1bd4:	f0040000 	0xf0040000
    1bd8:	02000006 	srlv	zero,zero,s0
    1bdc:	00001910 	0x1910
    1be0:	08270400 	j	9c1000 <__memory_size+0x9a1800>
    1be4:	27020000 	addiu	v0,t8,0
    1be8:	00000019 	multu	zero,zero
    1bec:	0006b505 	0x6b505
    1bf0:	01610300 	0x1610300
    1bf4:	00000085 	lsa	zero,zero,zero,0x3
    1bf8:	76070402 	jalx	81c1008 <__memory_size+0x81a1808>
    1bfc:	06000000 	bltz	s0,1c00 <__isr_vec_space+0x1be0>
    1c00:	ab4a0204 	swl	t2,516(k0)
    1c04:	07000000 	bltz	t8,1c08 <__isr_vec_space+0x1be8>
    1c08:	000006af 	0x6af
    1c0c:	00794c02 	0x794c02
    1c10:	61070000 	0x61070000
    1c14:	02000006 	srlv	zero,zero,s0
    1c18:	0000ab4d 	break	0x0,0x2ad
    1c1c:	35080000 	ori	t0,t0,0x0
    1c20:	bb000000 	swr	zero,0(t8)
    1c24:	09000000 	j	4000000 <__memory_size+0x3fe0800>
    1c28:	000000bb 	0xbb
    1c2c:	04020003 	bltzl	zero,1c3c <__isr_vec_space+0x1c1c>
    1c30:	00015107 	0x15107
    1c34:	02080a00 	0x2080a00
    1c38:	0000e347 	0xe347
    1c3c:	08110b00 	j	442c00 <__memory_size+0x423400>
    1c40:	49020000 	bc2fl	1c44 <__isr_vec_space+0x1c24>
    1c44:	00000027 	nor	zero,zero,zero
    1c48:	08190b00 	j	642c00 <__memory_size+0x623400>
    1c4c:	4e020000 	lwxc1	$f0,v0(s0)
    1c50:	0000008c 	syscall	0x2
    1c54:	12040004 	beq	s0,a0,1c68 <__isr_vec_space+0x1c48>
    1c58:	02000007 	srav	zero,zero,s0
    1c5c:	0000c24f 	0xc24f
    1c60:	06240400 	0x6240400
    1c64:	53020000 	beql	t8,v0,1c68 <__isr_vec_space+0x1c48>
    1c68:	00000058 	0x58
    1c6c:	5904040c 	0x5904040c
    1c70:	04000008 	bltz	zero,1c94 <__isr_vec_space+0x1c74>
    1c74:	00002016 	0x2016
    1c78:	06350d00 	0x6350d00
    1c7c:	04180000 	0x4180000
    1c80:	0001592d 	0x1592d
    1c84:	07c50b00 	0x7c50b00
    1c88:	2f040000 	sltiu	a0,t8,0
    1c8c:	00000159 	0x159
    1c90:	6b5f0e00 	0x6b5f0e00
    1c94:	27300400 	addiu	s0,t9,1024
    1c98:	04000000 	bltz	zero,1c9c <__isr_vec_space+0x1c7c>
    1c9c:	0007fc0b 	0x7fc0b
    1ca0:	27300400 	addiu	s0,t9,1024
    1ca4:	08000000 	j	0 <hardware_exit_hook>
    1ca8:	00061e0b 	0x61e0b
    1cac:	27300400 	addiu	s0,t9,1024
    1cb0:	0c000000 	jal	0 <hardware_exit_hook>
    1cb4:	0008a00b 	movn	s4,zero,t0
    1cb8:	27300400 	addiu	s0,t9,1024
    1cbc:	10000000 	b	1cc0 <__isr_vec_space+0x1ca0>
    1cc0:	00785f0e 	0x785f0e
    1cc4:	015f3104 	0x15f3104
    1cc8:	00140000 	sll	zero,s4,0x0
    1ccc:	0106040f 	0x106040f
    1cd0:	fb080000 	sdc2	$8,0(t8)
    1cd4:	6f000000 	0x6f000000
    1cd8:	09000001 	j	4000004 <__memory_size+0x3fe0804>
    1cdc:	000000bb 	0xbb
    1ce0:	5c0d0000 	0x5c0d0000
    1ce4:	24000006 	li	zero,6
    1ce8:	01e83504 	0x1e83504
    1cec:	8f0b0000 	lw	t3,0(t8)
    1cf0:	04000005 	bltz	zero,1d08 <__isr_vec_space+0x1ce8>
    1cf4:	00002737 	0x2737
    1cf8:	2f0b0000 	sltiu	t3,t8,0
    1cfc:	04000008 	bltz	zero,1d20 <__isr_vec_space+0x1d00>
    1d00:	00002738 	0x2738
    1d04:	9e0b0400 	0x9e0b0400
    1d08:	04000005 	bltz	zero,1d20 <__isr_vec_space+0x1d00>
    1d0c:	00002739 	0x2739
    1d10:	2f0b0800 	sltiu	t3,t8,2048
    1d14:	04000007 	bltz	zero,1d34 <__isr_vec_space+0x1d14>
    1d18:	0000273a 	0x273a
    1d1c:	dc0b0c00 	ldc3	$11,3072(zero)
    1d20:	04000006 	bltz	zero,1d3c <__isr_vec_space+0x1d1c>
    1d24:	0000273b 	0x273b
    1d28:	cb0b1000 	lwc2	$11,4096(t8)
    1d2c:	04000006 	bltz	zero,1d48 <__isr_vec_space+0x1d28>
    1d30:	0000273c 	0x273c
    1d34:	a50b1400 	sh	t3,5120(t0)
    1d38:	04000008 	bltz	zero,1d5c <__isr_vec_space+0x1d3c>
    1d3c:	0000273d 	0x273d
    1d40:	470b1800 	bz.b	$w11,7d44 <__isr_vec_space+0x7d24>
    1d44:	04000007 	bltz	zero,1d64 <__isr_vec_space+0x1d44>
    1d48:	0000273e 	0x273e
    1d4c:	e00b1c00 	sc	t3,7168(zero)
    1d50:	04000008 	bltz	zero,1d74 <__isr_vec_space+0x1d54>
    1d54:	0000273f 	0x273f
    1d58:	10002000 	b	9d5c <__isr_vec_space+0x9d3c>
    1d5c:	000005ad 	0x5ad
    1d60:	48040108 	0x48040108
    1d64:	00000228 	0x228
    1d68:	0006110b 	0x6110b
    1d6c:	28490400 	slti	t1,v0,1024
    1d70:	00000002 	srl	zero,zero,0x0
    1d74:	00052a0b 	0x52a0b
    1d78:	284a0400 	slti	t2,v0,1024
    1d7c:	80000002 	lb	zero,2(zero)
    1d80:	00084b11 	0x84b11
    1d84:	fb4c0400 	sdc2	$12,1024(k0)
    1d88:	00000000 	nop
    1d8c:	05d21101 	bltzall	t6,6194 <__isr_vec_space+0x6174>
    1d90:	4f040000 	lwxc1	$f0,a0(t8)
    1d94:	000000fb 	0xfb
    1d98:	08000104 	j	410 <__isr_vec_space+0x3f0>
    1d9c:	000000f9 	0xf9
    1da0:	00000238 	0x238
    1da4:	0000bb09 	0xbb09
    1da8:	10001f00 	b	99ac <__isr_vec_space+0x998c>
    1dac:	00000522 	0x522
    1db0:	5b040190 	0x5b040190
    1db4:	00000276 	tne	zero,zero,0x9
    1db8:	0007c50b 	0x7c50b
    1dbc:	765c0400 	jalx	9701000 <__memory_size+0x96e1800>
    1dc0:	00000002 	srl	zero,zero,0x0
    1dc4:	0007dd0b 	0x7dd0b
    1dc8:	275d0400 	addiu	sp,k0,1024
    1dcc:	04000000 	bltz	zero,1dd0 <__isr_vec_space+0x1db0>
    1dd0:	0006190b 	0x6190b
    1dd4:	7c5f0400 	ext	ra,v0,0x10,0x1
    1dd8:	08000002 	j	8 <ABIFlags_isa_ext>
    1ddc:	0005ad0b 	0x5ad0b
    1de0:	e8600400 	swc2	$0,1024(v1)
    1de4:	88000001 	lwl	zero,1(zero)
    1de8:	38040f00 	xori	a0,zero,0xf00
    1dec:	08000002 	j	8 <ABIFlags_isa_ext>
    1df0:	0000028c 	syscall	0xa
    1df4:	0000028c 	syscall	0xa
    1df8:	0000bb09 	0xbb09
    1dfc:	0f001f00 	jal	c007c00 <__memory_size+0xbfe8400>
    1e00:	00029204 	0x29204
    1e04:	510d1200 	beql	t0,t5,6608 <__isr_vec_space+0x65e8>
    1e08:	08000007 	j	1c <ABIFlags_flags2+0x8>
    1e0c:	02b87304 	0x2b87304
    1e10:	fb0b0000 	sdc2	$11,0(t8)
    1e14:	0400000b 	bltz	zero,1e44 <__isr_vec_space+0x1e24>
    1e18:	0002b874 	teq	zero,v0,0x2e1
    1e1c:	6b0b0000 	0x6b0b0000
    1e20:	04000001 	bltz	zero,1e28 <__isr_vec_space+0x1e08>
    1e24:	00002775 	0x2775
    1e28:	0f000400 	jal	c001000 <__memory_size+0xbfe1800>
    1e2c:	00003504 	0x3504
    1e30:	07af0d00 	0x7af0d00
    1e34:	04680000 	tgei	v1,0
    1e38:	0003e8b3 	tltu	zero,v1,0x3a2
    1e3c:	705f0e00 	0x705f0e00
    1e40:	b8b40400 	swr	s4,1024(a1)
    1e44:	00000002 	srl	zero,zero,0x0
    1e48:	00725f0e 	0x725f0e
    1e4c:	0027b504 	0x27b504
    1e50:	0e040000 	jal	8100000 <__memory_size+0x80e0800>
    1e54:	0400775f 	bltz	zero,1fbd4 <__memory_size+0x3d4>
    1e58:	000027b6 	tne	zero,zero,0x9e
    1e5c:	cb0b0800 	lwc2	$11,2048(t8)
    1e60:	04000005 	bltz	zero,1e78 <__isr_vec_space+0x1e58>
    1e64:	00003cb7 	0x3cb7
    1e68:	780b0c00 	andi.b	$w16,$w1,0xb
    1e6c:	04000006 	bltz	zero,1e88 <__isr_vec_space+0x1e68>
    1e70:	00003cb8 	0x3cb8
    1e74:	5f0e0e00 	0x5f0e0e00
    1e78:	04006662 	bltz	zero,1b804 <__isr_vec_space+0x1b7e4>
    1e7c:	000293b9 	0x293b9
    1e80:	690b1000 	0x690b1000
    1e84:	04000005 	bltz	zero,1e9c <__isr_vec_space+0x1e7c>
    1e88:	000027ba 	0x27ba
    1e8c:	bb0b1800 	swr	t3,6144(t8)
    1e90:	04000005 	bltz	zero,1ea8 <__isr_vec_space+0x1e88>
    1e94:	0000f9c1 	0xf9c1
    1e98:	4c0b1c00 	0x4c0b1c00
    1e9c:	04000006 	bltz	zero,1eb8 <__isr_vec_space+0x1e98>
    1ea0:	00054bc3 	sra	t1,a1,0xf
    1ea4:	c40b2000 	lwc1	$f11,8192(zero)
    1ea8:	04000006 	bltz	zero,1ec4 <__isr_vec_space+0x1ea4>
    1eac:	00057ac5 	0x57ac5
    1eb0:	210b2400 	addi	t3,t0,9216
    1eb4:	04000008 	bltz	zero,1ed8 <__isr_vec_space+0x1eb8>
    1eb8:	00059ec8 	0x59ec8
    1ebc:	fa0b2800 	sdc2	$11,10240(s0)
    1ec0:	04000008 	bltz	zero,1ee4 <__isr_vec_space+0x1ec4>
    1ec4:	0005b8c9 	0x5b8c9
    1ec8:	5f0e2c00 	0x5f0e2c00
    1ecc:	04006275 	bltz	zero,1a8a4 <__isr_vec_space+0x1a884>
    1ed0:	000293cc 	syscall	0xa4f
    1ed4:	5f0e3000 	0x5f0e3000
    1ed8:	04007075 	bltz	zero,1e0b0 <__isr_vec_space+0x1e090>
    1edc:	0002b8cd 	break	0x2,0x2e3
    1ee0:	5f0e3800 	0x5f0e3800
    1ee4:	04007275 	bltz	zero,1e8bc <__isr_vec_space+0x1e89c>
    1ee8:	000027ce 	0x27ce
    1eec:	980b3c00 	lwr	t3,15360(zero)
    1ef0:	04000005 	bltz	zero,1f08 <__isr_vec_space+0x1ee8>
    1ef4:	0005bed1 	0x5bed1
    1ef8:	d20b4000 	0xd20b4000
    1efc:	04000008 	bltz	zero,1f20 <__isr_vec_space+0x1f00>
    1f00:	0005ced2 	0x5ced2
    1f04:	5f0e4300 	0x5f0e4300
    1f08:	0400626c 	bltz	zero,1a8bc <__isr_vec_space+0x1a89c>
    1f0c:	000293d5 	0x293d5
    1f10:	e10b4400 	sc	t3,17408(t0)
    1f14:	04000005 	bltz	zero,1f2c <__isr_vec_space+0x1f0c>
    1f18:	000027d8 	0x27d8
    1f1c:	440b4c00 	0x440b4c00
    1f20:	04000002 	bltz	zero,1f2c <__isr_vec_space+0x1f0c>
    1f24:	000063d9 	0x63d9
    1f28:	1f0b5000 	0x1f0b5000
    1f2c:	04000009 	bltz	zero,1f54 <__isr_vec_space+0x1f34>
    1f30:	000406dc 	0x406dc
    1f34:	d40b5400 	ldc1	$f11,21504(zero)
    1f38:	04000009 	bltz	zero,1f60 <__isr_vec_space+0x1f40>
    1f3c:	0000eee0 	0xeee0
    1f40:	b70b5800 	0xb70b5800
    1f44:	04000007 	bltz	zero,1f64 <__isr_vec_space+0x1f44>
    1f48:	0000e3e2 	0xe3e2
    1f4c:	bc0b5c00 	cache	0xb,23552(zero)
    1f50:	04000006 	bltz	zero,1f6c <__isr_vec_space+0x1f4c>
    1f54:	000027e3 	0x27e3
    1f58:	13006400 	beqz	t8,1af5c <__isr_vec_space+0x1af3c>
    1f5c:	00000027 	nor	zero,zero,zero
    1f60:	00000406 	0x406
    1f64:	00040614 	0x40614
    1f68:	00f91400 	0xf91400
    1f6c:	3e140000 	0x3e140000
    1f70:	14000005 	bnez	zero,1f88 <__isr_vec_space+0x1f68>
    1f74:	00000027 	nor	zero,zero,zero
    1f78:	0c040f00 	jal	103c00 <__memory_size+0xe4400>
    1f7c:	15000004 	bnez	t0,1f90 <__isr_vec_space+0x1f70>
    1f80:	00000804 	sllv	at,zero,zero
    1f84:	39040428 	xori	a0,t0,0x428
    1f88:	00053e02 	srl	a3,a1,0x18
    1f8c:	0df41600 	jal	7d05800 <__memory_size+0x7ce6000>
    1f90:	3b040000 	xori	a0,t8,0x0
    1f94:	00002702 	srl	a0,zero,0x1c
    1f98:	da160000 	ldc2	$22,0(s0)
    1f9c:	04000005 	bltz	zero,1fb4 <__isr_vec_space+0x1f94>
    1fa0:	06250240 	0x6250240
    1fa4:	16040000 	bne	s0,a0,1fa8 <__isr_vec_space+0x1f88>
    1fa8:	00000668 	0x668
    1fac:	25024004 	addiu	v0,t0,16388
    1fb0:	08000006 	j	18 <ABIFlags_flags2+0x4>
    1fb4:	00062d16 	0x62d16
    1fb8:	02400400 	0x2400400
    1fbc:	00000625 	0x625
    1fc0:	07d8160c 	0x7d8160c
    1fc4:	42040000 	c0	0x40000
    1fc8:	00002702 	srl	a0,zero,0x1c
    1fcc:	3e161000 	0x3e161000
    1fd0:	04000005 	bltz	zero,1fe8 <__isr_vec_space+0x1fc8>
    1fd4:	08070243 	j	1c090c <__memory_size+0x1a110c>
    1fd8:	16140000 	bne	s0,s4,1fdc <__isr_vec_space+0x1fbc>
    1fdc:	00000881 	0x881
    1fe0:	27024504 	addiu	v0,t8,17668
    1fe4:	30000000 	andi	zero,zero,0x0
    1fe8:	0007e216 	0x7e216
    1fec:	02460400 	0x2460400
    1ff0:	0000056f 	0x56f
    1ff4:	06e51634 	0x6e51634
    1ff8:	48040000 	mfc2	a0,$0
    1ffc:	00002702 	srl	a0,zero,0x1c
    2000:	f2163800 	0xf2163800
    2004:	04000007 	bltz	zero,2024 <__isr_vec_space+0x2004>
    2008:	0822024a 	j	880928 <__memory_size+0x861128>
    200c:	163c0000 	bne	s1,gp,2010 <__isr_vec_space+0x1ff0>
    2010:	000006a7 	0x6a7
    2014:	59024d04 	0x59024d04
    2018:	40000001 	mfc0	zero,c0_mvpcontrol
    201c:	00065216 	0x65216
    2020:	024e0400 	0x24e0400
    2024:	00000027 	nor	zero,zero,zero
    2028:	09141644 	j	4505910 <__memory_size+0x44e6110>
    202c:	4f040000 	lwxc1	$f0,a0(t8)
    2030:	00015902 	srl	t3,at,0x4
    2034:	08164800 	j	592000 <__memory_size+0x572800>
    2038:	04000007 	bltz	zero,2058 <__isr_vec_space+0x2038>
    203c:	08280250 	j	a00940 <__memory_size+0x9e1140>
    2040:	164c0000 	bne	s2,t4,2044 <__isr_vec_space+0x2024>
    2044:	00000670 	tge	zero,zero,0x19
    2048:	27025304 	addiu	v0,t8,21252
    204c:	50000000 	beqzl	zero,2050 <__isr_vec_space+0x2030>
    2050:	0005ea16 	0x5ea16
    2054:	02540400 	0x2540400
    2058:	0000053e 	0x53e
    205c:	07391654 	0x7391654
    2060:	77040000 	jalx	c100000 <__memory_size+0xc0e0800>
    2064:	0007e502 	srl	gp,a3,0x14
    2068:	22175800 	addi	s7,s0,22528
    206c:	04000005 	bltz	zero,2084 <__isr_vec_space+0x2064>
    2070:	0276027b 	0x276027b
    2074:	01480000 	0x1480000
    2078:	00068517 	0x68517
    207c:	027c0400 	0x27c0400
    2080:	00000238 	0x238
    2084:	c817014c 	lwc2	$23,332(zero)
    2088:	04000008 	bltz	zero,20ac <__isr_vec_space+0x208c>
    208c:	08390280 	j	e40a00 <__memory_size+0xe21200>
    2090:	02dc0000 	0x2dc0000
    2094:	0005c317 	0x5c317
    2098:	02850400 	0x2850400
    209c:	000005ea 	0x5ea
    20a0:	a81702e0 	swl	s7,736(zero)
    20a4:	04000005 	bltz	zero,20bc <__isr_vec_space+0x209c>
    20a8:	08450286 	j	1140a18 <__memory_size+0x1121218>
    20ac:	02ec0000 	0x2ec0000
    20b0:	44040f00 	0x44040f00
    20b4:	02000005 	lsa	zero,s0,zero,0x1
    20b8:	00940801 	movf	at,a0,$fcc5
    20bc:	040f0000 	0x40f0000
    20c0:	000003e8 	0x3e8
    20c4:	00002713 	0x2713
    20c8:	00056f00 	sll	t5,a1,0x1c
    20cc:	04061400 	0x4061400
    20d0:	f9140000 	sdc2	$20,0(t0)
    20d4:	14000000 	bnez	zero,20d8 <__isr_vec_space+0x20b8>
    20d8:	0000056f 	0x56f
    20dc:	00002714 	0x2714
    20e0:	040f0000 	0x40f0000
    20e4:	00000575 	0x575
    20e8:	00054418 	0x54418
    20ec:	51040f00 	beql	t0,a0,5cf0 <__isr_vec_space+0x5cd0>
    20f0:	13000005 	beqz	t8,2108 <__isr_vec_space+0x20e8>
    20f4:	0000006e 	0x6e
    20f8:	0000059e 	0x59e
    20fc:	00040614 	0x40614
    2100:	00f91400 	0xf91400
    2104:	6e140000 	0x6e140000
    2108:	14000000 	bnez	zero,210c <__isr_vec_space+0x20ec>
    210c:	00000027 	nor	zero,zero,zero
    2110:	80040f00 	lb	a0,3840(zero)
    2114:	13000005 	beqz	t8,212c <__isr_vec_space+0x210c>
    2118:	00000027 	nor	zero,zero,zero
    211c:	000005b8 	0x5b8
    2120:	00040614 	0x40614
    2124:	00f91400 	0xf91400
    2128:	0f000000 	jal	c000000 <__memory_size+0xbfe0800>
    212c:	0005a404 	0x5a404
    2130:	00350800 	0x350800
    2134:	05ce0000 	tnei	t6,0
    2138:	bb090000 	swr	t1,0(t8)
    213c:	02000000 	0x2000000
    2140:	00350800 	0x350800
    2144:	05de0000 	0x5de0000
    2148:	bb090000 	swr	t1,0(t8)
    214c:	00000000 	nop
    2150:	075e0500 	0x75e0500
    2154:	1d040000 	0x1d040000
    2158:	0002be01 	0x2be01
    215c:	08af1900 	j	2bc6400 <__memory_size+0x2ba6c00>
    2160:	040c0000 	teqi	zero,0
    2164:	061f0121 	synci	289(s0)
    2168:	c5160000 	lwc1	$f22,0(t0)
    216c:	04000007 	bltz	zero,218c <__isr_vec_space+0x216c>
    2170:	061f0123 	synci	291(s0)
    2174:	16000000 	bnez	s0,2178 <__isr_vec_space+0x2158>
    2178:	0000067e 	0x67e
    217c:	27012404 	addiu	at,t8,9220
    2180:	04000000 	bltz	zero,2184 <__isr_vec_space+0x2164>
    2184:	00075816 	0x75816
    2188:	01250400 	0x1250400
    218c:	00000625 	0x625
    2190:	040f0008 	0x40f0008
    2194:	000005ea 	0x5ea
    2198:	05de040f 	0x5de040f
    219c:	36190000 	ori	t9,s0,0x0
    21a0:	0e000005 	jal	8000014 <__memory_size+0x7fe0814>
    21a4:	60013d04 	0x60013d04
    21a8:	16000006 	bnez	s0,21c4 <__isr_vec_space+0x21a4>
    21ac:	0000080b 	movn	at,zero,zero
    21b0:	60013e04 	0x60013e04
    21b4:	00000006 	srlv	zero,zero,zero
    21b8:	00083816 	0x83816
    21bc:	013f0400 	0x13f0400
    21c0:	00000660 	0x660
    21c4:	08541606 	j	1505818 <__memory_size+0x14e6018>
    21c8:	40040000 	mfc0	a0,c0_index
    21cc:	00004301 	0x4301
    21d0:	08000c00 	j	3000 <__isr_vec_space+0x2fe0>
    21d4:	00000043 	sra	zero,zero,0x1
    21d8:	00000670 	tge	zero,zero,0x19
    21dc:	0000bb09 	0xbb09
    21e0:	1a000200 	blez	s0,29e4 <__isr_vec_space+0x29c4>
    21e4:	025804d0 	0x25804d0
    21e8:	00000771 	tgeu	zero,zero,0x1d
    21ec:	00089316 	0x89316
    21f0:	025a0400 	0x25a0400
    21f4:	00000085 	lsa	zero,zero,zero,0x3
    21f8:	083e1600 	j	f85800 <__memory_size+0xf66000>
    21fc:	5b040000 	0x5b040000
    2200:	00053e02 	srl	a3,a1,0x18
    2204:	9a160400 	lwr	s6,1024(s0)
    2208:	04000006 	bltz	zero,2224 <__isr_vec_space+0x2204>
    220c:	0771025c 	bgezal	k1,2b80 <__isr_vec_space+0x2b60>
    2210:	16080000 	bne	s0,t0,2214 <__isr_vec_space+0x21f4>
    2214:	000008eb 	0x8eb
    2218:	6f025d04 	0x6f025d04
    221c:	24000001 	li	zero,1
    2220:	00063d16 	0x63d16
    2224:	025e0400 	0x25e0400
    2228:	00000027 	nor	zero,zero,zero
    222c:	07c01648 	bltz	s8,7b50 <__isr_vec_space+0x7b30>
    2230:	5f040000 	0x5f040000
    2234:	00005102 	srl	t2,zero,0x4
    2238:	01165000 	0x1165000
    223c:	04000009 	bltz	zero,2264 <__isr_vec_space+0x2244>
    2240:	062b0260 	tltiu	s1,608
    2244:	16580000 	bne	s2,t8,2248 <__isr_vec_space+0x2228>
    2248:	000007cb 	0x7cb
    224c:	e3026104 	sc	v0,24836(t8)
    2250:	68000000 	0x68000000
    2254:	00090616 	0x90616
    2258:	02620400 	0x2620400
    225c:	000000e3 	0xe3
    2260:	05811670 	bgez	t4,7c24 <__isr_vec_space+0x7c04>
    2264:	63040000 	0x63040000
    2268:	0000e302 	srl	gp,zero,0xc
    226c:	be167800 	cache	0x16,30720(s0)
    2270:	04000008 	bltz	zero,2294 <__isr_vec_space+0x2274>
    2274:	07810264 	bgez	gp,2c08 <__isr_vec_space+0x2be8>
    2278:	16800000 	bnez	s4,227c <__isr_vec_space+0x225c>
    227c:	0000068e 	0x68e
    2280:	91026504 	lbu	v0,25860(t0)
    2284:	88000007 	lwl	zero,7(zero)
    2288:	00086116 	0x86116
    228c:	02660400 	0x2660400
    2290:	00000027 	nor	zero,zero,zero
    2294:	060316a0 	bgezl	s0,7d18 <__isr_vec_space+0x7cf8>
    2298:	67040000 	0x67040000
    229c:	0000e302 	srl	gp,zero,0xc
    22a0:	7216a400 	s32madd	xr0,xr9,s0,s6
    22a4:	04000005 	bltz	zero,22bc <__isr_vec_space+0x229c>
    22a8:	00e30268 	0xe30268
    22ac:	16ac0000 	bne	s5,t4,22b0 <__isr_vec_space+0x2290>
    22b0:	000005f2 	tlt	zero,zero,0x17
    22b4:	e3026904 	sc	v0,26884(t8)
    22b8:	b4000000 	0xb4000000
    22bc:	00054916 	0x54916
    22c0:	026a0400 	0x26a0400
    22c4:	000000e3 	0xe3
    22c8:	055816bc 	0x55816bc
    22cc:	6b040000 	0x6b040000
    22d0:	0000e302 	srl	gp,zero,0xc
    22d4:	3e16c400 	0x3e16c400
    22d8:	04000007 	bltz	zero,22f8 <__isr_vec_space+0x22d8>
    22dc:	0027026c 	0x27026c
    22e0:	00cc0000 	0xcc0000
    22e4:	00054408 	0x54408
    22e8:	00078100 	sll	s0,a3,0x4
    22ec:	00bb0900 	0xbb0900
    22f0:	00190000 	sll	zero,t9,0x0
    22f4:	00054408 	0x54408
    22f8:	00079100 	sll	s2,a3,0x4
    22fc:	00bb0900 	0xbb0900
    2300:	00070000 	sll	zero,a3,0x0
    2304:	00054408 	0x54408
    2308:	0007a100 	sll	s4,a3,0x4
    230c:	00bb0900 	0xbb0900
    2310:	00170000 	sll	zero,s7,0x0
    2314:	7104f01a 	udi10	t0,a0,s8,0x0
    2318:	0007c502 	srl	t8,a3,0x14
    231c:	06d51600 	0x6d51600
    2320:	74040000 	jalx	100000 <__memory_size+0xe0800>
    2324:	0007c502 	srl	t8,a3,0x14
    2328:	b5160000 	0xb5160000
    232c:	04000008 	bltz	zero,2350 <__isr_vec_space+0x2330>
    2330:	07d50275 	0x7d50275
    2334:	00780000 	0x780000
    2338:	0002b808 	0x2b808
    233c:	0007d500 	sll	k0,a3,0x14
    2340:	00bb0900 	0xbb0900
    2344:	001d0000 	sll	zero,sp,0x0
    2348:	00008508 	0x8508
    234c:	0007e500 	sll	gp,a3,0x14
    2350:	00bb0900 	0xbb0900
    2354:	001d0000 	sll	zero,sp,0x0
    2358:	5604f01b 	bnel	s0,a0,ffffe3c8 <__entry+0x403fe3c8>
    235c:	00080702 	srl	zero,t0,0x1c
    2360:	08041c00 	j	107000 <__memory_size+0xe7800>
    2364:	6d040000 	0x6d040000
    2368:	00067002 	srl	t6,a2,0x0
    236c:	08d81c00 	j	3607000 <__memory_size+0x35e7800>
    2370:	76040000 	jalx	8100000 <__memory_size+0x80e0800>
    2374:	0007a102 	srl	s4,a3,0x4
    2378:	44080000 	mfc1	t0,$f0
    237c:	17000005 	bnez	t8,2394 <__isr_vec_space+0x2374>
    2380:	09000008 	j	4000020 <__memory_size+0x3fe0820>
    2384:	000000bb 	0xbb
    2388:	221d0018 	addi	sp,s0,24
    238c:	14000008 	bnez	zero,23b0 <__isr_vec_space+0x2390>
    2390:	00000406 	0x406
    2394:	17040f00 	bne	t8,a0,5f98 <__isr_vec_space+0x5f78>
    2398:	0f000008 	jal	c000020 <__memory_size+0xbfe0820>
    239c:	00015904 	0x15904
    23a0:	08391d00 	j	e47400 <__memory_size+0xe27c00>
    23a4:	27140000 	addiu	s4,t8,0
    23a8:	00000000 	nop
    23ac:	083f040f 	j	fc103c <__memory_size+0xfa183c>
    23b0:	040f0000 	0x40f0000
    23b4:	0000082e 	0x82e
    23b8:	0005de08 	0x5de08
    23bc:	00085500 	sll	t2,t0,0x14
    23c0:	00bb0900 	0xbb0900
    23c4:	00020000 	sll	zero,v0,0x0
    23c8:	0009191e 	0x9191e
    23cc:	0c170500 	jal	5c1400 <__memory_size+0x5a1c00>
    23d0:	05000004 	bltz	t0,23e4 <__isr_vec_space+0x23c4>
    23d4:	002a6003 	0x2a6003
    23d8:	08751f80 	j	1d47e00 <__memory_size+0x1d28600>
    23dc:	fa040000 	sdc2	$4,0(s0)
    23e0:	00040602 	srl	zero,a0,0x18
    23e4:	f4030500 	sdc1	$f3,1280(zero)
    23e8:	1f80002e 	bgtz	gp,24a4 <__isr_vec_space+0x2484>
    23ec:	0000086e 	0x86e
    23f0:	8a02fb04 	lwl	v0,-1276(s0)
    23f4:	05000008 	bltz	t0,2418 <__isr_vec_space+0x23f8>
    23f8:	002ef003 	0x2ef003
    23fc:	04061880 	0x4061880
    2400:	2c000000 	sltiu	zero,zero,0
    2404:	04000009 	bltz	zero,242c <__isr_vec_space+0x240c>
    2408:	000bb500 	sll	s6,t3,0x14
    240c:	6d010400 	0x6d010400
    2410:	01000004 	sllv	zero,zero,t0
    2414:	00000970 	tge	zero,zero,0x25
    2418:	800013ac 	lb	zero,5036(zero)
    241c:	00000110 	0x110
    2420:	00000a2f 	0xa2f
    2424:	05050402 	0x5050402
    2428:	03000000 	0x3000000
    242c:	0000015f 	0x15f
    2430:	0033d402 	ror	k0,s3,0x10
    2434:	04020000 	bltzl	zero,2438 <__isr_vec_space+0x2418>
    2438:	00007107 	0x7107
    243c:	05040400 	0x5040400
    2440:	00746e69 	0x746e69
    2444:	8d060102 	lw	a2,258(t0)
    2448:	02000000 	0x2000000
    244c:	008b0801 	0x8b0801
    2450:	02020000 	0x2020000
    2454:	0000d905 	0xd905
    2458:	07020200 	bltzl	t8,2c5c <__isr_vec_space+0x2c3c>
    245c:	000000ad 	0xad
    2460:	00050802 	srl	at,a1,0x0
    2464:	02000000 	0x2000000
    2468:	006c0708 	0x6c0708
    246c:	1d030000 	0x1d030000
    2470:	03000007 	srav	zero,zero,t8
    2474:	00003a07 	0x3a07
    2478:	06f00300 	bltzal	s7,307c <__isr_vec_space+0x305c>
    247c:	10040000 	beq	zero,a0,2480 <__isr_vec_space+0x2460>
    2480:	00000021 	move	zero,zero
    2484:	00082703 	sra	a0,t0,0x1c
    2488:	21270400 	addi	a3,t1,1024
    248c:	05000000 	bltz	t0,2490 <__isr_vec_space+0x2470>
    2490:	000006b5 	0x6b5
    2494:	98016102 	lwr	at,24834(zero)
    2498:	02000000 	0x2000000
    249c:	00760704 	0x760704
    24a0:	04060000 	0x4060000
    24a4:	00be4a04 	0xbe4a04
    24a8:	af070000 	sw	a3,0(t8)
    24ac:	04000006 	bltz	zero,24c8 <__isr_vec_space+0x24a8>
    24b0:	00008c4c 	syscall	0x231
    24b4:	06610700 	bgez	s3,40b8 <__isr_vec_space+0x4098>
    24b8:	4d040000 	lwxc1	$f0,a0(t0)
    24bc:	000000be 	0xbe
    24c0:	00480800 	0x480800
    24c4:	00ce0000 	0xce0000
    24c8:	ce090000 	pref	0x9,0(s0)
    24cc:	03000000 	0x3000000
    24d0:	07040200 	0x7040200
    24d4:	00000151 	0x151
    24d8:	4704080a 	bz.b	$w4,4504 <__isr_vec_space+0x44e4>
    24dc:	000000f6 	tne	zero,zero,0x3
    24e0:	0008110b 	0x8110b
    24e4:	3a490400 	xori	t1,s2,0x400
    24e8:	00000000 	nop
    24ec:	0008190b 	0x8190b
    24f0:	9f4e0400 	0x9f4e0400
    24f4:	04000000 	bltz	zero,24f8 <__isr_vec_space+0x24d8>
    24f8:	07120300 	bltzall	t8,30fc <__isr_vec_space+0x30dc>
    24fc:	4f040000 	lwxc1	$f0,a0(t8)
    2500:	000000d5 	0xd5
    2504:	00062403 	sra	a0,a2,0x10
    2508:	6b530400 	0x6b530400
    250c:	0c000000 	jal	0 <hardware_exit_hook>
    2510:	08590304 	j	1640c10 <__memory_size+0x1621410>
    2514:	16050000 	bne	s0,a1,2518 <__isr_vec_space+0x24f8>
    2518:	00000033 	tltu	zero,zero
    251c:	0006350d 	break	0x6,0xd4
    2520:	2d051800 	sltiu	a1,t0,6144
    2524:	0000016c 	0x16c
    2528:	0007c50b 	0x7c50b
    252c:	6c2f0500 	0x6c2f0500
    2530:	00000001 	movf	zero,zero,$fcc0
    2534:	006b5f0e 	0x6b5f0e
    2538:	003a3005 	lsa	a2,at,k0,0x1
    253c:	0b040000 	j	c100000 <__memory_size+0xc0e0800>
    2540:	000007fc 	0x7fc
    2544:	003a3005 	lsa	a2,at,k0,0x1
    2548:	0b080000 	j	c200000 <__memory_size+0xc1e0800>
    254c:	0000061e 	0x61e
    2550:	003a3005 	lsa	a2,at,k0,0x1
    2554:	0b0c0000 	j	c300000 <__memory_size+0xc2e0800>
    2558:	000008a0 	0x8a0
    255c:	003a3005 	lsa	a2,at,k0,0x1
    2560:	0e100000 	jal	8400000 <__memory_size+0x83e0800>
    2564:	0500785f 	bltz	t0,206e4 <__memory_size+0xee4>
    2568:	00017231 	tgeu	zero,at,0x1c8
    256c:	0f001400 	jal	c005000 <__memory_size+0xbfe5800>
    2570:	00011904 	0x11904
    2574:	010e0800 	0x10e0800
    2578:	01820000 	0x1820000
    257c:	ce090000 	pref	0x9,0(s0)
    2580:	00000000 	nop
    2584:	065c0d00 	0x65c0d00
    2588:	05240000 	0x5240000
    258c:	0001fb35 	0x1fb35
    2590:	058f0b00 	0x58f0b00
    2594:	37050000 	ori	a1,t8,0x0
    2598:	0000003a 	0x3a
    259c:	082f0b00 	j	bc2c00 <__memory_size+0xba3400>
    25a0:	38050000 	xori	a1,zero,0x0
    25a4:	0000003a 	0x3a
    25a8:	059e0b04 	0x59e0b04
    25ac:	39050000 	xori	a1,t0,0x0
    25b0:	0000003a 	0x3a
    25b4:	072f0b08 	0x72f0b08
    25b8:	3a050000 	xori	a1,s0,0x0
    25bc:	0000003a 	0x3a
    25c0:	06dc0b0c 	0x6dc0b0c
    25c4:	3b050000 	xori	a1,t8,0x0
    25c8:	0000003a 	0x3a
    25cc:	06cb0b10 	tltiu	s6,2832
    25d0:	3c050000 	lui	a1,0x0
    25d4:	0000003a 	0x3a
    25d8:	08a50b14 	j	2942c50 <__memory_size+0x2923450>
    25dc:	3d050000 	0x3d050000
    25e0:	0000003a 	0x3a
    25e4:	07470b18 	aclr	0x0,-1256(k0)
    25e8:	3e050000 	0x3e050000
    25ec:	0000003a 	0x3a
    25f0:	08e00b1c 	j	3802c70 <__memory_size+0x37e3470>
    25f4:	3f050000 	0x3f050000
    25f8:	0000003a 	0x3a
    25fc:	ad100020 	sw	s0,32(t0)
    2600:	08000005 	j	14 <ABIFlags_flags2>
    2604:	3b480501 	xori	t0,k0,0x501
    2608:	0b000002 	j	c000008 <__memory_size+0xbfe0808>
    260c:	00000611 	0x611
    2610:	023b4905 	0x23b4905
    2614:	0b000000 	j	c000000 <__memory_size+0xbfe0800>
    2618:	0000052a 	0x52a
    261c:	023b4a05 	0x23b4a05
    2620:	11800000 	beqz	t4,2624 <__isr_vec_space+0x2604>
    2624:	0000084b 	0x84b
    2628:	010e4c05 	0x10e4c05
    262c:	01000000 	0x1000000
    2630:	0005d211 	0x5d211
    2634:	0e4f0500 	jal	93c1400 <__memory_size+0x93a1c00>
    2638:	04000001 	bltz	zero,2640 <__isr_vec_space+0x2620>
    263c:	0c080001 	jal	200004 <__memory_size+0x1e0804>
    2640:	4b000001 	c2	0x1000001
    2644:	09000002 	j	4000008 <__memory_size+0x3fe0808>
    2648:	000000ce 	0xce
    264c:	2210001f 	addi	s0,s0,31
    2650:	90000005 	lbu	zero,5(zero)
    2654:	895b0501 	lwl	k1,1281(t2)
    2658:	0b000002 	j	c000008 <__memory_size+0xbfe0808>
    265c:	000007c5 	0x7c5
    2660:	02895c05 	0x2895c05
    2664:	0b000000 	j	c000000 <__memory_size+0xbfe0800>
    2668:	000007dd 	0x7dd
    266c:	003a5d05 	0x3a5d05
    2670:	0b040000 	j	c100000 <__memory_size+0xc0e0800>
    2674:	00000619 	0x619
    2678:	028f5f05 	0x28f5f05
    267c:	0b080000 	j	c200000 <__memory_size+0xc1e0800>
    2680:	000005ad 	0x5ad
    2684:	01fb6005 	lsa	t4,t7,k1,0x1
    2688:	00880000 	0x880000
    268c:	024b040f 	0x24b040f
    2690:	9f080000 	0x9f080000
    2694:	9f000002 	0x9f000002
    2698:	09000002 	j	4000008 <__memory_size+0x3fe0808>
    269c:	000000ce 	0xce
    26a0:	040f001f 	0x40f001f
    26a4:	000002a5 	0x2a5
    26a8:	07510d12 	bgezal	k0,5af4 <__isr_vec_space+0x5ad4>
    26ac:	05080000 	tgei	t0,0
    26b0:	0002cb73 	tltu	zero,v0,0x32d
    26b4:	0bfb0b00 	j	fec2c00 <__memory_size+0xfea3400>
    26b8:	74050000 	jalx	140000 <__memory_size+0x120800>
    26bc:	000002cb 	0x2cb
    26c0:	016b0b00 	0x16b0b00
    26c4:	75050000 	jalx	4140000 <__memory_size+0x4120800>
    26c8:	0000003a 	0x3a
    26cc:	040f0004 	0x40f0004
    26d0:	00000048 	0x48
    26d4:	0007af0d 	break	0x7,0x2bc
    26d8:	b3056800 	0xb3056800
    26dc:	000003fb 	0x3fb
    26e0:	00705f0e 	0x705f0e
    26e4:	02cbb405 	0x2cbb405
    26e8:	0e000000 	jal	8000000 <__memory_size+0x7fe0800>
    26ec:	0500725f 	bltz	t0,1f06c <__isr_vec_space+0x1f04c>
    26f0:	00003ab5 	0x3ab5
    26f4:	5f0e0400 	0x5f0e0400
    26f8:	b6050077 	0xb6050077
    26fc:	0000003a 	0x3a
    2700:	05cb0b08 	tltiu	t6,2824
    2704:	b7050000 	0xb7050000
    2708:	0000004f 	sync	0x1
    270c:	06780b0c 	0x6780b0c
    2710:	b8050000 	swr	a1,0(zero)
    2714:	0000004f 	sync	0x1
    2718:	625f0e0e 	0x625f0e0e
    271c:	b9050066 	swr	a1,102(t0)
    2720:	000002a6 	0x2a6
    2724:	05690b10 	tgeiu	t3,2832
    2728:	ba050000 	swr	a1,0(s0)
    272c:	0000003a 	0x3a
    2730:	05bb0b18 	0x5bb0b18
    2734:	c1050000 	ll	a1,0(t0)
    2738:	0000010c 	syscall	0x4
    273c:	064c0b1c 	teqi	s2,2844
    2740:	c3050000 	ll	a1,0(t8)
    2744:	0000055e 	0x55e
    2748:	06c40b20 	0x6c40b20
    274c:	c5050000 	lwc1	$f5,0(t0)
    2750:	0000058d 	break	0x0,0x16
    2754:	08210b24 	j	842c90 <__memory_size+0x823490>
    2758:	c8050000 	lwc2	$5,0(zero)
    275c:	000005b1 	tgeu	zero,zero,0x16
    2760:	08fa0b28 	j	3e82ca0 <__memory_size+0x3e634a0>
    2764:	c9050000 	lwc2	$5,0(t0)
    2768:	000005cb 	0x5cb
    276c:	755f0e2c 	jalx	57c38b0 <__memory_size+0x57a40b0>
    2770:	cc050062 	pref	0x5,98(zero)
    2774:	000002a6 	0x2a6
    2778:	755f0e30 	jalx	57c38c0 <__memory_size+0x57a40c0>
    277c:	cd050070 	pref	0x5,112(t0)
    2780:	000002cb 	0x2cb
    2784:	755f0e38 	jalx	57c38e0 <__memory_size+0x57a40e0>
    2788:	ce050072 	pref	0x5,114(s0)
    278c:	0000003a 	0x3a
    2790:	05980b3c 	0x5980b3c
    2794:	d1050000 	0xd1050000
    2798:	000005d1 	0x5d1
    279c:	08d20b40 	j	3482d00 <__memory_size+0x3463500>
    27a0:	d2050000 	0xd2050000
    27a4:	000005e1 	0x5e1
    27a8:	6c5f0e43 	0x6c5f0e43
    27ac:	d5050062 	ldc1	$f5,98(t0)
    27b0:	000002a6 	0x2a6
    27b4:	05e10b44 	bgez	t7,54c8 <__isr_vec_space+0x54a8>
    27b8:	d8050000 	ldc2	$5,0(zero)
    27bc:	0000003a 	0x3a
    27c0:	02440b4c 	syscall	0x9102d
    27c4:	d9050000 	ldc2	$5,0(t0)
    27c8:	00000076 	tne	zero,zero,0x1
    27cc:	091f0b50 	j	47c2d40 <__memory_size+0x47a3540>
    27d0:	dc050000 	ldc3	$5,0(zero)
    27d4:	00000419 	0x419
    27d8:	09d40b54 	j	7502d50 <__memory_size+0x74e3550>
    27dc:	e0050000 	sc	a1,0(zero)
    27e0:	00000101 	0x101
    27e4:	07b70b58 	0x7b70b58
    27e8:	e2050000 	sc	a1,0(s0)
    27ec:	000000f6 	tne	zero,zero,0x3
    27f0:	06bc0b5c 	0x6bc0b5c
    27f4:	e3050000 	sc	a1,0(t8)
    27f8:	0000003a 	0x3a
    27fc:	3a130064 	xori	s3,s0,0x64
    2800:	19000000 	blez	t0,2804 <__isr_vec_space+0x27e4>
    2804:	14000004 	bnez	zero,2818 <__isr_vec_space+0x27f8>
    2808:	00000419 	0x419
    280c:	00010c14 	0x10c14
    2810:	05511400 	bgezal	t2,7814 <__isr_vec_space+0x77f4>
    2814:	3a140000 	xori	s4,s0,0x0
    2818:	00000000 	nop
    281c:	041f040f 	synci	1039(zero)
    2820:	04150000 	0x4150000
    2824:	28000008 	slti	zero,zero,8
    2828:	02390504 	0x2390504
    282c:	00000551 	0x551
    2830:	000df416 	0xdf416
    2834:	023b0500 	0x23b0500
    2838:	0000003a 	0x3a
    283c:	05da1600 	0x5da1600
    2840:	40050000 	mfc0	a1,c0_index
    2844:	00063802 	srl	a3,a2,0x0
    2848:	68160400 	0x68160400
    284c:	05000006 	bltz	t0,2868 <__isr_vec_space+0x2848>
    2850:	06380240 	0x6380240
    2854:	16080000 	bne	s0,t0,2858 <__isr_vec_space+0x2838>
    2858:	0000062d 	0x62d
    285c:	38024005 	xori	v0,zero,0x4005
    2860:	0c000006 	jal	18 <ABIFlags_flags2+0x4>
    2864:	0007d816 	0x7d816
    2868:	02420500 	0x2420500
    286c:	0000003a 	0x3a
    2870:	053e1610 	0x53e1610
    2874:	43050000 	c0	0x1050000
    2878:	00081a02 	srl	v1,t0,0x8
    287c:	81161400 	lb	s6,5120(t0)
    2880:	05000008 	bltz	t0,28a4 <__isr_vec_space+0x2884>
    2884:	003a0245 	0x3a0245
    2888:	16300000 	bne	s1,s0,288c <__isr_vec_space+0x286c>
    288c:	000007e2 	0x7e2
    2890:	82024605 	lb	v0,17925(s0)
    2894:	34000005 	li	zero,0x5
    2898:	0006e516 	0x6e516
    289c:	02480500 	0x2480500
    28a0:	0000003a 	0x3a
    28a4:	07f21638 	bltzall	ra,8188 <__isr_vec_space+0x8168>
    28a8:	4a050000 	c2	0x50000
    28ac:	00083502 	srl	a2,t0,0x14
    28b0:	a7163c00 	sh	s6,15360(t8)
    28b4:	05000006 	bltz	t0,28d0 <__isr_vec_space+0x28b0>
    28b8:	016c024d 	break	0x16c,0x9
    28bc:	16400000 	bnez	s2,28c0 <__isr_vec_space+0x28a0>
    28c0:	00000652 	0x652
    28c4:	3a024e05 	xori	v0,s0,0x4e05
    28c8:	44000000 	mfc1	zero,$f0
    28cc:	00091416 	0x91416
    28d0:	024f0500 	0x24f0500
    28d4:	0000016c 	0x16c
    28d8:	07081648 	tgei	t8,5704
    28dc:	50050000 	beql	zero,a1,28e0 <__isr_vec_space+0x28c0>
    28e0:	00083b02 	srl	a3,t0,0xc
    28e4:	70164c00 	0x70164c00
    28e8:	05000006 	bltz	t0,2904 <__isr_vec_space+0x28e4>
    28ec:	003a0253 	0x3a0253
    28f0:	16500000 	bne	s2,s0,28f4 <__isr_vec_space+0x28d4>
    28f4:	000005ea 	0x5ea
    28f8:	51025405 	beql	t0,v0,17910 <__isr_vec_space+0x178f0>
    28fc:	54000005 	bnezl	zero,2914 <__isr_vec_space+0x28f4>
    2900:	00073916 	0x73916
    2904:	02770500 	0x2770500
    2908:	000007f8 	0x7f8
    290c:	05221758 	bltzl	t1,8670 <__isr_vec_space+0x8650>
    2910:	7b050000 	xori.b	$w0,$w0,0x5
    2914:	00028902 	srl	s1,v0,0x4
    2918:	17014800 	bne	t8,at,1491c <__isr_vec_space+0x148fc>
    291c:	00000685 	0x685
    2920:	4b027c05 	c2	0x1027c05
    2924:	4c000002 	mfc3	zero,$0,2
    2928:	08c81701 	j	3205c04 <__memory_size+0x31e6404>
    292c:	80050000 	lb	a1,0(zero)
    2930:	00084c02 	srl	t1,t0,0x10
    2934:	1702dc00 	bne	t8,v0,ffff9938 <__entry+0x403f9938>
    2938:	000005c3 	sra	zero,zero,0x17
    293c:	fd028505 	sdc3	$2,-31483(t0)
    2940:	e0000005 	sc	zero,5(zero)
    2944:	05a81702 	tgei	t5,5890
    2948:	86050000 	lh	a1,0(s0)
    294c:	00085802 	srl	t3,t0,0x0
    2950:	0002ec00 	sll	sp,v0,0x10
    2954:	0557040f 	0x557040f
    2958:	01020000 	0x1020000
    295c:	00009408 	0x9408
    2960:	fb040f00 	sdc2	$4,3840(t8)
    2964:	13000003 	beqz	t8,2974 <__isr_vec_space+0x2954>
    2968:	0000003a 	0x3a
    296c:	00000582 	srl	zero,zero,0x16
    2970:	00041914 	0x41914
    2974:	010c1400 	0x10c1400
    2978:	82140000 	lb	s4,0(s0)
    297c:	14000005 	bnez	zero,2994 <__isr_vec_space+0x2974>
    2980:	0000003a 	0x3a
    2984:	88040f00 	lwl	a0,3840(zero)
    2988:	18000005 	blez	zero,29a0 <__isr_vec_space+0x2980>
    298c:	00000557 	0x557
    2990:	0564040f 	0x564040f
    2994:	81130000 	lb	s3,0(t0)
    2998:	b1000000 	0xb1000000
    299c:	14000005 	bnez	zero,29b4 <__isr_vec_space+0x2994>
    29a0:	00000419 	0x419
    29a4:	00010c14 	0x10c14
    29a8:	00811400 	0x811400
    29ac:	3a140000 	xori	s4,s0,0x0
    29b0:	00000000 	nop
    29b4:	0593040f 	bgezall	t4,39f4 <__isr_vec_space+0x39d4>
    29b8:	3a130000 	xori	s3,s0,0x0
    29bc:	cb000000 	lwc2	$0,0(t8)
    29c0:	14000005 	bnez	zero,29d8 <__isr_vec_space+0x29b8>
    29c4:	00000419 	0x419
    29c8:	00010c14 	0x10c14
    29cc:	040f0000 	0x40f0000
    29d0:	000005b7 	0x5b7
    29d4:	00004808 	0x4808
    29d8:	0005e100 	sll	gp,a1,0x4
    29dc:	00ce0900 	0xce0900
    29e0:	00020000 	sll	zero,v0,0x0
    29e4:	00004808 	0x4808
    29e8:	0005f100 	sll	s8,a1,0x4
    29ec:	00ce0900 	0xce0900
    29f0:	00000000 	nop
    29f4:	00075e05 	0x75e05
    29f8:	011d0500 	0x11d0500
    29fc:	000002d1 	0x2d1
    2a00:	0008af19 	0x8af19
    2a04:	21050c00 	addi	a1,t0,3072
    2a08:	00063201 	0x63201
    2a0c:	07c51600 	0x7c51600
    2a10:	23050000 	addi	a1,t8,0
    2a14:	00063201 	0x63201
    2a18:	7e160000 	ext	s6,s0,0x0,0x1
    2a1c:	05000006 	bltz	t0,2a38 <__isr_vec_space+0x2a18>
    2a20:	003a0124 	0x3a0124
    2a24:	16040000 	bne	s0,a0,2a28 <__isr_vec_space+0x2a08>
    2a28:	00000758 	0x758
    2a2c:	38012505 	xori	at,zero,0x2505
    2a30:	08000006 	j	18 <ABIFlags_flags2+0x4>
    2a34:	fd040f00 	sdc3	$4,3840(t0)
    2a38:	0f000005 	jal	c000014 <__memory_size+0xbfe0814>
    2a3c:	0005f104 	0x5f104
    2a40:	05361900 	0x5361900
    2a44:	050e0000 	tnei	t0,0
    2a48:	0673013d 	bgezall	s3,2f40 <__isr_vec_space+0x2f20>
    2a4c:	0b160000 	j	c580000 <__memory_size+0xc560800>
    2a50:	05000008 	bltz	t0,2a74 <__isr_vec_space+0x2a54>
    2a54:	0673013e 	bgezall	s3,2f50 <__isr_vec_space+0x2f30>
    2a58:	16000000 	bnez	s0,2a5c <__isr_vec_space+0x2a3c>
    2a5c:	00000838 	0x838
    2a60:	73013f05 	0x73013f05
    2a64:	06000006 	bltz	s0,2a80 <__isr_vec_space+0x2a60>
    2a68:	00085416 	0x85416
    2a6c:	01400500 	0x1400500
    2a70:	00000056 	0x56
    2a74:	5608000c 	bnel	s0,t0,2aa8 <__isr_vec_space+0x2a88>
    2a78:	83000000 	lb	zero,0(t8)
    2a7c:	09000006 	j	4000018 <__memory_size+0x3fe0818>
    2a80:	000000ce 	0xce
    2a84:	d01a0002 	0xd01a0002
    2a88:	84025805 	lh	v0,22533(zero)
    2a8c:	16000007 	bnez	s0,2aac <__isr_vec_space+0x2a8c>
    2a90:	00000893 	0x893
    2a94:	98025a05 	lwr	v0,23045(zero)
    2a98:	00000000 	nop
    2a9c:	00083e16 	0x83e16
    2aa0:	025b0500 	0x25b0500
    2aa4:	00000551 	0x551
    2aa8:	069a1604 	0x69a1604
    2aac:	5c050000 	0x5c050000
    2ab0:	00078402 	srl	s0,a3,0x10
    2ab4:	eb160800 	swc2	$22,2048(t8)
    2ab8:	05000008 	bltz	t0,2adc <__isr_vec_space+0x2abc>
    2abc:	0182025d 	0x182025d
    2ac0:	16240000 	bne	s1,a0,2ac4 <__isr_vec_space+0x2aa4>
    2ac4:	0000063d 	0x63d
    2ac8:	3a025e05 	xori	v0,s0,0x5e05
    2acc:	48000000 	mfc2	zero,$0
    2ad0:	0007c016 	0x7c016
    2ad4:	025f0500 	0x25f0500
    2ad8:	00000064 	0x64
    2adc:	09011650 	j	4045940 <__memory_size+0x4026140>
    2ae0:	60050000 	0x60050000
    2ae4:	00063e02 	srl	a3,a2,0x18
    2ae8:	cb165800 	lwc2	$22,22528(t8)
    2aec:	05000007 	bltz	t0,2b0c <__isr_vec_space+0x2aec>
    2af0:	00f60261 	0xf60261
    2af4:	16680000 	bne	s3,t0,2af8 <__isr_vec_space+0x2ad8>
    2af8:	00000906 	0x906
    2afc:	f6026205 	sdc1	$f2,25093(s0)
    2b00:	70000000 	madd	zero,zero
    2b04:	00058116 	0x58116
    2b08:	02630500 	0x2630500
    2b0c:	000000f6 	tne	zero,zero,0x3
    2b10:	08be1678 	j	2f859e0 <__memory_size+0x2f661e0>
    2b14:	64050000 	0x64050000
    2b18:	00079402 	srl	s2,a3,0x10
    2b1c:	8e168000 	lw	s6,-32768(s0)
    2b20:	05000006 	bltz	t0,2b3c <__isr_vec_space+0x2b1c>
    2b24:	07a40265 	0x7a40265
    2b28:	16880000 	bne	s4,t0,2b2c <__isr_vec_space+0x2b0c>
    2b2c:	00000861 	0x861
    2b30:	3a026605 	xori	v0,s0,0x6605
    2b34:	a0000000 	sb	zero,0(zero)
    2b38:	00060316 	0x60316
    2b3c:	02670500 	0x2670500
    2b40:	000000f6 	tne	zero,zero,0x3
    2b44:	057216a4 	bltzall	t3,85d8 <__isr_vec_space+0x85b8>
    2b48:	68050000 	0x68050000
    2b4c:	0000f602 	srl	s8,zero,0x18
    2b50:	f216ac00 	0xf216ac00
    2b54:	05000005 	bltz	t0,2b6c <__isr_vec_space+0x2b4c>
    2b58:	00f60269 	0xf60269
    2b5c:	16b40000 	bne	s5,s4,2b60 <__isr_vec_space+0x2b40>
    2b60:	00000549 	0x549
    2b64:	f6026a05 	sdc1	$f2,27141(s0)
    2b68:	bc000000 	cache	0x0,0(zero)
    2b6c:	00055816 	0x55816
    2b70:	026b0500 	0x26b0500
    2b74:	000000f6 	tne	zero,zero,0x3
    2b78:	073e16c4 	0x73e16c4
    2b7c:	6c050000 	0x6c050000
    2b80:	00003a02 	srl	a3,zero,0x8
    2b84:	0800cc00 	j	33000 <__memory_size+0x13800>
    2b88:	00000557 	0x557
    2b8c:	00000794 	0x794
    2b90:	0000ce09 	0xce09
    2b94:	08001900 	j	6400 <__isr_vec_space+0x63e0>
    2b98:	00000557 	0x557
    2b9c:	000007a4 	0x7a4
    2ba0:	0000ce09 	0xce09
    2ba4:	08000700 	j	1c00 <__isr_vec_space+0x1be0>
    2ba8:	00000557 	0x557
    2bac:	000007b4 	teq	zero,zero,0x1e
    2bb0:	0000ce09 	0xce09
    2bb4:	1a001700 	blez	s0,87b8 <__isr_vec_space+0x8798>
    2bb8:	027105f0 	tge	s3,s1,0x17
    2bbc:	000007d8 	0x7d8
    2bc0:	0006d516 	0x6d516
    2bc4:	02740500 	0x2740500
    2bc8:	000007d8 	0x7d8
    2bcc:	08b51600 	j	2d45800 <__memory_size+0x2d26000>
    2bd0:	75050000 	jalx	4140000 <__memory_size+0x4120800>
    2bd4:	0007e802 	srl	sp,a3,0x0
    2bd8:	08007800 	j	1e000 <__isr_vec_space+0x1dfe0>
    2bdc:	000002cb 	0x2cb
    2be0:	000007e8 	0x7e8
    2be4:	0000ce09 	0xce09
    2be8:	08001d00 	j	7400 <__isr_vec_space+0x73e0>
    2bec:	00000098 	0x98
    2bf0:	000007f8 	0x7f8
    2bf4:	0000ce09 	0xce09
    2bf8:	1b001d00 	blez	t8,9ffc <__isr_vec_space+0x9fdc>
    2bfc:	025605f0 	tge	s2,s6,0x17
    2c00:	0000081a 	0x81a
    2c04:	0008041c 	0x8041c
    2c08:	026d0500 	0x26d0500
    2c0c:	00000683 	sra	zero,zero,0x1a
    2c10:	0008d81c 	0x8d81c
    2c14:	02760500 	0x2760500
    2c18:	000007b4 	teq	zero,zero,0x1e
    2c1c:	05570800 	0x5570800
    2c20:	082a0000 	j	a80000 <__memory_size+0xa60800>
    2c24:	ce090000 	pref	0x9,0(s0)
    2c28:	18000000 	blez	zero,2c2c <__isr_vec_space+0x2c0c>
    2c2c:	08351d00 	j	d47400 <__memory_size+0xd27c00>
    2c30:	19140000 	0x19140000
    2c34:	00000004 	sllv	zero,zero,zero
    2c38:	082a040f 	j	a8103c <__memory_size+0xa6183c>
    2c3c:	040f0000 	0x40f0000
    2c40:	0000016c 	0x16c
    2c44:	00084c1d 	0x84c1d
    2c48:	003a1400 	0x3a1400
    2c4c:	0f000000 	jal	c000000 <__memory_size+0xbfe0800>
    2c50:	00085204 	0x85204
    2c54:	41040f00 	0x41040f00
    2c58:	08000008 	j	20 <__isr_vec_space>
    2c5c:	000005f1 	tgeu	zero,zero,0x17
    2c60:	00000868 	0x868
    2c64:	0000ce09 	0xce09
    2c68:	1e000200 	bgtz	s0,346c <__isr_vec_space+0x344c>
    2c6c:	000003f2 	tlt	zero,zero,0xf
    2c70:	87050604 	lh	a1,1540(t8)
    2c74:	1f000008 	bgtz	t8,2c98 <__isr_vec_space+0x2c78>
    2c78:	0000051e 	0x51e
    2c7c:	04611f00 	bgez	v1,a880 <__isr_vec_space+0xa860>
    2c80:	1f010000 	0x1f010000
    2c84:	00000515 	0x515
    2c88:	4d200002 	0x4d200002
    2c8c:	01000004 	sllv	zero,zero,t0
    2c90:	00003a42 	srl	a3,zero,0x9
    2c94:	0013ac00 	sll	s5,s3,0x10
    2c98:	00011080 	sll	v0,at,0x2
    2c9c:	079c0100 	0x79c0100
    2ca0:	21000009 	addi	zero,t0,9
    2ca4:	00000155 	0x155
    2ca8:	003a4201 	0x3a4201
    2cac:	0dad0000 	jal	6b40000 <__memory_size+0x6b20800>
    2cb0:	66220000 	0x66220000
    2cb4:	4201006e 	c0	0x1006e
    2cb8:	0000029f 	0x29f
    2cbc:	00000dd9 	0xdd9
    2cc0:	67726122 	0x67726122
    2cc4:	0c420100 	jal	1080400 <__memory_size+0x1060c00>
    2cc8:	1b000001 	blez	t8,2cd0 <__isr_vec_space+0x2cb0>
    2ccc:	2200000e 	addi	zero,s0,14
    2cd0:	42010064 	c0	0x10064
    2cd4:	0000010c 	syscall	0x4
    2cd8:	00000e5d 	0xe5d
    2cdc:	0005b623 	0x5b623
    2ce0:	07490100 	tgeiu	k0,256
    2ce4:	9f000009 	0x9f000009
    2ce8:	2400000e 	li	zero,14
    2cec:	4a010070 	c2	0x10070
    2cf0:	00000289 	0x289
    2cf4:	00000eb5 	0xeb5
    2cf8:	00142025 	or	a0,zero,s4
    2cfc:	00091e80 	sll	v1,t1,0x1a
    2d00:	54012600 	bnel	zero,at,c504 <__isr_vec_space+0xc4e4>
    2d04:	01900a03 	0x1900a03
    2d08:	040f0000 	0x40f0000
    2d0c:	000001fb 	0x1fb
    2d10:	00086e27 	0x86e27
    2d14:	02fb0500 	0x2fb0500
    2d18:	00000919 	0x919
    2d1c:	00041918 	0x41918
    2d20:	037c2800 	0x37c2800
    2d24:	60070000 	0x60070000
    2d28:	0000010c 	syscall	0x4
    2d2c:	00002814 	0x2814
    2d30:	51000000 	beqzl	t0,2d34 <__isr_vec_space+0x2d14>
    2d34:	04000009 	bltz	zero,2d5c <__isr_vec_space+0x2d3c>
    2d38:	000dc200 	sll	t8,t5,0x8
    2d3c:	6d010400 	0x6d010400
    2d40:	01000004 	sllv	zero,zero,t0
    2d44:	000009da 	0x9da
    2d48:	800014bc 	lb	zero,5308(zero)
    2d4c:	00000180 	sll	zero,zero,0x6
    2d50:	00000bed 	0xbed
    2d54:	71070402 	0x71070402
    2d58:	03000000 	0x3000000
    2d5c:	6e690504 	0x6e690504
    2d60:	04020074 	bltzl	zero,2f34 <__isr_vec_space+0x2f14>
    2d64:	00000505 	0x505
    2d68:	06010200 	bgez	s0,356c <__isr_vec_space+0x354c>
    2d6c:	0000008d 	break	0x0,0x2
    2d70:	8b080102 	lwl	t0,258(t8)
    2d74:	02000000 	0x2000000
    2d78:	00d90502 	0xd90502
    2d7c:	02020000 	0x2020000
    2d80:	0000ad07 	0xad07
    2d84:	05080200 	tgei	t0,512
    2d88:	00000000 	nop
    2d8c:	6c070802 	0x6c070802
    2d90:	04000000 	bltz	zero,2d94 <__isr_vec_space+0x2d74>
    2d94:	0000071d 	0x71d
    2d98:	00280702 	ror	zero,t0,0x1c
    2d9c:	f0040000 	0xf0040000
    2da0:	03000006 	srlv	zero,zero,t8
    2da4:	00002f10 	0x2f10
    2da8:	08270400 	j	9c1000 <__memory_size+0x9a1800>
    2dac:	27030000 	addiu	v1,t8,0
    2db0:	0000002f 	0x2f
    2db4:	0006b505 	0x6b505
    2db8:	01610400 	0x1610400
    2dbc:	0000008d 	break	0x0,0x2
    2dc0:	76070402 	jalx	81c1008 <__memory_size+0x81a1808>
    2dc4:	06000000 	bltz	s0,2dc8 <__isr_vec_space+0x2da8>
    2dc8:	b34a0304 	0xb34a0304
    2dcc:	07000000 	bltz	t8,2dd0 <__isr_vec_space+0x2db0>
    2dd0:	000006af 	0x6af
    2dd4:	00814c03 	0x814c03
    2dd8:	61070000 	0x61070000
    2ddc:	03000006 	srlv	zero,zero,t8
    2de0:	0000b34d 	break	0x0,0x2cd
    2de4:	3d080000 	0x3d080000
    2de8:	c3000000 	ll	zero,0(t8)
    2dec:	09000000 	j	4000000 <__memory_size+0x3fe0800>
    2df0:	000000c3 	sra	zero,zero,0x3
    2df4:	04020003 	bltzl	zero,2e04 <__isr_vec_space+0x2de4>
    2df8:	00015107 	0x15107
    2dfc:	03080a00 	0x3080a00
    2e00:	0000eb47 	0xeb47
    2e04:	08110b00 	j	442c00 <__memory_size+0x423400>
    2e08:	49030000 	bc2tl	2e0c <__isr_vec_space+0x2dec>
    2e0c:	00000028 	0x28
    2e10:	08190b00 	j	642c00 <__memory_size+0x623400>
    2e14:	4e030000 	lwxc1	$f0,v1(s0)
    2e18:	00000094 	0x94
    2e1c:	12040004 	beq	s0,a0,2e30 <__isr_vec_space+0x2e10>
    2e20:	03000007 	srav	zero,zero,t8
    2e24:	0000ca4f 	0xca4f
    2e28:	06240400 	0x6240400
    2e2c:	53030000 	beql	t8,v1,2e30 <__isr_vec_space+0x2e10>
    2e30:	00000060 	0x60
    2e34:	5904040c 	0x5904040c
    2e38:	05000008 	bltz	t0,2e5c <__isr_vec_space+0x2e3c>
    2e3c:	00002116 	0x2116
    2e40:	06350d00 	0x6350d00
    2e44:	05180000 	0x5180000
    2e48:	0001612d 	0x1612d
    2e4c:	07c50b00 	0x7c50b00
    2e50:	2f050000 	sltiu	a1,t8,0
    2e54:	00000161 	0x161
    2e58:	6b5f0e00 	0x6b5f0e00
    2e5c:	28300500 	slti	s0,at,1280
    2e60:	04000000 	bltz	zero,2e64 <__isr_vec_space+0x2e44>
    2e64:	0007fc0b 	0x7fc0b
    2e68:	28300500 	slti	s0,at,1280
    2e6c:	08000000 	j	0 <hardware_exit_hook>
    2e70:	00061e0b 	0x61e0b
    2e74:	28300500 	slti	s0,at,1280
    2e78:	0c000000 	jal	0 <hardware_exit_hook>
    2e7c:	0008a00b 	movn	s4,zero,t0
    2e80:	28300500 	slti	s0,at,1280
    2e84:	10000000 	b	2e88 <__isr_vec_space+0x2e68>
    2e88:	00785f0e 	0x785f0e
    2e8c:	01673105 	0x1673105
    2e90:	00140000 	sll	zero,s4,0x0
    2e94:	010e040f 	0x10e040f
    2e98:	03080000 	0x3080000
    2e9c:	77000001 	jalx	c000004 <__memory_size+0xbfe0804>
    2ea0:	09000001 	j	4000004 <__memory_size+0x3fe0804>
    2ea4:	000000c3 	sra	zero,zero,0x3
    2ea8:	5c0d0000 	0x5c0d0000
    2eac:	24000006 	li	zero,6
    2eb0:	01f03505 	0x1f03505
    2eb4:	8f0b0000 	lw	t3,0(t8)
    2eb8:	05000005 	bltz	t0,2ed0 <__isr_vec_space+0x2eb0>
    2ebc:	00002837 	0x2837
    2ec0:	2f0b0000 	sltiu	t3,t8,0
    2ec4:	05000008 	bltz	t0,2ee8 <__isr_vec_space+0x2ec8>
    2ec8:	00002838 	0x2838
    2ecc:	9e0b0400 	0x9e0b0400
    2ed0:	05000005 	bltz	t0,2ee8 <__isr_vec_space+0x2ec8>
    2ed4:	00002839 	0x2839
    2ed8:	2f0b0800 	sltiu	t3,t8,2048
    2edc:	05000007 	bltz	t0,2efc <__isr_vec_space+0x2edc>
    2ee0:	0000283a 	0x283a
    2ee4:	dc0b0c00 	ldc3	$11,3072(zero)
    2ee8:	05000006 	bltz	t0,2f04 <__isr_vec_space+0x2ee4>
    2eec:	0000283b 	0x283b
    2ef0:	cb0b1000 	lwc2	$11,4096(t8)
    2ef4:	05000006 	bltz	t0,2f10 <__isr_vec_space+0x2ef0>
    2ef8:	0000283c 	0x283c
    2efc:	a50b1400 	sh	t3,5120(t0)
    2f00:	05000008 	bltz	t0,2f24 <__isr_vec_space+0x2f04>
    2f04:	0000283d 	0x283d
    2f08:	470b1800 	bz.b	$w11,8f0c <__isr_vec_space+0x8eec>
    2f0c:	05000007 	bltz	t0,2f2c <__isr_vec_space+0x2f0c>
    2f10:	0000283e 	0x283e
    2f14:	e00b1c00 	sc	t3,7168(zero)
    2f18:	05000008 	bltz	t0,2f3c <__isr_vec_space+0x2f1c>
    2f1c:	0000283f 	0x283f
    2f20:	10002000 	b	af24 <__isr_vec_space+0xaf04>
    2f24:	000005ad 	0x5ad
    2f28:	48050108 	0x48050108
    2f2c:	00000230 	tge	zero,zero,0x8
    2f30:	0006110b 	0x6110b
    2f34:	30490500 	andi	t1,v0,0x500
    2f38:	00000002 	srl	zero,zero,0x0
    2f3c:	00052a0b 	0x52a0b
    2f40:	304a0500 	andi	t2,v0,0x500
    2f44:	80000002 	lb	zero,2(zero)
    2f48:	00084b11 	0x84b11
    2f4c:	034c0500 	0x34c0500
    2f50:	00000001 	movf	zero,zero,$fcc0
    2f54:	05d21101 	bltzall	t6,735c <__isr_vec_space+0x733c>
    2f58:	4f050000 	lwxc1	$f0,a1(t8)
    2f5c:	00000103 	sra	zero,zero,0x4
    2f60:	08000104 	j	410 <__isr_vec_space+0x3f0>
    2f64:	00000101 	0x101
    2f68:	00000240 	sll	zero,zero,0x9
    2f6c:	0000c309 	0xc309
    2f70:	10001f00 	b	ab74 <__isr_vec_space+0xab54>
    2f74:	00000522 	0x522
    2f78:	5b050190 	0x5b050190
    2f7c:	0000027e 	0x27e
    2f80:	0007c50b 	0x7c50b
    2f84:	7e5c0500 	ext	gp,s2,0x14,0x1
    2f88:	00000002 	srl	zero,zero,0x0
    2f8c:	0007dd0b 	0x7dd0b
    2f90:	285d0500 	slti	sp,v0,1280
    2f94:	04000000 	bltz	zero,2f98 <__isr_vec_space+0x2f78>
    2f98:	0006190b 	0x6190b
    2f9c:	845f0500 	lh	ra,1280(v0)
    2fa0:	08000002 	j	8 <ABIFlags_isa_ext>
    2fa4:	0005ad0b 	0x5ad0b
    2fa8:	f0600500 	0xf0600500
    2fac:	88000001 	lwl	zero,1(zero)
    2fb0:	40040f00 	0x40040f00
    2fb4:	08000002 	j	8 <ABIFlags_isa_ext>
    2fb8:	00000294 	0x294
    2fbc:	00000294 	0x294
    2fc0:	0000c309 	0xc309
    2fc4:	0f001f00 	jal	c007c00 <__memory_size+0xbfe8400>
    2fc8:	00029a04 	0x29a04
    2fcc:	510d1200 	beql	t0,t5,77d0 <__isr_vec_space+0x77b0>
    2fd0:	08000007 	j	1c <ABIFlags_flags2+0x8>
    2fd4:	02c07305 	0x2c07305
    2fd8:	fb0b0000 	sdc2	$11,0(t8)
    2fdc:	0500000b 	bltz	t0,300c <__isr_vec_space+0x2fec>
    2fe0:	0002c074 	teq	zero,v0,0x301
    2fe4:	6b0b0000 	0x6b0b0000
    2fe8:	05000001 	bltz	t0,2ff0 <__isr_vec_space+0x2fd0>
    2fec:	00002875 	0x2875
    2ff0:	0f000400 	jal	c001000 <__memory_size+0xbfe1800>
    2ff4:	00003d04 	0x3d04
    2ff8:	07af0d00 	0x7af0d00
    2ffc:	05680000 	tgei	t3,0
    3000:	0003f0b3 	tltu	zero,v1,0x3c2
    3004:	705f0e00 	0x705f0e00
    3008:	c0b40500 	ll	s4,1280(a1)
    300c:	00000002 	srl	zero,zero,0x0
    3010:	00725f0e 	0x725f0e
    3014:	0028b505 	0x28b505
    3018:	0e040000 	jal	8100000 <__memory_size+0x80e0800>
    301c:	0500775f 	bltz	t0,20d9c <__memory_size+0x159c>
    3020:	000028b6 	tne	zero,zero,0xa2
    3024:	cb0b0800 	lwc2	$11,2048(t8)
    3028:	05000005 	bltz	t0,3040 <__isr_vec_space+0x3020>
    302c:	000044b7 	0x44b7
    3030:	780b0c00 	andi.b	$w16,$w1,0xb
    3034:	05000006 	bltz	t0,3050 <__isr_vec_space+0x3030>
    3038:	000044b8 	0x44b8
    303c:	5f0e0e00 	0x5f0e0e00
    3040:	05006662 	bltz	t0,1c9cc <__isr_vec_space+0x1c9ac>
    3044:	00029bb9 	0x29bb9
    3048:	690b1000 	0x690b1000
    304c:	05000005 	bltz	t0,3064 <__isr_vec_space+0x3044>
    3050:	000028ba 	0x28ba
    3054:	bb0b1800 	swr	t3,6144(t8)
    3058:	05000005 	bltz	t0,3070 <__isr_vec_space+0x3050>
    305c:	000101c1 	0x101c1
    3060:	4c0b1c00 	0x4c0b1c00
    3064:	05000006 	bltz	t0,3080 <__isr_vec_space+0x3060>
    3068:	000553c3 	sra	t2,a1,0xf
    306c:	c40b2000 	lwc1	$f11,8192(zero)
    3070:	05000006 	bltz	t0,308c <__isr_vec_space+0x306c>
    3074:	000582c5 	0x582c5
    3078:	210b2400 	addi	t3,t0,9216
    307c:	05000008 	bltz	t0,30a0 <__isr_vec_space+0x3080>
    3080:	0005a6c8 	0x5a6c8
    3084:	fa0b2800 	sdc2	$11,10240(s0)
    3088:	05000008 	bltz	t0,30ac <__isr_vec_space+0x308c>
    308c:	0005c0c9 	0x5c0c9
    3090:	5f0e2c00 	0x5f0e2c00
    3094:	05006275 	bltz	t0,1ba6c <__isr_vec_space+0x1ba4c>
    3098:	00029bcc 	syscall	0xa6f
    309c:	5f0e3000 	0x5f0e3000
    30a0:	05007075 	bltz	t0,1f278 <__isr_vec_space+0x1f258>
    30a4:	0002c0cd 	break	0x2,0x303
    30a8:	5f0e3800 	0x5f0e3800
    30ac:	05007275 	bltz	t0,1fa84 <__memory_size+0x284>
    30b0:	000028ce 	0x28ce
    30b4:	980b3c00 	lwr	t3,15360(zero)
    30b8:	05000005 	bltz	t0,30d0 <__isr_vec_space+0x30b0>
    30bc:	0005c6d1 	0x5c6d1
    30c0:	d20b4000 	0xd20b4000
    30c4:	05000008 	bltz	t0,30e8 <__isr_vec_space+0x30c8>
    30c8:	0005d6d2 	0x5d6d2
    30cc:	5f0e4300 	0x5f0e4300
    30d0:	0500626c 	bltz	t0,1ba84 <__isr_vec_space+0x1ba64>
    30d4:	00029bd5 	0x29bd5
    30d8:	e10b4400 	sc	t3,17408(t0)
    30dc:	05000005 	bltz	t0,30f4 <__isr_vec_space+0x30d4>
    30e0:	000028d8 	0x28d8
    30e4:	440b4c00 	0x440b4c00
    30e8:	05000002 	bltz	t0,30f4 <__isr_vec_space+0x30d4>
    30ec:	00006bd9 	0x6bd9
    30f0:	1f0b5000 	0x1f0b5000
    30f4:	05000009 	bltz	t0,311c <__isr_vec_space+0x30fc>
    30f8:	00040edc 	0x40edc
    30fc:	d40b5400 	ldc1	$f11,21504(zero)
    3100:	05000009 	bltz	t0,3128 <__isr_vec_space+0x3108>
    3104:	0000f6e0 	0xf6e0
    3108:	b70b5800 	0xb70b5800
    310c:	05000007 	bltz	t0,312c <__isr_vec_space+0x310c>
    3110:	0000ebe2 	0xebe2
    3114:	bc0b5c00 	cache	0xb,23552(zero)
    3118:	05000006 	bltz	t0,3134 <__isr_vec_space+0x3114>
    311c:	000028e3 	0x28e3
    3120:	13006400 	beqz	t8,1c124 <__isr_vec_space+0x1c104>
    3124:	00000028 	0x28
    3128:	0000040e 	0x40e
    312c:	00040e14 	0x40e14
    3130:	01011400 	0x1011400
    3134:	46140000 	add.s	$f0,$f0,$f20
    3138:	14000005 	bnez	zero,3150 <__isr_vec_space+0x3130>
    313c:	00000028 	0x28
    3140:	14040f00 	bne	zero,a0,6d44 <__isr_vec_space+0x6d24>
    3144:	15000004 	bnez	t0,3158 <__isr_vec_space+0x3138>
    3148:	00000804 	sllv	at,zero,zero
    314c:	39050428 	xori	a1,t0,0x428
    3150:	00054602 	srl	t0,a1,0x18
    3154:	0df41600 	jal	7d05800 <__memory_size+0x7ce6000>
    3158:	3b050000 	xori	a1,t8,0x0
    315c:	00002802 	srl	a1,zero,0x0
    3160:	da160000 	ldc2	$22,0(s0)
    3164:	05000005 	bltz	t0,317c <__isr_vec_space+0x315c>
    3168:	062d0240 	0x62d0240
    316c:	16040000 	bne	s0,a0,3170 <__isr_vec_space+0x3150>
    3170:	00000668 	0x668
    3174:	2d024005 	sltiu	v0,t0,16389
    3178:	08000006 	j	18 <ABIFlags_flags2+0x4>
    317c:	00062d16 	0x62d16
    3180:	02400500 	0x2400500
    3184:	0000062d 	0x62d
    3188:	07d8160c 	0x7d8160c
    318c:	42050000 	c0	0x50000
    3190:	00002802 	srl	a1,zero,0x0
    3194:	3e161000 	0x3e161000
    3198:	05000005 	bltz	t0,31b0 <__isr_vec_space+0x3190>
    319c:	080f0243 	j	3c090c <__memory_size+0x3a110c>
    31a0:	16140000 	bne	s0,s4,31a4 <__isr_vec_space+0x3184>
    31a4:	00000881 	0x881
    31a8:	28024505 	slti	v0,zero,17669
    31ac:	30000000 	andi	zero,zero,0x0
    31b0:	0007e216 	0x7e216
    31b4:	02460500 	0x2460500
    31b8:	00000577 	0x577
    31bc:	06e51634 	0x6e51634
    31c0:	48050000 	mfc2	a1,$0
    31c4:	00002802 	srl	a1,zero,0x0
    31c8:	f2163800 	0xf2163800
    31cc:	05000007 	bltz	t0,31ec <__isr_vec_space+0x31cc>
    31d0:	082a024a 	j	a80928 <__memory_size+0xa61128>
    31d4:	163c0000 	bne	s1,gp,31d8 <__isr_vec_space+0x31b8>
    31d8:	000006a7 	0x6a7
    31dc:	61024d05 	0x61024d05
    31e0:	40000001 	mfc0	zero,c0_mvpcontrol
    31e4:	00065216 	0x65216
    31e8:	024e0500 	0x24e0500
    31ec:	00000028 	0x28
    31f0:	09141644 	j	4505910 <__memory_size+0x44e6110>
    31f4:	4f050000 	lwxc1	$f0,a1(t8)
    31f8:	00016102 	srl	t4,at,0x4
    31fc:	08164800 	j	592000 <__memory_size+0x572800>
    3200:	05000007 	bltz	t0,3220 <__isr_vec_space+0x3200>
    3204:	08300250 	j	c00940 <__memory_size+0xbe1140>
    3208:	164c0000 	bne	s2,t4,320c <__isr_vec_space+0x31ec>
    320c:	00000670 	tge	zero,zero,0x19
    3210:	28025305 	slti	v0,zero,21253
    3214:	50000000 	beqzl	zero,3218 <__isr_vec_space+0x31f8>
    3218:	0005ea16 	0x5ea16
    321c:	02540500 	0x2540500
    3220:	00000546 	0x546
    3224:	07391654 	0x7391654
    3228:	77050000 	jalx	c140000 <__memory_size+0xc120800>
    322c:	0007ed02 	srl	sp,a3,0x14
    3230:	22175800 	addi	s7,s0,22528
    3234:	05000005 	bltz	t0,324c <__isr_vec_space+0x322c>
    3238:	027e027b 	0x27e027b
    323c:	01480000 	0x1480000
    3240:	00068517 	0x68517
    3244:	027c0500 	0x27c0500
    3248:	00000240 	sll	zero,zero,0x9
    324c:	c817014c 	lwc2	$23,332(zero)
    3250:	05000008 	bltz	t0,3274 <__isr_vec_space+0x3254>
    3254:	08410280 	j	1040a00 <__memory_size+0x1021200>
    3258:	02dc0000 	0x2dc0000
    325c:	0005c317 	0x5c317
    3260:	02850500 	0x2850500
    3264:	000005f2 	tlt	zero,zero,0x17
    3268:	a81702e0 	swl	s7,736(zero)
    326c:	05000005 	bltz	t0,3284 <__isr_vec_space+0x3264>
    3270:	084d0286 	j	1340a18 <__memory_size+0x1321218>
    3274:	02ec0000 	0x2ec0000
    3278:	4c040f00 	0x4c040f00
    327c:	02000005 	lsa	zero,s0,zero,0x1
    3280:	00940801 	movf	at,a0,$fcc5
    3284:	040f0000 	0x40f0000
    3288:	000003f0 	tge	zero,zero,0xf
    328c:	00002813 	0x2813
    3290:	00057700 	sll	t6,a1,0x1c
    3294:	040e1400 	tnei	zero,5120
    3298:	01140000 	0x1140000
    329c:	14000001 	bnez	zero,32a4 <__isr_vec_space+0x3284>
    32a0:	00000577 	0x577
    32a4:	00002814 	0x2814
    32a8:	040f0000 	0x40f0000
    32ac:	0000057d 	0x57d
    32b0:	00054c18 	0x54c18
    32b4:	59040f00 	0x59040f00
    32b8:	13000005 	beqz	t8,32d0 <__isr_vec_space+0x32b0>
    32bc:	00000076 	tne	zero,zero,0x1
    32c0:	000005a6 	0x5a6
    32c4:	00040e14 	0x40e14
    32c8:	01011400 	0x1011400
    32cc:	76140000 	jalx	8500000 <__memory_size+0x84e0800>
    32d0:	14000000 	bnez	zero,32d4 <__isr_vec_space+0x32b4>
    32d4:	00000028 	0x28
    32d8:	88040f00 	lwl	a0,3840(zero)
    32dc:	13000005 	beqz	t8,32f4 <__isr_vec_space+0x32d4>
    32e0:	00000028 	0x28
    32e4:	000005c0 	sll	zero,zero,0x17
    32e8:	00040e14 	0x40e14
    32ec:	01011400 	0x1011400
    32f0:	0f000000 	jal	c000000 <__memory_size+0xbfe0800>
    32f4:	0005ac04 	0x5ac04
    32f8:	003d0800 	0x3d0800
    32fc:	05d60000 	0x5d60000
    3300:	c3090000 	ll	t1,0(t8)
    3304:	02000000 	0x2000000
    3308:	003d0800 	0x3d0800
    330c:	05e60000 	0x5e60000
    3310:	c3090000 	ll	t1,0(t8)
    3314:	00000000 	nop
    3318:	075e0500 	0x75e0500
    331c:	1d050000 	0x1d050000
    3320:	0002c601 	0x2c601
    3324:	08af1900 	j	2bc6400 <__memory_size+0x2ba6c00>
    3328:	050c0000 	teqi	t0,0
    332c:	06270121 	aclr	0x0,289(s1)
    3330:	c5160000 	lwc1	$f22,0(t0)
    3334:	05000007 	bltz	t0,3354 <__isr_vec_space+0x3334>
    3338:	06270123 	aclr	0x0,291(s1)
    333c:	16000000 	bnez	s0,3340 <__isr_vec_space+0x3320>
    3340:	0000067e 	0x67e
    3344:	28012405 	slti	at,zero,9221
    3348:	04000000 	bltz	zero,334c <__isr_vec_space+0x332c>
    334c:	00075816 	0x75816
    3350:	01250500 	0x1250500
    3354:	0000062d 	0x62d
    3358:	040f0008 	0x40f0008
    335c:	000005f2 	tlt	zero,zero,0x17
    3360:	05e6040f 	0x5e6040f
    3364:	36190000 	ori	t9,s0,0x0
    3368:	0e000005 	jal	8000014 <__memory_size+0x7fe0814>
    336c:	68013d05 	0x68013d05
    3370:	16000006 	bnez	s0,338c <__isr_vec_space+0x336c>
    3374:	0000080b 	movn	at,zero,zero
    3378:	68013e05 	0x68013e05
    337c:	00000006 	srlv	zero,zero,zero
    3380:	00083816 	0x83816
    3384:	013f0500 	0x13f0500
    3388:	00000668 	0x668
    338c:	08541606 	j	1505818 <__memory_size+0x14e6018>
    3390:	40050000 	mfc0	a1,c0_index
    3394:	00004b01 	0x4b01
    3398:	08000c00 	j	3000 <__isr_vec_space+0x2fe0>
    339c:	0000004b 	0x4b
    33a0:	00000678 	0x678
    33a4:	0000c309 	0xc309
    33a8:	1a000200 	blez	s0,3bac <__isr_vec_space+0x3b8c>
    33ac:	025805d0 	0x25805d0
    33b0:	00000779 	0x779
    33b4:	00089316 	0x89316
    33b8:	025a0500 	0x25a0500
    33bc:	0000008d 	break	0x0,0x2
    33c0:	083e1600 	j	f85800 <__memory_size+0xf66000>
    33c4:	5b050000 	0x5b050000
    33c8:	00054602 	srl	t0,a1,0x18
    33cc:	9a160400 	lwr	s6,1024(s0)
    33d0:	05000006 	bltz	t0,33ec <__isr_vec_space+0x33cc>
    33d4:	0779025c 	0x779025c
    33d8:	16080000 	bne	s0,t0,33dc <__isr_vec_space+0x33bc>
    33dc:	000008eb 	0x8eb
    33e0:	77025d05 	jalx	c097414 <__memory_size+0xc077c14>
    33e4:	24000001 	li	zero,1
    33e8:	00063d16 	0x63d16
    33ec:	025e0500 	0x25e0500
    33f0:	00000028 	0x28
    33f4:	07c01648 	bltz	s8,8d18 <__isr_vec_space+0x8cf8>
    33f8:	5f050000 	0x5f050000
    33fc:	00005902 	srl	t3,zero,0x4
    3400:	01165000 	0x1165000
    3404:	05000009 	bltz	t0,342c <__isr_vec_space+0x340c>
    3408:	06330260 	bgezall	s1,3d8c <__isr_vec_space+0x3d6c>
    340c:	16580000 	bne	s2,t8,3410 <__isr_vec_space+0x33f0>
    3410:	000007cb 	0x7cb
    3414:	eb026105 	swc2	$2,24837(t8)
    3418:	68000000 	0x68000000
    341c:	00090616 	0x90616
    3420:	02620500 	0x2620500
    3424:	000000eb 	0xeb
    3428:	05811670 	bgez	t4,8dec <__isr_vec_space+0x8dcc>
    342c:	63050000 	0x63050000
    3430:	0000eb02 	srl	sp,zero,0xc
    3434:	be167800 	cache	0x16,30720(s0)
    3438:	05000008 	bltz	t0,345c <__isr_vec_space+0x343c>
    343c:	07890264 	tgeiu	gp,612
    3440:	16800000 	bnez	s4,3444 <__isr_vec_space+0x3424>
    3444:	0000068e 	0x68e
    3448:	99026505 	lwr	v0,25861(t0)
    344c:	88000007 	lwl	zero,7(zero)
    3450:	00086116 	0x86116
    3454:	02660500 	0x2660500
    3458:	00000028 	0x28
    345c:	060316a0 	bgezl	s0,8ee0 <__isr_vec_space+0x8ec0>
    3460:	67050000 	0x67050000
    3464:	0000eb02 	srl	sp,zero,0xc
    3468:	7216a400 	s32madd	xr0,xr9,s0,s6
    346c:	05000005 	bltz	t0,3484 <__isr_vec_space+0x3464>
    3470:	00eb0268 	0xeb0268
    3474:	16ac0000 	bne	s5,t4,3478 <__isr_vec_space+0x3458>
    3478:	000005f2 	tlt	zero,zero,0x17
    347c:	eb026905 	swc2	$2,26885(t8)
    3480:	b4000000 	0xb4000000
    3484:	00054916 	0x54916
    3488:	026a0500 	0x26a0500
    348c:	000000eb 	0xeb
    3490:	055816bc 	0x55816bc
    3494:	6b050000 	0x6b050000
    3498:	0000eb02 	srl	sp,zero,0xc
    349c:	3e16c400 	0x3e16c400
    34a0:	05000007 	bltz	t0,34c0 <__isr_vec_space+0x34a0>
    34a4:	0028026c 	0x28026c
    34a8:	00cc0000 	0xcc0000
    34ac:	00054c08 	0x54c08
    34b0:	00078900 	sll	s1,a3,0x4
    34b4:	00c30900 	0xc30900
    34b8:	00190000 	sll	zero,t9,0x0
    34bc:	00054c08 	0x54c08
    34c0:	00079900 	sll	s3,a3,0x4
    34c4:	00c30900 	0xc30900
    34c8:	00070000 	sll	zero,a3,0x0
    34cc:	00054c08 	0x54c08
    34d0:	0007a900 	sll	s5,a3,0x4
    34d4:	00c30900 	0xc30900
    34d8:	00170000 	sll	zero,s7,0x0
    34dc:	7105f01a 	udi10	t0,a1,s8,0x0
    34e0:	0007cd02 	srl	t9,a3,0x14
    34e4:	06d51600 	0x6d51600
    34e8:	74050000 	jalx	140000 <__memory_size+0x120800>
    34ec:	0007cd02 	srl	t9,a3,0x14
    34f0:	b5160000 	0xb5160000
    34f4:	05000008 	bltz	t0,3518 <__isr_vec_space+0x34f8>
    34f8:	07dd0275 	0x7dd0275
    34fc:	00780000 	0x780000
    3500:	0002c008 	0x2c008
    3504:	0007dd00 	sll	k1,a3,0x14
    3508:	00c30900 	0xc30900
    350c:	001d0000 	sll	zero,sp,0x0
    3510:	00008d08 	0x8d08
    3514:	0007ed00 	sll	sp,a3,0x14
    3518:	00c30900 	0xc30900
    351c:	001d0000 	sll	zero,sp,0x0
    3520:	5605f01b 	bnel	s0,a1,fffff590 <__entry+0x403ff590>
    3524:	00080f02 	srl	at,t0,0x1c
    3528:	08041c00 	j	107000 <__memory_size+0xe7800>
    352c:	6d050000 	0x6d050000
    3530:	00067802 	srl	t7,a2,0x0
    3534:	08d81c00 	j	3607000 <__memory_size+0x35e7800>
    3538:	76050000 	jalx	8140000 <__memory_size+0x8120800>
    353c:	0007a902 	srl	s5,a3,0x4
    3540:	4c080000 	lwxc1	$f0,t0(zero)
    3544:	1f000005 	bgtz	t8,355c <__isr_vec_space+0x353c>
    3548:	09000008 	j	4000020 <__memory_size+0x3fe0820>
    354c:	000000c3 	sra	zero,zero,0x3
    3550:	2a1d0018 	slti	sp,s0,24
    3554:	14000008 	bnez	zero,3578 <__isr_vec_space+0x3558>
    3558:	0000040e 	0x40e
    355c:	1f040f00 	0x1f040f00
    3560:	0f000008 	jal	c000020 <__memory_size+0xbfe0820>
    3564:	00016104 	0x16104
    3568:	08411d00 	j	1047400 <__memory_size+0x1027c00>
    356c:	28140000 	slti	s4,zero,0
    3570:	00000000 	nop
    3574:	0847040f 	j	11c103c <__memory_size+0x11a183c>
    3578:	040f0000 	0x40f0000
    357c:	00000836 	tne	zero,zero,0x20
    3580:	0005e608 	0x5e608
    3584:	00085d00 	sll	t3,t0,0x14
    3588:	00c30900 	0xc30900
    358c:	00020000 	sll	zero,v0,0x0
    3590:	0006f71e 	0x6f71e
    3594:	bc420100 	cache	0x2,256(v0)
    3598:	80800014 	lb	zero,20(a0)
    359c:	01000001 	movf	zero,t0,$fcc0
    35a0:	00091e9c 	0x91e9c
    35a4:	0a901f00 	j	a407c00 <__memory_size+0xa3e8400>
    35a8:	42010000 	c0	0x10000
    35ac:	00000028 	0x28
    35b0:	00000eed 	0xeed
    35b4:	01006420 	0x1006420
    35b8:	00010142 	srl	zero,at,0x5
    35bc:	000f1900 	sll	v1,t7,0x4
    35c0:	00702100 	0x702100
    35c4:	027e4501 	0x27e4501
    35c8:	0f450000 	jal	d140000 <__memory_size+0xd120800>
    35cc:	be220000 	cache	0x2,0(s1)
    35d0:	01000009 	jalr	zero,t0
    35d4:	00091e46 	0x91e46
    35d8:	000f6400 	sll	t4,t7,0x10
    35dc:	05b62200 	0x5b62200
    35e0:	47010000 	bz.b	$w1,35e4 <__isr_vec_space+0x35c4>
    35e4:	00000924 	0x924
    35e8:	00000f8d 	break	0x0,0x3e
    35ec:	01006e21 	0x1006e21
    35f0:	00002848 	0x2848
    35f4:	000fb400 	sll	s6,t7,0x10
    35f8:	00692100 	0x692100
    35fc:	00284901 	0x284901
    3600:	0fc70000 	jal	f1c0000 <__memory_size+0xf1a0800>
    3604:	66210000 	0x66210000
    3608:	4a01006e 	c2	0x1006e
    360c:	00000294 	0x294
    3610:	00000ffc 	0xffc
    3614:	0009c423 	0x9c423
    3618:	24510100 	addiu	s1,v0,256
    361c:	000000a8 	0xa8
    3620:	0000090d 	break	0x0,0x24
    3624:	646e6921 	0x646e6921
    3628:	285e0100 	slti	s8,v0,256
    362c:	25000000 	addiu	zero,t0,0
    3630:	25000010 	addiu	zero,t0,16
    3634:	800015f8 	lb	zero,5624(zero)
    3638:	02540126 	0x2540126
    363c:	00000086 	0x86
    3640:	0015cc27 	0x15cc27
    3644:	00094780 	sll	t0,t1,0x1e
    3648:	54012600 	bnel	zero,at,ce4c <__isr_vec_space+0xce2c>
    364c:	00008002 	srl	s0,zero,0x0
    3650:	7e040f00 	ext	a0,s0,0x1c,0x2
    3654:	0f000002 	jal	c000008 <__memory_size+0xbfe0808>
    3658:	0001f004 	sllv	s8,at,zero
    365c:	09cc2800 	j	730a000 <__memory_size+0x72ea800>
    3660:	0e010000 	jal	8040000 <__memory_size+0x8020800>
    3664:	00000028 	0x28
    3668:	086e2900 	j	1b8a400 <__memory_size+0x1b6ac00>
    366c:	fb050000 	sdc2	$5,0(t8)
    3670:	00094202 	srl	t0,t1,0x8
    3674:	040e1800 	tnei	zero,6144
    3678:	762a0000 	jalx	8a80000 <__memory_size+0x8a60800>
    367c:	06000003 	bltz	s0,368c <__isr_vec_space+0x366c>
    3680:	01011455 	0x1011455
    3684:	00000000 	nop
    3688:	00000122 	0x122
    368c:	0fdf0004 	jal	f7c0010 <__memory_size+0xf7a0810>
    3690:	01040000 	0x1040000
    3694:	00000a9c 	0xa9c
    3698:	000a2d01 	0xa2d01
    369c:	00163c00 	sll	a3,s6,0x10
    36a0:	00008880 	sll	s1,zero,0x2
    36a4:	000de300 	sll	gp,t5,0xc
    36a8:	06010200 	bgez	s0,3eac <__isr_vec_space+0x3e8c>
    36ac:	0000008d 	break	0x0,0x2
    36b0:	8b080102 	lwl	t0,258(t8)
    36b4:	02000000 	0x2000000
    36b8:	00d90502 	0xd90502
    36bc:	02020000 	0x2020000
    36c0:	0000ad07 	0xad07
    36c4:	0b4a0300 	j	d280c00 <__memory_size+0xd261400>
    36c8:	37020000 	ori	v0,t8,0x0
    36cc:	00000048 	0x48
    36d0:	05050402 	0x5050402
    36d4:	02000000 	0x2000000
    36d8:	00710704 	0x710704
    36dc:	08020000 	j	80000 <__memory_size+0x60800>
    36e0:	00000005 	lsa	zero,zero,zero,0x1
    36e4:	07080200 	tgei	t8,512
    36e8:	0000006c 	0x6c
    36ec:	000b4c03 	sra	t1,t3,0x10
    36f0:	3d410300 	0x3d410300
    36f4:	04000000 	bltz	zero,36f8 <__isr_vec_space+0x36d8>
    36f8:	6e690504 	0x6e690504
    36fc:	04020074 	bltzl	zero,38d0 <__isr_vec_space+0x38b0>
    3700:	00007607 	0x7607
    3704:	07040200 	0x7040200
    3708:	00000151 	0x151
    370c:	94080102 	lhu	t0,258(zero)
    3710:	05000000 	bltz	t0,3714 <__isr_vec_space+0x36f4>
    3714:	00000a95 	0xa95
    3718:	163c3c01 	bne	s1,gp,12720 <__isr_vec_space+0x12700>
    371c:	00888000 	0x888000
    3720:	9c010000 	0x9c010000
    3724:	000000f3 	tltu	zero,zero,0x3
    3728:	000a8b06 	0xa8b06
    372c:	643c0100 	0x643c0100
    3730:	43000000 	c0	0x1000000
    3734:	07000010 	bltz	t8,3778 <__isr_vec_space+0x3758>
    3738:	00000b54 	0xb54
    373c:	00643e01 	0x643e01
    3740:	54010000 	bnel	zero,at,3744 <__isr_vec_space+0x3724>
    3744:	00706f08 	0x706f08
    3748:	00643f01 	0x643f01
    374c:	69010000 	0x69010000
    3750:	74657208 	jalx	195c820 <__memory_size+0x193d020>
    3754:	64400100 	0x64400100
    3758:	01000000 	0x1000000
    375c:	169c0952 	bne	s4,gp,5ca8 <__isr_vec_space+0x5c88>
    3760:	01098000 	0x1098000
    3764:	00e90000 	0xe90000
    3768:	010a0000 	0x10a0000
    376c:	00830254 	0x830254
    3770:	16b40b00 	bne	s5,s4,6374 <__isr_vec_space+0x6354>
    3774:	011a8000 	0x11a8000
    3778:	0c000000 	jal	0 <hardware_exit_hook>
    377c:	00000084 	0x84
    3780:	000000fe 	0xfe
    3784:	390e000d 	xori	t6,t0,0xd
    3788:	0100000b 	movn	zero,t0,zero
    378c:	0000f338 	0xf338
    3790:	0a7a0f00 	j	9e83c00 <__memory_size+0x9e64400>
    3794:	34010000 	li	at,0x0
    3798:	0000011a 	0x11a
    379c:	00006410 	0x6410
    37a0:	59110000 	0x59110000
    37a4:	0100000b 	movn	zero,t0,zero
    37a8:	00006f33 	tltu	zero,zero,0x1bc
    37ac:	00e90000 	0xe90000
    37b0:	00020000 	sll	zero,v0,0x0
    37b4:	000010cb 	0x10cb
    37b8:	0f3d0104 	jal	cf40410 <__memory_size+0xcf20c10>
    37bc:	16c40000 	bne	s6,a0,37c0 <__isr_vec_space+0x37a0>
    37c0:	177c8000 	bne	k1,gp,fffe37c4 <__entry+0x403e37c4>
    37c4:	732f8000 	s32madd	xr0,xr0,t9,t7
    37c8:	74617263 	jalx	185c98c <__memory_size+0x183d18c>
    37cc:	6d2f6863 	0x6d2f6863
    37d0:	6a2f6670 	0x6a2f6670
    37d4:	2f73626f 	sltiu	s3,k1,25199
    37d8:	39333435 	xori	s3,t1,0x3435
    37dc:	38342f35 	xori	s4,at,0x2f35
    37e0:	2f343930 	sltiu	s4,t9,14640
    37e4:	31303432 	andi	s0,t1,0x3432
    37e8:	732f3839 	0x732f3839
    37ec:	65726168 	0x65726168
    37f0:	63672f64 	0x63672f64
    37f4:	696c2f63 	0x696c2f63
    37f8:	6f6c6762 	0x6f6c6762
    37fc:	6d2f7373 	0x6d2f7373
    3800:	2f737069 	sltiu	s3,k1,28777
    3804:	2f696875 	sltiu	t1,k1,26741
    3808:	5f696875 	0x5f696875
    380c:	61746567 	0x61746567
    3810:	2e736772 	sltiu	s3,s3,26482
    3814:	732f0053 	s32stdv	xr1,t9,t7,0
    3818:	74617263 	jalx	185c98c <__memory_size+0x183d18c>
    381c:	6d2f6863 	0x6d2f6863
    3820:	6a2f6670 	0x6a2f6670
    3824:	2f73626f 	sltiu	s3,k1,25199
    3828:	39333435 	xori	s3,t1,0x3435
    382c:	38342f35 	xori	s4,at,0x2f35
    3830:	2f343930 	sltiu	s4,t9,14640
    3834:	32303432 	andi	s0,s1,0x3432
    3838:	772f3236 	jalx	cbcc8d8 <__memory_size+0xcbad0d8>
    383c:	2f6b726f 	sltiu	t3,k1,29295
    3840:	2d6a626f 	sltiu	t2,t3,25199
    3844:	7370696d 	s16sdi	xr5,k1,52,
    3848:	69746d2d 	0x69746d2d
    384c:	666c652d 	0x666c652d
    3850:	6363672f 	0x6363672f
    3854:	70696d2f 	0x70696d2f
    3858:	746d2d73 	jalx	1b4b5cc <__memory_size+0x1b2bdcc>
    385c:	6c652d69 	0x6c652d69
    3860:	696d2f66 	0x696d2f66
    3864:	6c657370 	0x6c657370
    3868:	2d32722d 	sltiu	s2,t1,29229
    386c:	74666f73 	jalx	199bdcc <__memory_size+0x197c5cc>
    3870:	77656e2d 	jalx	d95b8b4 <__memory_size+0xd93c0b4>
    3874:	2f62696c 	sltiu	v0,k1,26988
    3878:	2f62696c 	sltiu	v0,k1,26988
    387c:	6762696c 	0x6762696c
    3880:	73736f6c 	s16ldi	xr13,k1,438,ptn2
    3884:	70696d2f 	0x70696d2f
    3888:	4e470073 	c3	0x470073
    388c:	53412055 	beql	k0,at,b9e4 <__isr_vec_space+0xb9c4>
    3890:	322e3220 	andi	t6,s1,0x3220
    3894:	30392e34 	andi	t9,at,0x2e34
    3898:	0b800100 	j	e000400 <__memory_size+0xdfe0c00>
    389c:	04000001 	bltz	zero,38a4 <__isr_vec_space+0x3884>
    38a0:	0010df00 	sll	k1,s0,0x1c
    38a4:	9c010400 	0x9c010400
    38a8:	0100000a 	movz	zero,t0,zero
    38ac:	00000b6b 	0xb6b
    38b0:	8000177c 	lb	zero,6012(zero)
    38b4:	0000004c 	syscall	0x1
    38b8:	00000fe3 	0xfe3
    38bc:	8d060102 	lw	a2,258(t0)
    38c0:	02000000 	0x2000000
    38c4:	008b0801 	0x8b0801
    38c8:	02020000 	0x2020000
    38cc:	0000d905 	0xd905
    38d0:	07020200 	bltzl	t8,40d4 <__isr_vec_space+0x40b4>
    38d4:	000000ad 	0xad
    38d8:	000b4a03 	sra	t1,t3,0x8
    38dc:	48370200 	0x48370200
    38e0:	02000000 	0x2000000
    38e4:	00050504 	0x50504
    38e8:	04020000 	bltzl	zero,38ec <__isr_vec_space+0x38cc>
    38ec:	00007107 	0x7107
    38f0:	05080200 	tgei	t0,512
    38f4:	00000000 	nop
    38f8:	6c070802 	0x6c070802
    38fc:	03000000 	0x3000000
    3900:	00000b4c 	syscall	0x2d
    3904:	003d4103 	0x3d4103
    3908:	04040000 	0x4040000
    390c:	746e6905 	jalx	1b9a414 <__memory_size+0x1b7ac14>
    3910:	07040200 	0x7040200
    3914:	00000076 	tne	zero,zero,0x1
    3918:	51070402 	beql	t0,a3,4924 <__isr_vec_space+0x4904>
    391c:	05000001 	bltz	t0,3924 <__isr_vec_space+0x3904>
    3920:	08010204 	j	40810 <__memory_size+0x21010>
    3924:	00000094 	0x94
    3928:	000c0106 	0xc0106
    392c:	7c270100 	ext	a3,at,0x4,0x1
    3930:	4c800017 	0x4c800017
    3934:	01000000 	0x1000000
    3938:	0000e79c 	0xe79c
    393c:	0bf80700 	j	fe01c00 <__memory_size+0xfde2400>
    3940:	27010000 	addiu	at,t8,0
    3944:	000000e7 	0xe7
    3948:	00001061 	0x1061
    394c:	000bd807 	srav	k1,t3,zero
    3950:	e7270100 	swc1	$f7,256(t9)
    3954:	7f000000 	ext	zero,t8,0x0,0x1
    3958:	08000010 	j	40 <__isr_vec_space+0x20>
    395c:	0100706f 	0x100706f
    3960:	00006429 	0x6429
    3964:	09690100 	j	5a40400 <__memory_size+0x5a20c00>
    3968:	00000bf1 	tgeu	zero,zero,0x2f
    396c:	00842a01 	0x842a01
    3970:	52010000 	beql	s0,at,3974 <__isr_vec_space+0x3954>
    3974:	000bcf09 	0xbcf09
    3978:	842b0100 	lh	t3,256(at)
    397c:	01000000 	0x1000000
    3980:	040a0053 	tlti	zero,83
    3984:	00000084 	0x84
    3988:	0000860b 	0x860b
    398c:	0000f800 	sll	ra,zero,0x0
    3990:	0d000c00 	jal	4003000 <__memory_size+0x3fe3800>
    3994:	00000bc1 	0xbc1
    3998:	00ed2301 	0xed2301
    399c:	e30d0000 	sc	t5,0(t8)
    39a0:	0100000b 	movn	zero,t0,zero
    39a4:	0000ed24 	0xed24
    39a8:	00ea0000 	0xea0000
    39ac:	00020000 	sll	zero,v0,0x0
    39b0:	0000118a 	0x118a
    39b4:	11250104 	beq	t1,a1,3dc8 <__isr_vec_space+0x3da8>
    39b8:	00c80000 	0xc80000
    39bc:	732f0000 	madd	t9,t7
    39c0:	74617263 	jalx	185c98c <__memory_size+0x183d18c>
    39c4:	6d2f6863 	0x6d2f6863
    39c8:	6a2f6670 	0x6a2f6670
    39cc:	2f73626f 	sltiu	s3,k1,25199
    39d0:	39333435 	xori	s3,t1,0x3435
    39d4:	38342f35 	xori	s4,at,0x2f35
    39d8:	2f343930 	sltiu	s4,t9,14640
    39dc:	31303432 	andi	s0,t1,0x3432
    39e0:	732f3839 	0x732f3839
    39e4:	65726168 	0x65726168
    39e8:	63672f64 	0x63672f64
    39ec:	696c2f63 	0x696c2f63
    39f0:	6f6c6762 	0x6f6c6762
    39f4:	6d2f7373 	0x6d2f7373
    39f8:	2f737069 	sltiu	s3,k1,28777
    39fc:	2f6c6168 	sltiu	t4,k1,24936
    3a00:	7370696d 	s16sdi	xr5,k1,52,
    3a04:	6378655f 	0x6378655f
    3a08:	655f7470 	0x655f7470
    3a0c:	7972746e 	0x7972746e
    3a10:	2f00532e 	sltiu	zero,t8,21294
    3a14:	61726373 	0x61726373
    3a18:	2f686374 	sltiu	t0,k1,25460
    3a1c:	2f66706d 	sltiu	a2,k1,28781
    3a20:	73626f6a 	s16ldd	xr13,k1,310,ptn0
    3a24:	3334352f 	andi	s4,t9,0x352f
    3a28:	342f3539 	ori	t7,at,0x3539
    3a2c:	34393038 	ori	t9,at,0x3038
    3a30:	3034322f 	andi	s4,at,0x322f
    3a34:	2f323632 	sltiu	s2,t9,13874
    3a38:	6b726f77 	0x6b726f77
    3a3c:	6a626f2f 	0x6a626f2f
    3a40:	70696d2d 	s16sdi	xr4,v1,182,ptn1
    3a44:	746d2d73 	jalx	1b4b5cc <__memory_size+0x1b2bdcc>
    3a48:	6c652d69 	0x6c652d69
    3a4c:	63672f66 	0x63672f66
    3a50:	696d2f63 	0x696d2f63
    3a54:	6d2d7370 	0x6d2d7370
    3a58:	652d6974 	0x652d6974
    3a5c:	6d2f666c 	0x6d2f666c
    3a60:	65737069 	0x65737069
    3a64:	32722d6c 	andi	s2,s3,0x2d6c
    3a68:	666f732d 	0x666f732d
    3a6c:	656e2d74 	0x656e2d74
    3a70:	62696c77 	0x62696c77
    3a74:	62696c2f 	0x62696c2f
    3a78:	62696c2f 	0x62696c2f
    3a7c:	736f6c67 	0x736f6c67
    3a80:	696d2f73 	0x696d2f73
    3a84:	47007370 	bz.b	$w0,20848 <__memory_size+0x1048>
    3a88:	4120554e 	0x4120554e
    3a8c:	2e322053 	sltiu	s2,s1,8275
    3a90:	392e3432 	xori	t6,t1,0x3432
    3a94:	80010030 	lb	at,48(zero)
    3a98:	00000b8b 	0xb8b
    3a9c:	119c0004 	beq	t4,gp,3ab0 <__isr_vec_space+0x3a90>
    3aa0:	01040000 	0x1040000
    3aa4:	00000a9c 	0xa9c
    3aa8:	000cce01 	0xcce01
    3aac:	0017c800 	sll	t9,s7,0x0
    3ab0:	0007ac80 	sll	s5,a3,0x12
    3ab4:	00123b00 	sll	a3,s2,0xc
    3ab8:	015f0200 	0x15f0200
    3abc:	d4020000 	ldc1	$f2,0(zero)
    3ac0:	0000002c 	0x2c
    3ac4:	71070403 	0x71070403
    3ac8:	04000000 	bltz	zero,3acc <__isr_vec_space+0x3aac>
    3acc:	6e690504 	0x6e690504
    3ad0:	04030074 	bgezl	zero,3ca4 <__isr_vec_space+0x3c84>
    3ad4:	00000505 	0x505
    3ad8:	06010300 	bgez	s0,46dc <__isr_vec_space+0x46bc>
    3adc:	0000008d 	break	0x0,0x2
    3ae0:	8b080103 	lwl	t0,259(t8)
    3ae4:	03000000 	0x3000000
    3ae8:	00d90502 	0xd90502
    3aec:	02030000 	0x2030000
    3af0:	0000ad07 	0xad07
    3af4:	0b4a0200 	j	d280800 <__memory_size+0xd261000>
    3af8:	37030000 	ori	v1,t8,0x0
    3afc:	0000003a 	0x3a
    3b00:	000c6e02 	srl	t5,t4,0x18
    3b04:	2c380300 	sltiu	t8,at,768
    3b08:	03000000 	0x3000000
    3b0c:	00000508 	0x508
    3b10:	08030000 	j	c0000 <__memory_size+0xa0800>
    3b14:	00006c07 	0x6c07
    3b18:	07040300 	0x7040300
    3b1c:	00000076 	tne	zero,zero,0x1
    3b20:	51070403 	beql	t0,a3,4b30 <__isr_vec_space+0x4b10>
    3b24:	03000001 	movf	zero,t8,$fcc0
    3b28:	00940801 	movf	at,a0,$fcc5
    3b2c:	04050000 	0x4050000
    3b30:	0000009c 	0x9c
    3b34:	00008f06 	0x8f06
    3b38:	a7040500 	sh	a0,1280(t8)
    3b3c:	07000000 	bltz	t8,3b40 <__isr_vec_space+0x3b20>
    3b40:	000ca008 	0xca008
    3b44:	03960400 	0x3960400
    3b48:	00000081 	0x81
    3b4c:	000c9f08 	0xc9f08
    3b50:	03970400 	0x3970400
    3b54:	00000033 	tltu	zero,zero
    3b58:	000b4c02 	srl	t1,t3,0x10
    3b5c:	5d410500 	0x5d410500
    3b60:	02000000 	0x2000000
    3b64:	00000c70 	tge	zero,zero,0x31
    3b68:	00684205 	0x684205
    3b6c:	7c090000 	ext	t1,zero,0x0,0x1
    3b70:	0153ec06 	0x153ec06
    3b74:	610a0000 	0x610a0000
    3b78:	ee060074 	swc3	$6,116(s0)
    3b7c:	000000a8 	0xa8
    3b80:	00760a00 	0x760a00
    3b84:	0153ef06 	0x153ef06
    3b88:	0a040000 	j	8100000 <__memory_size+0x80e0800>
    3b8c:	f4060061 	sdc1	$f6,97(zero)
    3b90:	00000163 	0x163
    3b94:	00740a0c 	syscall	0x1d028
    3b98:	0173f506 	0x173f506
    3b9c:	0a1c0000 	j	8700000 <__memory_size+0x86e0800>
    3ba0:	f7060073 	sdc1	$f6,115(t8)
    3ba4:	00000173 	tltu	zero,zero,0x5
    3ba8:	32740a3c 	andi	s4,s3,0xa3c
    3bac:	53f80600 	beql	ra,t8,53b0 <__isr_vec_space+0x5390>
    3bb0:	5c000001 	bgtzl	zero,3bb8 <__isr_vec_space+0x3b98>
    3bb4:	06006b0a 	bltz	s0,1e7e0 <__isr_vec_space+0x1e7c0>
    3bb8:	000153f9 	0x153f9
    3bbc:	670a6400 	0x670a6400
    3bc0:	fa060070 	sdc2	$6,112(s0)
    3bc4:	000000a8 	0xa8
    3bc8:	70730a6c 	s16ldi	xr9,v1,388,ptn2
    3bcc:	a8fb0600 	swl	k1,1536(a3)
    3bd0:	70000000 	madd	zero,zero
    3bd4:	0070660a 	0x70660a
    3bd8:	00a8fc06 	0xa8fc06
    3bdc:	0a740000 	j	9d00000 <__memory_size+0x9ce0800>
    3be0:	06006172 	bltz	s0,1c1ac <__isr_vec_space+0x1c18c>
    3be4:	0000a8fd 	0xa8fd
    3be8:	0b007800 	j	c01e000 <__memory_size+0xbffe800>
    3bec:	000000a8 	0xa8
    3bf0:	00000163 	0x163
    3bf4:	0000880c 	syscall	0x220
    3bf8:	0b000100 	j	c000400 <__memory_size+0xbfe0c00>
    3bfc:	000000a8 	0xa8
    3c00:	00000173 	tltu	zero,zero,0x5
    3c04:	0000880c 	syscall	0x220
    3c08:	0b000300 	j	c000c00 <__memory_size+0xbfe1400>
    3c0c:	000000a8 	0xa8
    3c10:	00000183 	sra	zero,zero,0x6
    3c14:	0000880c 	syscall	0x220
    3c18:	0d000700 	jal	4001c00 <__memory_size+0x3fe2400>
    3c1c:	9aea067c 	lwr	t2,1660(s7)
    3c20:	0e000001 	jal	8000004 <__memory_size+0x7fe0804>
    3c24:	000000d6 	0xd6
    3c28:	0600720f 	bltz	s0,20468 <__memory_size+0xc68>
    3c2c:	00019aff 	0x19aff
    3c30:	a80b0000 	swl	t3,0(zero)
    3c34:	aa000000 	swl	zero,0(s0)
    3c38:	0c000001 	jal	4 <ABIFlags_gpr_size>
    3c3c:	00000088 	0x88
    3c40:	8a10001e 	lwl	s0,30(s0)
    3c44:	a000000c 	sb	zero,12(zero)
    3c48:	0230e806 	srlv	sp,s0,s1
    3c4c:	83110000 	lb	s1,0(t8)
    3c50:	00000001 	movf	zero,zero,$fcc0
    3c54:	63706512 	0x63706512
    3c58:	01020600 	0x1020600
    3c5c:	000000a8 	0xa8
    3c60:	0c90137c 	jal	2404df0 <__memory_size+0x23e55f0>
    3c64:	03060000 	0x3060000
    3c68:	0000a801 	movf	s5,zero,$fcc0
    3c6c:	68128000 	0x68128000
    3c70:	04060069 	0x4060069
    3c74:	0000a801 	movf	s5,zero,$fcc0
    3c78:	6c128400 	0x6c128400
    3c7c:	0506006f 	0x506006f
    3c80:	0000a801 	movf	s5,zero,$fcc0
    3c84:	79138800 	ori.b	$w0,$w17,0x13
    3c88:	0600000c 	bltz	s0,3cbc <__isr_vec_space+0x3c9c>
    3c8c:	02570107 	0x2570107
    3c90:	138c0000 	beq	gp,t4,3c94 <__isr_vec_space+0x3c74>
    3c94:	000001e3 	0x1e3
    3c98:	cb010a06 	lwc2	$1,2566(t8)
    3c9c:	90000000 	lbu	zero,0(zero)
    3ca0:	000c3813 	0xc3813
    3ca4:	010c0600 	0x10c0600
    3ca8:	000000cb 	0xcb
    3cac:	0d361394 	jal	4d84e50 <__memory_size+0x4d65650>
    3cb0:	0d060000 	jal	4180000 <__memory_size+0x4160800>
    3cb4:	0000cb01 	0xcb01
    3cb8:	2c139800 	sltiu	s3,zero,-26624
    3cbc:	0600000d 	bltz	s0,3cf4 <__isr_vec_space+0x3cd4>
    3cc0:	00cb010e 	0xcb010e
    3cc4:	009c0000 	0x9c0000
    3cc8:	000c6614 	0xc6614
    3ccc:	11060800 	beq	t0,a2,5cd0 <__isr_vec_space+0x5cb0>
    3cd0:	00025701 	0x25701
    3cd4:	64691200 	0x64691200
    3cd8:	01130600 	0x1130600
    3cdc:	000000a8 	0xa8
    3ce0:	07c61300 	0x7c61300
    3ce4:	14060000 	bne	zero,a2,3ce8 <__isr_vec_space+0x3cc8>
    3ce8:	00025701 	0x25701
    3cec:	05000400 	bltz	t0,4cf0 <__isr_vec_space+0x4cd0>
    3cf0:	00023004 	sllv	a2,v0,zero
    3cf4:	04080300 	tgei	zero,768
    3cf8:	00000c59 	0xc59
    3cfc:	99040403 	lwr	a0,1027(t0)
    3d00:	1500000c 	bnez	t0,3d34 <__isr_vec_space+0x3d14>
    3d04:	00000cc6 	0xcc6
    3d08:	c5013101 	lwc1	$f1,12545(t0)
    3d0c:	16000002 	bnez	s0,3d18 <__isr_vec_space+0x3cf8>
    3d10:	00657270 	tge	v1,a1,0x1c9
    3d14:	00963101 	0x963101
    3d18:	1b170000 	0x1b170000
    3d1c:	01000008 	jr	t0
    3d20:	0000a831 	tgeu	zero,zero,0x2a0
    3d24:	0d251700 	jal	4945c00 <__memory_size+0x4926400>
    3d28:	31010000 	andi	at,t0,0x0
    3d2c:	00000033 	tltu	zero,zero
    3d30:	000c8517 	0xc8517
    3d34:	96310100 	lhu	s1,256(s1)
    3d38:	18000000 	blez	zero,3d3c <__isr_vec_space+0x3d1c>
    3d3c:	00667562 	0x667562
    3d40:	02c53301 	0x2c53301
    3d44:	60190000 	0x60190000
    3d48:	0100000c 	syscall	0x40000
    3d4c:	00003334 	teq	zero,zero,0xcc
    3d50:	64691800 	0x64691800
    3d54:	35010078 	ori	at,t0,0x78
    3d58:	00000033 	tltu	zero,zero
    3d5c:	008f0b00 	0x8f0b00
    3d60:	02d40000 	0x2d40000
    3d64:	881a0000 	lwl	k0,0(zero)
    3d68:	00000000 	nop
    3d6c:	00026b1b 	0x26b1b
    3d70:	0017c800 	sll	t9,s7,0x0
    3d74:	0000c080 	sll	t8,zero,0x2
    3d78:	9c9c0100 	0x9c9c0100
    3d7c:	1c000003 	bgtz	zero,3d8c <__isr_vec_space+0x3d6c>
    3d80:	00000277 	0x277
    3d84:	0000109d 	0x109d
    3d88:	0002821c 	0x2821c
    3d8c:	0010c900 	sll	t9,s0,0x4
    3d90:	02981c00 	0x2981c00
    3d94:	10f50000 	beq	a3,s5,3d98 <__isr_vec_space+0x3d78>
    3d98:	a31d0000 	sb	sp,0(t8)
    3d9c:	9c000002 	0x9c000002
    3da0:	21000003 	addi	zero,t0,3
    3da4:	1e000011 	bgtz	s0,3dec <__isr_vec_space+0x3dcc>
    3da8:	000002ae 	0x2ae
    3dac:	00001159 	0x1159
    3db0:	0002b91e 	0x2b91e
    3db4:	00119d00 	sll	s3,s1,0x14
    3db8:	028d1f00 	0x28d1f00
    3dbc:	20080000 	addi	t0,zero,0
    3dc0:	800017f4 	lb	zero,6132(zero)
    3dc4:	00000b0b 	0xb0b
    3dc8:	0000033b 	0x33b
    3dcc:	02540121 	0x2540121
    3dd0:	20000081 	addi	zero,zero,129
    3dd4:	80001804 	lb	zero,6148(zero)
    3dd8:	00000b20 	0xb20
    3ddc:	00000354 	0x354
    3de0:	02550121 	0x2550121
    3de4:	01210081 	0x1210081
    3de8:	00310154 	0x310154
    3dec:	00185020 	add	t2,zero,t8
    3df0:	000b2080 	sll	a0,t3,0x2
    3df4:	00037200 	sll	t6,v1,0x8
    3df8:	56012100 	bnel	s0,at,c1fc <__isr_vec_space+0xc1dc>
    3dfc:	01213801 	movt	a3,t1,$fcc0
    3e00:	68910255 	0x68910255
    3e04:	01540121 	0x1540121
    3e08:	60200031 	0x60200031
    3e0c:	0b800018 	j	e000060 <__memory_size+0xdfe0860>
    3e10:	8600000b 	lh	zero,11(s0)
    3e14:	21000003 	addi	zero,t0,3
    3e18:	80025401 	lb	v0,21505(zero)
    3e1c:	70220000 	madd	at,v0
    3e20:	20800018 	addi	zero,a0,24
    3e24:	2100000b 	addi	zero,t0,11
    3e28:	80025501 	lb	v0,21761(zero)
    3e2c:	54012100 	bnel	zero,at,c230 <__isr_vec_space+0xc210>
    3e30:	00003101 	0x3101
    3e34:	00008f0b 	0x8f0b
    3e38:	0003ad00 	sll	s5,v1,0x14
    3e3c:	00882300 	0x882300
    3e40:	37010000 	ori	at,t8,0x0
    3e44:	0c102400 	jal	409000 <__memory_size+0x3e9800>
    3e48:	43010000 	c0	0x1010000
    3e4c:	80001888 	lb	zero,6280(zero)
    3e50:	00000008 	jr	zero
    3e54:	040f9c01 	0x40f9c01
    3e58:	70250000 	madd	at,a1
    3e5c:	01006572 	tlt	t0,zero,0x195
    3e60:	00009643 	sra	s2,zero,0x19
    3e64:	0011bc00 	sll	s7,s1,0x10
    3e68:	081b2600 	j	6c9800 <__memory_size+0x6aa000>
    3e6c:	43010000 	c0	0x1010000
    3e70:	000000a8 	0xa8
    3e74:	000011dd 	0x11dd
    3e78:	000c8526 	0xc8526
    3e7c:	96430100 	lhu	v1,256(s2)
    3e80:	fe000000 	sdc3	$0,0(s0)
    3e84:	27000011 	addiu	zero,t8,17
    3e88:	80001890 	lb	zero,6288(zero)
    3e8c:	000002d4 	0x2d4
    3e90:	03560121 	0x3560121
    3e94:	215601f3 	addi	s6,t2,499
    3e98:	f3035501 	0xf3035501
    3e9c:	01215501 	0x1215501
    3ea0:	01f30354 	0x1f30354
    3ea4:	28000054 	slti	zero,zero,84
    3ea8:	00000c3e 	0xc3e
    3eac:	18905901 	0x18905901
    3eb0:	06e48000 	0x6e48000
    3eb4:	9c010000 	0x9c010000
    3eb8:	00000ae4 	0xae4
    3ebc:	78746325 	st.h	$w12,232(t4)
    3ec0:	e4590100 	swc1	$f25,256(v0)
    3ec4:	1f00000a 	bgtz	t8,3ef0 <__isr_vec_space+0x3ed0>
    3ec8:	26000012 	addiu	zero,s0,18
    3ecc:	00000cac 	0xcac
    3ed0:	00335901 	0x335901
    3ed4:	14fb0000 	bne	a3,k1,3ed8 <__isr_vec_space+0x3eb8>
    3ed8:	8c290000 	lw	t1,0(at)
    3edc:	0480001a 	bltz	a0,3f48 <__isr_vec_space+0x3f28>
    3ee0:	5f000000 	bgtzl	t8,3ee4 <__isr_vec_space+0x3ec4>
    3ee4:	2a000004 	slti	zero,s0,4
    3ee8:	00725f5f 	0x725f5f
    3eec:	0081b201 	0x81b201
    3ef0:	17420000 	bne	k0,v0,3ef4 <__isr_vec_space+0x3ed4>
    3ef4:	29000000 	slti	zero,t0,0
    3ef8:	80001a9c 	lb	zero,6812(zero)
    3efc:	00000004 	sllv	zero,zero,zero
    3f00:	0000047c 	0x47c
    3f04:	725f5f2a 	s16ldd	xr12,s2,-82,ptn3
    3f08:	81b30100 	lb	s3,256(t5)
    3f0c:	55000000 	bnezl	t0,3f10 <__isr_vec_space+0x3ef0>
    3f10:	00000017 	0x17
    3f14:	001ab029 	0x1ab029
    3f18:	00001880 	sll	v1,zero,0x2
    3f1c:	0004ce00 	sll	t9,a0,0x18
    3f20:	72732a00 	0x72732a00
    3f24:	81b50100 	lb	s5,256(t5)
    3f28:	68000000 	0x68000000
    3f2c:	29000017 	slti	zero,t0,23
    3f30:	80001ab0 	lb	zero,6832(zero)
    3f34:	00000004 	sllv	zero,zero,zero
    3f38:	000004b4 	teq	zero,zero,0x12
    3f3c:	725f5f2a 	s16ldd	xr12,s2,-82,ptn3
    3f40:	81b50100 	lb	s5,256(t5)
    3f44:	87000000 	lh	zero,0(t8)
    3f48:	00000017 	0x17
    3f4c:	001abc2b 	0x1abc2b
    3f50:	00000480 	sll	zero,zero,0x12
    3f54:	5f5f2a00 	0x5f5f2a00
    3f58:	b8010072 	swr	at,114(zero)
    3f5c:	00000081 	0x81
    3f60:	00001768 	0x1768
    3f64:	e8290000 	swc2	$9,0(at)
    3f68:	0480001a 	bltz	a0,3fd4 <__isr_vec_space+0x3fb4>
    3f6c:	eb000000 	swc2	$0,0(t8)
    3f70:	2a000004 	slti	zero,s0,4
    3f74:	00725f5f 	0x725f5f
    3f78:	0081c201 	0x81c201
    3f7c:	179a0000 	bne	gp,k0,3f80 <__isr_vec_space+0x3f60>
    3f80:	29000000 	slti	zero,t0,0
    3f84:	80001af8 	lb	zero,6904(zero)
    3f88:	00000004 	sllv	zero,zero,zero
    3f8c:	00000508 	0x508
    3f90:	725f5f2a 	s16ldd	xr12,s2,-82,ptn3
    3f94:	81c30100 	lb	v1,256(t6)
    3f98:	ad000000 	sw	zero,0(t0)
    3f9c:	00000017 	0x17
    3fa0:	001b0c29 	0x1b0c29
    3fa4:	00001880 	sll	v1,zero,0x2
    3fa8:	00055a00 	sll	t3,a1,0x8
    3fac:	72732a00 	0x72732a00
    3fb0:	81c50100 	lb	a1,256(t6)
    3fb4:	c0000000 	ll	zero,0(zero)
    3fb8:	29000017 	slti	zero,t0,23
    3fbc:	80001b0c 	lb	zero,6924(zero)
    3fc0:	00000004 	sllv	zero,zero,zero
    3fc4:	00000540 	sll	zero,zero,0x15
    3fc8:	725f5f2a 	s16ldd	xr12,s2,-82,ptn3
    3fcc:	81c50100 	lb	a1,256(t6)
    3fd0:	df000000 	ldc3	$0,0(t8)
    3fd4:	00000017 	0x17
    3fd8:	001b182b 	sltu	v1,zero,k1
    3fdc:	00000480 	sll	zero,zero,0x12
    3fe0:	5f5f2a00 	0x5f5f2a00
    3fe4:	c8010072 	lwc2	$1,114(zero)
    3fe8:	00000081 	0x81
    3fec:	000017c0 	sll	v0,zero,0x1f
    3ff0:	0c200000 	jal	800000 <__memory_size+0x7e0800>
    3ff4:	ad800019 	sw	zero,25(t4)
    3ff8:	6d000003 	0x6d000003
    3ffc:	21000005 	addi	zero,t0,5
    4000:	30015601 	andi	at,zero,0x5601
    4004:	193c2c00 	0x193c2c00
    4008:	0b208000 	j	c820000 <__memory_size+0xc800800>
    400c:	9c2c0000 	0x9c2c0000
    4010:	20800019 	addi	zero,a0,25
    4014:	2d00000b 	sltiu	zero,t0,11
    4018:	800019ec 	lb	zero,6636(zero)
    401c:	00000b3f 	0xb3f
    4020:	00000594 	0x594
    4024:	03540121 	0x3540121
    4028:	005401f3 	tltu	v0,s4,0x7
    402c:	001a0c2c 	0x1a0c2c
    4030:	000b5580 	sll	t2,t3,0x16
    4034:	1a302d00 	0x1a302d00
    4038:	0b618000 	j	d860000 <__memory_size+0xd840800>
    403c:	05b20000 	bltzall	t5,4040 <__isr_vec_space+0x4020>
    4040:	01210000 	0x1210000
    4044:	01f30354 	0x1f30354
    4048:	20200054 	addi	zero,at,84
    404c:	ad80001c 	sw	zero,28(t4)
    4050:	c9000003 	lwc2	$0,3(t0)
    4054:	21000005 	addi	zero,t0,5
    4058:	03055601 	0x3055601
    405c:	800028c4 	lb	zero,10436(zero)
    4060:	1c3c2000 	0x1c3c2000
    4064:	03ad8000 	0x3ad8000
    4068:	05ee0000 	tnei	t7,0
    406c:	01210000 	0x1210000
    4070:	f8030556 	sdc2	$3,1366(zero)
    4074:	21800028 	addi	zero,t4,40
    4078:	30015501 	andi	at,zero,0x5501
    407c:	05540121 	0x5540121
    4080:	0028f003 	0x28f003
    4084:	50200080 	beqzl	at,4288 <__isr_vec_space+0x4268>
    4088:	ad80001c 	sw	zero,28(t4)
    408c:	0e000003 	jal	800000c <__memory_size+0x7fe080c>
    4090:	21000006 	addi	zero,t0,6
    4094:	03055601 	0x3055601
    4098:	800028f8 	lb	zero,10488(zero)
    409c:	05540121 	0x5540121
    40a0:	0028fc03 	0x28fc03
    40a4:	64200080 	0x64200080
    40a8:	ad80001c 	sw	zero,28(t4)
    40ac:	2e000003 	sltiu	zero,s0,3
    40b0:	21000006 	addi	zero,t0,6
    40b4:	03055601 	0x3055601
    40b8:	800028f8 	lb	zero,10488(zero)
    40bc:	05540121 	0x5540121
    40c0:	00290403 	0x290403
    40c4:	78200080 	andi.b	$w2,$w0,0x20
    40c8:	ad80001c 	sw	zero,28(t4)
    40cc:	4e000003 	c3	0x3
    40d0:	21000006 	addi	zero,t0,6
    40d4:	03055601 	0x3055601
    40d8:	800028c4 	lb	zero,10436(zero)
    40dc:	05540121 	0x5540121
    40e0:	00290c03 	0x290c03
    40e4:	8c200080 	lw	zero,128(at)
    40e8:	ad80001c 	sw	zero,28(t4)
    40ec:	6e000003 	0x6e000003
    40f0:	21000006 	addi	zero,t0,6
    40f4:	03055601 	0x3055601
    40f8:	800028f8 	lb	zero,10488(zero)
    40fc:	05540121 	0x5540121
    4100:	00291403 	0x291403
    4104:	a0200080 	sb	zero,128(at)
    4108:	ad80001c 	sw	zero,28(t4)
    410c:	8e000003 	lw	zero,3(s0)
    4110:	21000006 	addi	zero,t0,6
    4114:	03055601 	0x3055601
    4118:	800028f8 	lb	zero,10488(zero)
    411c:	05540121 	0x5540121
    4120:	00291c03 	0x291c03
    4124:	b4200080 	0xb4200080
    4128:	ad80001c 	sw	zero,28(t4)
    412c:	ae000003 	sw	zero,3(s0)
    4130:	21000006 	addi	zero,t0,6
    4134:	03055601 	0x3055601
    4138:	800028f8 	lb	zero,10488(zero)
    413c:	05540121 	0x5540121
    4140:	00292403 	0x292403
    4144:	c8200080 	lwc2	$0,128(at)
    4148:	ad80001c 	sw	zero,28(t4)
    414c:	ce000003 	pref	0x0,3(s0)
    4150:	21000006 	addi	zero,t0,6
    4154:	03055601 	0x3055601
    4158:	800028c4 	lb	zero,10436(zero)
    415c:	05540121 	0x5540121
    4160:	00292c03 	0x292c03
    4164:	dc200080 	ldc3	$0,128(at)
    4168:	ad80001c 	sw	zero,28(t4)
    416c:	ee000003 	swc3	$0,3(s0)
    4170:	21000006 	addi	zero,t0,6
    4174:	03055601 	0x3055601
    4178:	800028f8 	lb	zero,10488(zero)
    417c:	05540121 	0x5540121
    4180:	00293403 	0x293403
    4184:	f0200080 	0xf0200080
    4188:	ad80001c 	sw	zero,28(t4)
    418c:	0e000003 	jal	800000c <__memory_size+0x7fe080c>
    4190:	21000007 	addi	zero,t0,7
    4194:	03055601 	0x3055601
    4198:	800028f8 	lb	zero,10488(zero)
    419c:	05540121 	0x5540121
    41a0:	00293c03 	0x293c03
    41a4:	04200080 	bltz	at,43a8 <__isr_vec_space+0x4388>
    41a8:	ad80001d 	sw	zero,29(t4)
    41ac:	2e000003 	sltiu	zero,s0,3
    41b0:	21000007 	addi	zero,t0,7
    41b4:	03055601 	0x3055601
    41b8:	800028f8 	lb	zero,10488(zero)
    41bc:	05540121 	0x5540121
    41c0:	00294403 	0x294403
    41c4:	18200080 	blez	at,43c8 <__isr_vec_space+0x43a8>
    41c8:	ad80001d 	sw	zero,29(t4)
    41cc:	4e000003 	c3	0x3
    41d0:	21000007 	addi	zero,t0,7
    41d4:	03055601 	0x3055601
    41d8:	800028c4 	lb	zero,10436(zero)
    41dc:	05540121 	0x5540121
    41e0:	00294c03 	0x294c03
    41e4:	2c200080 	sltiu	zero,at,128
    41e8:	ad80001d 	sw	zero,29(t4)
    41ec:	6e000003 	0x6e000003
    41f0:	21000007 	addi	zero,t0,7
    41f4:	03055601 	0x3055601
    41f8:	800028f8 	lb	zero,10488(zero)
    41fc:	05540121 	0x5540121
    4200:	00295403 	0x295403
    4204:	40200080 	0x40200080
    4208:	ad80001d 	sw	zero,29(t4)
    420c:	8e000003 	lw	zero,3(s0)
    4210:	21000007 	addi	zero,t0,7
    4214:	03055601 	0x3055601
    4218:	800028f8 	lb	zero,10488(zero)
    421c:	05540121 	0x5540121
    4220:	00295c03 	0x295c03
    4224:	54200080 	bnezl	at,4428 <__isr_vec_space+0x4408>
    4228:	ad80001d 	sw	zero,29(t4)
    422c:	ae000003 	sw	zero,3(s0)
    4230:	21000007 	addi	zero,t0,7
    4234:	03055601 	0x3055601
    4238:	800028f8 	lb	zero,10488(zero)
    423c:	05540121 	0x5540121
    4240:	00296403 	0x296403
    4244:	68200080 	0x68200080
    4248:	ad80001d 	sw	zero,29(t4)
    424c:	ce000003 	pref	0x0,3(s0)
    4250:	21000007 	addi	zero,t0,7
    4254:	03055601 	0x3055601
    4258:	800028c4 	lb	zero,10436(zero)
    425c:	05540121 	0x5540121
    4260:	00296c03 	0x296c03
    4264:	7c200080 	ext	zero,at,0x2,0x1
    4268:	ad80001d 	sw	zero,29(t4)
    426c:	ee000003 	swc3	$0,3(s0)
    4270:	21000007 	addi	zero,t0,7
    4274:	03055601 	0x3055601
    4278:	800028f8 	lb	zero,10488(zero)
    427c:	05540121 	0x5540121
    4280:	00297403 	0x297403
    4284:	90200080 	lbu	zero,128(at)
    4288:	ad80001d 	sw	zero,29(t4)
    428c:	0e000003 	jal	800000c <__memory_size+0x7fe080c>
    4290:	21000008 	addi	zero,t0,8
    4294:	03055601 	0x3055601
    4298:	800028f8 	lb	zero,10488(zero)
    429c:	05540121 	0x5540121
    42a0:	00297c03 	0x297c03
    42a4:	a4200080 	sh	zero,128(at)
    42a8:	ad80001d 	sw	zero,29(t4)
    42ac:	2e000003 	sltiu	zero,s0,3
    42b0:	21000008 	addi	zero,t0,8
    42b4:	03055601 	0x3055601
    42b8:	800028f8 	lb	zero,10488(zero)
    42bc:	05540121 	0x5540121
    42c0:	00298403 	0x298403
    42c4:	b8200080 	swr	zero,128(at)
    42c8:	ad80001d 	sw	zero,29(t4)
    42cc:	4e000003 	c3	0x3
    42d0:	21000008 	addi	zero,t0,8
    42d4:	03055601 	0x3055601
    42d8:	800028c4 	lb	zero,10436(zero)
    42dc:	05540121 	0x5540121
    42e0:	00298c03 	0x298c03
    42e4:	cc200080 	pref	0x0,128(at)
    42e8:	ad80001d 	sw	zero,29(t4)
    42ec:	6e000003 	0x6e000003
    42f0:	21000008 	addi	zero,t0,8
    42f4:	03055601 	0x3055601
    42f8:	800028f8 	lb	zero,10488(zero)
    42fc:	05540121 	0x5540121
    4300:	00299403 	0x299403
    4304:	e0200080 	sc	zero,128(at)
    4308:	ad80001d 	sw	zero,29(t4)
    430c:	8e000003 	lw	zero,3(s0)
    4310:	21000008 	addi	zero,t0,8
    4314:	03055601 	0x3055601
    4318:	800028f8 	lb	zero,10488(zero)
    431c:	05540121 	0x5540121
    4320:	00299c03 	0x299c03
    4324:	f4200080 	sdc1	$f0,128(at)
    4328:	ad80001d 	sw	zero,29(t4)
    432c:	ae000003 	sw	zero,3(s0)
    4330:	21000008 	addi	zero,t0,8
    4334:	03055601 	0x3055601
    4338:	800028f8 	lb	zero,10488(zero)
    433c:	05540121 	0x5540121
    4340:	0029a403 	0x29a403
    4344:	08200080 	j	800200 <__memory_size+0x7e0a00>
    4348:	ad80001e 	sw	zero,30(t4)
    434c:	ce000003 	pref	0x0,3(s0)
    4350:	21000008 	addi	zero,t0,8
    4354:	03055601 	0x3055601
    4358:	800028c4 	lb	zero,10436(zero)
    435c:	05540121 	0x5540121
    4360:	0029ac03 	0x29ac03
    4364:	1c200080 	bgtz	at,4568 <__isr_vec_space+0x4548>
    4368:	ad80001e 	sw	zero,30(t4)
    436c:	ee000003 	swc3	$0,3(s0)
    4370:	21000008 	addi	zero,t0,8
    4374:	03055601 	0x3055601
    4378:	800028f8 	lb	zero,10488(zero)
    437c:	05540121 	0x5540121
    4380:	0029b403 	0x29b403
    4384:	30200080 	andi	zero,at,0x80
    4388:	ad80001e 	sw	zero,30(t4)
    438c:	0e000003 	jal	800000c <__memory_size+0x7fe080c>
    4390:	21000009 	addi	zero,t0,9
    4394:	03055601 	0x3055601
    4398:	800028f8 	lb	zero,10488(zero)
    439c:	05540121 	0x5540121
    43a0:	0029bc03 	0x29bc03
    43a4:	44200080 	0x44200080
    43a8:	ad80001e 	sw	zero,30(t4)
    43ac:	2e000003 	sltiu	zero,s0,3
    43b0:	21000009 	addi	zero,t0,9
    43b4:	03055601 	0x3055601
    43b8:	800028f8 	lb	zero,10488(zero)
    43bc:	05540121 	0x5540121
    43c0:	0029c403 	0x29c403
    43c4:	58200080 	blezl	at,45c8 <__isr_vec_space+0x45a8>
    43c8:	ad80001e 	sw	zero,30(t4)
    43cc:	4e000003 	c3	0x3
    43d0:	21000009 	addi	zero,t0,9
    43d4:	03055601 	0x3055601
    43d8:	800028c4 	lb	zero,10436(zero)
    43dc:	05540121 	0x5540121
    43e0:	0029cc03 	0x29cc03
    43e4:	6c200080 	0x6c200080
    43e8:	ad80001e 	sw	zero,30(t4)
    43ec:	6e000003 	0x6e000003
    43f0:	21000009 	addi	zero,t0,9
    43f4:	03055601 	0x3055601
    43f8:	800028f8 	lb	zero,10488(zero)
    43fc:	05540121 	0x5540121
    4400:	0029d403 	0x29d403
    4404:	80200080 	lb	zero,128(at)
    4408:	ad80001e 	sw	zero,30(t4)
    440c:	8e000003 	lw	zero,3(s0)
    4410:	21000009 	addi	zero,t0,9
    4414:	03055601 	0x3055601
    4418:	800028f8 	lb	zero,10488(zero)
    441c:	05540121 	0x5540121
    4420:	0029dc03 	0x29dc03
    4424:	94200080 	lhu	zero,128(at)
    4428:	ad80001e 	sw	zero,30(t4)
    442c:	ae000003 	sw	zero,3(s0)
    4430:	21000009 	addi	zero,t0,9
    4434:	03055601 	0x3055601
    4438:	800028f8 	lb	zero,10488(zero)
    443c:	05540121 	0x5540121
    4440:	0029e403 	0x29e403
    4444:	a8200080 	swl	zero,128(at)
    4448:	ad80001e 	sw	zero,30(t4)
    444c:	ce000003 	pref	0x0,3(s0)
    4450:	21000009 	addi	zero,t0,9
    4454:	03055601 	0x3055601
    4458:	800028c4 	lb	zero,10436(zero)
    445c:	05540121 	0x5540121
    4460:	0029ec03 	0x29ec03
    4464:	bc200080 	cache	0x0,128(at)
    4468:	ad80001e 	sw	zero,30(t4)
    446c:	ee000003 	swc3	$0,3(s0)
    4470:	21000009 	addi	zero,t0,9
    4474:	03055601 	0x3055601
    4478:	800028f8 	lb	zero,10488(zero)
    447c:	05540121 	0x5540121
    4480:	0029f403 	0x29f403
    4484:	d0200080 	0xd0200080
    4488:	ad80001e 	sw	zero,30(t4)
    448c:	0e000003 	jal	800000c <__memory_size+0x7fe080c>
    4490:	2100000a 	addi	zero,t0,10
    4494:	03055601 	0x3055601
    4498:	800028c4 	lb	zero,10436(zero)
    449c:	05540121 	0x5540121
    44a0:	0029fc03 	0x29fc03
    44a4:	e4200080 	swc1	$f0,128(at)
    44a8:	ad80001e 	sw	zero,30(t4)
    44ac:	2e000003 	sltiu	zero,s0,3
    44b0:	2100000a 	addi	zero,t0,10
    44b4:	03055601 	0x3055601
    44b8:	800028c4 	lb	zero,10436(zero)
    44bc:	05540121 	0x5540121
    44c0:	002a0403 	0x2a0403
    44c4:	f8200080 	sdc2	$0,128(at)
    44c8:	ad80001e 	sw	zero,30(t4)
    44cc:	4e000003 	c3	0x3
    44d0:	2100000a 	addi	zero,t0,10
    44d4:	03055601 	0x3055601
    44d8:	800028c4 	lb	zero,10436(zero)
    44dc:	05540121 	0x5540121
    44e0:	002a1003 	0x2a1003
    44e4:	0c200080 	jal	800200 <__memory_size+0x7e0a00>
    44e8:	d480001f 	ldc1	$f0,31(a0)
    44ec:	6e000002 	0x6e000002
    44f0:	2100000a 	addi	zero,t0,10
    44f4:	03055601 	0x3055601
    44f8:	800028c4 	lb	zero,10436(zero)
    44fc:	05540121 	0x5540121
    4500:	002a1c03 	0x2a1c03
    4504:	20200080 	addi	zero,at,128
    4508:	d480001f 	ldc1	$f0,31(a0)
    450c:	8e000002 	lw	zero,2(s0)
    4510:	2100000a 	addi	zero,t0,10
    4514:	03055601 	0x3055601
    4518:	800028c4 	lb	zero,10436(zero)
    451c:	05540121 	0x5540121
    4520:	002a2803 	0x2a2803
    4524:	34200080 	ori	zero,at,0x80
    4528:	d480001f 	ldc1	$f0,31(a0)
    452c:	ae000002 	sw	zero,2(s0)
    4530:	2100000a 	addi	zero,t0,10
    4534:	03055601 	0x3055601
    4538:	800028c4 	lb	zero,10436(zero)
    453c:	05540121 	0x5540121
    4540:	002a3403 	0x2a3403
    4544:	48200080 	0x48200080
    4548:	d480001f 	ldc1	$f0,31(a0)
    454c:	ce000002 	pref	0x0,2(s0)
    4550:	2100000a 	addi	zero,t0,10
    4554:	03055601 	0x3055601
    4558:	800028c4 	lb	zero,10436(zero)
    455c:	05540121 	0x5540121
    4560:	002a4003 	0x2a4003
    4564:	54220080 	bnel	at,v0,4768 <__isr_vec_space+0x4748>
    4568:	7780001f 	jalx	e00007c <__memory_size+0xdfe087c>
    456c:	2100000b 	addi	zero,t0,11
    4570:	30015501 	andi	at,zero,0x5501
    4574:	02540121 	0x2540121
    4578:	00000080 	sll	zero,zero,0x2
    457c:	01aa0405 	0x1aa0405
    4580:	8f0b0000 	lw	t3,0(t8)
    4584:	f5000000 	sdc1	$f0,0(t0)
    4588:	2e00000a 	sltiu	zero,s0,10
    458c:	0b392f00 	j	ce4bc00 <__memory_size+0xce2c400>
    4590:	29010000 	slti	at,t0,0
    4594:	00000aea 	0xaea
    4598:	000cb62f 	0xcb62f
    459c:	ea2a0100 	swc2	$10,256(s1)
    45a0:	3000000a 	andi	zero,zero,0xa
    45a4:	00000c7e 	0xc7e
    45a8:	00212107 	0x212107
    45ac:	0b200000 	j	c800000 <__memory_size+0xc7e0800>
    45b0:	96310000 	lhu	s1,0(s1)
    45b4:	00000000 	nop
    45b8:	0006c530 	tge	zero,a2,0x314
    45bc:	33bd0800 	andi	sp,sp,0x800
    45c0:	3f000000 	0x3f000000
    45c4:	3100000b 	andi	zero,t0,0xb
    45c8:	00000033 	tltu	zero,zero
    45cc:	0000a131 	tgeu	zero,zero,0x284
    45d0:	00213100 	0x213100
    45d4:	32000000 	andi	zero,s0,0x0
    45d8:	00000c17 	0xc17
    45dc:	33019f06 	andi	at,t8,0x9f06
    45e0:	55000000 	bnezl	t0,45e4 <__isr_vec_space+0x45c4>
    45e4:	3100000b 	andi	zero,t0,0xb
    45e8:	00000ae4 	0xae4
    45ec:	0b593300 	j	d64cc00 <__memory_size+0xd62d400>
    45f0:	9d060000 	0x9d060000
    45f4:	00003301 	0x3301
    45f8:	0c293200 	jal	a4c800 <__memory_size+0xa2d000>
    45fc:	90060000 	lbu	a2,0(zero)
    4600:	00003301 	0x3301
    4604:	000b7700 	sll	t6,t3,0x1c
    4608:	0ae43100 	j	b90c400 <__memory_size+0xb8ecc00>
    460c:	34000000 	li	zero,0x0
    4610:	00000ca6 	0xca6
    4614:	c0019406 	ll	at,-27642(zero)
    4618:	31000000 	andi	zero,t0,0x0
    461c:	00000ae4 	0xae4
    4620:	0000c031 	tgeu	zero,zero,0x300
    4624:	f1000000 	0xf1000000
    4628:	02000000 	0x2000000
    462c:	00144100 	sll	t0,s4,0x4
    4630:	5e010400 	0x5e010400
    4634:	74000015 	jalx	54 <__isr_vec_space+0x34>
    4638:	2480001f 	addiu	zero,a0,31
    463c:	2f800020 	sltiu	zero,gp,32
    4640:	61726373 	0x61726373
    4644:	2f686374 	sltiu	t0,k1,25460
    4648:	2f66706d 	sltiu	a2,k1,28781
    464c:	73626f6a 	s16ldd	xr13,k1,310,ptn0
    4650:	3334352f 	andi	s4,t9,0x352f
    4654:	342f3539 	ori	t7,at,0x3539
    4658:	34393038 	ori	t9,at,0x3038
    465c:	3034322f 	andi	s4,at,0x322f
    4660:	2f383931 	sltiu	t8,t9,14641
    4664:	72616873 	d32sar	xr1,xr10,xr5,xr8,9
    4668:	672f6465 	0x672f6465
    466c:	6c2f6363 	0x6c2f6363
    4670:	6c676269 	0x6c676269
    4674:	2f73736f 	sltiu	s3,k1,29551
    4678:	7370696d 	s16sdi	xr5,k1,52,
    467c:	6c61682f 	0x6c61682f
    4680:	70696d2f 	0x70696d2f
    4684:	78655f73 	0x78655f73
    4688:	5f747063 	0x5f747063
    468c:	69676572 	0x69676572
    4690:	72657473 	d32sar	xr1,xr13,xr5,xr9,9
    4694:	2f00532e 	sltiu	zero,t8,21294
    4698:	61726373 	0x61726373
    469c:	2f686374 	sltiu	t0,k1,25460
    46a0:	2f66706d 	sltiu	a2,k1,28781
    46a4:	73626f6a 	s16ldd	xr13,k1,310,ptn0
    46a8:	3334352f 	andi	s4,t9,0x352f
    46ac:	342f3539 	ori	t7,at,0x3539
    46b0:	34393038 	ori	t9,at,0x3038
    46b4:	3034322f 	andi	s4,at,0x322f
    46b8:	2f323632 	sltiu	s2,t9,13874
    46bc:	6b726f77 	0x6b726f77
    46c0:	6a626f2f 	0x6a626f2f
    46c4:	70696d2d 	s16sdi	xr4,v1,182,ptn1
    46c8:	746d2d73 	jalx	1b4b5cc <__memory_size+0x1b2bdcc>
    46cc:	6c652d69 	0x6c652d69
    46d0:	63672f66 	0x63672f66
    46d4:	696d2f63 	0x696d2f63
    46d8:	6d2d7370 	0x6d2d7370
    46dc:	652d6974 	0x652d6974
    46e0:	6d2f666c 	0x6d2f666c
    46e4:	65737069 	0x65737069
    46e8:	32722d6c 	andi	s2,s3,0x2d6c
    46ec:	666f732d 	0x666f732d
    46f0:	656e2d74 	0x656e2d74
    46f4:	62696c77 	0x62696c77
    46f8:	62696c2f 	0x62696c2f
    46fc:	62696c2f 	0x62696c2f
    4700:	736f6c67 	0x736f6c67
    4704:	696d2f73 	0x696d2f73
    4708:	47007370 	bz.b	$w0,214cc <__memory_size+0x1ccc>
    470c:	4120554e 	0x4120554e
    4710:	2e322053 	sltiu	s2,s1,8275
    4714:	392e3432 	xori	t6,t1,0x3432
    4718:	80010030 	lb	at,48(zero)
    471c:	000000ed 	0xed
    4720:	14550002 	bne	v0,s5,472c <__isr_vec_space+0x470c>
    4724:	01040000 	0x1040000
    4728:	00001608 	0x1608
    472c:	80002024 	lb	zero,8228(zero)
    4730:	800022a0 	lb	zero,8864(zero)
    4734:	7263732f 	0x7263732f
    4738:	68637461 	0x68637461
    473c:	66706d2f 	0x66706d2f
    4740:	626f6a2f 	0x626f6a2f
    4744:	34352f73 	ori	s5,at,0x2f73
    4748:	2f353933 	sltiu	s5,t9,14643
    474c:	39303834 	xori	s0,t1,0x3834
    4750:	34322f34 	ori	s2,at,0x2f34
    4754:	38393130 	xori	t9,at,0x3130
    4758:	6168732f 	0x6168732f
    475c:	2f646572 	sltiu	a0,k1,25970
    4760:	2f636367 	sltiu	v1,k1,25447
    4764:	6762696c 	0x6762696c
    4768:	73736f6c 	s16ldi	xr13,k1,438,ptn2
    476c:	70696d2f 	0x70696d2f
    4770:	61682f73 	0x61682f73
    4774:	696d2f6c 	0x696d2f6c
    4778:	655f7370 	0x655f7370
    477c:	74706378 	jalx	1c18de0 <__memory_size+0x1bf95e0>
    4780:	6f6f625f 	0x6f6f625f
    4784:	00532e74 	teq	v0,s3,0xb9
    4788:	7263732f 	0x7263732f
    478c:	68637461 	0x68637461
    4790:	66706d2f 	0x66706d2f
    4794:	626f6a2f 	0x626f6a2f
    4798:	34352f73 	ori	s5,at,0x2f73
    479c:	2f353933 	sltiu	s5,t9,14643
    47a0:	39303834 	xori	s0,t1,0x3834
    47a4:	34322f34 	ori	s2,at,0x2f34
    47a8:	32363230 	andi	s6,s1,0x3230
    47ac:	726f772f 	0x726f772f
    47b0:	626f2f6b 	0x626f2f6b
    47b4:	696d2d6a 	0x696d2d6a
    47b8:	6d2d7370 	0x6d2d7370
    47bc:	652d6974 	0x652d6974
    47c0:	672f666c 	0x672f666c
    47c4:	6d2f6363 	0x6d2f6363
    47c8:	2d737069 	sltiu	s3,t3,28777
    47cc:	2d69746d 	sltiu	t1,t3,29805
    47d0:	2f666c65 	sltiu	a2,k1,27749
    47d4:	7370696d 	s16sdi	xr5,k1,52,
    47d8:	722d6c65 	s8sdi	xr1,s1,91,ptn3
    47dc:	6f732d32 	0x6f732d32
    47e0:	6e2d7466 	0x6e2d7466
    47e4:	696c7765 	0x696c7765
    47e8:	696c2f62 	0x696c2f62
    47ec:	696c2f62 	0x696c2f62
    47f0:	6f6c6762 	0x6f6c6762
    47f4:	6d2f7373 	0x6d2f7373
    47f8:	00737069 	0x737069
    47fc:	20554e47 	addi	s5,v0,20039
    4800:	32205341 	andi	zero,s1,0x5341
    4804:	2e34322e 	sltiu	s4,s1,12846
    4808:	01003039 	0x1003039
    480c:	0000ec80 	sll	sp,zero,0x12
    4810:	69000200 	0x69000200
    4814:	04000014 	bltz	zero,4868 <__isr_vec_space+0x4848>
    4818:	00172301 	0x172301
    481c:	00020000 	sll	zero,v0,0x0
    4820:	00031880 	sll	v1,v1,0x2
    4824:	63732f80 	0x63732f80
    4828:	63746172 	0x63746172
    482c:	706d2f68 	lxhu	a1,v1,t5,3
    4830:	6f6a2f66 	0x6f6a2f66
    4834:	352f7362 	ori	t7,t1,0x7362
    4838:	35393334 	ori	t9,t1,0x3334
    483c:	3038342f 	andi	t8,at,0x342f
    4840:	322f3439 	andi	t7,s1,0x3439
    4844:	39313034 	xori	s1,t1,0x3034
    4848:	68732f38 	0x68732f38
    484c:	64657261 	0x64657261
    4850:	6363672f 	0x6363672f
    4854:	62696c2f 	0x62696c2f
    4858:	736f6c67 	0x736f6c67
    485c:	696d2f73 	0x696d2f73
    4860:	682f7370 	0x682f7370
    4864:	6d2f6c61 	0x6d2f6c61
    4868:	5f737069 	0x5f737069
    486c:	70637865 	s8sdi	xr1,v1,-34,ptn0
    4870:	73695f74 	q16sll	xr13,xr7,xr5,xr10,13
    4874:	00532e72 	tlt	v0,s3,0xb9
    4878:	7263732f 	0x7263732f
    487c:	68637461 	0x68637461
    4880:	66706d2f 	0x66706d2f
    4884:	626f6a2f 	0x626f6a2f
    4888:	34352f73 	ori	s5,at,0x2f73
    488c:	2f353933 	sltiu	s5,t9,14643
    4890:	39303834 	xori	s0,t1,0x3834
    4894:	34322f34 	ori	s2,at,0x2f34
    4898:	32363230 	andi	s6,s1,0x3230
    489c:	726f772f 	0x726f772f
    48a0:	626f2f6b 	0x626f2f6b
    48a4:	696d2d6a 	0x696d2d6a
    48a8:	6d2d7370 	0x6d2d7370
    48ac:	652d6974 	0x652d6974
    48b0:	672f666c 	0x672f666c
    48b4:	6d2f6363 	0x6d2f6363
    48b8:	2d737069 	sltiu	s3,t3,28777
    48bc:	2d69746d 	sltiu	t1,t3,29805
    48c0:	2f666c65 	sltiu	a2,k1,27749
    48c4:	7370696d 	s16sdi	xr5,k1,52,
    48c8:	722d6c65 	s8sdi	xr1,s1,91,ptn3
    48cc:	6f732d32 	0x6f732d32
    48d0:	6e2d7466 	0x6e2d7466
    48d4:	696c7765 	0x696c7765
    48d8:	696c2f62 	0x696c2f62
    48dc:	696c2f62 	0x696c2f62
    48e0:	6f6c6762 	0x6f6c6762
    48e4:	6d2f7373 	0x6d2f7373
    48e8:	00737069 	0x737069
    48ec:	20554e47 	addi	s5,v0,20039
    48f0:	32205341 	andi	zero,s1,0x5341
    48f4:	2e34322e 	sltiu	s4,s1,12846
    48f8:	01003039 	0x1003039
    48fc:	00006a80 	sll	t5,zero,0xa
    4900:	7d000400 	ext	zero,t0,0x10,0x1
    4904:	04000014 	bltz	zero,4958 <__isr_vec_space+0x4938>
    4908:	00046d01 	0x46d01
    490c:	0d3f0100 	jal	4fc0400 <__memory_size+0x4fa0c00>
    4910:	17bf0000 	bne	sp,ra,4914 <__isr_vec_space+0x48f4>
    4914:	04020000 	bltzl	zero,4918 <__isr_vec_space+0x48f8>
    4918:	00000505 	0x505
    491c:	07040200 	0x7040200
    4920:	00000071 	tgeu	zero,zero,0x1
    4924:	69050403 	0x69050403
    4928:	0200746e 	0x200746e
    492c:	008d0601 	0x8d0601
    4930:	01020000 	0x1020000
    4934:	00008b08 	0x8b08
    4938:	05020200 	bltzl	t0,513c <__isr_vec_space+0x511c>
    493c:	000000d9 	0xd9
    4940:	ad070202 	sw	a3,514(t0)
    4944:	02000000 	0x2000000
    4948:	00000508 	0x508
    494c:	08020000 	j	80000 <__memory_size+0x60800>
    4950:	00006c07 	0x6c07
    4954:	07040200 	0x7040200
    4958:	00000076 	tne	zero,zero,0x1
    495c:	51070402 	beql	t0,a3,5968 <__isr_vec_space+0x5948>
    4960:	02000001 	movf	zero,s0,$fcc0
    4964:	00940801 	movf	at,a0,$fcc5
    4968:	7a000000 	nori.b	$w0,$w0,0x0
    496c:	04000001 	bltz	zero,4974 <__isr_vec_space+0x4954>
    4970:	0014a100 	sll	s4,s4,0x4
    4974:	9c010400 	0x9c010400
    4978:	0100000a 	movz	zero,t0,zero
    497c:	00000da0 	0xda0
    4980:	800022bc 	lb	zero,8892(zero)
    4984:	00000050 	0x50
    4988:	000017dc 	0x17dc
    498c:	8d060102 	lw	a2,258(t0)
    4990:	02000000 	0x2000000
    4994:	008b0801 	0x8b0801
    4998:	02020000 	0x2020000
    499c:	0000d905 	0xd905
    49a0:	07020200 	bltzl	t8,51a4 <__isr_vec_space+0x5184>
    49a4:	000000ad 	0xad
    49a8:	000b4a03 	sra	t1,t3,0x8
    49ac:	48370200 	0x48370200
    49b0:	02000000 	0x2000000
    49b4:	00050504 	0x50504
    49b8:	6e030000 	0x6e030000
    49bc:	0200000c 	syscall	0x80000
    49c0:	00005a38 	0x5a38
    49c4:	07040200 	0x7040200
    49c8:	00000071 	tgeu	zero,zero,0x1
    49cc:	00050802 	srl	at,a1,0x0
    49d0:	02000000 	0x2000000
    49d4:	006c0708 	0x6c0708
    49d8:	4c030000 	lwxc1	$f0,v1(zero)
    49dc:	0300000b 	movn	zero,t8,zero
    49e0:	00003d41 	0x3d41
    49e4:	0c700300 	jal	1c00c00 <__memory_size+0x1be1400>
    49e8:	42030000 	c0	0x30000
    49ec:	0000004f 	sync	0x1
    49f0:	69050404 	0x69050404
    49f4:	0200746e 	0x200746e
    49f8:	00760704 	0x760704
    49fc:	5f030000 	0x5f030000
    4a00:	04000001 	bltz	zero,4a08 <__isr_vec_space+0x49e8>
    4a04:	00005ad4 	0x5ad4
    4a08:	07040200 	0x7040200
    4a0c:	00000151 	0x151
    4a10:	94080102 	lhu	t0,258(zero)
    4a14:	05000000 	bltz	t0,4a18 <__isr_vec_space+0x49f8>
    4a18:	000006c5 	0x6c5
    4a1c:	00853401 	0x853401
    4a20:	22bc0000 	addi	gp,s5,0
    4a24:	00508000 	0x508000
    4a28:	9c010000 	0x9c010000
    4a2c:	00000160 	0x160
    4a30:	00646606 	0x646606
    4a34:	00853401 	0x853401
    4a38:	17f20000 	bne	ra,s2,4a3c <__isr_vec_space+0x4a1c>
    4a3c:	62060000 	0x62060000
    4a40:	01006675 	0x1006675
    4a44:	00016034 	teq	zero,at,0x180
    4a48:	00181300 	sll	v0,t8,0xc
    4a4c:	08130700 	j	4c1c00 <__memory_size+0x4a2400>
    4a50:	34010000 	li	at,0x0
    4a54:	00000093 	0x93
    4a58:	00001834 	teq	zero,zero,0x60
    4a5c:	000b5408 	0xb5408
    4a60:	6f360100 	0x6f360100
    4a64:	01000000 	0x1000000
    4a68:	0d9b0854 	jal	66c2150 <__memory_size+0x66a2950>
    4a6c:	37010000 	ori	at,t8,0x0
    4a70:	00000160 	0x160
    4a74:	ee085501 	swc3	$8,21761(s0)
    4a78:	0100000d 	break	0x100
    4a7c:	00006f38 	0x6f38
    4a80:	09560100 	j	5580400 <__memory_size+0x5560c00>
    4a84:	0100706f 	0x100706f
    4a88:	00006f39 	0x6f39
    4a8c:	09690100 	j	5a40400 <__memory_size+0x5a20c00>
    4a90:	00746572 	tlt	v1,s4,0x195
    4a94:	006f3a01 	0x6f3a01
    4a98:	52010000 	beql	s0,at,4a9c <__isr_vec_space+0x4a7c>
    4a9c:	000d9108 	0xd9108
    4aa0:	6f3b0100 	0x6f3b0100
    4aa4:	01000000 	0x1000000
    4aa8:	22e40a53 	addi	a0,s7,2643
    4aac:	00148000 	sll	s0,s4,0x0
    4ab0:	fb080000 	sdc2	$8,0(t8)
    4ab4:	0100000d 	break	0x100
    4ab8:	00016747 	0x16747
    4abc:	70910200 	0x70910200
    4ac0:	0022f00b 	movn	s8,at,v0
    4ac4:	00016c80 	sll	t5,at,0x12
    4ac8:	0c000000 	jal	0 <hardware_exit_hook>
    4acc:	00016604 	0x16604
    4ad0:	7a0e0d00 	nori.b	$w20,$w1,0xe
    4ad4:	0f000000 	jal	c000000 <__memory_size+0xbfe0800>
    4ad8:	00000df3 	tltu	zero,zero,0x37
    4adc:	01770f05 	0x1770f05
    4ae0:	040c0000 	teqi	zero,0
    4ae4:	00000085 	lsa	zero,zero,zero,0x3
    4ae8:	0002ac00 	sll	s5,v0,0x10
    4aec:	6a000400 	0x6a000400
    4af0:	04000015 	bltz	zero,4b48 <__isr_vec_space+0x4b28>
    4af4:	000a9c01 	0xa9c01
    4af8:	0e050100 	jal	8140400 <__memory_size+0x8120c00>
    4afc:	230c0000 	addi	t4,t8,0
    4b00:	00148000 	sll	s0,s4,0x0
    4b04:	19bb0000 	0x19bb0000
    4b08:	01020000 	0x1020000
    4b0c:	00008d06 	0x8d06
    4b10:	08010200 	j	40800 <__memory_size+0x21000>
    4b14:	0000008b 	0x8b
    4b18:	d9050202 	ldc2	$5,514(t0)
    4b1c:	02000000 	0x2000000
    4b20:	00ad0702 	0xad0702
    4b24:	4a030000 	c2	0x30000
    4b28:	0200000b 	movn	zero,s0,zero
    4b2c:	00004837 	0x4837
    4b30:	05040200 	0x5040200
    4b34:	00000005 	lsa	zero,zero,zero,0x1
    4b38:	000c6e03 	sra	t5,t4,0x18
    4b3c:	5a380200 	0x5a380200
    4b40:	02000000 	0x2000000
    4b44:	00710704 	0x710704
    4b48:	08020000 	j	80000 <__memory_size+0x60800>
    4b4c:	00000005 	lsa	zero,zero,zero,0x1
    4b50:	07080200 	tgei	t8,512
    4b54:	0000006c 	0x6c
    4b58:	000b4c03 	sra	t1,t3,0x10
    4b5c:	3d410300 	0x3d410300
    4b60:	03000000 	0x3000000
    4b64:	00000c70 	tge	zero,zero,0x31
    4b68:	004f4203 	0x4f4203
    4b6c:	04040000 	0x4040000
    4b70:	746e6905 	jalx	1b9a414 <__memory_size+0x1b7ac14>
    4b74:	07040200 	0x7040200
    4b78:	00000076 	tne	zero,zero,0x1
    4b7c:	000ca005 	lsa	s4,zero,t4,0x1
    4b80:	03960400 	0x3960400
    4b84:	0000008c 	syscall	0x2
    4b88:	ec057c06 	swc3	$5,31750(zero)
    4b8c:	0000011c 	0x11c
    4b90:	00746107 	0x746107
    4b94:	0093ee05 	0x93ee05
    4b98:	07000000 	bltz	t8,4b9c <__isr_vec_space+0x4b7c>
    4b9c:	ef050076 	swc3	$5,118(t8)
    4ba0:	0000011c 	0x11c
    4ba4:	00610704 	0x610704
    4ba8:	0133f405 	0x133f405
    4bac:	070c0000 	teqi	t8,0
    4bb0:	f5050074 	sdc1	$f5,116(t0)
    4bb4:	00000143 	sra	zero,zero,0x5
    4bb8:	0073071c 	0x73071c
    4bbc:	0143f705 	0x143f705
    4bc0:	073c0000 	0x73c0000
    4bc4:	05003274 	bltz	t0,11598 <__isr_vec_space+0x11578>
    4bc8:	00011cf8 	0x11cf8
    4bcc:	6b075c00 	0x6b075c00
    4bd0:	1cf90500 	0x1cf90500
    4bd4:	64000001 	0x64000001
    4bd8:	00706707 	0x706707
    4bdc:	0093fa05 	0x93fa05
    4be0:	076c0000 	teqi	k1,0
    4be4:	05007073 	bltz	t0,20db4 <__memory_size+0x15b4>
    4be8:	000093fb 	0x93fb
    4bec:	66077000 	0x66077000
    4bf0:	fc050070 	sdc3	$5,112(zero)
    4bf4:	00000093 	0x93
    4bf8:	61720774 	0x61720774
    4bfc:	93fd0500 	lbu	sp,1280(ra)
    4c00:	78000000 	andi.b	$w0,$w0,0x0
    4c04:	00930800 	0x930800
    4c08:	012c0000 	0x12c0000
    4c0c:	2c090000 	sltiu	t1,zero,0
    4c10:	01000001 	movf	zero,t0,$fcc0
    4c14:	07040200 	0x7040200
    4c18:	00000151 	0x151
    4c1c:	00009308 	0x9308
    4c20:	00014300 	sll	t0,at,0xc
    4c24:	012c0900 	0x12c0900
    4c28:	00030000 	sll	zero,v1,0x0
    4c2c:	00009308 	0x9308
    4c30:	00015300 	sll	t2,at,0xc
    4c34:	012c0900 	0x12c0900
    4c38:	00070000 	sll	zero,a3,0x0
    4c3c:	ea057c0a 	swc2	$5,31754(s0)
    4c40:	0000016a 	0x16a
    4c44:	00009f0b 	0x9f0b
    4c48:	00720c00 	0x720c00
    4c4c:	016aff05 	0x16aff05
    4c50:	08000000 	j	0 <hardware_exit_hook>
    4c54:	00000093 	0x93
    4c58:	0000017a 	0x17a
    4c5c:	00012c09 	0x12c09
    4c60:	0d001e00 	jal	4007800 <__memory_size+0x3fe8000>
    4c64:	00000c8a 	0xc8a
    4c68:	00e805a0 	0xe805a0
    4c6c:	0e000002 	jal	8000008 <__memory_size+0x7fe0808>
    4c70:	00000153 	0x153
    4c74:	70650f00 	0x70650f00
    4c78:	02050063 	0x2050063
    4c7c:	00009301 	0x9301
    4c80:	90107c00 	lbu	s0,31744(zero)
    4c84:	0500000c 	bltz	t0,4cb8 <__isr_vec_space+0x4c98>
    4c88:	00930103 	0x930103
    4c8c:	0f800000 	jal	e000000 <__memory_size+0xdfe0800>
    4c90:	05006968 	bltz	t0,1f234 <__isr_vec_space+0x1f214>
    4c94:	00930104 	0x930104
    4c98:	0f840000 	jal	e100000 <__memory_size+0xe0e0800>
    4c9c:	05006f6c 	bltz	t0,20a50 <__memory_size+0x1250>
    4ca0:	00930105 	0x930105
    4ca4:	10880000 	beq	a0,t0,4ca8 <__isr_vec_space+0x4c88>
    4ca8:	00000c79 	0xc79
    4cac:	27010705 	addiu	at,t8,1797
    4cb0:	8c000002 	lw	zero,2(zero)
    4cb4:	0001e310 	0x1e310
    4cb8:	010a0500 	0x10a0500
    4cbc:	0000007a 	0x7a
    4cc0:	0c381090 	jal	e04240 <__memory_size+0xde4a40>
    4cc4:	0c050000 	jal	140000 <__memory_size+0x120800>
    4cc8:	00007a01 	0x7a01
    4ccc:	36109400 	ori	s0,s0,0x9400
    4cd0:	0500000d 	bltz	t0,4d08 <__isr_vec_space+0x4ce8>
    4cd4:	007a010d 	break	0x7a,0x4
    4cd8:	10980000 	beq	a0,t8,4cdc <__isr_vec_space+0x4cbc>
    4cdc:	00000d2c 	0xd2c
    4ce0:	7a010e05 	0x7a010e05
    4ce4:	9c000000 	0x9c000000
    4ce8:	0c661100 	jal	1984400 <__memory_size+0x1964c00>
    4cec:	05080000 	tgei	t0,0
    4cf0:	02270111 	0x2270111
    4cf4:	690f0000 	0x690f0000
    4cf8:	13050064 	beq	t8,a1,4e8c <__isr_vec_space+0x4e6c>
    4cfc:	00009301 	0x9301
    4d00:	c6100000 	lwc1	$f16,0(s0)
    4d04:	05000007 	bltz	t0,4d24 <__isr_vec_space+0x4d04>
    4d08:	02270114 	0x2270114
    4d0c:	00040000 	sll	zero,a0,0x0
    4d10:	02000412 	0x2000412
    4d14:	01020000 	0x1020000
    4d18:	00009408 	0x9408
    4d1c:	04080200 	tgei	zero,512
    4d20:	00000c59 	0xc59
    4d24:	99040402 	lwr	a0,1026(t0)
    4d28:	1300000c 	beqz	t8,4d5c <__isr_vec_space+0x4d3c>
    4d2c:	00000ca6 	0xca6
    4d30:	006f3401 	0x6f3401
    4d34:	230c0000 	addi	t4,t8,0
    4d38:	00148000 	sll	s0,s4,0x0
    4d3c:	9c010000 	0x9c010000
    4d40:	000002a9 	0x2a9
    4d44:	78746314 	sld.d	$w12,$w12[s4]
    4d48:	a9340100 	swl	s4,256(t1)
    4d4c:	01000002 	0x1000002
    4d50:	62611454 	0x62611454
    4d54:	34010069 	li	at,0x69
    4d58:	0000006f 	0x6f
    4d5c:	54155501 	bnel	zero,s5,1a164 <__isr_vec_space+0x1a144>
    4d60:	0100000b 	movn	zero,t0,zero
    4d64:	0002a936 	tne	zero,v0,0x2a4
    4d68:	15540100 	bne	t2,s4,516c <__isr_vec_space+0x514c>
    4d6c:	00000d9b 	0xd9b
    4d70:	006f3701 	0x6f3701
    4d74:	55010000 	bnel	t0,at,4d78 <__isr_vec_space+0x4d58>
    4d78:	00706f16 	0x706f16
    4d7c:	006f3801 	0x6f3801
    4d80:	69010000 	0x69010000
    4d84:	74657216 	jalx	195c858 <__memory_size+0x193d058>
    4d88:	6f390100 	0x6f390100
    4d8c:	01000000 	0x1000000
    4d90:	04120052 	bltzall	zero,4edc <__isr_vec_space+0x4ebc>
    4d94:	0000017a 	0x17a
    4d98:	0002b200 	sll	s6,v0,0x8
    4d9c:	92000400 	lbu	zero,1024(s0)
    4da0:	04000016 	bltz	zero,4dfc <__isr_vec_space+0x4ddc>
    4da4:	000a9c01 	0xa9c01
    4da8:	0e570100 	jal	95c0400 <__memory_size+0x95a0c00>
    4dac:	23200000 	addi	zero,t9,0
    4db0:	00448000 	0x448000
    4db4:	1b4f0000 	0x1b4f0000
    4db8:	04020000 	bltzl	zero,4dbc <__isr_vec_space+0x4d9c>
    4dbc:	00007107 	0x7107
    4dc0:	07040200 	0x7040200
    4dc4:	00000076 	tne	zero,zero,0x1
    4dc8:	6c070802 	0x6c070802
    4dcc:	03000000 	0x3000000
    4dd0:	00000ca0 	0xca0
    4dd4:	28039602 	slti	v1,zero,-27134
    4dd8:	04000000 	bltz	zero,4ddc <__isr_vec_space+0x4dbc>
    4ddc:	6e690504 	0x6e690504
    4de0:	01020074 	teq	t0,v0,0x1
    4de4:	00008d06 	0x8d06
    4de8:	08010200 	j	40800 <__memory_size+0x21000>
    4dec:	0000008b 	0x8b
    4df0:	d9050202 	ldc2	$5,514(t0)
    4df4:	02000000 	0x2000000
    4df8:	00ad0702 	0xad0702
    4dfc:	04020000 	bltzl	zero,4e00 <__isr_vec_space+0x4de0>
    4e00:	00000505 	0x505
    4e04:	0c6e0500 	jal	1b81400 <__memory_size+0x1b61c00>
    4e08:	38030000 	xori	v1,zero,0x0
    4e0c:	00000021 	move	zero,zero
    4e10:	00050802 	srl	at,a1,0x0
    4e14:	05000000 	bltz	t0,4e18 <__isr_vec_space+0x4df8>
    4e18:	00000c70 	tge	zero,zero,0x31
    4e1c:	006c4204 	0x6c4204
    4e20:	7c060000 	ext	a2,zero,0x0,0x1
    4e24:	0106ec05 	0x106ec05
    4e28:	61070000 	0x61070000
    4e2c:	ee050074 	swc3	$5,116(s0)
    4e30:	00000036 	tne	zero,zero
    4e34:	00760700 	0x760700
    4e38:	0106ef05 	0x106ef05
    4e3c:	07040000 	0x7040000
    4e40:	f4050061 	sdc1	$f5,97(zero)
    4e44:	0000011d 	0x11d
    4e48:	0074070c 	syscall	0x1d01c
    4e4c:	012df505 	0x12df505
    4e50:	071c0000 	0x71c0000
    4e54:	f7050073 	sdc1	$f5,115(t8)
    4e58:	0000012d 	0x12d
    4e5c:	3274073c 	andi	s4,s3,0x73c
    4e60:	06f80500 	0x6f80500
    4e64:	5c000001 	bgtzl	zero,4e6c <__isr_vec_space+0x4e4c>
    4e68:	05006b07 	bltz	t0,1fa88 <__memory_size+0x288>
    4e6c:	000106f9 	0x106f9
    4e70:	67076400 	0x67076400
    4e74:	fa050070 	sdc2	$5,112(s0)
    4e78:	00000036 	tne	zero,zero
    4e7c:	7073076c 	s16ldi	xr13,v1,386,ptn2
    4e80:	36fb0500 	ori	k1,s7,0x500
    4e84:	70000000 	madd	zero,zero
    4e88:	00706607 	0x706607
    4e8c:	0036fc05 	0x36fc05
    4e90:	07740000 	0x7740000
    4e94:	05006172 	bltz	t0,1d460 <__isr_vec_space+0x1d440>
    4e98:	000036fd 	0x36fd
    4e9c:	08007800 	j	1e000 <__isr_vec_space+0x1dfe0>
    4ea0:	00000036 	tne	zero,zero
    4ea4:	00000116 	0x116
    4ea8:	00011609 	0x11609
    4eac:	02000100 	0x2000100
    4eb0:	01510704 	0x1510704
    4eb4:	36080000 	ori	t0,s0,0x0
    4eb8:	2d000000 	sltiu	zero,t0,0
    4ebc:	09000001 	j	4000004 <__memory_size+0x3fe0804>
    4ec0:	00000116 	0x116
    4ec4:	36080003 	ori	t0,s0,0x3
    4ec8:	3d000000 	0x3d000000
    4ecc:	09000001 	j	4000004 <__memory_size+0x3fe0804>
    4ed0:	00000116 	0x116
    4ed4:	7c0a0007 	0x7c0a0007
    4ed8:	0154ea05 	0x154ea05
    4edc:	890b0000 	lwl	t3,0(t0)
    4ee0:	0c000000 	jal	0 <hardware_exit_hook>
    4ee4:	ff050072 	sdc3	$5,114(t8)
    4ee8:	00000154 	0x154
    4eec:	00360800 	0x360800
    4ef0:	01640000 	0x1640000
    4ef4:	16090000 	bne	s0,t1,4ef8 <__isr_vec_space+0x4ed8>
    4ef8:	1e000001 	bgtz	s0,4f00 <__isr_vec_space+0x4ee0>
    4efc:	0c8a0d00 	jal	2283400 <__memory_size+0x2263c00>
    4f00:	05a00000 	bltz	t5,4f04 <__isr_vec_space+0x4ee4>
    4f04:	0001eae8 	0x1eae8
    4f08:	013d0e00 	0x13d0e00
    4f0c:	0f000000 	jal	c000000 <__memory_size+0xbfe0800>
    4f10:	00637065 	0x637065
    4f14:	36010205 	ori	at,s0,0x205
    4f18:	7c000000 	ext	zero,zero,0x0,0x1
    4f1c:	000c9010 	0xc9010
    4f20:	01030500 	0x1030500
    4f24:	00000036 	tne	zero,zero
    4f28:	69680f80 	0x69680f80
    4f2c:	01040500 	0x1040500
    4f30:	00000036 	tne	zero,zero
    4f34:	6f6c0f84 	0x6f6c0f84
    4f38:	01050500 	0x1050500
    4f3c:	00000036 	tne	zero,zero
    4f40:	0c791088 	jal	1e44220 <__memory_size+0x1e24a20>
    4f44:	07050000 	0x7050000
    4f48:	00021101 	0x21101
    4f4c:	e3108c00 	sc	s0,-29696(t8)
    4f50:	05000001 	bltz	t0,4f58 <__isr_vec_space+0x4f38>
    4f54:	007e010a 	0x7e010a
    4f58:	10900000 	beq	a0,s0,4f5c <__isr_vec_space+0x4f3c>
    4f5c:	00000c38 	0xc38
    4f60:	7e010c05 	0x7e010c05
    4f64:	94000000 	lhu	zero,0(zero)
    4f68:	000d3610 	0xd3610
    4f6c:	010d0500 	0x10d0500
    4f70:	0000007e 	0x7e
    4f74:	0d2c1098 	jal	4b04260 <__memory_size+0x4ae4a60>
    4f78:	0e050000 	jal	8140000 <__memory_size+0x8120800>
    4f7c:	00007e01 	0x7e01
    4f80:	11009c00 	beqz	t0,fffebf84 <__entry+0x403ebf84>
    4f84:	00000c66 	0xc66
    4f88:	01110508 	0x1110508
    4f8c:	00000211 	0x211
    4f90:	0064690f 	0x64690f
    4f94:	36011305 	ori	at,s0,0x1305
    4f98:	00000000 	nop
    4f9c:	0007c610 	0x7c610
    4fa0:	01140500 	0x1140500
    4fa4:	00000211 	0x211
    4fa8:	04120004 	bltzall	zero,4fbc <__isr_vec_space+0x4f9c>
    4fac:	000001ea 	0x1ea
    4fb0:	94080102 	lhu	t0,258(zero)
    4fb4:	02000000 	0x2000000
    4fb8:	0c590408 	jal	1641020 <__memory_size+0x1621820>
    4fbc:	04020000 	bltzl	zero,4fc0 <__isr_vec_space+0x4fa0>
    4fc0:	000c9904 	0xc9904
    4fc4:	0c291300 	jal	a44c00 <__memory_size+0xa25400>
    4fc8:	23010000 	addi	at,t8,0
    4fcc:	00000042 	srl	zero,zero,0x1
    4fd0:	80002320 	lb	zero,8992(zero)
    4fd4:	00000044 	0x44
    4fd8:	02af9c01 	0x2af9c01
    4fdc:	63140000 	0x63140000
    4fe0:	01007874 	teq	t0,zero,0x1e1
    4fe4:	0002af23 	0x2af23
    4fe8:	00185500 	sll	t2,t8,0x14
    4fec:	0b541500 	j	d505400 <__memory_size+0xd4e5c00>
    4ff0:	25010000 	addiu	at,t0,0
    4ff4:	00000036 	tne	zero,zero
    4ff8:	9b155401 	lwr	s5,21505(t8)
    4ffc:	0100000d 	break	0x100
    5000:	00003626 	0x3626
    5004:	15550100 	bne	t2,s5,5408 <__isr_vec_space+0x53e8>
    5008:	00000dee 	0xdee
    500c:	00362701 	0x362701
    5010:	56010000 	bnel	s0,at,5014 <__isr_vec_space+0x4ff4>
    5014:	000eb215 	0xeb215
    5018:	36280100 	ori	t0,s1,0x100
    501c:	01000000 	0x1000000
    5020:	706f1657 	udi7	v1,t7,v0,0x19
    5024:	36290100 	ori	t1,s1,0x100
    5028:	01000000 	0x1000000
    502c:	0ea81569 	jal	aa055a4 <__memory_size+0xa9e5da4>
    5030:	2a010000 	slti	at,s0,0
    5034:	00000036 	tne	zero,zero
    5038:	ad155201 	sw	s5,20993(t0)
    503c:	0100000e 	0x100000e
    5040:	0000362b 	0x362b
    5044:	00530100 	0x530100
    5048:	01640412 	0x1640412
    504c:	81000000 	lb	zero,0(t0)
    5050:	04000008 	bltz	zero,5074 <__isr_vec_space+0x5054>
    5054:	0017ba00 	sll	s7,s7,0x8
    5058:	6d010400 	0x6d010400
    505c:	01000004 	sllv	zero,zero,t0
    5060:	00000eb7 	0xeb7
    5064:	80002364 	lb	zero,9060(zero)
    5068:	0000000c 	syscall
    506c:	00001cee 	0x1cee
    5070:	69050402 	0x69050402
    5074:	0300746e 	0x300746e
    5078:	00050504 	0x50504
    507c:	04030000 	bgezl	zero,5080 <__isr_vec_space+0x5060>
    5080:	00007107 	0x7107
    5084:	06010300 	bgez	s0,5c88 <__isr_vec_space+0x5c68>
    5088:	0000008d 	break	0x0,0x2
    508c:	8b080103 	lwl	t0,259(t8)
    5090:	03000000 	0x3000000
    5094:	00d90502 	0xd90502
    5098:	02030000 	0x2030000
    509c:	0000ad07 	0xad07
    50a0:	05080300 	tgei	t0,768
    50a4:	00000000 	nop
    50a8:	6c070803 	0x6c070803
    50ac:	04000000 	bltz	zero,50b0 <__isr_vec_space+0x5090>
    50b0:	0000071d 	0x71d
    50b4:	00210702 	ror	zero,at,0x1c
    50b8:	f0040000 	0xf0040000
    50bc:	03000006 	srlv	zero,zero,t8
    50c0:	00002810 	mfhi	a1
    50c4:	08270400 	j	9c1000 <__memory_size+0x9a1800>
    50c8:	27030000 	addiu	v1,t8,0
    50cc:	00000028 	0x28
    50d0:	0006b505 	0x6b505
    50d4:	01610400 	0x1610400
    50d8:	0000008d 	break	0x0,0x2
    50dc:	76070403 	jalx	81c100c <__memory_size+0x81a180c>
    50e0:	06000000 	bltz	s0,50e4 <__isr_vec_space+0x50c4>
    50e4:	b34a0304 	0xb34a0304
    50e8:	07000000 	bltz	t8,50ec <__isr_vec_space+0x50cc>
    50ec:	000006af 	0x6af
    50f0:	00814c03 	0x814c03
    50f4:	61070000 	0x61070000
    50f8:	03000006 	srlv	zero,zero,t8
    50fc:	0000b34d 	break	0x0,0x2cd
    5100:	3d080000 	0x3d080000
    5104:	c3000000 	ll	zero,0(t8)
    5108:	09000000 	j	4000000 <__memory_size+0x3fe0800>
    510c:	000000c3 	sra	zero,zero,0x3
    5110:	04030003 	bgezl	zero,5120 <__isr_vec_space+0x5100>
    5114:	00015107 	0x15107
    5118:	03080a00 	0x3080a00
    511c:	0000eb47 	0xeb47
    5120:	08110b00 	j	442c00 <__memory_size+0x423400>
    5124:	49030000 	bc2tl	5128 <__isr_vec_space+0x5108>
    5128:	00000021 	move	zero,zero
    512c:	08190b00 	j	642c00 <__memory_size+0x623400>
    5130:	4e030000 	lwxc1	$f0,v1(s0)
    5134:	00000094 	0x94
    5138:	12040004 	beq	s0,a0,514c <__isr_vec_space+0x512c>
    513c:	03000007 	srav	zero,zero,t8
    5140:	0000ca4f 	0xca4f
    5144:	06240400 	0x6240400
    5148:	53030000 	beql	t8,v1,514c <__isr_vec_space+0x512c>
    514c:	00000060 	0x60
    5150:	5904040c 	0x5904040c
    5154:	05000008 	bltz	t0,5178 <__isr_vec_space+0x5158>
    5158:	00002f16 	0x2f16
    515c:	06350d00 	0x6350d00
    5160:	05180000 	0x5180000
    5164:	0001612d 	0x1612d
    5168:	07c50b00 	0x7c50b00
    516c:	2f050000 	sltiu	a1,t8,0
    5170:	00000161 	0x161
    5174:	6b5f0e00 	0x6b5f0e00
    5178:	21300500 	addi	s0,t1,1280
    517c:	04000000 	bltz	zero,5180 <__isr_vec_space+0x5160>
    5180:	0007fc0b 	0x7fc0b
    5184:	21300500 	addi	s0,t1,1280
    5188:	08000000 	j	0 <hardware_exit_hook>
    518c:	00061e0b 	0x61e0b
    5190:	21300500 	addi	s0,t1,1280
    5194:	0c000000 	jal	0 <hardware_exit_hook>
    5198:	0008a00b 	movn	s4,zero,t0
    519c:	21300500 	addi	s0,t1,1280
    51a0:	10000000 	b	51a4 <__isr_vec_space+0x5184>
    51a4:	00785f0e 	0x785f0e
    51a8:	01673105 	0x1673105
    51ac:	00140000 	sll	zero,s4,0x0
    51b0:	010e040f 	0x10e040f
    51b4:	03080000 	0x3080000
    51b8:	77000001 	jalx	c000004 <__memory_size+0xbfe0804>
    51bc:	09000001 	j	4000004 <__memory_size+0x3fe0804>
    51c0:	000000c3 	sra	zero,zero,0x3
    51c4:	5c0d0000 	0x5c0d0000
    51c8:	24000006 	li	zero,6
    51cc:	01f03505 	0x1f03505
    51d0:	8f0b0000 	lw	t3,0(t8)
    51d4:	05000005 	bltz	t0,51ec <__isr_vec_space+0x51cc>
    51d8:	00002137 	0x2137
    51dc:	2f0b0000 	sltiu	t3,t8,0
    51e0:	05000008 	bltz	t0,5204 <__isr_vec_space+0x51e4>
    51e4:	00002138 	0x2138
    51e8:	9e0b0400 	0x9e0b0400
    51ec:	05000005 	bltz	t0,5204 <__isr_vec_space+0x51e4>
    51f0:	00002139 	0x2139
    51f4:	2f0b0800 	sltiu	t3,t8,2048
    51f8:	05000007 	bltz	t0,5218 <__isr_vec_space+0x51f8>
    51fc:	0000213a 	0x213a
    5200:	dc0b0c00 	ldc3	$11,3072(zero)
    5204:	05000006 	bltz	t0,5220 <__isr_vec_space+0x5200>
    5208:	0000213b 	0x213b
    520c:	cb0b1000 	lwc2	$11,4096(t8)
    5210:	05000006 	bltz	t0,522c <__isr_vec_space+0x520c>
    5214:	0000213c 	0x213c
    5218:	a50b1400 	sh	t3,5120(t0)
    521c:	05000008 	bltz	t0,5240 <__isr_vec_space+0x5220>
    5220:	0000213d 	0x213d
    5224:	470b1800 	bz.b	$w11,b228 <__isr_vec_space+0xb208>
    5228:	05000007 	bltz	t0,5248 <__isr_vec_space+0x5228>
    522c:	0000213e 	0x213e
    5230:	e00b1c00 	sc	t3,7168(zero)
    5234:	05000008 	bltz	t0,5258 <__isr_vec_space+0x5238>
    5238:	0000213f 	0x213f
    523c:	10002000 	b	d240 <__isr_vec_space+0xd220>
    5240:	000005ad 	0x5ad
    5244:	48050108 	0x48050108
    5248:	00000230 	tge	zero,zero,0x8
    524c:	0006110b 	0x6110b
    5250:	30490500 	andi	t1,v0,0x500
    5254:	00000002 	srl	zero,zero,0x0
    5258:	00052a0b 	0x52a0b
    525c:	304a0500 	andi	t2,v0,0x500
    5260:	80000002 	lb	zero,2(zero)
    5264:	00084b11 	0x84b11
    5268:	034c0500 	0x34c0500
    526c:	00000001 	movf	zero,zero,$fcc0
    5270:	05d21101 	bltzall	t6,9678 <__isr_vec_space+0x9658>
    5274:	4f050000 	lwxc1	$f0,a1(t8)
    5278:	00000103 	sra	zero,zero,0x4
    527c:	08000104 	j	410 <__isr_vec_space+0x3f0>
    5280:	00000101 	0x101
    5284:	00000240 	sll	zero,zero,0x9
    5288:	0000c309 	0xc309
    528c:	10001f00 	b	ce90 <__isr_vec_space+0xce70>
    5290:	00000522 	0x522
    5294:	5b050190 	0x5b050190
    5298:	0000027e 	0x27e
    529c:	0007c50b 	0x7c50b
    52a0:	7e5c0500 	ext	gp,s2,0x14,0x1
    52a4:	00000002 	srl	zero,zero,0x0
    52a8:	0007dd0b 	0x7dd0b
    52ac:	215d0500 	addi	sp,t2,1280
    52b0:	04000000 	bltz	zero,52b4 <__isr_vec_space+0x5294>
    52b4:	0006190b 	0x6190b
    52b8:	845f0500 	lh	ra,1280(v0)
    52bc:	08000002 	j	8 <ABIFlags_isa_ext>
    52c0:	0005ad0b 	0x5ad0b
    52c4:	f0600500 	0xf0600500
    52c8:	88000001 	lwl	zero,1(zero)
    52cc:	40040f00 	0x40040f00
    52d0:	08000002 	j	8 <ABIFlags_isa_ext>
    52d4:	00000294 	0x294
    52d8:	00000294 	0x294
    52dc:	0000c309 	0xc309
    52e0:	0f001f00 	jal	c007c00 <__memory_size+0xbfe8400>
    52e4:	00029a04 	0x29a04
    52e8:	510d1200 	beql	t0,t5,9aec <__isr_vec_space+0x9acc>
    52ec:	08000007 	j	1c <ABIFlags_flags2+0x8>
    52f0:	02c07305 	0x2c07305
    52f4:	fb0b0000 	sdc2	$11,0(t8)
    52f8:	0500000b 	bltz	t0,5328 <__isr_vec_space+0x5308>
    52fc:	0002c074 	teq	zero,v0,0x301
    5300:	6b0b0000 	0x6b0b0000
    5304:	05000001 	bltz	t0,530c <__isr_vec_space+0x52ec>
    5308:	00002175 	0x2175
    530c:	0f000400 	jal	c001000 <__memory_size+0xbfe1800>
    5310:	00003d04 	0x3d04
    5314:	07af0d00 	0x7af0d00
    5318:	05680000 	tgei	t3,0
    531c:	0003f0b3 	tltu	zero,v1,0x3c2
    5320:	705f0e00 	0x705f0e00
    5324:	c0b40500 	ll	s4,1280(a1)
    5328:	00000002 	srl	zero,zero,0x0
    532c:	00725f0e 	0x725f0e
    5330:	0021b505 	0x21b505
    5334:	0e040000 	jal	8100000 <__memory_size+0x80e0800>
    5338:	0500775f 	bltz	t0,230b8 <__memory_size+0x38b8>
    533c:	000021b6 	tne	zero,zero,0x86
    5340:	cb0b0800 	lwc2	$11,2048(t8)
    5344:	05000005 	bltz	t0,535c <__isr_vec_space+0x533c>
    5348:	000044b7 	0x44b7
    534c:	780b0c00 	andi.b	$w16,$w1,0xb
    5350:	05000006 	bltz	t0,536c <__isr_vec_space+0x534c>
    5354:	000044b8 	0x44b8
    5358:	5f0e0e00 	0x5f0e0e00
    535c:	05006662 	bltz	t0,1ece8 <__isr_vec_space+0x1ecc8>
    5360:	00029bb9 	0x29bb9
    5364:	690b1000 	0x690b1000
    5368:	05000005 	bltz	t0,5380 <__isr_vec_space+0x5360>
    536c:	000021ba 	0x21ba
    5370:	bb0b1800 	swr	t3,6144(t8)
    5374:	05000005 	bltz	t0,538c <__isr_vec_space+0x536c>
    5378:	000101c1 	0x101c1
    537c:	4c0b1c00 	0x4c0b1c00
    5380:	05000006 	bltz	t0,539c <__isr_vec_space+0x537c>
    5384:	000553c3 	sra	t2,a1,0xf
    5388:	c40b2000 	lwc1	$f11,8192(zero)
    538c:	05000006 	bltz	t0,53a8 <__isr_vec_space+0x5388>
    5390:	000582c5 	0x582c5
    5394:	210b2400 	addi	t3,t0,9216
    5398:	05000008 	bltz	t0,53bc <__isr_vec_space+0x539c>
    539c:	0005a6c8 	0x5a6c8
    53a0:	fa0b2800 	sdc2	$11,10240(s0)
    53a4:	05000008 	bltz	t0,53c8 <__isr_vec_space+0x53a8>
    53a8:	0005c0c9 	0x5c0c9
    53ac:	5f0e2c00 	0x5f0e2c00
    53b0:	05006275 	bltz	t0,1dd88 <__isr_vec_space+0x1dd68>
    53b4:	00029bcc 	syscall	0xa6f
    53b8:	5f0e3000 	0x5f0e3000
    53bc:	05007075 	bltz	t0,21594 <__memory_size+0x1d94>
    53c0:	0002c0cd 	break	0x2,0x303
    53c4:	5f0e3800 	0x5f0e3800
    53c8:	05007275 	bltz	t0,21da0 <__memory_size+0x25a0>
    53cc:	000021ce 	0x21ce
    53d0:	980b3c00 	lwr	t3,15360(zero)
    53d4:	05000005 	bltz	t0,53ec <__isr_vec_space+0x53cc>
    53d8:	0005c6d1 	0x5c6d1
    53dc:	d20b4000 	0xd20b4000
    53e0:	05000008 	bltz	t0,5404 <__isr_vec_space+0x53e4>
    53e4:	0005d6d2 	0x5d6d2
    53e8:	5f0e4300 	0x5f0e4300
    53ec:	0500626c 	bltz	t0,1dda0 <__isr_vec_space+0x1dd80>
    53f0:	00029bd5 	0x29bd5
    53f4:	e10b4400 	sc	t3,17408(t0)
    53f8:	05000005 	bltz	t0,5410 <__isr_vec_space+0x53f0>
    53fc:	000021d8 	0x21d8
    5400:	440b4c00 	0x440b4c00
    5404:	05000002 	bltz	t0,5410 <__isr_vec_space+0x53f0>
    5408:	00006bd9 	0x6bd9
    540c:	1f0b5000 	0x1f0b5000
    5410:	05000009 	bltz	t0,5438 <__isr_vec_space+0x5418>
    5414:	00040edc 	0x40edc
    5418:	d40b5400 	ldc1	$f11,21504(zero)
    541c:	05000009 	bltz	t0,5444 <__isr_vec_space+0x5424>
    5420:	0000f6e0 	0xf6e0
    5424:	b70b5800 	0xb70b5800
    5428:	05000007 	bltz	t0,5448 <__isr_vec_space+0x5428>
    542c:	0000ebe2 	0xebe2
    5430:	bc0b5c00 	cache	0xb,23552(zero)
    5434:	05000006 	bltz	t0,5450 <__isr_vec_space+0x5430>
    5438:	000021e3 	0x21e3
    543c:	13006400 	beqz	t8,1e440 <__isr_vec_space+0x1e420>
    5440:	00000021 	move	zero,zero
    5444:	0000040e 	0x40e
    5448:	00040e14 	0x40e14
    544c:	01011400 	0x1011400
    5450:	46140000 	add.s	$f0,$f0,$f20
    5454:	14000005 	bnez	zero,546c <__isr_vec_space+0x544c>
    5458:	00000021 	move	zero,zero
    545c:	14040f00 	bne	zero,a0,9060 <__isr_vec_space+0x9040>
    5460:	15000004 	bnez	t0,5474 <__isr_vec_space+0x5454>
    5464:	00000804 	sllv	at,zero,zero
    5468:	39050428 	xori	a1,t0,0x428
    546c:	00054602 	srl	t0,a1,0x18
    5470:	0df41600 	jal	7d05800 <__memory_size+0x7ce6000>
    5474:	3b050000 	xori	a1,t8,0x0
    5478:	00002102 	srl	a0,zero,0x4
    547c:	da160000 	ldc2	$22,0(s0)
    5480:	05000005 	bltz	t0,5498 <__isr_vec_space+0x5478>
    5484:	062d0240 	0x62d0240
    5488:	16040000 	bne	s0,a0,548c <__isr_vec_space+0x546c>
    548c:	00000668 	0x668
    5490:	2d024005 	sltiu	v0,t0,16389
    5494:	08000006 	j	18 <ABIFlags_flags2+0x4>
    5498:	00062d16 	0x62d16
    549c:	02400500 	0x2400500
    54a0:	0000062d 	0x62d
    54a4:	07d8160c 	0x7d8160c
    54a8:	42050000 	c0	0x50000
    54ac:	00002102 	srl	a0,zero,0x4
    54b0:	3e161000 	0x3e161000
    54b4:	05000005 	bltz	t0,54cc <__isr_vec_space+0x54ac>
    54b8:	080f0243 	j	3c090c <__memory_size+0x3a110c>
    54bc:	16140000 	bne	s0,s4,54c0 <__isr_vec_space+0x54a0>
    54c0:	00000881 	0x881
    54c4:	21024505 	addi	v0,t0,17669
    54c8:	30000000 	andi	zero,zero,0x0
    54cc:	0007e216 	0x7e216
    54d0:	02460500 	0x2460500
    54d4:	00000577 	0x577
    54d8:	06e51634 	0x6e51634
    54dc:	48050000 	mfc2	a1,$0
    54e0:	00002102 	srl	a0,zero,0x4
    54e4:	f2163800 	0xf2163800
    54e8:	05000007 	bltz	t0,5508 <__isr_vec_space+0x54e8>
    54ec:	082a024a 	j	a80928 <__memory_size+0xa61128>
    54f0:	163c0000 	bne	s1,gp,54f4 <__isr_vec_space+0x54d4>
    54f4:	000006a7 	0x6a7
    54f8:	61024d05 	0x61024d05
    54fc:	40000001 	mfc0	zero,c0_mvpcontrol
    5500:	00065216 	0x65216
    5504:	024e0500 	0x24e0500
    5508:	00000021 	move	zero,zero
    550c:	09141644 	j	4505910 <__memory_size+0x44e6110>
    5510:	4f050000 	lwxc1	$f0,a1(t8)
    5514:	00016102 	srl	t4,at,0x4
    5518:	08164800 	j	592000 <__memory_size+0x572800>
    551c:	05000007 	bltz	t0,553c <__isr_vec_space+0x551c>
    5520:	08300250 	j	c00940 <__memory_size+0xbe1140>
    5524:	164c0000 	bne	s2,t4,5528 <__isr_vec_space+0x5508>
    5528:	00000670 	tge	zero,zero,0x19
    552c:	21025305 	addi	v0,t0,21253
    5530:	50000000 	beqzl	zero,5534 <__isr_vec_space+0x5514>
    5534:	0005ea16 	0x5ea16
    5538:	02540500 	0x2540500
    553c:	00000546 	0x546
    5540:	07391654 	0x7391654
    5544:	77050000 	jalx	c140000 <__memory_size+0xc120800>
    5548:	0007ed02 	srl	sp,a3,0x14
    554c:	22175800 	addi	s7,s0,22528
    5550:	05000005 	bltz	t0,5568 <__isr_vec_space+0x5548>
    5554:	027e027b 	0x27e027b
    5558:	01480000 	0x1480000
    555c:	00068517 	0x68517
    5560:	027c0500 	0x27c0500
    5564:	00000240 	sll	zero,zero,0x9
    5568:	c817014c 	lwc2	$23,332(zero)
    556c:	05000008 	bltz	t0,5590 <__isr_vec_space+0x5570>
    5570:	08410280 	j	1040a00 <__memory_size+0x1021200>
    5574:	02dc0000 	0x2dc0000
    5578:	0005c317 	0x5c317
    557c:	02850500 	0x2850500
    5580:	000005f2 	tlt	zero,zero,0x17
    5584:	a81702e0 	swl	s7,736(zero)
    5588:	05000005 	bltz	t0,55a0 <__isr_vec_space+0x5580>
    558c:	084d0286 	j	1340a18 <__memory_size+0x1321218>
    5590:	02ec0000 	0x2ec0000
    5594:	4c040f00 	0x4c040f00
    5598:	03000005 	lsa	zero,t8,zero,0x1
    559c:	00940801 	movf	at,a0,$fcc5
    55a0:	040f0000 	0x40f0000
    55a4:	000003f0 	tge	zero,zero,0xf
    55a8:	00002113 	0x2113
    55ac:	00057700 	sll	t6,a1,0x1c
    55b0:	040e1400 	tnei	zero,5120
    55b4:	01140000 	0x1140000
    55b8:	14000001 	bnez	zero,55c0 <__isr_vec_space+0x55a0>
    55bc:	00000577 	0x577
    55c0:	00002114 	0x2114
    55c4:	040f0000 	0x40f0000
    55c8:	0000057d 	0x57d
    55cc:	00054c18 	0x54c18
    55d0:	59040f00 	0x59040f00
    55d4:	13000005 	beqz	t8,55ec <__isr_vec_space+0x55cc>
    55d8:	00000076 	tne	zero,zero,0x1
    55dc:	000005a6 	0x5a6
    55e0:	00040e14 	0x40e14
    55e4:	01011400 	0x1011400
    55e8:	76140000 	jalx	8500000 <__memory_size+0x84e0800>
    55ec:	14000000 	bnez	zero,55f0 <__isr_vec_space+0x55d0>
    55f0:	00000021 	move	zero,zero
    55f4:	88040f00 	lwl	a0,3840(zero)
    55f8:	13000005 	beqz	t8,5610 <__isr_vec_space+0x55f0>
    55fc:	00000021 	move	zero,zero
    5600:	000005c0 	sll	zero,zero,0x17
    5604:	00040e14 	0x40e14
    5608:	01011400 	0x1011400
    560c:	0f000000 	jal	c000000 <__memory_size+0xbfe0800>
    5610:	0005ac04 	0x5ac04
    5614:	003d0800 	0x3d0800
    5618:	05d60000 	0x5d60000
    561c:	c3090000 	ll	t1,0(t8)
    5620:	02000000 	0x2000000
    5624:	003d0800 	0x3d0800
    5628:	05e60000 	0x5e60000
    562c:	c3090000 	ll	t1,0(t8)
    5630:	00000000 	nop
    5634:	075e0500 	0x75e0500
    5638:	1d050000 	0x1d050000
    563c:	0002c601 	0x2c601
    5640:	08af1900 	j	2bc6400 <__memory_size+0x2ba6c00>
    5644:	050c0000 	teqi	t0,0
    5648:	06270121 	aclr	0x0,289(s1)
    564c:	c5160000 	lwc1	$f22,0(t0)
    5650:	05000007 	bltz	t0,5670 <__isr_vec_space+0x5650>
    5654:	06270123 	aclr	0x0,291(s1)
    5658:	16000000 	bnez	s0,565c <__isr_vec_space+0x563c>
    565c:	0000067e 	0x67e
    5660:	21012405 	addi	at,t0,9221
    5664:	04000000 	bltz	zero,5668 <__isr_vec_space+0x5648>
    5668:	00075816 	0x75816
    566c:	01250500 	0x1250500
    5670:	0000062d 	0x62d
    5674:	040f0008 	0x40f0008
    5678:	000005f2 	tlt	zero,zero,0x17
    567c:	05e6040f 	0x5e6040f
    5680:	36190000 	ori	t9,s0,0x0
    5684:	0e000005 	jal	8000014 <__memory_size+0x7fe0814>
    5688:	68013d05 	0x68013d05
    568c:	16000006 	bnez	s0,56a8 <__isr_vec_space+0x5688>
    5690:	0000080b 	movn	at,zero,zero
    5694:	68013e05 	0x68013e05
    5698:	00000006 	srlv	zero,zero,zero
    569c:	00083816 	0x83816
    56a0:	013f0500 	0x13f0500
    56a4:	00000668 	0x668
    56a8:	08541606 	j	1505818 <__memory_size+0x14e6018>
    56ac:	40050000 	mfc0	a1,c0_index
    56b0:	00004b01 	0x4b01
    56b4:	08000c00 	j	3000 <__isr_vec_space+0x2fe0>
    56b8:	0000004b 	0x4b
    56bc:	00000678 	0x678
    56c0:	0000c309 	0xc309
    56c4:	1a000200 	blez	s0,5ec8 <__isr_vec_space+0x5ea8>
    56c8:	025805d0 	0x25805d0
    56cc:	00000779 	0x779
    56d0:	00089316 	0x89316
    56d4:	025a0500 	0x25a0500
    56d8:	0000008d 	break	0x0,0x2
    56dc:	083e1600 	j	f85800 <__memory_size+0xf66000>
    56e0:	5b050000 	0x5b050000
    56e4:	00054602 	srl	t0,a1,0x18
    56e8:	9a160400 	lwr	s6,1024(s0)
    56ec:	05000006 	bltz	t0,5708 <__isr_vec_space+0x56e8>
    56f0:	0779025c 	0x779025c
    56f4:	16080000 	bne	s0,t0,56f8 <__isr_vec_space+0x56d8>
    56f8:	000008eb 	0x8eb
    56fc:	77025d05 	jalx	c097414 <__memory_size+0xc077c14>
    5700:	24000001 	li	zero,1
    5704:	00063d16 	0x63d16
    5708:	025e0500 	0x25e0500
    570c:	00000021 	move	zero,zero
    5710:	07c01648 	bltz	s8,b034 <__isr_vec_space+0xb014>
    5714:	5f050000 	0x5f050000
    5718:	00005902 	srl	t3,zero,0x4
    571c:	01165000 	0x1165000
    5720:	05000009 	bltz	t0,5748 <__isr_vec_space+0x5728>
    5724:	06330260 	bgezall	s1,60a8 <__isr_vec_space+0x6088>
    5728:	16580000 	bne	s2,t8,572c <__isr_vec_space+0x570c>
    572c:	000007cb 	0x7cb
    5730:	eb026105 	swc2	$2,24837(t8)
    5734:	68000000 	0x68000000
    5738:	00090616 	0x90616
    573c:	02620500 	0x2620500
    5740:	000000eb 	0xeb
    5744:	05811670 	bgez	t4,b108 <__isr_vec_space+0xb0e8>
    5748:	63050000 	0x63050000
    574c:	0000eb02 	srl	sp,zero,0xc
    5750:	be167800 	cache	0x16,30720(s0)
    5754:	05000008 	bltz	t0,5778 <__isr_vec_space+0x5758>
    5758:	07890264 	tgeiu	gp,612
    575c:	16800000 	bnez	s4,5760 <__isr_vec_space+0x5740>
    5760:	0000068e 	0x68e
    5764:	99026505 	lwr	v0,25861(t0)
    5768:	88000007 	lwl	zero,7(zero)
    576c:	00086116 	0x86116
    5770:	02660500 	0x2660500
    5774:	00000021 	move	zero,zero
    5778:	060316a0 	bgezl	s0,b1fc <__isr_vec_space+0xb1dc>
    577c:	67050000 	0x67050000
    5780:	0000eb02 	srl	sp,zero,0xc
    5784:	7216a400 	s32madd	xr0,xr9,s0,s6
    5788:	05000005 	bltz	t0,57a0 <__isr_vec_space+0x5780>
    578c:	00eb0268 	0xeb0268
    5790:	16ac0000 	bne	s5,t4,5794 <__isr_vec_space+0x5774>
    5794:	000005f2 	tlt	zero,zero,0x17
    5798:	eb026905 	swc2	$2,26885(t8)
    579c:	b4000000 	0xb4000000
    57a0:	00054916 	0x54916
    57a4:	026a0500 	0x26a0500
    57a8:	000000eb 	0xeb
    57ac:	055816bc 	0x55816bc
    57b0:	6b050000 	0x6b050000
    57b4:	0000eb02 	srl	sp,zero,0xc
    57b8:	3e16c400 	0x3e16c400
    57bc:	05000007 	bltz	t0,57dc <__isr_vec_space+0x57bc>
    57c0:	0021026c 	0x21026c
    57c4:	00cc0000 	0xcc0000
    57c8:	00054c08 	0x54c08
    57cc:	00078900 	sll	s1,a3,0x4
    57d0:	00c30900 	0xc30900
    57d4:	00190000 	sll	zero,t9,0x0
    57d8:	00054c08 	0x54c08
    57dc:	00079900 	sll	s3,a3,0x4
    57e0:	00c30900 	0xc30900
    57e4:	00070000 	sll	zero,a3,0x0
    57e8:	00054c08 	0x54c08
    57ec:	0007a900 	sll	s5,a3,0x4
    57f0:	00c30900 	0xc30900
    57f4:	00170000 	sll	zero,s7,0x0
    57f8:	7105f01a 	udi10	t0,a1,s8,0x0
    57fc:	0007cd02 	srl	t9,a3,0x14
    5800:	06d51600 	0x6d51600
    5804:	74050000 	jalx	140000 <__memory_size+0x120800>
    5808:	0007cd02 	srl	t9,a3,0x14
    580c:	b5160000 	0xb5160000
    5810:	05000008 	bltz	t0,5834 <__isr_vec_space+0x5814>
    5814:	07dd0275 	0x7dd0275
    5818:	00780000 	0x780000
    581c:	0002c008 	0x2c008
    5820:	0007dd00 	sll	k1,a3,0x14
    5824:	00c30900 	0xc30900
    5828:	001d0000 	sll	zero,sp,0x0
    582c:	00008d08 	0x8d08
    5830:	0007ed00 	sll	sp,a3,0x14
    5834:	00c30900 	0xc30900
    5838:	001d0000 	sll	zero,sp,0x0
    583c:	5605f01b 	bnel	s0,a1,18ac <__isr_vec_space+0x188c>
    5840:	00080f02 	srl	at,t0,0x1c
    5844:	08041c00 	j	107000 <__memory_size+0xe7800>
    5848:	6d050000 	0x6d050000
    584c:	00067802 	srl	t7,a2,0x0
    5850:	08d81c00 	j	3607000 <__memory_size+0x35e7800>
    5854:	76050000 	jalx	8140000 <__memory_size+0x8120800>
    5858:	0007a902 	srl	s5,a3,0x4
    585c:	4c080000 	lwxc1	$f0,t0(zero)
    5860:	1f000005 	bgtz	t8,5878 <__isr_vec_space+0x5858>
    5864:	09000008 	j	4000020 <__memory_size+0x3fe0820>
    5868:	000000c3 	sra	zero,zero,0x3
    586c:	2a1d0018 	slti	sp,s0,24
    5870:	14000008 	bnez	zero,5894 <__isr_vec_space+0x5874>
    5874:	0000040e 	0x40e
    5878:	1f040f00 	0x1f040f00
    587c:	0f000008 	jal	c000020 <__memory_size+0xbfe0820>
    5880:	00016104 	0x16104
    5884:	08411d00 	j	1047400 <__memory_size+0x1027c00>
    5888:	21140000 	addi	s4,t0,0
    588c:	00000000 	nop
    5890:	0847040f 	j	11c103c <__memory_size+0x11a183c>
    5894:	040f0000 	0x40f0000
    5898:	00000836 	tne	zero,zero,0x20
    589c:	0005e608 	0x5e608
    58a0:	00085d00 	sll	t3,t0,0x14
    58a4:	00c30900 	0xc30900
    58a8:	00020000 	sll	zero,v0,0x0
    58ac:	000df31e 	0xdf31e
    58b0:	720f0600 	0x720f0600
    58b4:	64000008 	0x64000008
    58b8:	0c800023 	jal	200008c <__memory_size+0x1fe088c>
    58bc:	01000000 	0x1000000
    58c0:	21040f9c 	addi	a0,t0,3996
    58c4:	1f000000 	bgtz	t8,58c8 <__isr_vec_space+0x58a8>
    58c8:	00000875 	0x875
    58cc:	0e02fa05 	jal	80be814 <__memory_size+0x809f014>
    58d0:	00000004 	sllv	zero,zero,zero

Disassembly of section .debug_abbrev:

00000000 <.debug_abbrev>:
       0:	10001101 	b	4408 <__isr_vec_space+0x43e8>
       4:	12011106 	beq	s0,at,4420 <__isr_vec_space+0x4400>
       8:	1b080301 	0x1b080301
       c:	13082508 	beq	t8,t0,9430 <__isr_vec_space+0x9410>
      10:	00000005 	lsa	zero,zero,zero,0x1
      14:	10001101 	b	441c <__isr_vec_space+0x43fc>
      18:	12011106 	beq	s0,at,4434 <__isr_vec_space+0x4414>
      1c:	1b080301 	0x1b080301
      20:	13082508 	beq	t8,t0,9444 <__isr_vec_space+0x9424>
      24:	00000005 	lsa	zero,zero,zero,0x1
      28:	25011101 	addiu	at,t0,4353
      2c:	030b130e 	0x30b130e
      30:	110e1b0e 	beq	t0,t6,6c6c <__isr_vec_space+0x6c4c>
      34:	10061201 	beq	zero,a2,483c <__isr_vec_space+0x481c>
      38:	02000017 	0x2000017
      3c:	0b0b0024 	j	c2c0090 <__memory_size+0xc2a0890>
      40:	0e030b3e 	jal	80c2cf8 <__memory_size+0x80a34f8>
      44:	16030000 	bne	s0,v1,48 <__isr_vec_space+0x28>
      48:	3a0e0300 	xori	t6,s0,0x300
      4c:	490b3b0b 	bc2tl	$cc2,ec7c <__isr_vec_space+0xec5c>
      50:	04000013 	bltz	zero,a0 <__isr_vec_space+0x80>
      54:	0b0b0024 	j	c2c0090 <__memory_size+0xc2a0890>
      58:	08030b3e 	j	c2cf8 <__memory_size+0xa34f8>
      5c:	2e050000 	sltiu	a1,s0,0
      60:	03193f01 	0x3193f01
      64:	3b0b3a0e 	xori	t3,t8,0x3a0e
      68:	2019270b 	addi	t9,zero,9995
      6c:	0013010b 	0x13010b
      70:	00050600 	sll	zero,a1,0x18
      74:	0b3a0e03 	j	ce8380c <__memory_size+0xce6400c>
      78:	13490b3b 	beq	k0,t1,2d68 <__isr_vec_space+0x2d48>
      7c:	05070000 	aclr	0x0,0(t0)
      80:	3a080300 	xori	t0,s0,0x300
      84:	490b3b0b 	bc2tl	$cc2,ecb4 <__isr_vec_space+0xec94>
      88:	08000013 	j	4c <__isr_vec_space+0x2c>
      8c:	08030034 	j	c00d0 <__memory_size+0xa08d0>
      90:	0b3b0b3a 	j	cec2ce8 <__memory_size+0xcea34e8>
      94:	00001349 	0x1349
      98:	0b000f09 	j	c003c24 <__memory_size+0xbfe4424>
      9c:	0a00000b 	j	800002c <__memory_size+0x7fe082c>
      a0:	0b0b000f 	j	c2c003c <__memory_size+0xc2a083c>
      a4:	00001349 	0x1349
      a8:	3f012e0b 	0x3f012e0b
      ac:	3a0e0319 	xori	t6,s0,0x319
      b0:	270b3b0b 	addiu	t3,t8,15115
      b4:	12011119 	beq	s0,at,451c <__isr_vec_space+0x44fc>
      b8:	97184006 	lhu	t8,16390(t8)
      bc:	13011942 	beq	t8,at,65c8 <__isr_vec_space+0x65a8>
      c0:	050c0000 	teqi	t0,0
      c4:	3a0e0300 	xori	t6,s0,0x300
      c8:	490b3b0b 	bc2tl	$cc2,ecf8 <__isr_vec_space+0xecd8>
      cc:	00170213 	0x170213
      d0:	00050d00 	sll	at,a1,0x14
      d4:	0b3a0803 	j	ce8200c <__memory_size+0xce6280c>
      d8:	13490b3b 	beq	k0,t1,2dc8 <__isr_vec_space+0x2da8>
      dc:	00001702 	srl	v0,zero,0x1c
      e0:	4900260e 	bc2f	991c <__isr_vec_space+0x98fc>
      e4:	0f000013 	jal	c00004c <__memory_size+0xbfe084c>
      e8:	1331012e 	beq	t9,s1,5a4 <__isr_vec_space+0x584>
      ec:	06120111 	bltzall	s0,534 <__isr_vec_space+0x514>
      f0:	42971840 	c0	0x971840
      f4:	00130119 	0x130119
      f8:	00051000 	sll	v0,a1,0x0
      fc:	17021331 	bne	t8,v0,4dc4 <__isr_vec_space+0x4da4>
     100:	05110000 	bgezal	t0,104 <__isr_vec_space+0xe4>
     104:	02133100 	0x2133100
     108:	12000018 	beqz	s0,16c <__isr_vec_space+0x14c>
     10c:	13310034 	beq	t9,s1,1e0 <__isr_vec_space+0x1c0>
     110:	00001802 	srl	v1,zero,0x0
     114:	3f012e13 	0x3f012e13
     118:	3a0e0319 	xori	t6,s0,0x319
     11c:	270b3b0b 	addiu	t3,t8,15115
     120:	12011119 	beq	s0,at,4588 <__isr_vec_space+0x4568>
     124:	97184006 	lhu	t8,16390(t8)
     128:	00001942 	srl	v1,zero,0x5
     12c:	31011d14 	andi	at,t0,0x1d14
     130:	12011113 	beq	s0,at,4580 <__isr_vec_space+0x4560>
     134:	590b5806 	0x590b5806
     138:	1500000b 	bnez	t0,168 <__isr_vec_space+0x148>
     13c:	13310005 	beq	t9,s1,154 <__isr_vec_space+0x134>
     140:	00000b1c 	0xb1c
     144:	11010b16 	beq	t0,at,2da0 <__isr_vec_space+0x2d80>
     148:	00061201 	0x61201
     14c:	11010000 	beq	t0,at,150 <__isr_vec_space+0x130>
     150:	130e2501 	beq	t8,t6,9558 <__isr_vec_space+0x9538>
     154:	1b0e030b 	0x1b0e030b
     158:	1201110e 	beq	s0,at,4594 <__isr_vec_space+0x4574>
     15c:	00171006 	srlv	v0,s7,zero
     160:	00240200 	0x240200
     164:	0b3e0b0b 	j	cf82c2c <__memory_size+0xcf6342c>
     168:	00000e03 	sra	at,zero,0x18
     16c:	03001603 	0x3001603
     170:	3b0b3a0e 	xori	t3,t8,0x3a0e
     174:	0013490b 	0x13490b
     178:	00240400 	0x240400
     17c:	0b3e0b0b 	j	cf82c2c <__memory_size+0xcf6342c>
     180:	00000803 	sra	at,zero,0x0
     184:	3f012e05 	0x3f012e05
     188:	3a0e0319 	xori	t6,s0,0x319
     18c:	490b3b0b 	bc2tl	$cc2,edbc <__isr_vec_space+0xed9c>
     190:	12011113 	beq	s0,at,45e0 <__isr_vec_space+0x45c0>
     194:	97184006 	lhu	t8,16390(t8)
     198:	13011942 	beq	t8,at,66a4 <__isr_vec_space+0x6684>
     19c:	34060000 	li	a2,0x0
     1a0:	3a0e0300 	xori	t6,s0,0x300
     1a4:	490b3b0b 	bc2tl	$cc2,edd4 <__isr_vec_space+0xedb4>
     1a8:	00170213 	0x170213
     1ac:	012e0700 	0x12e0700
     1b0:	0e03193f 	jal	80c64fc <__memory_size+0x80a6cfc>
     1b4:	0b3b0b3a 	j	cec2ce8 <__memory_size+0xcea34e8>
     1b8:	01111927 	0x1111927
     1bc:	18400612 	blez	v0,1a08 <__isr_vec_space+0x19e8>
     1c0:	01194297 	0x1194297
     1c4:	08000013 	j	4c <__isr_vec_space+0x2c>
     1c8:	08030005 	j	c0014 <__memory_size+0xa0814>
     1cc:	0b3b0b3a 	j	cec2ce8 <__memory_size+0xcea34e8>
     1d0:	18021349 	0x18021349
     1d4:	2e090000 	sltiu	t1,s0,0
     1d8:	03193f01 	0x3193f01
     1dc:	3b0b3a0e 	xori	t3,t8,0x3a0e
     1e0:	1201110b 	beq	s0,at,4610 <__isr_vec_space+0x45f0>
     1e4:	97184006 	lhu	t8,16390(t8)
     1e8:	13011942 	beq	t8,at,66f4 <__isr_vec_space+0x66d4>
     1ec:	340a0000 	li	t2,0x0
     1f0:	3a080300 	xori	t0,s0,0x300
     1f4:	490b3b0b 	bc2tl	$cc2,ee24 <__isr_vec_space+0xee04>
     1f8:	00170213 	0x170213
     1fc:	82890b00 	lb	t1,2816(s4)
     200:	01110101 	0x1110101
     204:	00001331 	tgeu	zero,zero,0x4c
     208:	01828a0c 	syscall	0x60a28
     20c:	91180200 	lbu	t8,512(t0)
     210:	00001842 	srl	v1,zero,0x1
     214:	3f002e0d 	0x3f002e0d
     218:	3a0e0319 	xori	t6,s0,0x319
     21c:	270b3b0b 	addiu	t3,t8,15115
     220:	11134919 	beq	t0,s3,12688 <__isr_vec_space+0x12668>
     224:	40061201 	0x40061201
     228:	19429718 	0x19429718
     22c:	010e0000 	0x10e0000
     230:	01134901 	0x1134901
     234:	0f000013 	jal	c00004c <__memory_size+0xbfe084c>
     238:	13490021 	beq	k0,t1,2c0 <__isr_vec_space+0x2a0>
     23c:	0000062f 	0x62f
     240:	03003410 	0x3003410
     244:	3b0b3a0e 	xori	t3,t8,0x3a0e
     248:	0213490b 	0x213490b
     24c:	11000018 	beqz	t0,2b0 <__isr_vec_space+0x290>
     250:	0e030034 	jal	80c00d0 <__memory_size+0x80a08d0>
     254:	0b3b0b3a 	j	cec2ce8 <__memory_size+0xcea34e8>
     258:	193f1349 	0x193f1349
     25c:	00001802 	srl	v1,zero,0x0
     260:	01110100 	0x1110100
     264:	0b130e25 	j	c4c3894 <__memory_size+0xc4a4094>
     268:	0e1b0e03 	jal	86c380c <__memory_size+0x86a400c>
     26c:	06120111 	bltzall	s0,6b4 <__isr_vec_space+0x694>
     270:	00001710 	0x1710
     274:	0b002402 	j	c009008 <__memory_size+0xbfe9808>
     278:	030b3e0b 	0x30b3e0b
     27c:	0300000e 	0x300000e
     280:	0e030104 	jal	80c0410 <__memory_size+0x80a0c10>
     284:	0b3a0b0b 	j	ce82c2c <__memory_size+0xce6342c>
     288:	13010b3b 	beq	t8,at,2f78 <__isr_vec_space+0x2f58>
     28c:	28040000 	slti	a0,zero,0
     290:	1c0e0300 	0x1c0e0300
     294:	0500000d 	bltz	t0,2cc <__isr_vec_space+0x2ac>
     298:	0e030016 	jal	80c0058 <__memory_size+0x80a0858>
     29c:	0b3b0b3a 	j	cec2ce8 <__memory_size+0xcea34e8>
     2a0:	00001349 	0x1349
     2a4:	0b002406 	j	c009018 <__memory_size+0xbfe9818>
     2a8:	030b3e0b 	0x30b3e0b
     2ac:	07000008 	bltz	t8,2d0 <__isr_vec_space+0x2b0>
     2b0:	193f012e 	0x193f012e
     2b4:	0b3a0e03 	j	ce8380c <__memory_size+0xce6400c>
     2b8:	19270b3b 	0x19270b3b
     2bc:	06120111 	bltzall	s0,704 <__isr_vec_space+0x6e4>
     2c0:	42971840 	c0	0x971840
     2c4:	00130119 	0x130119
     2c8:	00340800 	0x340800
     2cc:	0b3a0803 	j	ce8200c <__memory_size+0xce6280c>
     2d0:	13490b3b 	beq	k0,t1,2fc0 <__isr_vec_space+0x2fa0>
     2d4:	00001702 	srl	v0,zero,0x1c
     2d8:	03003409 	jalr.hb	a2,t8
     2dc:	3b0b3a0e 	xori	t3,t8,0x3a0e
     2e0:	1c13490b 	0x1c13490b
     2e4:	0a000006 	j	8000018 <__memory_size+0x7fe0818>
     2e8:	0e030034 	jal	80c00d0 <__memory_size+0x80a08d0>
     2ec:	0b3b0b3a 	j	cec2ce8 <__memory_size+0xcea34e8>
     2f0:	17021349 	bne	t8,v0,5018 <__isr_vec_space+0x4ff8>
     2f4:	2e0b0000 	sltiu	t3,s0,0
     2f8:	03193f01 	0x3193f01
     2fc:	3b0b3a0e 	xori	t3,t8,0x3a0e
     300:	4919270b 	bc2t	$cc6,9f30 <__isr_vec_space+0x9f10>
     304:	010b2013 	0x10b2013
     308:	0c000013 	jal	4c <__isr_vec_space+0x2c>
     30c:	0e030005 	jal	80c0014 <__memory_size+0x80a0814>
     310:	0b3b0b3a 	j	cec2ce8 <__memory_size+0xcea34e8>
     314:	00001349 	0x1349
     318:	31012e0d 	andi	at,t0,0x2e0d
     31c:	12011113 	beq	s0,at,476c <__isr_vec_space+0x474c>
     320:	97184006 	lhu	t8,16390(t8)
     324:	13011942 	beq	t8,at,6830 <__isr_vec_space+0x6810>
     328:	050e0000 	tnei	t0,0
     32c:	02133100 	0x2133100
     330:	0f000018 	jal	c000060 <__memory_size+0xbfe0860>
     334:	08030005 	j	c0014 <__memory_size+0xa0814>
     338:	0b3b0b3a 	j	cec2ce8 <__memory_size+0xcea34e8>
     33c:	00001349 	0x1349
     340:	3f012e10 	0x3f012e10
     344:	3a0e0319 	xori	t6,s0,0x319
     348:	270b3b0b 	addiu	t3,t8,15115
     34c:	11134919 	beq	t0,s3,127b4 <__isr_vec_space+0x12794>
     350:	40061201 	0x40061201
     354:	19429718 	0x19429718
     358:	00001301 	0x1301
     35c:	03000511 	0x3000511
     360:	3b0b3a0e 	xori	t3,t8,0x3a0e
     364:	0213490b 	0x213490b
     368:	12000017 	beqz	s0,3c8 <__isr_vec_space+0x3a8>
     36c:	08030034 	j	c00d0 <__memory_size+0xa08d0>
     370:	0b3b0b3a 	j	cec2ce8 <__memory_size+0xcea34e8>
     374:	00001349 	0x1349
     378:	31011d13 	andi	at,t0,0x1d13
     37c:	12011113 	beq	s0,at,47cc <__isr_vec_space+0x47ac>
     380:	590b5806 	0x590b5806
     384:	0013010b 	0x13010b
     388:	00051400 	sll	v0,a1,0x10
     38c:	17021331 	bne	t8,v0,5054 <__isr_vec_space+0x5034>
     390:	1d150000 	0x1d150000
     394:	52133101 	beql	s0,s3,c79c <__isr_vec_space+0xc77c>
     398:	58175501 	0x58175501
     39c:	000b590b 	0xb590b
     3a0:	000f1600 	sll	v0,t7,0x18
     3a4:	13490b0b 	beq	k0,t1,2fd4 <__isr_vec_space+0x2fb4>
     3a8:	05170000 	0x5170000
     3ac:	3a080300 	xori	t0,s0,0x300
     3b0:	490b3b0b 	bc2tl	$cc2,efe0 <__isr_vec_space+0xefc0>
     3b4:	00180213 	0x180213
     3b8:	82891800 	lb	t1,6144(s4)
     3bc:	01110101 	0x1110101
     3c0:	00001331 	tgeu	zero,zero,0x4c
     3c4:	01828a19 	0x1828a19
     3c8:	91180200 	lbu	t8,512(t0)
     3cc:	00001842 	srl	v1,zero,0x1
     3d0:	0300051a 	0x300051a
     3d4:	3b0b3a08 	xori	t3,t8,0x3a08
     3d8:	0213490b 	0x213490b
     3dc:	1b000017 	blez	t8,43c <__isr_vec_space+0x41c>
     3e0:	1331011d 	beq	t9,s1,858 <__isr_vec_space+0x838>
     3e4:	17550152 	bne	k0,s5,930 <__isr_vec_space+0x910>
     3e8:	0b590b58 	j	d642d60 <__memory_size+0xd623560>
     3ec:	00001301 	0x1301
     3f0:	11010b1c 	beq	t0,at,3064 <__isr_vec_space+0x3044>
     3f4:	00061201 	0x61201
     3f8:	00051d00 	sll	v1,a1,0x14
     3fc:	0b3a0e03 	j	ce8380c <__memory_size+0xce6400c>
     400:	13490b3b 	beq	k0,t1,30f0 <__isr_vec_space+0x30d0>
     404:	00001802 	srl	v1,zero,0x0
     408:	0300341e 	0x300341e
     40c:	3b0b3a0e 	xori	t3,t8,0x3a0e
     410:	0213490b 	0x213490b
     414:	1f000018 	bgtz	t8,478 <__isr_vec_space+0x458>
     418:	00018289 	0x18289
     41c:	13310111 	beq	t9,s1,864 <__isr_vec_space+0x844>
     420:	34200000 	ori	zero,at,0x0
     424:	3a0e0300 	xori	t6,s0,0x300
     428:	490b3b0b 	bc2tl	$cc2,f058 <__isr_vec_space+0xf038>
     42c:	21000013 	addi	zero,t0,19
     430:	13310005 	beq	t9,s1,448 <__isr_vec_space+0x428>
     434:	2e220000 	sltiu	v0,s1,0
     438:	03193f01 	0x3193f01
     43c:	3b0b3a0e 	xori	t3,t8,0x3a0e
     440:	49192705 	bc2t	$cc6,a058 <__isr_vec_space+0xa038>
     444:	12011113 	beq	s0,at,4894 <__isr_vec_space+0x4874>
     448:	97184006 	lhu	t8,16390(t8)
     44c:	13011942 	beq	t8,at,6958 <__isr_vec_space+0x6938>
     450:	05230000 	bgezl	t1,454 <__isr_vec_space+0x434>
     454:	3a0e0300 	xori	t6,s0,0x300
     458:	49053b0b 	bc2t	$cc1,f088 <__isr_vec_space+0xf068>
     45c:	00170213 	0x170213
     460:	00052400 	sll	a0,a1,0x10
     464:	0b3a0803 	j	ce8200c <__memory_size+0xce6280c>
     468:	1349053b 	beq	k0,t1,1958 <__isr_vec_space+0x1938>
     46c:	00001702 	srl	v0,zero,0x1c
     470:	03000525 	0x3000525
     474:	3b0b3a0e 	xori	t3,t8,0x3a0e
     478:	02134905 	0x2134905
     47c:	26000018 	addiu	zero,s0,24
     480:	0e030034 	jal	80c00d0 <__memory_size+0x80a08d0>
     484:	053b0b3a 	0x53b0b3a
     488:	18021349 	0x18021349
     48c:	34270000 	ori	a3,at,0x0
     490:	3a080300 	xori	t0,s0,0x300
     494:	49053b0b 	bc2t	$cc1,f0c4 <__isr_vec_space+0xf0a4>
     498:	28000013 	slti	zero,zero,19
     49c:	08030034 	j	c00d0 <__memory_size+0xa08d0>
     4a0:	053b0b3a 	0x53b0b3a
     4a4:	18021349 	0x18021349
     4a8:	34290000 	ori	t1,at,0x0
     4ac:	3a080300 	xori	t0,s0,0x300
     4b0:	49053b0b 	bc2t	$cc1,f0e0 <__isr_vec_space+0xf0c0>
     4b4:	00170213 	0x170213
     4b8:	011d2a00 	0x11d2a00
     4bc:	01111331 	tgeu	t0,s1,0x4c
     4c0:	0b580612 	j	d601848 <__memory_size+0xd5e2048>
     4c4:	13010559 	beq	t8,at,1a2c <__isr_vec_space+0x1a0c>
     4c8:	1d2b0000 	0x1d2b0000
     4cc:	52133101 	beql	s0,s3,c8d4 <__isr_vec_space+0xc8b4>
     4d0:	58175501 	0x58175501
     4d4:	0005590b 	0x5590b
     4d8:	012e2c00 	0x12e2c00
     4dc:	0e03193f 	jal	80c64fc <__memory_size+0x80a6cfc>
     4e0:	053b0b3a 	0x53b0b3a
     4e4:	01111927 	0x1111927
     4e8:	18400612 	blez	v0,1d34 <__isr_vec_space+0x1d14>
     4ec:	01194297 	0x1194297
     4f0:	2d000013 	sltiu	zero,t0,19
     4f4:	0e030034 	jal	80c00d0 <__memory_size+0x80a08d0>
     4f8:	0b3b0b3a 	j	cec2ce8 <__memory_size+0xcea34e8>
     4fc:	0d1c1349 	jal	4704d24 <__memory_size+0x46e5524>
     500:	342e0000 	ori	t6,at,0x0
     504:	3a0e0300 	xori	t6,s0,0x300
     508:	490b3b0b 	bc2tl	$cc2,f138 <__isr_vec_space+0xf118>
     50c:	02193f13 	0x2193f13
     510:	2f000018 	sltiu	zero,t8,24
     514:	13490101 	beq	k0,t1,91c <__isr_vec_space+0x8fc>
     518:	00001301 	0x1301
     51c:	49002130 	bc2f	89e0 <__isr_vec_space+0x89c0>
     520:	000b2f13 	0xb2f13
     524:	11010000 	beq	t0,at,528 <__isr_vec_space+0x508>
     528:	130e2501 	beq	t8,t6,9930 <__isr_vec_space+0x9910>
     52c:	1b0e030b 	0x1b0e030b
     530:	1201110e 	beq	s0,at,496c <__isr_vec_space+0x494c>
     534:	00171006 	srlv	v0,s7,zero
     538:	01040200 	0x1040200
     53c:	0b0b0e03 	j	c2c380c <__memory_size+0xc2a400c>
     540:	0b3b0b3a 	j	cec2ce8 <__memory_size+0xcea34e8>
     544:	00001301 	0x1301
     548:	03002803 	0x3002803
     54c:	000d1c0e 	0xd1c0e
     550:	00160400 	sll	zero,s6,0x10
     554:	0b3a0e03 	j	ce8380c <__memory_size+0xce6400c>
     558:	13490b3b 	beq	k0,t1,3248 <__isr_vec_space+0x3228>
     55c:	24050000 	li	a1,0
     560:	3e0b0b00 	0x3e0b0b00
     564:	000e030b 	0xe030b
     568:	00240600 	0x240600
     56c:	0b3e0b0b 	j	cf82c2c <__memory_size+0xcf6342c>
     570:	00000803 	sra	at,zero,0x0
     574:	3f012e07 	0x3f012e07
     578:	3a0e0319 	xori	t6,s0,0x319
     57c:	270b3b0b 	addiu	t3,t8,15115
     580:	20134919 	addi	s3,zero,18713
     584:	0013010b 	0x13010b
     588:	00050800 	sll	at,a1,0x0
     58c:	0b3a0e03 	j	ce8380c <__memory_size+0xce6400c>
     590:	13490b3b 	beq	k0,t1,3280 <__isr_vec_space+0x3260>
     594:	0f090000 	jal	c240000 <__memory_size+0xc220800>
     598:	000b0b00 	sll	at,t3,0xc
     59c:	012e0a00 	0x12e0a00
     5a0:	01111331 	tgeu	t0,s1,0x4c
     5a4:	18400612 	blez	v0,1df0 <__isr_vec_space+0x1dd0>
     5a8:	01194297 	0x1194297
     5ac:	0b000013 	j	c00004c <__memory_size+0xbfe084c>
     5b0:	13310005 	beq	t9,s1,5c8 <__isr_vec_space+0x5a8>
     5b4:	00001802 	srl	v1,zero,0x0
     5b8:	3f002e0c 	0x3f002e0c
     5bc:	3a0e0319 	xori	t6,s0,0x319
     5c0:	270b3b0b 	addiu	t3,t8,15115
     5c4:	12011119 	beq	s0,at,4a2c <__isr_vec_space+0x4a0c>
     5c8:	97184006 	lhu	t8,16390(t8)
     5cc:	00001942 	srl	v1,zero,0x5
     5d0:	3f012e0d 	0x3f012e0d
     5d4:	3a0e0319 	xori	t6,s0,0x319
     5d8:	270b3b0b 	addiu	t3,t8,15115
     5dc:	11134919 	beq	t0,s3,12a44 <__isr_vec_space+0x12a24>
     5e0:	40061201 	0x40061201
     5e4:	19429718 	0x19429718
     5e8:	00001301 	0x1301
     5ec:	0300050e 	0x300050e
     5f0:	3b0b3a08 	xori	t3,t8,0x3a08
     5f4:	0213490b 	0x213490b
     5f8:	0f000017 	jal	c00005c <__memory_size+0xbfe085c>
     5fc:	0e030005 	jal	80c0014 <__memory_size+0x80a0814>
     600:	0b3b0b3a 	j	cec2ce8 <__memory_size+0xcea34e8>
     604:	17021349 	bne	t8,v0,532c <__isr_vec_space+0x530c>
     608:	0b100000 	j	c400000 <__memory_size+0xc3e0800>
     60c:	01175501 	0x1175501
     610:	11000013 	beqz	t0,660 <__isr_vec_space+0x640>
     614:	0e030034 	jal	80c00d0 <__memory_size+0x80a08d0>
     618:	0b3b0b3a 	j	cec2ce8 <__memory_size+0xcea34e8>
     61c:	17021349 	bne	t8,v0,5344 <__isr_vec_space+0x5324>
     620:	34120000 	li	s2,0x0
     624:	3a080300 	xori	t0,s0,0x300
     628:	490b3b0b 	bc2tl	$cc2,f258 <__isr_vec_space+0xf238>
     62c:	00170213 	0x170213
     630:	82891300 	lb	t1,4864(s4)
     634:	01110001 	movt	zero,t0,$fcc4
     638:	00001331 	tgeu	zero,zero,0x4c
     63c:	01828914 	0x1828914
     640:	31011101 	andi	at,t0,0x1101
     644:	00130113 	0x130113
     648:	828a1500 	lb	t2,5376(s4)
     64c:	18020001 	0x18020001
     650:	00184291 	0x184291
     654:	82891600 	lb	t1,5632(s4)
     658:	01110101 	0x1110101
     65c:	00001331 	tgeu	zero,zero,0x4c
     660:	11010b17 	beq	t0,at,32c0 <__isr_vec_space+0x32a0>
     664:	00061201 	0x61201
     668:	010b1800 	0x10b1800
     66c:	06120111 	bltzall	s0,ab4 <__isr_vec_space+0xa94>
     670:	00001301 	0x1301
     674:	3f012e19 	0x3f012e19
     678:	3a0e0319 	xori	t6,s0,0x319
     67c:	270b3b0b 	addiu	t3,t8,15115
     680:	12011119 	beq	s0,at,4ae8 <__isr_vec_space+0x4ac8>
     684:	97184006 	lhu	t8,16390(t8)
     688:	13011942 	beq	t8,at,6b94 <__isr_vec_space+0x6b74>
     68c:	341a0000 	li	k0,0x0
     690:	3a0e0300 	xori	t6,s0,0x300
     694:	490b3b0b 	bc2tl	$cc2,f2c4 <__isr_vec_space+0xf2a4>
     698:	02193f13 	0x2193f13
     69c:	1b000018 	blez	t8,700 <__isr_vec_space+0x6e0>
     6a0:	0b0b000f 	j	c2c003c <__memory_size+0xc2a083c>
     6a4:	00001349 	0x1349
     6a8:	4901011c 	bc2t	b1c <__isr_vec_space+0xafc>
     6ac:	00130113 	0x130113
     6b0:	00211d00 	0x211d00
     6b4:	0b2f1349 	j	cbc4d24 <__memory_size+0xcba5524>
     6b8:	341e0000 	li	s8,0x0
     6bc:	3a080300 	xori	t0,s0,0x300
     6c0:	490b3b0b 	bc2tl	$cc2,f2f0 <__isr_vec_space+0xf2d0>
     6c4:	02193f13 	0x2193f13
     6c8:	1f000018 	bgtz	t8,72c <__isr_vec_space+0x70c>
     6cc:	193f012e 	0x193f012e
     6d0:	0b3a0e03 	j	ce8380c <__memory_size+0xce6400c>
     6d4:	13490b3b 	beq	k0,t1,33c4 <__isr_vec_space+0x33a4>
     6d8:	1301193c 	beq	t8,at,6bcc <__isr_vec_space+0x6bac>
     6dc:	18200000 	blez	at,6e0 <__isr_vec_space+0x6c0>
     6e0:	21000000 	addi	zero,t0,0
     6e4:	193f012e 	0x193f012e
     6e8:	0b3a0e03 	j	ce8380c <__memory_size+0xce6400c>
     6ec:	19270b3b 	0x19270b3b
     6f0:	193c1349 	0x193c1349
     6f4:	00001301 	0x1301
     6f8:	49000522 	bc2f	1b84 <__isr_vec_space+0x1b64>
     6fc:	23000013 	addi	zero,t8,19
     700:	193f002e 	0x193f002e
     704:	0b3a0e03 	j	ce8380c <__memory_size+0xce6400c>
     708:	19270b3b 	0x19270b3b
     70c:	193c1349 	0x193c1349
     710:	2e240000 	sltiu	a0,s1,0
     714:	03193f01 	0x3193f01
     718:	3b0b3a0e 	xori	t3,t8,0x3a0e
     71c:	3c19270b 	lui	t9,0x270b
     720:	00130119 	0x130119
     724:	012e2500 	0x12e2500
     728:	0e03193f 	jal	80c64fc <__memory_size+0x80a6cfc>
     72c:	0b3b0b3a 	j	cec2ce8 <__memory_size+0xcea34e8>
     730:	193c1927 	0x193c1927
     734:	01000000 	0x1000000
     738:	0e250111 	jal	8940444 <__memory_size+0x8920c44>
     73c:	0e030b13 	jal	80c2c4c <__memory_size+0x80a344c>
     740:	01110e1b 	0x1110e1b
     744:	17100612 	bne	t8,s0,1f90 <__isr_vec_space+0x1f70>
     748:	16020000 	bne	s0,v0,74c <__isr_vec_space+0x72c>
     74c:	3a0e0300 	xori	t6,s0,0x300
     750:	490b3b0b 	bc2tl	$cc2,f380 <__isr_vec_space+0xf360>
     754:	03000013 	mtlo	t8
     758:	0b0b0024 	j	c2c0090 <__memory_size+0xc2a0890>
     75c:	0e030b3e 	jal	80c2cf8 <__memory_size+0x80a34f8>
     760:	24040000 	li	a0,0
     764:	3e0b0b00 	0x3e0b0b00
     768:	0008030b 	0x8030b
     76c:	002e0500 	0x2e0500
     770:	0e03193f 	jal	80c64fc <__memory_size+0x80a6cfc>
     774:	0b3b0b3a 	j	cec2ce8 <__memory_size+0xcea34e8>
     778:	01111349 	0x1111349
     77c:	18400612 	blez	v0,1fc8 <__isr_vec_space+0x1fa8>
     780:	00194297 	0x194297
     784:	00340600 	0x340600
     788:	0b3a0e03 	j	ce8380c <__memory_size+0xce6400c>
     78c:	13490b3b 	beq	k0,t1,347c <__isr_vec_space+0x345c>
     790:	1802193f 	0x1802193f
     794:	0f070000 	jal	c1c0000 <__memory_size+0xc1a0800>
     798:	490b0b00 	bc2tl	$cc2,339c <__isr_vec_space+0x337c>
     79c:	00000013 	mtlo	zero
     7a0:	25011101 	addiu	at,t0,4353
     7a4:	030b130e 	0x30b130e
     7a8:	1201110e 	beq	s0,at,4be4 <__isr_vec_space+0x4bc4>
     7ac:	00171006 	srlv	v0,s7,zero
     7b0:	00240200 	0x240200
     7b4:	0b3e0b0b 	j	cf82c2c <__memory_size+0xcf6342c>
     7b8:	00000e03 	sra	at,zero,0x18
     7bc:	0b002403 	j	c00900c <__memory_size+0xbfe980c>
     7c0:	030b3e0b 	0x30b3e0b
     7c4:	04000008 	bltz	zero,7e8 <__isr_vec_space+0x7c8>
     7c8:	0b0b000f 	j	c2c003c <__memory_size+0xc2a083c>
     7cc:	0f050000 	jal	c140000 <__memory_size+0xc120800>
     7d0:	490b0b00 	bc2tl	$cc2,33d4 <__isr_vec_space+0x33b4>
     7d4:	06000013 	bltz	s0,824 <__isr_vec_space+0x804>
     7d8:	19270015 	0x19270015
     7dc:	04070000 	aclr	0x0,0(zero)
     7e0:	0b0e0301 	j	c380c04 <__memory_size+0xc361404>
     7e4:	3b0b3a0b 	xori	t3,t8,0x3a0b
     7e8:	0013010b 	0x13010b
     7ec:	00280800 	0x280800
     7f0:	0d1c0e03 	jal	470380c <__memory_size+0x46e400c>
     7f4:	2e090000 	sltiu	t1,s0,0
     7f8:	03193f01 	0x3193f01
     7fc:	3b0b3a0e 	xori	t3,t8,0x3a0e
     800:	4919270b 	bc2t	$cc6,a430 <__isr_vec_space+0xa410>
     804:	12011113 	beq	s0,at,4c54 <__isr_vec_space+0x4c34>
     808:	97184006 	lhu	t8,16390(t8)
     80c:	13011942 	beq	t8,at,6d18 <__isr_vec_space+0x6cf8>
     810:	050a0000 	tlti	t0,0
     814:	3a080300 	xori	t0,s0,0x300
     818:	490b3b0b 	bc2tl	$cc2,f448 <__isr_vec_space+0xf428>
     81c:	00170213 	0x170213
     820:	82890b00 	lb	t1,2816(s4)
     824:	01110101 	0x1110101
     828:	00001331 	tgeu	zero,zero,0x4c
     82c:	01828a0c 	syscall	0x60a28
     830:	91180200 	lbu	t8,512(t0)
     834:	00001842 	srl	v1,zero,0x1
     838:	3f012e0d 	0x3f012e0d
     83c:	3a0e0319 	xori	t6,s0,0x319
     840:	270b3b0b 	addiu	t3,t8,15115
     844:	3c134919 	lui	s3,0x4919
     848:	0e000019 	jal	8000064 <__memory_size+0x7fe0864>
     84c:	13490005 	beq	k0,t1,864 <__isr_vec_space+0x844>
     850:	01000000 	0x1000000
     854:	0e250111 	jal	8940444 <__memory_size+0x8920c44>
     858:	0e030b13 	jal	80c2c4c <__memory_size+0x80a344c>
     85c:	06120111 	bltzall	s0,ca4 <__isr_vec_space+0xc84>
     860:	00001710 	0x1710
     864:	0b002402 	j	c009008 <__memory_size+0xbfe9808>
     868:	030b3e0b 	0x30b3e0b
     86c:	0300000e 	0x300000e
     870:	0b0b0024 	j	c2c0090 <__memory_size+0xc2a0890>
     874:	08030b3e 	j	c2cf8 <__memory_size+0xa34f8>
     878:	16040000 	bne	s0,a0,87c <__isr_vec_space+0x85c>
     87c:	3a0e0300 	xori	t6,s0,0x300
     880:	490b3b0b 	bc2tl	$cc2,f4b0 <__isr_vec_space+0xf490>
     884:	05000013 	bltz	t0,8d4 <__isr_vec_space+0x8b4>
     888:	0e030016 	jal	80c0058 <__memory_size+0x80a0858>
     88c:	053b0b3a 	0x53b0b3a
     890:	00001349 	0x1349
     894:	0b011706 	j	c045c18 <__memory_size+0xc026418>
     898:	3b0b3a0b 	xori	t3,t8,0x3a0b
     89c:	0013010b 	0x13010b
     8a0:	000d0700 	sll	zero,t5,0x1c
     8a4:	0b3a0e03 	j	ce8380c <__memory_size+0xce6400c>
     8a8:	13490b3b 	beq	k0,t1,3598 <__isr_vec_space+0x3578>
     8ac:	01080000 	0x1080000
     8b0:	01134901 	0x1134901
     8b4:	09000013 	j	400004c <__memory_size+0x3fe084c>
     8b8:	13490021 	beq	k0,t1,940 <__isr_vec_space+0x920>
     8bc:	00000b2f 	0xb2f
     8c0:	0b01130a 	j	c044c28 <__memory_size+0xc025428>
     8c4:	3b0b3a0b 	xori	t3,t8,0x3a0b
     8c8:	0013010b 	0x13010b
     8cc:	000d0b00 	sll	at,t5,0xc
     8d0:	0b3a0e03 	j	ce8380c <__memory_size+0xce6400c>
     8d4:	13490b3b 	beq	k0,t1,35c4 <__isr_vec_space+0x35a4>
     8d8:	00000b38 	0xb38
     8dc:	0b000f0c 	j	c003c30 <__memory_size+0xbfe4430>
     8e0:	0d00000b 	jal	400002c <__memory_size+0x3fe082c>
     8e4:	0e030113 	jal	80c044c <__memory_size+0x80a0c4c>
     8e8:	0b3a0b0b 	j	ce82c2c <__memory_size+0xce6342c>
     8ec:	13010b3b 	beq	t8,at,35dc <__isr_vec_space+0x35bc>
     8f0:	0d0e0000 	jal	4380000 <__memory_size+0x4360800>
     8f4:	3a080300 	xori	t0,s0,0x300
     8f8:	490b3b0b 	bc2tl	$cc2,f528 <__isr_vec_space+0xf508>
     8fc:	000b3813 	0xb3813
     900:	000f0f00 	sll	at,t7,0x1c
     904:	13490b0b 	beq	k0,t1,3534 <__isr_vec_space+0x3514>
     908:	13100000 	beq	t8,s0,90c <__isr_vec_space+0x8ec>
     90c:	0b0e0301 	j	c380c04 <__memory_size+0xc361404>
     910:	3b0b3a05 	xori	t3,t8,0x3a05
     914:	0013010b 	0x13010b
     918:	000d1100 	sll	v0,t5,0x4
     91c:	0b3a0e03 	j	ce8380c <__memory_size+0xce6400c>
     920:	13490b3b 	beq	k0,t1,3610 <__isr_vec_space+0x35f0>
     924:	00000538 	0x538
     928:	27001512 	addiu	zero,t8,5394
     92c:	13000019 	beqz	t8,994 <__isr_vec_space+0x974>
     930:	19270115 	0x19270115
     934:	13011349 	beq	t8,at,565c <__isr_vec_space+0x563c>
     938:	05140000 	0x5140000
     93c:	00134900 	sll	t1,s3,0x4
     940:	01131500 	0x1131500
     944:	050b0e03 	tltiu	t0,3587
     948:	053b0b3a 	0x53b0b3a
     94c:	00001301 	0x1301
     950:	03000d16 	0x3000d16
     954:	3b0b3a0e 	xori	t3,t8,0x3a0e
     958:	38134905 	xori	s3,zero,0x4905
     95c:	1700000b 	bnez	t8,98c <__isr_vec_space+0x96c>
     960:	0e03000d 	jal	80c0034 <__memory_size+0x80a0834>
     964:	053b0b3a 	0x53b0b3a
     968:	05381349 	0x5381349
     96c:	26180000 	addiu	t8,s0,0
     970:	00134900 	sll	t1,s3,0x4
     974:	01131900 	0x1131900
     978:	0b0b0e03 	j	c2c380c <__memory_size+0xc2a400c>
     97c:	053b0b3a 	0x53b0b3a
     980:	00001301 	0x1301
     984:	0b01131a 	j	c044c68 <__memory_size+0xc025468>
     988:	3b0b3a0b 	xori	t3,t8,0x3a0b
     98c:	00130105 	0x130105
     990:	01171b00 	0x1171b00
     994:	0b3a0b0b 	j	ce82c2c <__memory_size+0xce6342c>
     998:	1301053b 	beq	t8,at,1e88 <__isr_vec_space+0x1e68>
     99c:	0d1c0000 	jal	4700000 <__memory_size+0x46e0800>
     9a0:	3a0e0300 	xori	t6,s0,0x300
     9a4:	49053b0b 	bc2t	$cc1,f5d4 <__isr_vec_space+0xf5b4>
     9a8:	1d000013 	bgtz	t0,9f8 <__isr_vec_space+0x9d8>
     9ac:	19270115 	0x19270115
     9b0:	00001301 	0x1301
     9b4:	3f012e1e 	0x3f012e1e
     9b8:	3a0e0319 	xori	t6,s0,0x319
     9bc:	270b3b0b 	addiu	t3,t8,15115
     9c0:	12011119 	beq	s0,at,4e28 <__isr_vec_space+0x4e08>
     9c4:	96184006 	lhu	t8,16390(s0)
     9c8:	13011942 	beq	t8,at,6ed4 <__isr_vec_space+0x6eb4>
     9cc:	051f0000 	synci	0(t0)
     9d0:	3a0e0300 	xori	t6,s0,0x300
     9d4:	490b3b0b 	bc2tl	$cc2,f604 <__isr_vec_space+0xf5e4>
     9d8:	00170213 	0x170213
     9dc:	82892000 	lb	t1,8192(s4)
     9e0:	01110101 	0x1110101
     9e4:	13011331 	beq	t8,at,56ac <__isr_vec_space+0x568c>
     9e8:	8a210000 	lwl	at,0(s1)
     9ec:	02000182 	0x2000182
     9f0:	18429118 	0x18429118
     9f4:	89220000 	lwl	v0,0(t1)
     9f8:	11010182 	beq	t0,at,1004 <__isr_vec_space+0xfe4>
     9fc:	00133101 	0x133101
     a00:	00342300 	0x342300
     a04:	0b3a0e03 	j	ce8380c <__memory_size+0xce6400c>
     a08:	1349053b 	beq	k0,t1,1ef8 <__isr_vec_space+0x1ed8>
     a0c:	193c193f 	0x193c193f
     a10:	2e240000 	sltiu	a0,s1,0
     a14:	03193f01 	0x3193f01
     a18:	3b0b3a0e 	xori	t3,t8,0x3a0e
     a1c:	3c19270b 	lui	t9,0x270b
     a20:	00130119 	0x130119
     a24:	012e2500 	0x12e2500
     a28:	0e03193f 	jal	80c64fc <__memory_size+0x80a6cfc>
     a2c:	0b3b0b3a 	j	cec2ce8 <__memory_size+0xcea34e8>
     a30:	193c1927 	0x193c1927
     a34:	01000000 	0x1000000
     a38:	0e250111 	jal	8940444 <__memory_size+0x8920c44>
     a3c:	0e030b13 	jal	80c2c4c <__memory_size+0x80a344c>
     a40:	00001710 	0x1710
     a44:	0b002402 	j	c009008 <__memory_size+0xbfe9808>
     a48:	030b3e0b 	0x30b3e0b
     a4c:	0300000e 	0x300000e
     a50:	0b0b0024 	j	c2c0090 <__memory_size+0xc2a0890>
     a54:	08030b3e 	j	c2cf8 <__memory_size+0xa34f8>
     a58:	16040000 	bne	s0,a0,a5c <__isr_vec_space+0xa3c>
     a5c:	3a0e0300 	xori	t6,s0,0x300
     a60:	490b3b0b 	bc2tl	$cc2,f690 <__isr_vec_space+0xf670>
     a64:	05000013 	bltz	t0,ab4 <__isr_vec_space+0xa94>
     a68:	0e030016 	jal	80c0058 <__memory_size+0x80a0858>
     a6c:	053b0b3a 	0x53b0b3a
     a70:	00001349 	0x1349
     a74:	0b011706 	j	c045c18 <__memory_size+0xc026418>
     a78:	3b0b3a0b 	xori	t3,t8,0x3a0b
     a7c:	0013010b 	0x13010b
     a80:	000d0700 	sll	zero,t5,0x1c
     a84:	0b3a0e03 	j	ce8380c <__memory_size+0xce6400c>
     a88:	13490b3b 	beq	k0,t1,3778 <__isr_vec_space+0x3758>
     a8c:	01080000 	0x1080000
     a90:	01134901 	0x1134901
     a94:	09000013 	j	400004c <__memory_size+0x3fe084c>
     a98:	13490021 	beq	k0,t1,b20 <__isr_vec_space+0xb00>
     a9c:	00000b2f 	0xb2f
     aa0:	0b01130a 	j	c044c28 <__memory_size+0xc025428>
     aa4:	3b0b3a0b 	xori	t3,t8,0x3a0b
     aa8:	0013010b 	0x13010b
     aac:	000d0b00 	sll	at,t5,0xc
     ab0:	0b3a0e03 	j	ce8380c <__memory_size+0xce6400c>
     ab4:	13490b3b 	beq	k0,t1,37a4 <__isr_vec_space+0x3784>
     ab8:	00000b38 	0xb38
     abc:	0b000f0c 	j	c003c30 <__memory_size+0xbfe4430>
     ac0:	0d00000b 	jal	400002c <__memory_size+0x3fe082c>
     ac4:	0e030113 	jal	80c044c <__memory_size+0x80a0c4c>
     ac8:	0b3a0b0b 	j	ce82c2c <__memory_size+0xce6342c>
     acc:	13010b3b 	beq	t8,at,37bc <__isr_vec_space+0x379c>
     ad0:	0d0e0000 	jal	4380000 <__memory_size+0x4360800>
     ad4:	3a080300 	xori	t0,s0,0x300
     ad8:	490b3b0b 	bc2tl	$cc2,f708 <__isr_vec_space+0xf6e8>
     adc:	000b3813 	0xb3813
     ae0:	000f0f00 	sll	at,t7,0x1c
     ae4:	13490b0b 	beq	k0,t1,3714 <__isr_vec_space+0x36f4>
     ae8:	13100000 	beq	t8,s0,aec <__isr_vec_space+0xacc>
     aec:	0b0e0301 	j	c380c04 <__memory_size+0xc361404>
     af0:	3b0b3a05 	xori	t3,t8,0x3a05
     af4:	0013010b 	0x13010b
     af8:	000d1100 	sll	v0,t5,0x4
     afc:	0b3a0e03 	j	ce8380c <__memory_size+0xce6400c>
     b00:	13490b3b 	beq	k0,t1,37f0 <__isr_vec_space+0x37d0>
     b04:	00000538 	0x538
     b08:	27001512 	addiu	zero,t8,5394
     b0c:	13000019 	beqz	t8,b74 <__isr_vec_space+0xb54>
     b10:	19270115 	0x19270115
     b14:	13011349 	beq	t8,at,583c <__isr_vec_space+0x581c>
     b18:	05140000 	0x5140000
     b1c:	00134900 	sll	t1,s3,0x4
     b20:	01131500 	0x1131500
     b24:	050b0e03 	tltiu	t0,3587
     b28:	053b0b3a 	0x53b0b3a
     b2c:	00001301 	0x1301
     b30:	03000d16 	0x3000d16
     b34:	3b0b3a0e 	xori	t3,t8,0x3a0e
     b38:	38134905 	xori	s3,zero,0x4905
     b3c:	1700000b 	bnez	t8,b6c <__isr_vec_space+0xb4c>
     b40:	0e03000d 	jal	80c0034 <__memory_size+0x80a0834>
     b44:	053b0b3a 	0x53b0b3a
     b48:	05381349 	0x5381349
     b4c:	26180000 	addiu	t8,s0,0
     b50:	00134900 	sll	t1,s3,0x4
     b54:	01131900 	0x1131900
     b58:	0b0b0e03 	j	c2c380c <__memory_size+0xc2a400c>
     b5c:	053b0b3a 	0x53b0b3a
     b60:	00001301 	0x1301
     b64:	0b01131a 	j	c044c68 <__memory_size+0xc025468>
     b68:	3b0b3a0b 	xori	t3,t8,0x3a0b
     b6c:	00130105 	0x130105
     b70:	01171b00 	0x1171b00
     b74:	0b3a0b0b 	j	ce82c2c <__memory_size+0xce6342c>
     b78:	1301053b 	beq	t8,at,2068 <__isr_vec_space+0x2048>
     b7c:	0d1c0000 	jal	4700000 <__memory_size+0x46e0800>
     b80:	3a0e0300 	xori	t6,s0,0x300
     b84:	49053b0b 	bc2t	$cc1,f7b4 <__isr_vec_space+0xf794>
     b88:	1d000013 	bgtz	t0,bd8 <__isr_vec_space+0xbb8>
     b8c:	19270115 	0x19270115
     b90:	00001301 	0x1301
     b94:	0300341e 	0x300341e
     b98:	3b0b3a0e 	xori	t3,t8,0x3a0e
     b9c:	0213490b 	0x213490b
     ba0:	1f000018 	bgtz	t8,c04 <__isr_vec_space+0xbe4>
     ba4:	0e030034 	jal	80c00d0 <__memory_size+0x80a08d0>
     ba8:	053b0b3a 	0x53b0b3a
     bac:	193f1349 	0x193f1349
     bb0:	00001802 	srl	v1,zero,0x0
     bb4:	01110100 	0x1110100
     bb8:	0b130e25 	j	c4c3894 <__memory_size+0xc4a4094>
     bbc:	01110e03 	0x1110e03
     bc0:	17100612 	bne	t8,s0,240c <__isr_vec_space+0x23ec>
     bc4:	24020000 	li	v0,0
     bc8:	3e0b0b00 	0x3e0b0b00
     bcc:	000e030b 	0xe030b
     bd0:	00160300 	sll	zero,s6,0xc
     bd4:	0b3a0e03 	j	ce8380c <__memory_size+0xce6400c>
     bd8:	13490b3b 	beq	k0,t1,38c8 <__isr_vec_space+0x38a8>
     bdc:	24040000 	li	a0,0
     be0:	3e0b0b00 	0x3e0b0b00
     be4:	0008030b 	0x8030b
     be8:	00160500 	sll	zero,s6,0x14
     bec:	0b3a0e03 	j	ce8380c <__memory_size+0xce6400c>
     bf0:	1349053b 	beq	k0,t1,20e0 <__isr_vec_space+0x20c0>
     bf4:	17060000 	bne	t8,a2,bf8 <__isr_vec_space+0xbd8>
     bf8:	3a0b0b01 	xori	t3,s0,0xb01
     bfc:	010b3b0b 	0x10b3b0b
     c00:	07000013 	bltz	t8,c50 <__isr_vec_space+0xc30>
     c04:	0e03000d 	jal	80c0034 <__memory_size+0x80a0834>
     c08:	0b3b0b3a 	j	cec2ce8 <__memory_size+0xcea34e8>
     c0c:	00001349 	0x1349
     c10:	49010108 	bc2t	1034 <__isr_vec_space+0x1014>
     c14:	00130113 	0x130113
     c18:	00210900 	0x210900
     c1c:	0b2f1349 	j	cbc4d24 <__memory_size+0xcba5524>
     c20:	130a0000 	beq	t8,t2,c24 <__isr_vec_space+0xc04>
     c24:	3a0b0b01 	xori	t3,s0,0xb01
     c28:	010b3b0b 	0x10b3b0b
     c2c:	0b000013 	j	c00004c <__memory_size+0xbfe084c>
     c30:	0e03000d 	jal	80c0034 <__memory_size+0x80a0834>
     c34:	0b3b0b3a 	j	cec2ce8 <__memory_size+0xcea34e8>
     c38:	0b381349 	j	ce04d24 <__memory_size+0xcde5524>
     c3c:	0f0c0000 	jal	c300000 <__memory_size+0xc2e0800>
     c40:	000b0b00 	sll	at,t3,0xc
     c44:	01130d00 	0x1130d00
     c48:	0b0b0e03 	j	c2c380c <__memory_size+0xc2a400c>
     c4c:	0b3b0b3a 	j	cec2ce8 <__memory_size+0xcea34e8>
     c50:	00001301 	0x1301
     c54:	03000d0e 	0x3000d0e
     c58:	3b0b3a08 	xori	t3,t8,0x3a08
     c5c:	3813490b 	xori	s3,zero,0x490b
     c60:	0f00000b 	jal	c00002c <__memory_size+0xbfe082c>
     c64:	0b0b000f 	j	c2c003c <__memory_size+0xc2a083c>
     c68:	00001349 	0x1349
     c6c:	03011310 	0x3011310
     c70:	3a050b0e 	xori	a1,s0,0xb0e
     c74:	010b3b0b 	0x10b3b0b
     c78:	11000013 	beqz	t0,cc8 <__isr_vec_space+0xca8>
     c7c:	0e03000d 	jal	80c0034 <__memory_size+0x80a0834>
     c80:	0b3b0b3a 	j	cec2ce8 <__memory_size+0xcea34e8>
     c84:	05381349 	0x5381349
     c88:	15120000 	bne	t0,s2,c8c <__isr_vec_space+0xc6c>
     c8c:	00192700 	sll	a0,t9,0x1c
     c90:	01151300 	0x1151300
     c94:	13491927 	beq	k0,t1,7134 <__isr_vec_space+0x7114>
     c98:	00001301 	0x1301
     c9c:	49000514 	bc2f	20f0 <__isr_vec_space+0x20d0>
     ca0:	15000013 	bnez	t0,cf0 <__isr_vec_space+0xcd0>
     ca4:	0e030113 	jal	80c044c <__memory_size+0x80a0c4c>
     ca8:	0b3a050b 	j	ce8142c <__memory_size+0xce61c2c>
     cac:	1301053b 	beq	t8,at,219c <__isr_vec_space+0x217c>
     cb0:	0d160000 	jal	4580000 <__memory_size+0x4560800>
     cb4:	3a0e0300 	xori	t6,s0,0x300
     cb8:	49053b0b 	bc2t	$cc1,f8e8 <__isr_vec_space+0xf8c8>
     cbc:	000b3813 	0xb3813
     cc0:	000d1700 	sll	v0,t5,0x1c
     cc4:	0b3a0e03 	j	ce8380c <__memory_size+0xce6400c>
     cc8:	1349053b 	beq	k0,t1,21b8 <__isr_vec_space+0x2198>
     ccc:	00000538 	0x538
     cd0:	49002618 	bc2f	a534 <__isr_vec_space+0xa514>
     cd4:	19000013 	blez	t0,d24 <__isr_vec_space+0xd04>
     cd8:	0e030113 	jal	80c044c <__memory_size+0x80a0c4c>
     cdc:	0b3a0b0b 	j	ce82c2c <__memory_size+0xce6342c>
     ce0:	1301053b 	beq	t8,at,21d0 <__isr_vec_space+0x21b0>
     ce4:	131a0000 	beq	t8,k0,ce8 <__isr_vec_space+0xcc8>
     ce8:	3a0b0b01 	xori	t3,s0,0xb01
     cec:	01053b0b 	0x1053b0b
     cf0:	1b000013 	blez	t8,d40 <__isr_vec_space+0xd20>
     cf4:	0b0b0117 	j	c2c045c <__memory_size+0xc2a0c5c>
     cf8:	053b0b3a 	0x53b0b3a
     cfc:	00001301 	0x1301
     d00:	03000d1c 	0x3000d1c
     d04:	3b0b3a0e 	xori	t3,t8,0x3a0e
     d08:	00134905 	0x134905
     d0c:	01151d00 	0x1151d00
     d10:	13011927 	beq	t8,at,71b0 <__isr_vec_space+0x7190>
     d14:	041e0000 	0x41e0000
     d18:	0b0e0301 	j	c380c04 <__memory_size+0xc361404>
     d1c:	3b0b3a0b 	xori	t3,t8,0x3a0b
     d20:	0013010b 	0x13010b
     d24:	00281f00 	0x281f00
     d28:	0d1c0e03 	jal	470380c <__memory_size+0x46e400c>
     d2c:	2e200000 	sltiu	zero,s1,0
     d30:	03193f01 	0x3193f01
     d34:	3b0b3a0e 	xori	t3,t8,0x3a0e
     d38:	4919270b 	bc2t	$cc6,a968 <__isr_vec_space+0xa948>
     d3c:	12011113 	beq	s0,at,518c <__isr_vec_space+0x516c>
     d40:	97184006 	lhu	t8,16390(t8)
     d44:	13011942 	beq	t8,at,7250 <__isr_vec_space+0x7230>
     d48:	05210000 	bgez	t1,d4c <__isr_vec_space+0xd2c>
     d4c:	3a0e0300 	xori	t6,s0,0x300
     d50:	490b3b0b 	bc2tl	$cc2,f980 <__isr_vec_space+0xf960>
     d54:	00170213 	0x170213
     d58:	00052200 	sll	a0,a1,0x8
     d5c:	0b3a0803 	j	ce8200c <__memory_size+0xce6280c>
     d60:	13490b3b 	beq	k0,t1,3a50 <__isr_vec_space+0x3a30>
     d64:	00001702 	srl	v0,zero,0x1c
     d68:	03003423 	0x3003423
     d6c:	3b0b3a0e 	xori	t3,t8,0x3a0e
     d70:	0213490b 	0x213490b
     d74:	24000017 	li	zero,23
     d78:	08030034 	j	c00d0 <__memory_size+0xa08d0>
     d7c:	0b3b0b3a 	j	cec2ce8 <__memory_size+0xcea34e8>
     d80:	17021349 	bne	t8,v0,5aa8 <__isr_vec_space+0x5a88>
     d84:	89250000 	lwl	a1,0(t1)
     d88:	11010182 	beq	t0,at,1394 <__isr_vec_space+0x1374>
     d8c:	00133101 	0x133101
     d90:	828a2600 	lb	t2,9728(s4)
     d94:	18020001 	0x18020001
     d98:	00184291 	0x184291
     d9c:	00342700 	0x342700
     da0:	0b3a0e03 	j	ce8380c <__memory_size+0xce6400c>
     da4:	1349053b 	beq	k0,t1,2294 <__isr_vec_space+0x2274>
     da8:	193c193f 	0x193c193f
     dac:	2e280000 	sltiu	t0,s1,0
     db0:	03193f01 	0x3193f01
     db4:	3b0b3a0e 	xori	t3,t8,0x3a0e
     db8:	4919270b 	bc2t	$cc6,a9e8 <__isr_vec_space+0xa9c8>
     dbc:	00193c13 	0x193c13
     dc0:	11010000 	beq	t0,at,dc4 <__isr_vec_space+0xda4>
     dc4:	130e2501 	beq	t8,t6,a1cc <__isr_vec_space+0xa1ac>
     dc8:	110e030b 	beq	t0,t6,19f8 <__isr_vec_space+0x19d8>
     dcc:	10061201 	beq	zero,a2,55d4 <__isr_vec_space+0x55b4>
     dd0:	02000017 	0x2000017
     dd4:	0b0b0024 	j	c2c0090 <__memory_size+0xc2a0890>
     dd8:	0e030b3e 	jal	80c2cf8 <__memory_size+0x80a34f8>
     ddc:	24030000 	li	v1,0
     de0:	3e0b0b00 	0x3e0b0b00
     de4:	0008030b 	0x8030b
     de8:	00160400 	sll	zero,s6,0x10
     dec:	0b3a0e03 	j	ce8380c <__memory_size+0xce6400c>
     df0:	13490b3b 	beq	k0,t1,3ae0 <__isr_vec_space+0x3ac0>
     df4:	16050000 	bne	s0,a1,df8 <__isr_vec_space+0xdd8>
     df8:	3a0e0300 	xori	t6,s0,0x300
     dfc:	49053b0b 	bc2t	$cc1,fa2c <__isr_vec_space+0xfa0c>
     e00:	06000013 	bltz	s0,e50 <__isr_vec_space+0xe30>
     e04:	0b0b0117 	j	c2c045c <__memory_size+0xc2a0c5c>
     e08:	0b3b0b3a 	j	cec2ce8 <__memory_size+0xcea34e8>
     e0c:	00001301 	0x1301
     e10:	03000d07 	0x3000d07
     e14:	3b0b3a0e 	xori	t3,t8,0x3a0e
     e18:	0013490b 	0x13490b
     e1c:	01010800 	0x1010800
     e20:	13011349 	beq	t8,at,5b48 <__isr_vec_space+0x5b28>
     e24:	21090000 	addi	t1,t0,0
     e28:	2f134900 	sltiu	s3,t8,18688
     e2c:	0a00000b 	j	800002c <__memory_size+0x7fe082c>
     e30:	0b0b0113 	j	c2c044c <__memory_size+0xc2a0c4c>
     e34:	0b3b0b3a 	j	cec2ce8 <__memory_size+0xcea34e8>
     e38:	00001301 	0x1301
     e3c:	03000d0b 	0x3000d0b
     e40:	3b0b3a0e 	xori	t3,t8,0x3a0e
     e44:	3813490b 	xori	s3,zero,0x490b
     e48:	0c00000b 	jal	2c <__isr_vec_space+0xc>
     e4c:	0b0b000f 	j	c2c003c <__memory_size+0xc2a083c>
     e50:	130d0000 	beq	t8,t5,e54 <__isr_vec_space+0xe34>
     e54:	0b0e0301 	j	c380c04 <__memory_size+0xc361404>
     e58:	3b0b3a0b 	xori	t3,t8,0x3a0b
     e5c:	0013010b 	0x13010b
     e60:	000d0e00 	sll	at,t5,0x18
     e64:	0b3a0803 	j	ce8200c <__memory_size+0xce6280c>
     e68:	13490b3b 	beq	k0,t1,3b58 <__isr_vec_space+0x3b38>
     e6c:	00000b38 	0xb38
     e70:	0b000f0f 	j	c003c3c <__memory_size+0xbfe443c>
     e74:	0013490b 	0x13490b
     e78:	01131000 	0x1131000
     e7c:	050b0e03 	tltiu	t0,3587
     e80:	0b3b0b3a 	j	cec2ce8 <__memory_size+0xcea34e8>
     e84:	00001301 	0x1301
     e88:	03000d11 	0x3000d11
     e8c:	3b0b3a0e 	xori	t3,t8,0x3a0e
     e90:	3813490b 	xori	s3,zero,0x490b
     e94:	12000005 	beqz	s0,eac <__isr_vec_space+0xe8c>
     e98:	19270015 	0x19270015
     e9c:	15130000 	bne	t0,s3,ea0 <__isr_vec_space+0xe80>
     ea0:	49192701 	bc2t	$cc6,aaa8 <__isr_vec_space+0xaa88>
     ea4:	00130113 	0x130113
     ea8:	00051400 	sll	v0,a1,0x10
     eac:	00001349 	0x1349
     eb0:	03011315 	0x3011315
     eb4:	3a050b0e 	xori	a1,s0,0xb0e
     eb8:	01053b0b 	0x1053b0b
     ebc:	16000013 	bnez	s0,f0c <__isr_vec_space+0xeec>
     ec0:	0e03000d 	jal	80c0034 <__memory_size+0x80a0834>
     ec4:	053b0b3a 	0x53b0b3a
     ec8:	0b381349 	j	ce04d24 <__memory_size+0xcde5524>
     ecc:	0d170000 	jal	45c0000 <__memory_size+0x45a0800>
     ed0:	3a0e0300 	xori	t6,s0,0x300
     ed4:	49053b0b 	bc2t	$cc1,fb04 <__isr_vec_space+0xfae4>
     ed8:	00053813 	0x53813
     edc:	00261800 	0x261800
     ee0:	00001349 	0x1349
     ee4:	03011319 	0x3011319
     ee8:	3a0b0b0e 	xori	t3,s0,0xb0e
     eec:	01053b0b 	0x1053b0b
     ef0:	1a000013 	blez	s0,f40 <__isr_vec_space+0xf20>
     ef4:	0b0b0113 	j	c2c044c <__memory_size+0xc2a0c4c>
     ef8:	053b0b3a 	0x53b0b3a
     efc:	00001301 	0x1301
     f00:	0b01171b 	j	c045c6c <__memory_size+0xc02646c>
     f04:	3b0b3a0b 	xori	t3,t8,0x3a0b
     f08:	00130105 	0x130105
     f0c:	000d1c00 	sll	v1,t5,0x10
     f10:	0b3a0e03 	j	ce8380c <__memory_size+0xce6400c>
     f14:	1349053b 	beq	k0,t1,2404 <__isr_vec_space+0x23e4>
     f18:	151d0000 	bne	t0,sp,f1c <__isr_vec_space+0xefc>
     f1c:	01192701 	0x1192701
     f20:	1e000013 	bgtz	s0,f70 <__isr_vec_space+0xf50>
     f24:	193f012e 	0x193f012e
     f28:	0b3a0e03 	j	ce8380c <__memory_size+0xce6400c>
     f2c:	19270b3b 	0x19270b3b
     f30:	06120111 	bltzall	s0,1378 <__isr_vec_space+0x1358>
     f34:	42961840 	c0	0x961840
     f38:	00130119 	0x130119
     f3c:	00051f00 	sll	v1,a1,0x1c
     f40:	0b3a0e03 	j	ce8380c <__memory_size+0xce6400c>
     f44:	13490b3b 	beq	k0,t1,3c34 <__isr_vec_space+0x3c14>
     f48:	00001702 	srl	v0,zero,0x1c
     f4c:	03000520 	0x3000520
     f50:	3b0b3a08 	xori	t3,t8,0x3a08
     f54:	0213490b 	0x213490b
     f58:	21000017 	addi	zero,t0,23
     f5c:	08030034 	j	c00d0 <__memory_size+0xa08d0>
     f60:	0b3b0b3a 	j	cec2ce8 <__memory_size+0xcea34e8>
     f64:	17021349 	bne	t8,v0,5c8c <__isr_vec_space+0x5c6c>
     f68:	34220000 	ori	v0,at,0x0
     f6c:	3a0e0300 	xori	t6,s0,0x300
     f70:	490b3b0b 	bc2tl	$cc2,fba0 <__isr_vec_space+0xfb80>
     f74:	00170213 	0x170213
     f78:	000a2300 	sll	a0,t2,0xc
     f7c:	0b3a0e03 	j	ce8380c <__memory_size+0xce6400c>
     f80:	00000b3b 	0xb3b
     f84:	55010b24 	bnel	t0,at,3c18 <__isr_vec_space+0x3bf8>
     f88:	00130117 	0x130117
     f8c:	82892500 	lb	t1,9472(s4)
     f90:	01110101 	0x1110101
     f94:	8a260000 	lwl	a2,0(s1)
     f98:	02000182 	0x2000182
     f9c:	18429118 	0x18429118
     fa0:	89270000 	lwl	a3,0(t1)
     fa4:	11010182 	beq	t0,at,15b0 <__isr_vec_space+0x1590>
     fa8:	00133101 	0x133101
     fac:	00342800 	0x342800
     fb0:	0b3a0e03 	j	ce8380c <__memory_size+0xce6400c>
     fb4:	13490b3b 	beq	k0,t1,3ca4 <__isr_vec_space+0x3c84>
     fb8:	00000b1c 	0xb1c
     fbc:	03003429 	0x3003429
     fc0:	3b0b3a0e 	xori	t3,t8,0x3a0e
     fc4:	3f134905 	0x3f134905
     fc8:	00193c19 	0x193c19
     fcc:	012e2a00 	0x12e2a00
     fd0:	0e03193f 	jal	80c64fc <__memory_size+0x80a6cfc>
     fd4:	0b3b0b3a 	j	cec2ce8 <__memory_size+0xcea34e8>
     fd8:	193c1927 	0x193c1927
     fdc:	01000000 	0x1000000
     fe0:	0e250111 	jal	8940444 <__memory_size+0x8920c44>
     fe4:	0e030b13 	jal	80c2c4c <__memory_size+0x80a344c>
     fe8:	06120111 	bltzall	s0,1430 <__isr_vec_space+0x1410>
     fec:	00001710 	0x1710
     ff0:	0b002402 	j	c009008 <__memory_size+0xbfe9808>
     ff4:	030b3e0b 	0x30b3e0b
     ff8:	0300000e 	0x300000e
     ffc:	0e030016 	jal	80c0058 <__memory_size+0x80a0858>
    1000:	0b3b0b3a 	j	cec2ce8 <__memory_size+0xcea34e8>
    1004:	00001349 	0x1349
    1008:	0b002404 	j	c009010 <__memory_size+0xbfe9810>
    100c:	030b3e0b 	0x30b3e0b
    1010:	05000008 	bltz	t0,1034 <__isr_vec_space+0x1014>
    1014:	193f012e 	0x193f012e
    1018:	0b3a0e03 	j	ce8380c <__memory_size+0xce6400c>
    101c:	19270b3b 	0x19270b3b
    1020:	06120111 	bltzall	s0,1468 <__isr_vec_space+0x1448>
    1024:	42971840 	c0	0x971840
    1028:	00130119 	0x130119
    102c:	00050600 	sll	zero,a1,0x18
    1030:	0b3a0e03 	j	ce8380c <__memory_size+0xce6400c>
    1034:	13490b3b 	beq	k0,t1,3d24 <__isr_vec_space+0x3d04>
    1038:	00001702 	srl	v0,zero,0x1c
    103c:	03003407 	0x3003407
    1040:	3b0b3a0e 	xori	t3,t8,0x3a0e
    1044:	0213490b 	0x213490b
    1048:	08000018 	j	60 <__isr_vec_space+0x40>
    104c:	08030034 	j	c00d0 <__memory_size+0xa08d0>
    1050:	0b3b0b3a 	j	cec2ce8 <__memory_size+0xcea34e8>
    1054:	18021349 	0x18021349
    1058:	89090000 	lwl	t1,0(t0)
    105c:	11010182 	beq	t0,at,1668 <__isr_vec_space+0x1648>
    1060:	01133101 	0x1133101
    1064:	0a000013 	j	800004c <__memory_size+0x7fe084c>
    1068:	0001828a 	0x1828a
    106c:	42911802 	c0	0x911802
    1070:	0b000018 	j	c000060 <__memory_size+0xbfe0860>
    1074:	00018289 	0x18289
    1078:	13310111 	beq	t9,s1,14c0 <__isr_vec_space+0x14a0>
    107c:	010c0000 	0x10c0000
    1080:	01134901 	0x1134901
    1084:	0d000013 	jal	400004c <__memory_size+0x3fe084c>
    1088:	00000021 	move	zero,zero
    108c:	0300340e 	0x300340e
    1090:	3b0b3a0e 	xori	t3,t8,0x3a0e
    1094:	3f13490b 	0x3f13490b
    1098:	00193c19 	0x193c19
    109c:	012e0f00 	0x12e0f00
    10a0:	0e03193f 	jal	80c64fc <__memory_size+0x80a6cfc>
    10a4:	0b3b0b3a 	j	cec2ce8 <__memory_size+0xcea34e8>
    10a8:	193c1927 	0x193c1927
    10ac:	00001301 	0x1301
    10b0:	49000510 	bc2f	24f4 <__isr_vec_space+0x24d4>
    10b4:	11000013 	beqz	t0,1104 <__isr_vec_space+0x10e4>
    10b8:	193f002e 	0x193f002e
    10bc:	0b3a0e03 	j	ce8380c <__memory_size+0xce6400c>
    10c0:	19270b3b 	0x19270b3b
    10c4:	193c1349 	0x193c1349
    10c8:	01000000 	0x1000000
    10cc:	06100011 	bltzal	s0,1114 <__isr_vec_space+0x10f4>
    10d0:	01120111 	0x1120111
    10d4:	081b0803 	j	6c200c <__memory_size+0x6a280c>
    10d8:	05130825 	bgezall	t0,3170 <__isr_vec_space+0x3150>
    10dc:	01000000 	0x1000000
    10e0:	0e250111 	jal	8940444 <__memory_size+0x8920c44>
    10e4:	0e030b13 	jal	80c2c4c <__memory_size+0x80a344c>
    10e8:	06120111 	bltzall	s0,1530 <__isr_vec_space+0x1510>
    10ec:	00001710 	0x1710
    10f0:	0b002402 	j	c009008 <__memory_size+0xbfe9808>
    10f4:	030b3e0b 	0x30b3e0b
    10f8:	0300000e 	0x300000e
    10fc:	0e030016 	jal	80c0058 <__memory_size+0x80a0858>
    1100:	0b3b0b3a 	j	cec2ce8 <__memory_size+0xcea34e8>
    1104:	00001349 	0x1349
    1108:	0b002404 	j	c009010 <__memory_size+0xbfe9810>
    110c:	030b3e0b 	0x30b3e0b
    1110:	05000008 	bltz	t0,1134 <__isr_vec_space+0x1114>
    1114:	0b0b000f 	j	c2c003c <__memory_size+0xc2a083c>
    1118:	2e060000 	sltiu	a2,s0,0
    111c:	03193f01 	0x3193f01
    1120:	3b0b3a0e 	xori	t3,t8,0x3a0e
    1124:	1119270b 	beq	t0,t9,ad54 <__isr_vec_space+0xad34>
    1128:	40061201 	0x40061201
    112c:	19429718 	0x19429718
    1130:	00001301 	0x1301
    1134:	03000507 	0x3000507
    1138:	3b0b3a0e 	xori	t3,t8,0x3a0e
    113c:	0213490b 	0x213490b
    1140:	08000017 	j	5c <__isr_vec_space+0x3c>
    1144:	08030034 	j	c00d0 <__memory_size+0xa08d0>
    1148:	0b3b0b3a 	j	cec2ce8 <__memory_size+0xcea34e8>
    114c:	18021349 	0x18021349
    1150:	34090000 	li	t1,0x0
    1154:	3a0e0300 	xori	t6,s0,0x300
    1158:	490b3b0b 	bc2tl	$cc2,fd88 <__isr_vec_space+0xfd68>
    115c:	00180213 	0x180213
    1160:	000f0a00 	sll	at,t7,0x8
    1164:	13490b0b 	beq	k0,t1,3d94 <__isr_vec_space+0x3d74>
    1168:	010b0000 	0x10b0000
    116c:	01134901 	0x1134901
    1170:	0c000013 	jal	4c <__isr_vec_space+0x2c>
    1174:	00000021 	move	zero,zero
    1178:	0300340d 	break	0x300,0xd0
    117c:	3b0b3a0e 	xori	t3,t8,0x3a0e
    1180:	3f13490b 	0x3f13490b
    1184:	00193c19 	0x193c19
    1188:	11010000 	beq	t0,at,118c <__isr_vec_space+0x116c>
    118c:	55061000 	bnel	t0,a2,5190 <__isr_vec_space+0x5170>
    1190:	1b080306 	0x1b080306
    1194:	13082508 	beq	t8,t0,a5b8 <__isr_vec_space+0xa598>
    1198:	00000005 	lsa	zero,zero,zero,0x1
    119c:	25011101 	addiu	at,t0,4353
    11a0:	030b130e 	0x30b130e
    11a4:	1201110e 	beq	s0,at,55e0 <__isr_vec_space+0x55c0>
    11a8:	00171006 	srlv	v0,s7,zero
    11ac:	00160200 	sll	zero,s6,0x8
    11b0:	0b3a0e03 	j	ce8380c <__memory_size+0xce6400c>
    11b4:	13490b3b 	beq	k0,t1,3ea4 <__isr_vec_space+0x3e84>
    11b8:	24030000 	li	v1,0
    11bc:	3e0b0b00 	0x3e0b0b00
    11c0:	000e030b 	0xe030b
    11c4:	00240400 	0x240400
    11c8:	0b3e0b0b 	j	cf82c2c <__memory_size+0xcf6342c>
    11cc:	00000803 	sra	at,zero,0x0
    11d0:	0b000f05 	j	c003c14 <__memory_size+0xbfe4414>
    11d4:	0013490b 	0x13490b
    11d8:	00260600 	0x260600
    11dc:	00001349 	0x1349
    11e0:	00002607 	0x2607
    11e4:	00160800 	sll	at,s6,0x0
    11e8:	0b3a0e03 	j	ce8380c <__memory_size+0xce6400c>
    11ec:	1349053b 	beq	k0,t1,26dc <__isr_vec_space+0x26bc>
    11f0:	13090000 	beq	t8,t1,11f4 <__isr_vec_space+0x11d4>
    11f4:	3a0b0b01 	xori	t3,s0,0xb01
    11f8:	010b3b0b 	0x10b3b0b
    11fc:	0a000013 	j	800004c <__memory_size+0x7fe084c>
    1200:	0803000d 	j	c0034 <__memory_size+0xa0834>
    1204:	0b3b0b3a 	j	cec2ce8 <__memory_size+0xcea34e8>
    1208:	0b381349 	j	ce04d24 <__memory_size+0xcde5524>
    120c:	010b0000 	0x10b0000
    1210:	01134901 	0x1134901
    1214:	0c000013 	jal	4c <__isr_vec_space+0x2c>
    1218:	13490021 	beq	k0,t1,12a0 <__isr_vec_space+0x1280>
    121c:	00000b2f 	0xb2f
    1220:	0b01170d 	j	c045c34 <__memory_size+0xc026434>
    1224:	3b0b3a0b 	xori	t3,t8,0x3a0b
    1228:	0013010b 	0x13010b
    122c:	000d0e00 	sll	at,t5,0x18
    1230:	00001349 	0x1349
    1234:	03000d0f 	0x3000d0f
    1238:	3b0b3a08 	xori	t3,t8,0x3a08
    123c:	0013490b 	0x13490b
    1240:	01131000 	0x1131000
    1244:	0b0b0e03 	j	c2c380c <__memory_size+0xc2a400c>
    1248:	0b3b0b3a 	j	cec2ce8 <__memory_size+0xcea34e8>
    124c:	00001301 	0x1301
    1250:	49000d11 	bc2f	4698 <__isr_vec_space+0x4678>
    1254:	000b3813 	0xb3813
    1258:	000d1200 	sll	v0,t5,0x8
    125c:	0b3a0803 	j	ce8200c <__memory_size+0xce6280c>
    1260:	1349053b 	beq	k0,t1,2750 <__isr_vec_space+0x2730>
    1264:	00000b38 	0xb38
    1268:	03000d13 	0x3000d13
    126c:	3b0b3a0e 	xori	t3,t8,0x3a0e
    1270:	38134905 	xori	s3,zero,0x4905
    1274:	1400000b 	bnez	zero,12a4 <__isr_vec_space+0x1284>
    1278:	0e030113 	jal	80c044c <__memory_size+0x80a0c4c>
    127c:	0b3a0b0b 	j	ce82c2c <__memory_size+0xce6342c>
    1280:	1301053b 	beq	t8,at,2770 <__isr_vec_space+0x2750>
    1284:	2e150000 	sltiu	s5,s0,0
    1288:	3a0e0301 	xori	t6,s0,0x301
    128c:	270b3b0b 	addiu	t3,t8,15115
    1290:	010b2019 	0x10b2019
    1294:	16000013 	bnez	s0,12e4 <__isr_vec_space+0x12c4>
    1298:	08030005 	j	c0014 <__memory_size+0xa0814>
    129c:	0b3b0b3a 	j	cec2ce8 <__memory_size+0xcea34e8>
    12a0:	00001349 	0x1349
    12a4:	03000517 	0x3000517
    12a8:	3b0b3a0e 	xori	t3,t8,0x3a0e
    12ac:	0013490b 	0x13490b
    12b0:	00341800 	0x341800
    12b4:	0b3a0803 	j	ce8200c <__memory_size+0xce6280c>
    12b8:	13490b3b 	beq	k0,t1,3fa8 <__isr_vec_space+0x3f88>
    12bc:	34190000 	li	t9,0x0
    12c0:	3a0e0300 	xori	t6,s0,0x300
    12c4:	490b3b0b 	bc2tl	$cc2,fef4 <__isr_vec_space+0xfed4>
    12c8:	1a000013 	blez	s0,1318 <__isr_vec_space+0x12f8>
    12cc:	13490021 	beq	k0,t1,1354 <__isr_vec_space+0x1334>
    12d0:	2e1b0000 	sltiu	k1,s0,0
    12d4:	11133101 	beq	t0,s3,d6dc <__isr_vec_space+0xd6bc>
    12d8:	40061201 	0x40061201
    12dc:	19429718 	0x19429718
    12e0:	00001301 	0x1301
    12e4:	3100051c 	andi	zero,t0,0x51c
    12e8:	00170213 	0x170213
    12ec:	00341d00 	0x341d00
    12f0:	13491331 	beq	k0,t1,5fb8 <__isr_vec_space+0x5f98>
    12f4:	00001702 	srl	v0,zero,0x1c
    12f8:	3100341e 	andi	zero,t0,0x341e
    12fc:	00170213 	0x170213
    1300:	00051f00 	sll	v1,a1,0x1c
    1304:	0b1c1331 	j	c704cc4 <__memory_size+0xc6e54c4>
    1308:	89200000 	lwl	zero,0(t1)
    130c:	11010182 	beq	t0,at,1918 <__isr_vec_space+0x18f8>
    1310:	01133101 	0x1133101
    1314:	21000013 	addi	zero,t0,19
    1318:	0001828a 	0x1828a
    131c:	42911802 	c0	0x911802
    1320:	22000018 	addi	zero,s0,24
    1324:	01018289 	0x1018289
    1328:	13310111 	beq	t9,s1,1770 <__isr_vec_space+0x1750>
    132c:	21230000 	addi	v1,t1,0
    1330:	2f134900 	sltiu	s3,t8,18688
    1334:	24000018 	li	zero,24
    1338:	0e03012e 	jal	80c04b8 <__memory_size+0x80a0cb8>
    133c:	0b3b0b3a 	j	cec2ce8 <__memory_size+0xcea34e8>
    1340:	01111927 	0x1111927
    1344:	18400612 	blez	v0,2b90 <__isr_vec_space+0x2b70>
    1348:	01194297 	0x1194297
    134c:	25000013 	addiu	zero,t0,19
    1350:	08030005 	j	c0014 <__memory_size+0xa0814>
    1354:	0b3b0b3a 	j	cec2ce8 <__memory_size+0xcea34e8>
    1358:	17021349 	bne	t8,v0,6080 <__isr_vec_space+0x6060>
    135c:	05260000 	0x5260000
    1360:	3a0e0300 	xori	t6,s0,0x300
    1364:	490b3b0b 	bc2tl	$cc2,ff94 <__isr_vec_space+0xff74>
    1368:	00170213 	0x170213
    136c:	82892700 	lb	t1,9984(s4)
    1370:	01110101 	0x1110101
    1374:	31194295 	andi	t9,t0,0x4295
    1378:	28000013 	slti	zero,zero,19
    137c:	193f012e 	0x193f012e
    1380:	0b3a0e03 	j	ce8380c <__memory_size+0xce6400c>
    1384:	19270b3b 	0x19270b3b
    1388:	06120111 	bltzall	s0,17d0 <__isr_vec_space+0x17b0>
    138c:	42971840 	c0	0x971840
    1390:	00130119 	0x130119
    1394:	010b2900 	0x10b2900
    1398:	06120111 	bltzall	s0,17e0 <__isr_vec_space+0x17c0>
    139c:	00001301 	0x1301
    13a0:	0300342a 	0x300342a
    13a4:	3b0b3a08 	xori	t3,t8,0x3a08
    13a8:	0213490b 	0x213490b
    13ac:	2b000017 	slti	zero,t8,23
    13b0:	0111010b 	0x111010b
    13b4:	00000612 	0x612
    13b8:	0182892c 	0x182892c
    13bc:	31011100 	andi	at,t0,0x1100
    13c0:	2d000013 	sltiu	zero,t0,19
    13c4:	01018289 	0x1018289
    13c8:	42950111 	c0	0x950111
    13cc:	01133119 	0x1133119
    13d0:	2e000013 	sltiu	zero,s0,19
    13d4:	00000021 	move	zero,zero
    13d8:	0300342f 	0x300342f
    13dc:	3b0b3a0e 	xori	t3,t8,0x3a0e
    13e0:	3f13490b 	0x3f13490b
    13e4:	00193c19 	0x193c19
    13e8:	012e3000 	0x12e3000
    13ec:	0e03193f 	jal	80c64fc <__memory_size+0x80a6cfc>
    13f0:	0b3b0b3a 	j	cec2ce8 <__memory_size+0xcea34e8>
    13f4:	13491927 	beq	k0,t1,7894 <__isr_vec_space+0x7874>
    13f8:	1301193c 	beq	t8,at,78ec <__isr_vec_space+0x78cc>
    13fc:	05310000 	bgezal	t1,1400 <__isr_vec_space+0x13e0>
    1400:	00134900 	sll	t1,s3,0x4
    1404:	012e3200 	0x12e3200
    1408:	0e03193f 	jal	80c64fc <__memory_size+0x80a6cfc>
    140c:	053b0b3a 	0x53b0b3a
    1410:	13491927 	beq	k0,t1,78b0 <__isr_vec_space+0x7890>
    1414:	1301193c 	beq	t8,at,7908 <__isr_vec_space+0x78e8>
    1418:	2e330000 	sltiu	s3,s1,0
    141c:	03193f00 	0x3193f00
    1420:	3b0b3a0e 	xori	t3,t8,0x3a0e
    1424:	49192705 	bc2t	$cc6,b03c <__isr_vec_space+0xb01c>
    1428:	00193c13 	0x193c13
    142c:	012e3400 	0x12e3400
    1430:	0e03193f 	jal	80c64fc <__memory_size+0x80a6cfc>
    1434:	053b0b3a 	0x53b0b3a
    1438:	13491927 	beq	k0,t1,78d8 <__isr_vec_space+0x78b8>
    143c:	0000193c 	0x193c
    1440:	00110100 	sll	zero,s1,0x4
    1444:	01110610 	0x1110610
    1448:	08030112 	j	c0448 <__memory_size+0xa0c48>
    144c:	0825081b 	j	94206c <__memory_size+0x92286c>
    1450:	00000513 	0x513
    1454:	00110100 	sll	zero,s1,0x4
    1458:	01110610 	0x1110610
    145c:	08030112 	j	c0448 <__memory_size+0xa0c48>
    1460:	0825081b 	j	94206c <__memory_size+0x92286c>
    1464:	00000513 	0x513
    1468:	00110100 	sll	zero,s1,0x4
    146c:	01110610 	0x1110610
    1470:	08030112 	j	c0448 <__memory_size+0xa0c48>
    1474:	0825081b 	j	94206c <__memory_size+0x92286c>
    1478:	00000513 	0x513
    147c:	01110100 	0x1110100
    1480:	0b130e25 	j	c4c3894 <__memory_size+0xc4a4094>
    1484:	17100e03 	bne	t8,s0,4c94 <__isr_vec_space+0x4c74>
    1488:	24020000 	li	v0,0
    148c:	3e0b0b00 	0x3e0b0b00
    1490:	000e030b 	0xe030b
    1494:	00240300 	0x240300
    1498:	0b3e0b0b 	j	cf82c2c <__memory_size+0xcf6342c>
    149c:	00000803 	sra	at,zero,0x0
    14a0:	01110100 	0x1110100
    14a4:	0b130e25 	j	c4c3894 <__memory_size+0xc4a4094>
    14a8:	01110e03 	0x1110e03
    14ac:	17100612 	bne	t8,s0,2cf8 <__isr_vec_space+0x2cd8>
    14b0:	24020000 	li	v0,0
    14b4:	3e0b0b00 	0x3e0b0b00
    14b8:	000e030b 	0xe030b
    14bc:	00160300 	sll	zero,s6,0xc
    14c0:	0b3a0e03 	j	ce8380c <__memory_size+0xce6400c>
    14c4:	13490b3b 	beq	k0,t1,41b4 <__isr_vec_space+0x4194>
    14c8:	24040000 	li	a0,0
    14cc:	3e0b0b00 	0x3e0b0b00
    14d0:	0008030b 	0x8030b
    14d4:	012e0500 	0x12e0500
    14d8:	0e03193f 	jal	80c64fc <__memory_size+0x80a6cfc>
    14dc:	0b3b0b3a 	j	cec2ce8 <__memory_size+0xcea34e8>
    14e0:	13491927 	beq	k0,t1,7980 <__isr_vec_space+0x7960>
    14e4:	06120111 	bltzall	s0,192c <__isr_vec_space+0x190c>
    14e8:	42971840 	c0	0x971840
    14ec:	00130119 	0x130119
    14f0:	00050600 	sll	zero,a1,0x18
    14f4:	0b3a0803 	j	ce8200c <__memory_size+0xce6280c>
    14f8:	13490b3b 	beq	k0,t1,41e8 <__isr_vec_space+0x41c8>
    14fc:	00001702 	srl	v0,zero,0x1c
    1500:	03000507 	0x3000507
    1504:	3b0b3a0e 	xori	t3,t8,0x3a0e
    1508:	0213490b 	0x213490b
    150c:	08000017 	j	5c <__isr_vec_space+0x3c>
    1510:	0e030034 	jal	80c00d0 <__memory_size+0x80a08d0>
    1514:	0b3b0b3a 	j	cec2ce8 <__memory_size+0xcea34e8>
    1518:	18021349 	0x18021349
    151c:	34090000 	li	t1,0x0
    1520:	3a080300 	xori	t0,s0,0x300
    1524:	490b3b0b 	bc2tl	$cc2,10154 <__isr_vec_space+0x10134>
    1528:	00180213 	0x180213
    152c:	010b0a00 	0x10b0a00
    1530:	06120111 	bltzall	s0,1978 <__isr_vec_space+0x1958>
    1534:	890b0000 	lwl	t3,0(t0)
    1538:	11000182 	beqz	t0,1b44 <__isr_vec_space+0x1b24>
    153c:	00133101 	0x133101
    1540:	000f0c00 	sll	at,t7,0x10
    1544:	13490b0b 	beq	k0,t1,4174 <__isr_vec_space+0x4154>
    1548:	260d0000 	addiu	t5,s0,0
    154c:	0e000000 	jal	8000000 <__memory_size+0x7fe0800>
    1550:	13490035 	beq	k0,t1,1628 <__isr_vec_space+0x1608>
    1554:	2e0f0000 	sltiu	t7,s0,0
    1558:	03193f00 	0x3193f00
    155c:	3b0b3a0e 	xori	t3,t8,0x3a0e
    1560:	4919270b 	bc2t	$cc6,b190 <__isr_vec_space+0xb170>
    1564:	00193c13 	0x193c13
    1568:	11010000 	beq	t0,at,156c <__isr_vec_space+0x154c>
    156c:	130e2501 	beq	t8,t6,a974 <__isr_vec_space+0xa954>
    1570:	110e030b 	beq	t0,t6,21a0 <__isr_vec_space+0x2180>
    1574:	10061201 	beq	zero,a2,5d7c <__isr_vec_space+0x5d5c>
    1578:	02000017 	0x2000017
    157c:	0b0b0024 	j	c2c0090 <__memory_size+0xc2a0890>
    1580:	0e030b3e 	jal	80c2cf8 <__memory_size+0x80a34f8>
    1584:	16030000 	bne	s0,v1,1588 <__isr_vec_space+0x1568>
    1588:	3a0e0300 	xori	t6,s0,0x300
    158c:	490b3b0b 	bc2tl	$cc2,101bc <__isr_vec_space+0x1019c>
    1590:	04000013 	bltz	zero,15e0 <__isr_vec_space+0x15c0>
    1594:	0b0b0024 	j	c2c0090 <__memory_size+0xc2a0890>
    1598:	08030b3e 	j	c2cf8 <__memory_size+0xa34f8>
    159c:	16050000 	bne	s0,a1,15a0 <__isr_vec_space+0x1580>
    15a0:	3a0e0300 	xori	t6,s0,0x300
    15a4:	49053b0b 	bc2t	$cc1,101d4 <__isr_vec_space+0x101b4>
    15a8:	06000013 	bltz	s0,15f8 <__isr_vec_space+0x15d8>
    15ac:	0b0b0113 	j	c2c044c <__memory_size+0xc2a0c4c>
    15b0:	0b3b0b3a 	j	cec2ce8 <__memory_size+0xcea34e8>
    15b4:	00001301 	0x1301
    15b8:	03000d07 	0x3000d07
    15bc:	3b0b3a08 	xori	t3,t8,0x3a08
    15c0:	3813490b 	xori	s3,zero,0x490b
    15c4:	0800000b 	j	2c <__isr_vec_space+0xc>
    15c8:	13490101 	beq	k0,t1,19d0 <__isr_vec_space+0x19b0>
    15cc:	00001301 	0x1301
    15d0:	49002109 	bc2f	99f8 <__isr_vec_space+0x99d8>
    15d4:	000b2f13 	0xb2f13
    15d8:	01170a00 	0x1170a00
    15dc:	0b3a0b0b 	j	ce82c2c <__memory_size+0xce6342c>
    15e0:	13010b3b 	beq	t8,at,42d0 <__isr_vec_space+0x42b0>
    15e4:	0d0b0000 	jal	42c0000 <__memory_size+0x42a0800>
    15e8:	00134900 	sll	t1,s3,0x4
    15ec:	000d0c00 	sll	at,t5,0x10
    15f0:	0b3a0803 	j	ce8200c <__memory_size+0xce6280c>
    15f4:	13490b3b 	beq	k0,t1,42e4 <__isr_vec_space+0x42c4>
    15f8:	130d0000 	beq	t8,t5,15fc <__isr_vec_space+0x15dc>
    15fc:	0b0e0301 	j	c380c04 <__memory_size+0xc361404>
    1600:	3b0b3a0b 	xori	t3,t8,0x3a0b
    1604:	0013010b 	0x13010b
    1608:	000d0e00 	sll	at,t5,0x18
    160c:	0b381349 	j	ce04d24 <__memory_size+0xcde5524>
    1610:	0d0f0000 	jal	43c0000 <__memory_size+0x43a0800>
    1614:	3a080300 	xori	t0,s0,0x300
    1618:	49053b0b 	bc2t	$cc1,10248 <__isr_vec_space+0x10228>
    161c:	000b3813 	0xb3813
    1620:	000d1000 	sll	v0,t5,0x0
    1624:	0b3a0e03 	j	ce8380c <__memory_size+0xce6400c>
    1628:	1349053b 	beq	k0,t1,2b18 <__isr_vec_space+0x2af8>
    162c:	00000b38 	0xb38
    1630:	03011311 	0x3011311
    1634:	3a0b0b0e 	xori	t3,s0,0xb0e
    1638:	01053b0b 	0x1053b0b
    163c:	12000013 	beqz	s0,168c <__isr_vec_space+0x166c>
    1640:	0b0b000f 	j	c2c003c <__memory_size+0xc2a083c>
    1644:	00001349 	0x1349
    1648:	3f012e13 	0x3f012e13
    164c:	3a0e0319 	xori	t6,s0,0x319
    1650:	270b3b0b 	addiu	t3,t8,15115
    1654:	11134919 	beq	t0,s3,13abc <__isr_vec_space+0x13a9c>
    1658:	40061201 	0x40061201
    165c:	19429718 	0x19429718
    1660:	00001301 	0x1301
    1664:	03000514 	0x3000514
    1668:	3b0b3a08 	xori	t3,t8,0x3a08
    166c:	0213490b 	0x213490b
    1670:	15000018 	bnez	t0,16d4 <__isr_vec_space+0x16b4>
    1674:	0e030034 	jal	80c00d0 <__memory_size+0x80a08d0>
    1678:	0b3b0b3a 	j	cec2ce8 <__memory_size+0xcea34e8>
    167c:	18021349 	0x18021349
    1680:	34160000 	li	s6,0x0
    1684:	3a080300 	xori	t0,s0,0x300
    1688:	490b3b0b 	bc2tl	$cc2,102b8 <__isr_vec_space+0x10298>
    168c:	00180213 	0x180213
    1690:	11010000 	beq	t0,at,1694 <__isr_vec_space+0x1674>
    1694:	130e2501 	beq	t8,t6,aa9c <__isr_vec_space+0xaa7c>
    1698:	110e030b 	beq	t0,t6,22c8 <__isr_vec_space+0x22a8>
    169c:	10061201 	beq	zero,a2,5ea4 <__isr_vec_space+0x5e84>
    16a0:	02000017 	0x2000017
    16a4:	0b0b0024 	j	c2c0090 <__memory_size+0xc2a0890>
    16a8:	0e030b3e 	jal	80c2cf8 <__memory_size+0x80a34f8>
    16ac:	16030000 	bne	s0,v1,16b0 <__isr_vec_space+0x1690>
    16b0:	3a0e0300 	xori	t6,s0,0x300
    16b4:	49053b0b 	bc2t	$cc1,102e4 <__isr_vec_space+0x102c4>
    16b8:	04000013 	bltz	zero,1708 <__isr_vec_space+0x16e8>
    16bc:	0b0b0024 	j	c2c0090 <__memory_size+0xc2a0890>
    16c0:	08030b3e 	j	c2cf8 <__memory_size+0xa34f8>
    16c4:	16050000 	bne	s0,a1,16c8 <__isr_vec_space+0x16a8>
    16c8:	3a0e0300 	xori	t6,s0,0x300
    16cc:	490b3b0b 	bc2tl	$cc2,102fc <__isr_vec_space+0x102dc>
    16d0:	06000013 	bltz	s0,1720 <__isr_vec_space+0x1700>
    16d4:	0b0b0113 	j	c2c044c <__memory_size+0xc2a0c4c>
    16d8:	0b3b0b3a 	j	cec2ce8 <__memory_size+0xcea34e8>
    16dc:	00001301 	0x1301
    16e0:	03000d07 	0x3000d07
    16e4:	3b0b3a08 	xori	t3,t8,0x3a08
    16e8:	3813490b 	xori	s3,zero,0x490b
    16ec:	0800000b 	j	2c <__isr_vec_space+0xc>
    16f0:	13490101 	beq	k0,t1,1af8 <__isr_vec_space+0x1ad8>
    16f4:	00001301 	0x1301
    16f8:	49002109 	bc2f	9b20 <__isr_vec_space+0x9b00>
    16fc:	000b2f13 	0xb2f13
    1700:	01170a00 	0x1170a00
    1704:	0b3a0b0b 	j	ce82c2c <__memory_size+0xce6342c>
    1708:	13010b3b 	beq	t8,at,43f8 <__isr_vec_space+0x43d8>
    170c:	0d0b0000 	jal	42c0000 <__memory_size+0x42a0800>
    1710:	00134900 	sll	t1,s3,0x4
    1714:	000d0c00 	sll	at,t5,0x10
    1718:	0b3a0803 	j	ce8200c <__memory_size+0xce6280c>
    171c:	13490b3b 	beq	k0,t1,440c <__isr_vec_space+0x43ec>
    1720:	130d0000 	beq	t8,t5,1724 <__isr_vec_space+0x1704>
    1724:	0b0e0301 	j	c380c04 <__memory_size+0xc361404>
    1728:	3b0b3a0b 	xori	t3,t8,0x3a0b
    172c:	0013010b 	0x13010b
    1730:	000d0e00 	sll	at,t5,0x18
    1734:	0b381349 	j	ce04d24 <__memory_size+0xcde5524>
    1738:	0d0f0000 	jal	43c0000 <__memory_size+0x43a0800>
    173c:	3a080300 	xori	t0,s0,0x300
    1740:	49053b0b 	bc2t	$cc1,10370 <__isr_vec_space+0x10350>
    1744:	000b3813 	0xb3813
    1748:	000d1000 	sll	v0,t5,0x0
    174c:	0b3a0e03 	j	ce8380c <__memory_size+0xce6400c>
    1750:	1349053b 	beq	k0,t1,2c40 <__isr_vec_space+0x2c20>
    1754:	00000b38 	0xb38
    1758:	03011311 	0x3011311
    175c:	3a0b0b0e 	xori	t3,s0,0xb0e
    1760:	01053b0b 	0x1053b0b
    1764:	12000013 	beqz	s0,17b4 <__isr_vec_space+0x1794>
    1768:	0b0b000f 	j	c2c003c <__memory_size+0xc2a083c>
    176c:	00001349 	0x1349
    1770:	3f012e13 	0x3f012e13
    1774:	3a0e0319 	xori	t6,s0,0x319
    1778:	270b3b0b 	addiu	t3,t8,15115
    177c:	11134919 	beq	t0,s3,13be4 <__isr_vec_space+0x13bc4>
    1780:	40061201 	0x40061201
    1784:	19429718 	0x19429718
    1788:	00001301 	0x1301
    178c:	03000514 	0x3000514
    1790:	3b0b3a08 	xori	t3,t8,0x3a08
    1794:	0213490b 	0x213490b
    1798:	15000017 	bnez	t0,17f8 <__isr_vec_space+0x17d8>
    179c:	0e030034 	jal	80c00d0 <__memory_size+0x80a08d0>
    17a0:	0b3b0b3a 	j	cec2ce8 <__memory_size+0xcea34e8>
    17a4:	18021349 	0x18021349
    17a8:	34160000 	li	s6,0x0
    17ac:	3a080300 	xori	t0,s0,0x300
    17b0:	490b3b0b 	bc2tl	$cc2,103e0 <__isr_vec_space+0x103c0>
    17b4:	00180213 	0x180213
    17b8:	11010000 	beq	t0,at,17bc <__isr_vec_space+0x179c>
    17bc:	130e2501 	beq	t8,t6,abc4 <__isr_vec_space+0xaba4>
    17c0:	110e030b 	beq	t0,t6,23f0 <__isr_vec_space+0x23d0>
    17c4:	10061201 	beq	zero,a2,5fcc <__isr_vec_space+0x5fac>
    17c8:	02000017 	0x2000017
    17cc:	0b0b0024 	j	c2c0090 <__memory_size+0xc2a0890>
    17d0:	08030b3e 	j	c2cf8 <__memory_size+0xa34f8>
    17d4:	24030000 	li	v1,0
    17d8:	3e0b0b00 	0x3e0b0b00
    17dc:	000e030b 	0xe030b
    17e0:	00160400 	sll	zero,s6,0x10
    17e4:	0b3a0e03 	j	ce8380c <__memory_size+0xce6400c>
    17e8:	13490b3b 	beq	k0,t1,44d8 <__isr_vec_space+0x44b8>
    17ec:	16050000 	bne	s0,a1,17f0 <__isr_vec_space+0x17d0>
    17f0:	3a0e0300 	xori	t6,s0,0x300
    17f4:	49053b0b 	bc2t	$cc1,10424 <__isr_vec_space+0x10404>
    17f8:	06000013 	bltz	s0,1848 <__isr_vec_space+0x1828>
    17fc:	0b0b0117 	j	c2c045c <__memory_size+0xc2a0c5c>
    1800:	0b3b0b3a 	j	cec2ce8 <__memory_size+0xcea34e8>
    1804:	00001301 	0x1301
    1808:	03000d07 	0x3000d07
    180c:	3b0b3a0e 	xori	t3,t8,0x3a0e
    1810:	0013490b 	0x13490b
    1814:	01010800 	0x1010800
    1818:	13011349 	beq	t8,at,6540 <__isr_vec_space+0x6520>
    181c:	21090000 	addi	t1,t0,0
    1820:	2f134900 	sltiu	s3,t8,18688
    1824:	0a00000b 	j	800002c <__memory_size+0x7fe082c>
    1828:	0b0b0113 	j	c2c044c <__memory_size+0xc2a0c4c>
    182c:	0b3b0b3a 	j	cec2ce8 <__memory_size+0xcea34e8>
    1830:	00001301 	0x1301
    1834:	03000d0b 	0x3000d0b
    1838:	3b0b3a0e 	xori	t3,t8,0x3a0e
    183c:	3813490b 	xori	s3,zero,0x490b
    1840:	0c00000b 	jal	2c <__isr_vec_space+0xc>
    1844:	0b0b000f 	j	c2c003c <__memory_size+0xc2a083c>
    1848:	130d0000 	beq	t8,t5,184c <__isr_vec_space+0x182c>
    184c:	0b0e0301 	j	c380c04 <__memory_size+0xc361404>
    1850:	3b0b3a0b 	xori	t3,t8,0x3a0b
    1854:	0013010b 	0x13010b
    1858:	000d0e00 	sll	at,t5,0x18
    185c:	0b3a0803 	j	ce8200c <__memory_size+0xce6280c>
    1860:	13490b3b 	beq	k0,t1,4550 <__isr_vec_space+0x4530>
    1864:	00000b38 	0xb38
    1868:	0b000f0f 	j	c003c3c <__memory_size+0xbfe443c>
    186c:	0013490b 	0x13490b
    1870:	01131000 	0x1131000
    1874:	050b0e03 	tltiu	t0,3587
    1878:	0b3b0b3a 	j	cec2ce8 <__memory_size+0xcea34e8>
    187c:	00001301 	0x1301
    1880:	03000d11 	0x3000d11
    1884:	3b0b3a0e 	xori	t3,t8,0x3a0e
    1888:	3813490b 	xori	s3,zero,0x490b
    188c:	12000005 	beqz	s0,18a4 <__isr_vec_space+0x1884>
    1890:	19270015 	0x19270015
    1894:	15130000 	bne	t0,s3,1898 <__isr_vec_space+0x1878>
    1898:	49192701 	bc2t	$cc6,b4a0 <__isr_vec_space+0xb480>
    189c:	00130113 	0x130113
    18a0:	00051400 	sll	v0,a1,0x10
    18a4:	00001349 	0x1349
    18a8:	03011315 	0x3011315
    18ac:	3a050b0e 	xori	a1,s0,0xb0e
    18b0:	01053b0b 	0x1053b0b
    18b4:	16000013 	bnez	s0,1904 <__isr_vec_space+0x18e4>
    18b8:	0e03000d 	jal	80c0034 <__memory_size+0x80a0834>
    18bc:	053b0b3a 	0x53b0b3a
    18c0:	0b381349 	j	ce04d24 <__memory_size+0xcde5524>
    18c4:	0d170000 	jal	45c0000 <__memory_size+0x45a0800>
    18c8:	3a0e0300 	xori	t6,s0,0x300
    18cc:	49053b0b 	bc2t	$cc1,104fc <__isr_vec_space+0x104dc>
    18d0:	00053813 	0x53813
    18d4:	00261800 	0x261800
    18d8:	00001349 	0x1349
    18dc:	03011319 	0x3011319
    18e0:	3a0b0b0e 	xori	t3,s0,0xb0e
    18e4:	01053b0b 	0x1053b0b
    18e8:	1a000013 	blez	s0,1938 <__isr_vec_space+0x1918>
    18ec:	0b0b0113 	j	c2c044c <__memory_size+0xc2a0c4c>
    18f0:	053b0b3a 	0x53b0b3a
    18f4:	00001301 	0x1301
    18f8:	0b01171b 	j	c045c6c <__memory_size+0xc02646c>
    18fc:	3b0b3a0b 	xori	t3,t8,0x3a0b
    1900:	00130105 	0x130105
    1904:	000d1c00 	sll	v1,t5,0x10
    1908:	0b3a0e03 	j	ce8380c <__memory_size+0xce6400c>
    190c:	1349053b 	beq	k0,t1,2dfc <__isr_vec_space+0x2ddc>
    1910:	151d0000 	bne	t0,sp,1914 <__isr_vec_space+0x18f4>
    1914:	01192701 	0x1192701
    1918:	1e000013 	bgtz	s0,1968 <__isr_vec_space+0x1948>
    191c:	193f002e 	0x193f002e
    1920:	0b3a0e03 	j	ce8380c <__memory_size+0xce6400c>
    1924:	19270b3b 	0x19270b3b
    1928:	01111349 	0x1111349
    192c:	18400612 	blez	v0,3178 <__isr_vec_space+0x3158>
    1930:	00194297 	0x194297
    1934:	00341f00 	0x341f00
    1938:	0b3a0e03 	j	ce8380c <__memory_size+0xce6400c>
    193c:	1349053b 	beq	k0,t1,2e2c <__isr_vec_space+0x2e0c>
    1940:	193c193f 	0x193c193f
    1944:	Address 0x0000000000001944 is out of bounds.


Disassembly of section .debug_line:

00000000 <.debug_line>:
       0:	000000f5 	0xf5
       4:	005f0002 	0x5f0002
       8:	01010000 	0x1010000
       c:	000d0efb 	0xd0efb
      10:	01010101 	0x1010101
      14:	01000000 	0x1000000
      18:	2f010000 	sltiu	at,t8,0
      1c:	61726373 	0x61726373
      20:	2f686374 	sltiu	t0,k1,25460
      24:	2f66706d 	sltiu	a2,k1,28781
      28:	73626f6a 	s16ldd	xr13,k1,310,ptn0
      2c:	3334352f 	andi	s4,t9,0x352f
      30:	342f3539 	ori	t7,at,0x3539
      34:	34393038 	ori	t9,at,0x3038
      38:	3034322f 	andi	s4,at,0x322f
      3c:	2f383931 	sltiu	t8,t9,14641
      40:	72616873 	d32sar	xr1,xr10,xr5,xr8,9
      44:	672f6465 	0x672f6465
      48:	6c2f6363 	0x6c2f6363
      4c:	6c676269 	0x6c676269
      50:	2f73736f 	sltiu	s3,k1,29551
      54:	7370696d 	s16sdi	xr5,k1,52,
      58:	6c61682f 	0x6c61682f
      5c:	72630000 	madd	s3,v1
      60:	532e3074 	beql	t9,t6,c234 <__isr_vec_space+0xc214>
      64:	00000100 	sll	zero,zero,0x4
      68:	02050000 	0x2050000
      6c:	80000320 	lb	zero,800(zero)
      70:	0100cd03 	0x100cd03
      74:	834a2103 	lb	t2,8451(k0)
      78:	bb194b4b 	swr	t9,19275(t8)
      7c:	85834b83 	lh	v1,19331(t4)
      80:	83504b4b 	lb	s0,19275(k0)
      84:	4b854e83 	c2	0x1854e83
      88:	4b83134b 	c2	0x183134b
      8c:	4d83134c 	0x4d83134c
      90:	83134b4b 	lb	s3,19275(t8)
      94:	134b4b4d 	beq	k0,t3,12dcc <__isr_vec_space+0x12dac>
      98:	4b4b4d83 	c2	0x14b4d83
      9c:	4b4d8313 	c2	0x14d8313
      a0:	4b83134b 	c2	0x183134b
      a4:	5188144d 	beql	t4,t0,51dc <__isr_vec_space+0x51bc>
      a8:	83834d4b 	lb	v1,19787(gp)
      ac:	0384bb50 	0x384bb50
      b0:	83bb4a0b 	lb	k1,18955(sp)
      b4:	85134b84 	lh	s3,19332(t0)
      b8:	4b848483 	c2	0x1848483
      bc:	4b83854b 	c2	0x183854b
      c0:	0f034b4f 	jal	c0d2d3c <__memory_size+0xc0b353c>
      c4:	8483bb01 	lh	v1,-17663(a0)
      c8:	83848383 	lb	a0,-31869(gp)
      cc:	85820a03 	lh	v0,2563(t4)
      d0:	4e4b4b83 	c3	0x4b4b83
      d4:	84858383 	lh	a1,-31869(a0)
      d8:	83864b85 	lb	a2,19333(gp)
      dc:	4b858383 	c2	0x1858383
      e0:	4d4b4b4b 	0x4d4b4b4b
      e4:	19031385 	0x19031385
      e8:	11038382 	beq	t0,v1,fffe0ef4 <__entry+0x403e0ef4>
      ec:	8683834a 	lh	v1,-31926(s4)
      f0:	4b851583 	c2	0x1851583
      f4:	01000802 	0x1000802
      f8:	00012501 	0x12501
      fc:	4f000200 	lwxc1	$f8,zero(t8)
     100:	01000000 	0x1000000
     104:	0d0efb01 	jal	43bec04 <__memory_size+0x439f404>
     108:	01010100 	0x1010100
     10c:	00000001 	movf	zero,zero,$fcc0
     110:	01000001 	movf	zero,t0,$fcc0
     114:	746f6f62 	jalx	1bdbd88 <__memory_size+0x1bbc588>
     118:	6f620000 	0x6f620000
     11c:	532e746f 	beql	t9,t6,1d2dc <__isr_vec_space+0x1d2bc>
     120:	00000100 	sll	zero,zero,0x4
     124:	74696e69 	jalx	1a5b9a4 <__memory_size+0x1a3c1a4>
     128:	6361635f 	0x6361635f
     12c:	2e736568 	sltiu	s3,s3,25960
     130:	00010053 	0x10053
     134:	696e6900 	0x696e6900
     138:	70635f74 	q16sll	xr13,xr7,xr13,xr8,1
     13c:	00532e30 	tge	v0,s3,0xb8
     140:	69000001 	0x69000001
     144:	5f74696e 	0x5f74696e
     148:	2e626c74 	sltiu	v0,s3,27764
     14c:	00010053 	0x10053
     150:	05000000 	bltz	t0,154 <__isr_vec_space+0x134>
     154:	c0000002 	ll	zero,2(zero)
     158:	00c0039f 	0xc0039f
     15c:	4b4b8301 	c2	0x14b8301
     160:	4b4a0903 	c2	0x14a0903
     164:	504b4b4b 	beql	v0,t3,12e94 <__isr_vec_space+0x12e74>
     168:	834e4b83 	lb	t6,19331(k0)
     16c:	4b834e4b 	c2	0x1834e4b
     170:	4b4b834f 	c2	0x14b834f
     174:	4b834e4b 	c2	0x1834e4b
     178:	834b834e 	lb	t3,-31922(k0)
     17c:	4b504e4b 	c2	0x1504e4b
     180:	b8030204 	swr	v1,516(zero)
     184:	4d4d4a7f 	0x4d4d4a7f
     188:	4c4b4c4b 	0x4c4b4c4b
     18c:	4b4d4b4b 	c2	0x14d4b4b
     190:	4b4d4c4c 	c2	0x14d4c4c
     194:	4b4b4f4c 	c2	0x14b4f4c
     198:	034b4e4b 	0x34b4e4b
     19c:	4d4d4a09 	0x4d4d4a09
     1a0:	4c4b4c4b 	0x4c4b4c4b
     1a4:	4b4d4b4b 	c2	0x14d4b4b
     1a8:	4b4d4c4c 	c2	0x14d4c4c
     1ac:	504c4b4b 	beql	v0,t4,12edc <__isr_vec_space+0x12ebc>
     1b0:	4d4b4c4b 	0x4d4b4c4b
     1b4:	4b4b504b 	c2	0x14b504b
     1b8:	044b4b4b 	tltiu	v0,19275
     1bc:	026e0301 	0x26e0301
     1c0:	4b01018c 	c2	0x101018c
     1c4:	4b157c02 	c2	0x1157c02
     1c8:	a0030304 	sb	v1,772(zero)
     1cc:	4d834a7f 	0x4d834a7f
     1d0:	4d4b4b4b 	0x4d4b4b4b
     1d4:	4c4b4c4b 	0x4c4b4c4b
     1d8:	4c4b4c4b 	0x4c4b4c4b
     1dc:	4c4b4c4b 	0x4c4b4c4b
     1e0:	4f4b4c4b 	c3	0x14b4c4b
     1e4:	044b4c4d 	tltiu	v0,19533
     1e8:	f23a0301 	0xf23a0301
     1ec:	0304044b 	0x304044b
     1f0:	4b4a7f9b 	c2	0x14a7f9b
     1f4:	4b4b4b4b 	c2	0x14b4b4b
     1f8:	4b4b4b4e 	c2	0x14b4b4e
     1fc:	4b4d4b4b 	c2	0x14d4b4b
     200:	4c4b4b4b 	0x4c4b4b4b
     204:	044b4d4b 	tltiu	v0,19787
     208:	00d00301 	0xd00301
     20c:	4b012802 	c2	0x1012802
     210:	024b4b4b 	0x24b4b4b
     214:	4b1801f0 	c2	0x11801f0
     218:	4b4b4b4b 	c2	0x14b4b4b
     21c:	0004024b 	0x4024b
     220:	00660101 	0x660101
     224:	00020000 	sll	zero,v0,0x0
     228:	00000038 	0x38
     22c:	0efb0101 	jal	bec0404 <__memory_size+0xbea0c04>
     230:	0101000d 	break	0x101
     234:	00000101 	0x101
     238:	00000100 	sll	zero,zero,0x4
     23c:	62696c01 	0x62696c01
     240:	692f2e00 	0x692f2e00
     244:	756c636e 	jalx	5b18db8 <__memory_size+0x5af95b8>
     248:	00006564 	0x6564
     24c:	69727473 	0x69727473
     250:	632e676e 	0x632e676e
     254:	00000100 	sll	zero,zero,0x4
     258:	65707974 	0x65707974
     25c:	00682e73 	tltu	v1,t0,0xb9
     260:	00000002 	srl	zero,zero,0x0
     264:	5c020500 	0x5c020500
     268:	14800007 	bnez	a0,288 <__isr_vec_space+0x268>
     26c:	04020013 	bltzl	zero,2bc <__isr_vec_space+0x29c>
     270:	02008302 	0x2008302
     274:	f7b90204 	sdc1	$f25,516(sp)
     278:	04020015 	bltzl	zero,2d0 <__isr_vec_space+0x2b0>
     27c:	0200bb02 	0x200bb02
     280:	f7490204 	sdc1	$f9,516(k0)
     284:	0249830d 	break	0x249,0x20c
     288:	01010010 	0x1010010
     28c:	00000076 	tne	zero,zero,0x1
     290:	00340002 	ror	zero,s4,0x0
     294:	01010000 	0x1010000
     298:	000d0efb 	0xd0efb
     29c:	01010101 	0x1010101
     2a0:	01000000 	0x1000000
     2a4:	2e010000 	sltiu	at,s0,0
     2a8:	636e692f 	0x636e692f
     2ac:	6564756c 	0x6564756c
     2b0:	6d6d0000 	0x6d6d0000
     2b4:	6d6d702f 	0x6d6d702f
     2b8:	0000632e 	0x632e
     2bc:	79740000 	ori.b	$w0,$w0,0x74
     2c0:	2e736570 	sltiu	s3,s3,25968
     2c4:	00010068 	0x10068
     2c8:	05000000 	bltz	t0,2cc <__isr_vec_space+0x2ac>
     2cc:	0007bc02 	srl	s7,a3,0x10
     2d0:	011a0380 	0x11a0380
     2d4:	7508f515 	jalx	423d454 <__memory_size+0x421dc54>
     2d8:	15858384 	bne	t4,a1,fffe10ec <__entry+0x403e10ec>
     2dc:	ad083e08 	sw	t0,15880(t0)
     2e0:	3c085f03 	lui	t0,0x5f03
     2e4:	00bd83f3 	tltu	a1,sp,0x20f
     2e8:	84030402 	lh	v1,1026(zero)
     2ec:	03040200 	0x3040200
     2f0:	04020083 	bltzl	zero,500 <__isr_vec_space+0x4e0>
     2f4:	02004b03 	0x2004b03
     2f8:	887e0304 	lwl	s8,772(v1)
     2fc:	3c081903 	lui	t0,0x1903
     300:	00080214 	0x80214
     304:	022e0101 	0x22e0101
     308:	00020000 	sll	zero,v0,0x0
     30c:	0000004a 	0x4a
     310:	0efb0101 	jal	bec0404 <__memory_size+0xbea0c04>
     314:	0101000d 	break	0x101
     318:	00000101 	0x101
     31c:	00000100 	sll	zero,zero,0x4
     320:	692f2e01 	0x692f2e01
     324:	756c636e 	jalx	5b18db8 <__memory_size+0x5af95b8>
     328:	2e006564 	sltiu	zero,s0,25956
     32c:	636e692f 	0x636e692f
     330:	6564756c 	0x6564756c
     334:	006d6d2f 	0x6d6d2f
     338:	2f6d6d00 	sltiu	t5,k1,27904
     33c:	2e6d6d76 	sltiu	t5,s3,28022
     340:	00000063 	0x63
     344:	70797400 	0x70797400
     348:	682e7365 	0x682e7365
     34c:	00000100 	sll	zero,zero,0x4
     350:	2e6d6d76 	sltiu	t5,s3,28022
     354:	00020068 	0x20068
     358:	05000000 	bltz	t0,35c <__isr_vec_space+0x33c>
     35c:	0008a402 	srl	s4,t0,0x10
     360:	01100380 	0x1100380
     364:	7d85f417 	0x7d85f417
     368:	3e08bb84 	0x3e08bb84
     36c:	02040200 	0x2040200
     370:	080b0345 	j	2c0d14 <__memory_size+0x2a1514>
     374:	bdbc8474 	cache	0x1c,-31628(t5)
     378:	84bfbc84 	lh	ra,-17276(a1)
     37c:	84847e84 	lh	a0,32388(a0)
     380:	08848446 	j	2121118 <__memory_size+0x2101918>
     384:	0e0348ab 	jal	80d22ac <__memory_size+0x80b2aac>
     388:	0200454a 	0x200454a
     38c:	004b0304 	0x4b0304
     390:	4b030402 	c2	0x1030402
     394:	03040200 	0x3040200
     398:	0402004b 	bltzl	zero,4c8 <__isr_vec_space+0x4a8>
     39c:	02004b03 	0x2004b03
     3a0:	004b0304 	0x4b0304
     3a4:	b5030402 	0xb5030402
     3a8:	e4081003 	swc1	$f8,4099(zero)
     3ac:	04020045 	bltzl	zero,4c4 <__isr_vec_space+0x4a4>
     3b0:	02004b03 	0x2004b03
     3b4:	004b0304 	0x4b0304
     3b8:	4b030402 	c2	0x1030402
     3bc:	03040200 	0x3040200
     3c0:	0402004b 	bltzl	zero,4f0 <__isr_vec_space+0x4d0>
     3c4:	02004b03 	0x2004b03
     3c8:	03b50304 	0x3b50304
     3cc:	45e40810 	bnz.v	$w4,2410 <__isr_vec_space+0x23f0>
     3d0:	03040200 	0x3040200
     3d4:	0402004b 	bltzl	zero,504 <__isr_vec_space+0x4e4>
     3d8:	02004b03 	0x2004b03
     3dc:	004b0304 	0x4b0304
     3e0:	4b030402 	c2	0x1030402
     3e4:	03040200 	0x3040200
     3e8:	0402004b 	bltzl	zero,518 <__isr_vec_space+0x4f8>
     3ec:	848ab503 	lh	t2,-19197(a0)
     3f0:	84158415 	lh	s5,-31723(zero)
     3f4:	1584bb14 	bne	t4,a0,fffef048 <__entry+0x403ef048>
     3f8:	01100384 	0x1100384
     3fc:	034a7503 	0x34a7503
     400:	0f03ba73 	jal	c0ee9cc <__memory_size+0xc0cf1cc>
     404:	71033c08 	0x71033c08
     408:	ba0f03f2 	swr	t7,1010(s0)
     40c:	040200f3 	bltzl	zero,7dc <__isr_vec_space+0x7bc>
     410:	03887f02 	0x3887f02
     414:	7303827a 	q8mac	xr9,xr0,xr14,xr0,SS
     418:	820d0382 	lb	t5,898(s0)
     41c:	15ba0903 	bne	t5,k0,282c <__isr_vec_space+0x280c>
     420:	03bc1584 	0x3bc1584
     424:	20034a60 	addi	v1,zero,19040
     428:	825b03f2 	lb	k1,1010(s2)
     42c:	03822503 	0x3822503
     430:	20034a60 	addi	v1,zero,19040
     434:	02008382 	0x2008382
     438:	887f0204 	lwl	ra,516(v1)
     43c:	03ba7a03 	0x3ba7a03
     440:	1e038262 	0x1e038262
     444:	ba090382 	swr	t1,898(s0)
     448:	038483f5 	0x38483f5
     44c:	133c080c 	beq	t9,gp,2480 <__isr_vec_space+0x2460>
     450:	01040200 	0x1040200
     454:	040200c1 	bltzl	zero,75c <__isr_vec_space+0x73c>
     458:	7fba0301 	0x7fba0301
     45c:	04020082 	bltzl	zero,668 <__isr_vec_space+0x648>
     460:	00c60301 	0xc60301
     464:	0682064a 	bltzl	s4,1d90 <__isr_vec_space+0x1d70>
     468:	ba038448 	swr	v1,-31672(s0)
     46c:	c6034a7f 	lwc1	$f3,19071(s0)
     470:	7f854a00 	ext	a1,gp,0x8,0xa
     474:	f34b494d 	0xf34b494d
     478:	02040200 	0x2040200
     47c:	03827a03 	0x3827a03
     480:	833c0870 	lb	gp,2160(t9)
     484:	8383bb83 	lb	v1,-17533(gp)
     488:	038383bb 	0x38383bb
     48c:	8417ba13 	lh	s7,-17901(zero)
     490:	80bc50f4 	lb	gp,20724(a1)
     494:	01040200 	0x1040200
     498:	0806f206 	j	1bc818 <__memory_size+0x19d018>
     49c:	bc18847a 	cache	0x18,-31622(zero)
     4a0:	4cbcbcbc 	0x4cbcbcbc
     4a4:	4d1384bb 	0x4d1384bb
     4a8:	00833b08 	0x833b08
     4ac:	b9020402 	swr	v0,1026(t0)
     4b0:	024e7ebe 	0x24e7ebe
     4b4:	4df41528 	msub.s	$f20,$f15,$f2,$f20
     4b8:	00837308 	0x837308
     4bc:	b9020402 	swr	v0,1026(t0)
     4c0:	063c0806 	0x63c0806
     4c4:	e508bb4e 	swc1	$f8,-17586(t0)
     4c8:	03bcc0f4 	teq	sp,gp,0x303
     4cc:	034a7ef3 	tltu	k0,t2,0x1fb
     4d0:	034a018d 	break	0x34a,0x6
     4d4:	3c087ef3 	lui	t0,0x7ef3
     4d8:	4a018d03 	c2	0x18d03
     4dc:	ec03bbbb 	swc3	$3,-17477(zero)
     4e0:	9603ba7e 	lhu	v1,-17794(s0)
     4e4:	7508ba01 	jalx	422e804 <__memory_size+0x420f004>
     4e8:	02040200 	0x2040200
     4ec:	03827903 	0x3827903
     4f0:	7d7dba0a 	0x7d7dba0a
     4f4:	74080a03 	jalx	20280c <__memory_size+0x1e300c>
     4f8:	d80313f5 	ldc2	$3,5109(zero)
     4fc:	ac034a7e 	sw	v1,19070(zero)
     500:	d9034a01 	ldc2	$3,18945(t0)
     504:	a903ba7e 	swl	v1,-17794(t0)
     508:	03808201 	0x3808201
     50c:	03827ed9 	0x3827ed9
     510:	838201a9 	lb	v0,425(gp)
     514:	3d087508 	0x3d087508
     518:	514a7903 	beql	t2,t2,1e928 <__isr_vec_space+0x1e908>
     51c:	bbf3f3f3 	swr	s3,-3085(ra)
     520:	02040200 	0x2040200
     524:	74087703 	jalx	21dc0c <__memory_size+0x1fe40c>
     528:	0306f206 	0x306f206
     52c:	843c080d 	lh	gp,2061(at)
     530:	02838785 	0x2838785
     534:	0101000c 	syscall	0x40400
     538:	000000e3 	0xe3
     53c:	00520002 	0x520002
     540:	01010000 	0x1010000
     544:	000d0efb 	0xd0efb
     548:	01010101 	0x1010101
     54c:	01000000 	0x1000000
     550:	2e010000 	sltiu	at,s0,0
     554:	636e692f 	0x636e692f
     558:	6564756c 	0x6564756c
     55c:	692f2e00 	0x692f2e00
     560:	756c636e 	jalx	5b18db8 <__memory_size+0x5af95b8>
     564:	6d2f6564 	0x6d2f6564
     568:	6d00006d 	0x6d00006d
     56c:	6d6d2f6d 	0x6d6d2f6d
     570:	0000632e 	0x632e
     574:	79740000 	ori.b	$w0,$w0,0x74
     578:	2e736570 	sltiu	s3,s3,25968
     57c:	00010068 	0x10068
     580:	6d6d7600 	0x6d6d7600
     584:	0200682e 	0x200682e
     588:	6d700000 	0x6d700000
     58c:	00682e6d 	0x682e6d
     590:	00000002 	srl	zero,zero,0x0
     594:	24020500 	li	v0,1280
     598:	1a800010 	blez	s4,5dc <__isr_vec_space+0x5bc>
     59c:	02008514 	0x2008514
     5a0:	76080304 	jalx	8200c10 <__memory_size+0x81e1410>
     5a4:	03040200 	0x3040200
     5a8:	0402004b 	bltzl	zero,6d8 <__isr_vec_space+0x6b8>
     5ac:	88868003 	lwl	a2,-32765(a0)
     5b0:	e4081303 	swc1	$f8,4867(zero)
     5b4:	03ba1703 	0x3ba1703
     5b8:	8483f26b 	lh	v1,-3477(a0)
     5bc:	bbf383f7 	swr	s3,-31753(ra)
     5c0:	87488888 	lh	t0,-30584(k0)
     5c4:	00400883 	0x400883
     5c8:	bb030402 	swr	v1,1026(t8)
     5cc:	03040200 	0x3040200
     5d0:	04020083 	bltzl	zero,7e0 <__isr_vec_space+0x7c0>
     5d4:	0887f003 	j	21fc00c <__memory_size+0x21dc80c>
     5d8:	03760875 	0x3760875
     5dc:	0d038266 	jal	40e0998 <__memory_size+0x40c1198>
     5e0:	0f038382 	jal	c0e0e08 <__memory_size+0xc0c1608>
     5e4:	e6087408 	swc1	$f8,29704(s0)
     5e8:	b9bbb208 	swr	k1,-19960(t5)
     5ec:	7608be83 	jalx	822fa0c <__memory_size+0x821020c>
     5f0:	03040200 	0x3040200
     5f4:	040200bc 	bltzl	zero,8e8 <__isr_vec_space+0x8c8>
     5f8:	0200bb03 	0x200bb03
     5fc:	00830304 	0x830304
     600:	7e030402 	0x7e030402
     604:	2c024bc2 	sltiu	v0,zero,19394
     608:	7e848313 	0x7e848313
     60c:	69034cc0 	0x69034cc0
     610:	040200f2 	bltzl	zero,9dc <__isr_vec_space+0x9bc>
     614:	1d034902 	0x1d034902
     618:	200283ba 	addi	v0,zero,-31814
     61c:	5c010100 	0x5c010100
     620:	02000000 	0x2000000
     624:	00004800 	sll	t1,zero,0x0
     628:	fb010100 	sdc2	$1,256(t8)
     62c:	01000d0e 	0x1000d0e
     630:	00010101 	0x10101
     634:	00010000 	sll	zero,at,0x0
     638:	2f2e0100 	sltiu	t6,t9,256
     63c:	6c636e69 	0x6c636e69
     640:	00656475 	0x656475
     644:	6e692f2e 	0x6e692f2e
     648:	64756c63 	0x64756c63
     64c:	6d6d2f65 	0x6d6d2f65
     650:	616d0000 	0x616d0000
     654:	632e6e69 	0x632e6e69
     658:	00000000 	nop
     65c:	65707974 	0x65707974
     660:	00682e73 	tltu	v1,t0,0xb9
     664:	76000001 	jalx	8000004 <__memory_size+0x7fe0804>
     668:	682e6d6d 	0x682e6d6d
     66c:	00000200 	sll	zero,zero,0x8
     670:	02050000 	0x2050000
     674:	800012f8 	lb	zero,4856(zero)
     678:	0802151a 	j	85468 <__memory_size+0x65c68>
     67c:	d7010100 	ldc1	$f1,256(t8)
     680:	02000000 	0x2000000
     684:	0000be00 	sll	s7,zero,0x18
     688:	fb010100 	sdc2	$1,256(t8)
     68c:	01000d0e 	0x1000d0e
     690:	00010101 	0x10101
     694:	00010000 	sll	zero,at,0x0
     698:	732f0100 	0x732f0100
     69c:	74617263 	jalx	185c98c <__memory_size+0x183d18c>
     6a0:	6d2f6863 	0x6d2f6863
     6a4:	6a2f6670 	0x6a2f6670
     6a8:	2f73626f 	sltiu	s3,k1,25199
     6ac:	39333435 	xori	s3,t1,0x3435
     6b0:	38342f35 	xori	s4,at,0x2f35
     6b4:	2f343930 	sltiu	s4,t9,14640
     6b8:	31303432 	andi	s0,t1,0x3432
     6bc:	732f3839 	0x732f3839
     6c0:	65726168 	0x65726168
     6c4:	63672f64 	0x63672f64
     6c8:	656e2f63 	0x656e2f63
     6cc:	62696c77 	0x62696c77
     6d0:	62696c2f 	0x62696c2f
     6d4:	74732f63 	jalx	1ccbd8c <__memory_size+0x1cac58c>
     6d8:	62696c64 	0x62696c64
     6dc:	63732f00 	0x63732f00
     6e0:	63746172 	0x63746172
     6e4:	706d2f68 	lxhu	a1,v1,t5,3
     6e8:	6f6a2f66 	0x6f6a2f66
     6ec:	352f7362 	ori	t7,t1,0x7362
     6f0:	35393334 	ori	t9,t1,0x3334
     6f4:	3038342f 	andi	t8,at,0x342f
     6f8:	322f3439 	andi	t7,s1,0x3439
     6fc:	39313034 	xori	s1,t1,0x3034
     700:	68732f38 	0x68732f38
     704:	64657261 	0x64657261
     708:	6363672f 	0x6363672f
     70c:	77656e2f 	jalx	d95b8bc <__memory_size+0xd93c0bc>
     710:	2f62696c 	sltiu	v0,k1,26988
     714:	6362696c 	0x6362696c
     718:	636e692f 	0x636e692f
     71c:	6564756c 	0x6564756c
     720:	74610000 	jalx	1840000 <__memory_size+0x1820800>
     724:	74697865 	jalx	1a5e194 <__memory_size+0x1a3e994>
     728:	0100632e 	0x100632e
     72c:	74610000 	jalx	1840000 <__memory_size+0x1820800>
     730:	74697865 	jalx	1a5e194 <__memory_size+0x1a3e994>
     734:	0100682e 	0x100682e
     738:	74730000 	jalx	1cc0000 <__memory_size+0x1ca0800>
     73c:	62696c64 	0x62696c64
     740:	0200682e 	0x200682e
     744:	00000000 	nop
     748:	13480205 	beq	k0,t0,f60 <__isr_vec_space+0xf40>
     74c:	3f038000 	0x3f038000
     750:	4b818301 	c2	0x1818301
     754:	000c0283 	sra	zero,t4,0xa
     758:	01a60101 	0x1a60101
     75c:	00020000 	sll	zero,v0,0x0
     760:	00000188 	0x188
     764:	0efb0101 	jal	bec0404 <__memory_size+0xbea0c04>
     768:	0101000d 	break	0x101
     76c:	00000101 	0x101
     770:	00000100 	sll	zero,zero,0x4
     774:	63732f01 	0x63732f01
     778:	63746172 	0x63746172
     77c:	706d2f68 	lxhu	a1,v1,t5,3
     780:	6f6a2f66 	0x6f6a2f66
     784:	352f7362 	ori	t7,t1,0x7362
     788:	35393334 	ori	t9,t1,0x3334
     78c:	3038342f 	andi	t8,at,0x342f
     790:	322f3439 	andi	t7,s1,0x3439
     794:	39313034 	xori	s1,t1,0x3034
     798:	68732f38 	0x68732f38
     79c:	64657261 	0x64657261
     7a0:	6363672f 	0x6363672f
     7a4:	77656e2f 	jalx	d95b8bc <__memory_size+0xd93c0bc>
     7a8:	2f62696c 	sltiu	v0,k1,26988
     7ac:	6362696c 	0x6362696c
     7b0:	6474732f 	0x6474732f
     7b4:	0062696c 	0x62696c
     7b8:	7263732f 	0x7263732f
     7bc:	68637461 	0x68637461
     7c0:	66706d2f 	0x66706d2f
     7c4:	626f6a2f 	0x626f6a2f
     7c8:	34352f73 	ori	s5,at,0x2f73
     7cc:	2f353933 	sltiu	s5,t9,14643
     7d0:	39303834 	xori	s0,t1,0x3834
     7d4:	34322f34 	ori	s2,at,0x2f34
     7d8:	38393130 	xori	t9,at,0x3130
     7dc:	6168732f 	0x6168732f
     7e0:	2f646572 	sltiu	a0,k1,25970
     7e4:	2f636367 	sltiu	v1,k1,25447
     7e8:	6c77656e 	0x6c77656e
     7ec:	6c2f6269 	0x6c2f6269
     7f0:	2f636269 	sltiu	v1,k1,25193
     7f4:	6c636e69 	0x6c636e69
     7f8:	2f656475 	sltiu	a1,k1,25717
     7fc:	00737973 	tltu	v1,s3,0x1e5
     800:	7263732f 	0x7263732f
     804:	68637461 	0x68637461
     808:	66706d2f 	0x66706d2f
     80c:	626f6a2f 	0x626f6a2f
     810:	34352f73 	ori	s5,at,0x2f73
     814:	2f353933 	sltiu	s5,t9,14643
     818:	39303834 	xori	s0,t1,0x3834
     81c:	34322f34 	ori	s2,at,0x2f34
     820:	32363230 	andi	s6,s1,0x3230
     824:	726f772f 	0x726f772f
     828:	626f2f6b 	0x626f2f6b
     82c:	696d2d6a 	0x696d2d6a
     830:	6d2d7370 	0x6d2d7370
     834:	652d6974 	0x652d6974
     838:	672f666c 	0x672f666c
     83c:	672f6363 	0x672f6363
     840:	692f6363 	0x692f6363
     844:	756c636e 	jalx	5b18db8 <__memory_size+0x5af95b8>
     848:	2f006564 	sltiu	zero,t8,25956
     84c:	61726373 	0x61726373
     850:	2f686374 	sltiu	t0,k1,25460
     854:	2f66706d 	sltiu	a2,k1,28781
     858:	73626f6a 	s16ldd	xr13,k1,310,ptn0
     85c:	3334352f 	andi	s4,t9,0x352f
     860:	342f3539 	ori	t7,at,0x3539
     864:	34393038 	ori	t9,at,0x3038
     868:	3034322f 	andi	s4,at,0x322f
     86c:	2f383931 	sltiu	t8,t9,14641
     870:	72616873 	d32sar	xr1,xr10,xr5,xr8,9
     874:	672f6465 	0x672f6465
     878:	6e2f6363 	0x6e2f6363
     87c:	696c7765 	0x696c7765
     880:	696c2f62 	0x696c2f62
     884:	692f6362 	0x692f6362
     888:	756c636e 	jalx	5b18db8 <__memory_size+0x5af95b8>
     88c:	00006564 	0x6564
     890:	74697865 	jalx	1a5e194 <__memory_size+0x1a3e994>
     894:	0100632e 	0x100632e
     898:	6f6c0000 	0x6f6c0000
     89c:	682e6b63 	0x682e6b63
     8a0:	00000200 	sll	zero,zero,0x8
     8a4:	7079745f 	udi15	v1,t9,t6,0x11
     8a8:	682e7365 	0x682e7365
     8ac:	00000200 	sll	zero,zero,0x8
     8b0:	64647473 	0x64647473
     8b4:	682e6665 	0x682e6665
     8b8:	00000300 	sll	zero,zero,0xc
     8bc:	6e656572 	0x6e656572
     8c0:	00682e74 	teq	v1,t0,0xb9
     8c4:	73000002 	mul	zero,t8,zero
     8c8:	696c6474 	0x696c6474
     8cc:	00682e62 	0x682e62
     8d0:	61000004 	0x61000004
     8d4:	69786574 	0x69786574
     8d8:	00682e74 	teq	v1,t0,0xb9
     8dc:	75000001 	jalx	4000004 <__memory_size+0x3fe0804>
     8e0:	7473696e 	jalx	1cda5b8 <__memory_size+0x1cbadb8>
     8e4:	00682e64 	0x682e64
     8e8:	00000002 	srl	zero,zero,0x0
     8ec:	70020500 	0x70020500
     8f0:	03800013 	mtlo	gp
     8f4:	0350013b 	0x350013b
     8f8:	84884a7a 	lh	t0,19066(a0)
     8fc:	02833d08 	0x2833d08
     900:	01010008 	0x1010008
     904:	00000127 	0x127
     908:	01210002 	0x1210002
     90c:	01010000 	0x1010000
     910:	000d0efb 	0xd0efb
     914:	01010101 	0x1010101
     918:	01000000 	0x1000000
     91c:	2f010000 	sltiu	at,t8,0
     920:	61726373 	0x61726373
     924:	2f686374 	sltiu	t0,k1,25460
     928:	2f66706d 	sltiu	a2,k1,28781
     92c:	73626f6a 	s16ldd	xr13,k1,310,ptn0
     930:	3334352f 	andi	s4,t9,0x352f
     934:	342f3539 	ori	t7,at,0x3539
     938:	34393038 	ori	t9,at,0x3038
     93c:	3034322f 	andi	s4,at,0x322f
     940:	2f383931 	sltiu	t8,t9,14641
     944:	72616873 	d32sar	xr1,xr10,xr5,xr8,9
     948:	672f6465 	0x672f6465
     94c:	6e2f6363 	0x6e2f6363
     950:	696c7765 	0x696c7765
     954:	696c2f62 	0x696c2f62
     958:	692f6362 	0x692f6362
     95c:	756c636e 	jalx	5b18db8 <__memory_size+0x5af95b8>
     960:	732f6564 	s8ldi	xr5,t9,-39,ptn3
     964:	2f007379 	sltiu	zero,t8,29561
     968:	61726373 	0x61726373
     96c:	2f686374 	sltiu	t0,k1,25460
     970:	2f66706d 	sltiu	a2,k1,28781
     974:	73626f6a 	s16ldd	xr13,k1,310,ptn0
     978:	3334352f 	andi	s4,t9,0x352f
     97c:	342f3539 	ori	t7,at,0x3539
     980:	34393038 	ori	t9,at,0x3038
     984:	3034322f 	andi	s4,at,0x322f
     988:	2f323632 	sltiu	s2,t9,13874
     98c:	6b726f77 	0x6b726f77
     990:	6a626f2f 	0x6a626f2f
     994:	70696d2d 	s16sdi	xr4,v1,182,ptn1
     998:	746d2d73 	jalx	1b4b5cc <__memory_size+0x1b2bdcc>
     99c:	6c652d69 	0x6c652d69
     9a0:	63672f66 	0x63672f66
     9a4:	63672f63 	0x63672f63
     9a8:	6e692f63 	0x6e692f63
     9ac:	64756c63 	0x64756c63
     9b0:	732f0065 	s8sdi	xr1,t9,-64,ptn3
     9b4:	74617263 	jalx	185c98c <__memory_size+0x183d18c>
     9b8:	6d2f6863 	0x6d2f6863
     9bc:	6a2f6670 	0x6a2f6670
     9c0:	2f73626f 	sltiu	s3,k1,25199
     9c4:	39333435 	xori	s3,t1,0x3435
     9c8:	38342f35 	xori	s4,at,0x2f35
     9cc:	2f343930 	sltiu	s4,t9,14640
     9d0:	31303432 	andi	s0,t1,0x3432
     9d4:	732f3839 	0x732f3839
     9d8:	65726168 	0x65726168
     9dc:	63672f64 	0x63672f64
     9e0:	656e2f63 	0x656e2f63
     9e4:	62696c77 	0x62696c77
     9e8:	62696c2f 	0x62696c2f
     9ec:	65722f63 	0x65722f63
     9f0:	00746e65 	0x746e65
     9f4:	636f6c00 	0x636f6c00
     9f8:	00682e6b 	0x682e6b
     9fc:	5f000001 	bgtzl	t8,a04 <__isr_vec_space+0x9e4>
     a00:	65707974 	0x65707974
     a04:	00682e73 	tltu	v1,t0,0xb9
     a08:	73000001 	maddu	t8,zero
     a0c:	65646474 	0x65646474
     a10:	00682e66 	0x682e66
     a14:	72000002 	mul	zero,s0,zero
     a18:	746e6565 	jalx	1b99594 <__memory_size+0x1b79d94>
     a1c:	0100682e 	0x100682e
     a20:	6d690000 	0x6d690000
     a24:	65727570 	0x65727570
     a28:	0300632e 	0x300632e
     a2c:	ba000000 	swr	zero,0(s0)
     a30:	02000001 	movf	zero,s0,$fcc0
     a34:	00018000 	sll	s0,at,0x0
     a38:	fb010100 	sdc2	$1,256(t8)
     a3c:	01000d0e 	0x1000d0e
     a40:	00010101 	0x10101
     a44:	00010000 	sll	zero,at,0x0
     a48:	732f0100 	0x732f0100
     a4c:	74617263 	jalx	185c98c <__memory_size+0x183d18c>
     a50:	6d2f6863 	0x6d2f6863
     a54:	6a2f6670 	0x6a2f6670
     a58:	2f73626f 	sltiu	s3,k1,25199
     a5c:	39333435 	xori	s3,t1,0x3435
     a60:	38342f35 	xori	s4,at,0x2f35
     a64:	2f343930 	sltiu	s4,t9,14640
     a68:	31303432 	andi	s0,t1,0x3432
     a6c:	732f3839 	0x732f3839
     a70:	65726168 	0x65726168
     a74:	63672f64 	0x63672f64
     a78:	656e2f63 	0x656e2f63
     a7c:	62696c77 	0x62696c77
     a80:	62696c2f 	0x62696c2f
     a84:	74732f63 	jalx	1ccbd8c <__memory_size+0x1cac58c>
     a88:	62696c64 	0x62696c64
     a8c:	63732f00 	0x63732f00
     a90:	63746172 	0x63746172
     a94:	706d2f68 	lxhu	a1,v1,t5,3
     a98:	6f6a2f66 	0x6f6a2f66
     a9c:	352f7362 	ori	t7,t1,0x7362
     aa0:	35393334 	ori	t9,t1,0x3334
     aa4:	3038342f 	andi	t8,at,0x342f
     aa8:	322f3439 	andi	t7,s1,0x3439
     aac:	36323034 	ori	s2,s1,0x3034
     ab0:	6f772f32 	0x6f772f32
     ab4:	6f2f6b72 	0x6f2f6b72
     ab8:	6d2d6a62 	0x6d2d6a62
     abc:	2d737069 	sltiu	s3,t3,28777
     ac0:	2d69746d 	sltiu	t1,t3,29805
     ac4:	2f666c65 	sltiu	a2,k1,27749
     ac8:	2f636367 	sltiu	v1,k1,25447
     acc:	2f636367 	sltiu	v1,k1,25447
     ad0:	6c636e69 	0x6c636e69
     ad4:	00656475 	0x656475
     ad8:	7263732f 	0x7263732f
     adc:	68637461 	0x68637461
     ae0:	66706d2f 	0x66706d2f
     ae4:	626f6a2f 	0x626f6a2f
     ae8:	34352f73 	ori	s5,at,0x2f73
     aec:	2f353933 	sltiu	s5,t9,14643
     af0:	39303834 	xori	s0,t1,0x3834
     af4:	34322f34 	ori	s2,at,0x2f34
     af8:	38393130 	xori	t9,at,0x3130
     afc:	6168732f 	0x6168732f
     b00:	2f646572 	sltiu	a0,k1,25970
     b04:	2f636367 	sltiu	v1,k1,25447
     b08:	6c77656e 	0x6c77656e
     b0c:	6c2f6269 	0x6c2f6269
     b10:	2f636269 	sltiu	v1,k1,25193
     b14:	6c636e69 	0x6c636e69
     b18:	2f656475 	sltiu	a1,k1,25717
     b1c:	00737973 	tltu	v1,s3,0x1e5
     b20:	7263732f 	0x7263732f
     b24:	68637461 	0x68637461
     b28:	66706d2f 	0x66706d2f
     b2c:	626f6a2f 	0x626f6a2f
     b30:	34352f73 	ori	s5,at,0x2f73
     b34:	2f353933 	sltiu	s5,t9,14643
     b38:	39303834 	xori	s0,t1,0x3834
     b3c:	34322f34 	ori	s2,at,0x2f34
     b40:	38393130 	xori	t9,at,0x3130
     b44:	6168732f 	0x6168732f
     b48:	2f646572 	sltiu	a0,k1,25970
     b4c:	2f636367 	sltiu	v1,k1,25447
     b50:	6c77656e 	0x6c77656e
     b54:	6c2f6269 	0x6c2f6269
     b58:	2f636269 	sltiu	v1,k1,25193
     b5c:	6c636e69 	0x6c636e69
     b60:	00656475 	0x656475
     b64:	615f5f00 	0x615f5f00
     b68:	69786574 	0x69786574
     b6c:	00632e74 	teq	v1,v1,0xb9
     b70:	73000001 	maddu	t8,zero
     b74:	65646474 	0x65646474
     b78:	00682e66 	0x682e66
     b7c:	6c000002 	0x6c000002
     b80:	2e6b636f 	sltiu	t3,s3,25455
     b84:	00030068 	0x30068
     b88:	79745f00 	ori.b	$w28,$w11,0x74
     b8c:	2e736570 	sltiu	s3,s3,25968
     b90:	00030068 	0x30068
     b94:	65657200 	0x65657200
     b98:	682e746e 	0x682e746e
     b9c:	00000300 	sll	zero,zero,0xc
     ba0:	78657461 	ld.h	$w17,202(t6)
     ba4:	682e7469 	0x682e7469
     ba8:	00000100 	sll	zero,zero,0x4
     bac:	6c647473 	0x6c647473
     bb0:	682e6269 	0x682e6269
     bb4:	00000400 	sll	zero,zero,0x10
     bb8:	02050000 	0x2050000
     bbc:	800013ac 	lb	zero,5036(zero)
     bc0:	0100c703 	0x100c703
     bc4:	4a780352 	c2	0x780352
     bc8:	4a780352 	c2	0x780352
     bcc:	834bec08 	lb	t3,-5112(k0)
     bd0:	84f3f983 	lh	s3,-1661(a3)
     bd4:	4b498a83 	c2	0x1498a83
     bd8:	514b4c4b 	beql	t2,t3,13d08 <__isr_vec_space+0x13ce8>
     bdc:	bcba1803 	cache	0x1a,6147(a1)
     be0:	83bc4b47 	lb	gp,19271(sp)
     be4:	4b7808bc 	c2	0x17808bc
     be8:	01002002 	0x1002002
     bec:	0001f201 	0x1f201
     bf0:	79000200 	ori.b	$w8,$w0,0x0
     bf4:	01000001 	movf	zero,t0,$fcc0
     bf8:	0d0efb01 	jal	43bec04 <__memory_size+0x439f404>
     bfc:	01010100 	0x1010100
     c00:	00000001 	movf	zero,zero,$fcc0
     c04:	01000001 	movf	zero,t0,$fcc0
     c08:	7263732f 	0x7263732f
     c0c:	68637461 	0x68637461
     c10:	66706d2f 	0x66706d2f
     c14:	626f6a2f 	0x626f6a2f
     c18:	34352f73 	ori	s5,at,0x2f73
     c1c:	2f353933 	sltiu	s5,t9,14643
     c20:	39303834 	xori	s0,t1,0x3834
     c24:	34322f34 	ori	s2,at,0x2f34
     c28:	38393130 	xori	t9,at,0x3130
     c2c:	6168732f 	0x6168732f
     c30:	2f646572 	sltiu	a0,k1,25970
     c34:	2f636367 	sltiu	v1,k1,25447
     c38:	6c77656e 	0x6c77656e
     c3c:	6c2f6269 	0x6c2f6269
     c40:	2f636269 	sltiu	v1,k1,25193
     c44:	6c647473 	0x6c647473
     c48:	2f006269 	sltiu	zero,t8,25193
     c4c:	61726373 	0x61726373
     c50:	2f686374 	sltiu	t0,k1,25460
     c54:	2f66706d 	sltiu	a2,k1,28781
     c58:	73626f6a 	s16ldd	xr13,k1,310,ptn0
     c5c:	3334352f 	andi	s4,t9,0x352f
     c60:	342f3539 	ori	t7,at,0x3539
     c64:	34393038 	ori	t9,at,0x3038
     c68:	3034322f 	andi	s4,at,0x322f
     c6c:	2f383931 	sltiu	t8,t9,14641
     c70:	72616873 	d32sar	xr1,xr10,xr5,xr8,9
     c74:	672f6465 	0x672f6465
     c78:	6e2f6363 	0x6e2f6363
     c7c:	696c7765 	0x696c7765
     c80:	696c2f62 	0x696c2f62
     c84:	692f6362 	0x692f6362
     c88:	756c636e 	jalx	5b18db8 <__memory_size+0x5af95b8>
     c8c:	732f6564 	s8ldi	xr5,t9,-39,ptn3
     c90:	2f007379 	sltiu	zero,t8,29561
     c94:	61726373 	0x61726373
     c98:	2f686374 	sltiu	t0,k1,25460
     c9c:	2f66706d 	sltiu	a2,k1,28781
     ca0:	73626f6a 	s16ldd	xr13,k1,310,ptn0
     ca4:	3334352f 	andi	s4,t9,0x352f
     ca8:	342f3539 	ori	t7,at,0x3539
     cac:	34393038 	ori	t9,at,0x3038
     cb0:	3034322f 	andi	s4,at,0x322f
     cb4:	2f323632 	sltiu	s2,t9,13874
     cb8:	6b726f77 	0x6b726f77
     cbc:	6a626f2f 	0x6a626f2f
     cc0:	70696d2d 	s16sdi	xr4,v1,182,ptn1
     cc4:	746d2d73 	jalx	1b4b5cc <__memory_size+0x1b2bdcc>
     cc8:	6c652d69 	0x6c652d69
     ccc:	63672f66 	0x63672f66
     cd0:	63672f63 	0x63672f63
     cd4:	6e692f63 	0x6e692f63
     cd8:	64756c63 	0x64756c63
     cdc:	732f0065 	s8sdi	xr1,t9,-64,ptn3
     ce0:	74617263 	jalx	185c98c <__memory_size+0x183d18c>
     ce4:	6d2f6863 	0x6d2f6863
     ce8:	6a2f6670 	0x6a2f6670
     cec:	2f73626f 	sltiu	s3,k1,25199
     cf0:	39333435 	xori	s3,t1,0x3435
     cf4:	38342f35 	xori	s4,at,0x2f35
     cf8:	2f343930 	sltiu	s4,t9,14640
     cfc:	31303432 	andi	s0,t1,0x3432
     d00:	732f3839 	0x732f3839
     d04:	65726168 	0x65726168
     d08:	63672f64 	0x63672f64
     d0c:	656e2f63 	0x656e2f63
     d10:	62696c77 	0x62696c77
     d14:	62696c2f 	0x62696c2f
     d18:	6e692f63 	0x6e692f63
     d1c:	64756c63 	0x64756c63
     d20:	5f000065 	bgtzl	t8,eb8 <__isr_vec_space+0xe98>
     d24:	6c61635f 	0x6c61635f
     d28:	74615f6c 	jalx	1857db0 <__memory_size+0x18385b0>
     d2c:	74697865 	jalx	1a5e194 <__memory_size+0x1a3e994>
     d30:	0100632e 	0x100632e
     d34:	6f6c0000 	0x6f6c0000
     d38:	682e6b63 	0x682e6b63
     d3c:	00000200 	sll	zero,zero,0x8
     d40:	7079745f 	udi15	v1,t9,t6,0x11
     d44:	682e7365 	0x682e7365
     d48:	00000200 	sll	zero,zero,0x8
     d4c:	64647473 	0x64647473
     d50:	682e6665 	0x682e6665
     d54:	00000300 	sll	zero,zero,0xc
     d58:	6e656572 	0x6e656572
     d5c:	00682e74 	teq	v1,t0,0xb9
     d60:	73000002 	mul	zero,t8,zero
     d64:	696c6474 	0x696c6474
     d68:	00682e62 	0x682e62
     d6c:	00000004 	sllv	zero,zero,zero
     d70:	bc020500 	cache	0x2,1280(zero)
     d74:	03800014 	0x3800014
     d78:	030100c3 	0x30100c3
     d7c:	71034a0f 	d16mace	xr8,xr2,xr13,xr0,AS,WW
     d80:	00c4034a 	0xc4034a
     d84:	7fbc034a 	0x7fbc034a
     d88:	4a1c034a 	c2	0x1c034a
     d8c:	034a6403 	0x34a6403
     d90:	034a00c4 	0x34a00c4
     d94:	034a7fbc 	0x34a7fbc
     d98:	0124020f 	0x124020f
     d9c:	894c49bb 	lwl	t4,18875(t2)
     da0:	01040200 	0x1040200
     da4:	8906f206 	lwl	a2,-3578(t0)
     da8:	02040200 	0x2040200
     dac:	c0068206 	ll	a2,-32250(zero)
     db0:	884d7708 	lwl	t5,30472(v0)
     db4:	820903f3 	lb	t1,1011(s0)
     db8:	01040200 	0x1040200
     dbc:	0200ba06 	0x200ba06
     dc0:	03060204 	0x3060204
     dc4:	2c03ba5d 	sltiu	v1,zero,-17827
     dc8:	020087ba 	0x20087ba
     dcc:	ba060104 	swr	a2,260(s0)
     dd0:	86838a06 	lh	v1,-30202(s4)
     dd4:	825c034b 	lb	gp,843(s2)
     dd8:	0387f4f3 	tltu	gp,a3,0x3d3
     ddc:	2c028224 	sltiu	v0,zero,-32220
     de0:	56010100 	bnel	s0,at,11e4 <__isr_vec_space+0x11c4>
     de4:	02000001 	movf	zero,s0,$fcc0
     de8:	00011300 	sll	v0,at,0xc
     dec:	fb010100 	sdc2	$1,256(t8)
     df0:	01000d0e 	0x1000d0e
     df4:	00010101 	0x10101
     df8:	00010000 	sll	zero,at,0x0
     dfc:	732f0100 	0x732f0100
     e00:	74617263 	jalx	185c98c <__memory_size+0x183d18c>
     e04:	6d2f6863 	0x6d2f6863
     e08:	6a2f6670 	0x6a2f6670
     e0c:	2f73626f 	sltiu	s3,k1,25199
     e10:	39333435 	xori	s3,t1,0x3435
     e14:	38342f35 	xori	s4,at,0x2f35
     e18:	2f343930 	sltiu	s4,t9,14640
     e1c:	31303432 	andi	s0,t1,0x3432
     e20:	732f3839 	0x732f3839
     e24:	65726168 	0x65726168
     e28:	63672f64 	0x63672f64
     e2c:	696c2f63 	0x696c2f63
     e30:	6f6c6762 	0x6f6c6762
     e34:	6d2f7373 	0x6d2f7373
     e38:	2f737069 	sltiu	s3,k1,28777
     e3c:	00696875 	0x696875
     e40:	7263732f 	0x7263732f
     e44:	68637461 	0x68637461
     e48:	66706d2f 	0x66706d2f
     e4c:	626f6a2f 	0x626f6a2f
     e50:	34352f73 	ori	s5,at,0x2f73
     e54:	2f353933 	sltiu	s5,t9,14643
     e58:	39303834 	xori	s0,t1,0x3834
     e5c:	34322f34 	ori	s2,at,0x2f34
     e60:	38393130 	xori	t9,at,0x3130
     e64:	6168732f 	0x6168732f
     e68:	2f646572 	sltiu	a0,k1,25970
     e6c:	2f636367 	sltiu	v1,k1,25447
     e70:	6c77656e 	0x6c77656e
     e74:	6c2f6269 	0x6c2f6269
     e78:	2f636269 	sltiu	v1,k1,25193
     e7c:	6c636e69 	0x6c636e69
     e80:	2f656475 	sltiu	a1,k1,25717
     e84:	6863616d 	0x6863616d
     e88:	00656e69 	0x656e69
     e8c:	7263732f 	0x7263732f
     e90:	68637461 	0x68637461
     e94:	66706d2f 	0x66706d2f
     e98:	626f6a2f 	0x626f6a2f
     e9c:	34352f73 	ori	s5,at,0x2f73
     ea0:	2f353933 	sltiu	s5,t9,14643
     ea4:	39303834 	xori	s0,t1,0x3834
     ea8:	34322f34 	ori	s2,at,0x2f34
     eac:	38393130 	xori	t9,at,0x3130
     eb0:	6168732f 	0x6168732f
     eb4:	2f646572 	sltiu	a0,k1,25970
     eb8:	2f636367 	sltiu	v1,k1,25447
     ebc:	6c77656e 	0x6c77656e
     ec0:	6c2f6269 	0x6c2f6269
     ec4:	2f636269 	sltiu	v1,k1,25193
     ec8:	6c636e69 	0x6c636e69
     ecc:	00656475 	0x656475
     ed0:	69687500 	0x69687500
     ed4:	6978655f 	0x6978655f
     ed8:	00632e74 	teq	v1,v1,0xb9
     edc:	5f000001 	bgtzl	t8,ee4 <__isr_vec_space+0xec4>
     ee0:	61666564 	0x61666564
     ee4:	5f746c75 	0x5f746c75
     ee8:	65707974 	0x65707974
     eec:	00682e73 	tltu	v1,t0,0xb9
     ef0:	73000002 	mul	zero,t8,zero
     ef4:	6e696474 	0x6e696474
     ef8:	00682e74 	teq	v1,t0,0xb9
     efc:	00000003 	sra	zero,zero,0x0
     f00:	3c020500 	lui	v0,0x500
     f04:	03800016 	0x3800016
     f08:	1603013c 	bne	s0,v1,13fc <__isr_vec_space+0x13dc>
     f0c:	4a6a0382 	c2	0x6a0382
     f10:	034a1403 	0x34a1403
     f14:	12034a6c 	beq	s0,v1,138c8 <__isr_vec_space+0x138a8>
     f18:	6c034c4a 	0x6c034c4a
     f1c:	4a12034a 	c2	0x12034a
     f20:	034a6e03 	0x34a6e03
     f24:	6a034a16 	0x6a034a16
     f28:	4b4b4b4a 	c2	0x14b4b4a
     f2c:	4a0d034c 	c2	0xd034c
     f30:	837e83be 	lb	s8,-31810(k1)
     f34:	f26d0383 	0xf26d0383
     f38:	01000802 	0x1000802
     f3c:	0000a201 	0xa201
     f40:	66000200 	0x66000200
     f44:	01000000 	0x1000000
     f48:	0d0efb01 	jal	43bec04 <__memory_size+0x439f404>
     f4c:	01010100 	0x1010100
     f50:	00000001 	movf	zero,zero,$fcc0
     f54:	01000001 	movf	zero,t0,$fcc0
     f58:	7263732f 	0x7263732f
     f5c:	68637461 	0x68637461
     f60:	66706d2f 	0x66706d2f
     f64:	626f6a2f 	0x626f6a2f
     f68:	34352f73 	ori	s5,at,0x2f73
     f6c:	2f353933 	sltiu	s5,t9,14643
     f70:	39303834 	xori	s0,t1,0x3834
     f74:	34322f34 	ori	s2,at,0x2f34
     f78:	38393130 	xori	t9,at,0x3130
     f7c:	6168732f 	0x6168732f
     f80:	2f646572 	sltiu	a0,k1,25970
     f84:	2f636367 	sltiu	v1,k1,25447
     f88:	6762696c 	0x6762696c
     f8c:	73736f6c 	s16ldi	xr13,k1,438,ptn2
     f90:	70696d2f 	0x70696d2f
     f94:	68752f73 	0x68752f73
     f98:	75000069 	jalx	40001a4 <__memory_size+0x3fe09a4>
     f9c:	675f6968 	0x675f6968
     fa0:	72617465 	s8sdi	xr1,s3,93,ptn0
     fa4:	532e7367 	beql	t9,t6,1dd44 <__isr_vec_space+0x1dd24>
     fa8:	00000100 	sll	zero,zero,0x4
     fac:	02050000 	0x2050000
     fb0:	800016c4 	lb	zero,5828(zero)
     fb4:	4b012a03 	c2	0x1012a03
     fb8:	4d4c4b4c 	0x4d4c4b4c
     fbc:	4b4b4b84 	c2	0x14b4b84
     fc0:	4e4b4b83 	c3	0x4b4b83
     fc4:	4c4c4b4b 	0x4c4c4b4b
     fc8:	834b4b84 	lb	t3,19332(k0)
     fcc:	4c4b4b4b 	0x4c4b4b4b
     fd0:	4c4b4b4b 	0x4c4b4b4b
     fd4:	4b4b844c 	c2	0x14b844c
     fd8:	4b4e4b85 	c2	0x14e4b85
     fdc:	0802144b 	j	8512c <__memory_size+0x6592c>
     fe0:	3e010100 	0x3e010100
     fe4:	02000001 	movf	zero,s0,$fcc0
     fe8:	00011c00 	sll	v1,at,0x10
     fec:	fb010100 	sdc2	$1,256(t8)
     ff0:	01000d0e 	0x1000d0e
     ff4:	00010101 	0x10101
     ff8:	00010000 	sll	zero,at,0x0
     ffc:	732f0100 	0x732f0100
    1000:	74617263 	jalx	185c98c <__memory_size+0x183d18c>
    1004:	6d2f6863 	0x6d2f6863
    1008:	6a2f6670 	0x6a2f6670
    100c:	2f73626f 	sltiu	s3,k1,25199
    1010:	39333435 	xori	s3,t1,0x3435
    1014:	38342f35 	xori	s4,at,0x2f35
    1018:	2f343930 	sltiu	s4,t9,14640
    101c:	31303432 	andi	s0,t1,0x3432
    1020:	732f3839 	0x732f3839
    1024:	65726168 	0x65726168
    1028:	63672f64 	0x63672f64
    102c:	696c2f63 	0x696c2f63
    1030:	6f6c6762 	0x6f6c6762
    1034:	6d2f7373 	0x6d2f7373
    1038:	2f737069 	sltiu	s3,k1,28777
    103c:	00696875 	0x696875
    1040:	7263732f 	0x7263732f
    1044:	68637461 	0x68637461
    1048:	66706d2f 	0x66706d2f
    104c:	626f6a2f 	0x626f6a2f
    1050:	34352f73 	ori	s5,at,0x2f73
    1054:	2f353933 	sltiu	s5,t9,14643
    1058:	39303834 	xori	s0,t1,0x3834
    105c:	34322f34 	ori	s2,at,0x2f34
    1060:	38393130 	xori	t9,at,0x3130
    1064:	6168732f 	0x6168732f
    1068:	2f646572 	sltiu	a0,k1,25970
    106c:	2f636367 	sltiu	v1,k1,25447
    1070:	6c77656e 	0x6c77656e
    1074:	6c2f6269 	0x6c2f6269
    1078:	2f636269 	sltiu	v1,k1,25193
    107c:	6c636e69 	0x6c636e69
    1080:	2f656475 	sltiu	a1,k1,25717
    1084:	6863616d 	0x6863616d
    1088:	00656e69 	0x656e69
    108c:	7263732f 	0x7263732f
    1090:	68637461 	0x68637461
    1094:	66706d2f 	0x66706d2f
    1098:	626f6a2f 	0x626f6a2f
    109c:	34352f73 	ori	s5,at,0x2f73
    10a0:	2f353933 	sltiu	s5,t9,14643
    10a4:	39303834 	xori	s0,t1,0x3834
    10a8:	34322f34 	ori	s2,at,0x2f34
    10ac:	38393130 	xori	t9,at,0x3130
    10b0:	6168732f 	0x6168732f
    10b4:	2f646572 	sltiu	a0,k1,25970
    10b8:	2f636367 	sltiu	v1,k1,25447
    10bc:	6c77656e 	0x6c77656e
    10c0:	6c2f6269 	0x6c2f6269
    10c4:	2f636269 	sltiu	v1,k1,25193
    10c8:	6c636e69 	0x6c636e69
    10cc:	00656475 	0x656475
    10d0:	69687500 	0x69687500
    10d4:	7465675f 	jalx	1959d7c <__memory_size+0x193a57c>
    10d8:	6d61725f 	0x6d61725f
    10dc:	6e61725f 	0x6e61725f
    10e0:	632e6567 	0x632e6567
    10e4:	00000100 	sll	zero,zero,0x4
    10e8:	6665645f 	0x6665645f
    10ec:	746c7561 	jalx	1b1d584 <__memory_size+0x1afdd84>
    10f0:	7079745f 	udi15	v1,t9,t6,0x11
    10f4:	682e7365 	0x682e7365
    10f8:	00000200 	sll	zero,zero,0x8
    10fc:	69647473 	0x69647473
    1100:	682e746e 	0x682e746e
    1104:	00000300 	sll	zero,zero,0xc
    1108:	02050000 	0x2050000
    110c:	8000177c 	lb	zero,6012(zero)
    1110:	17012703 	bne	t8,at,ad20 <__isr_vec_space+0xad00>
    1114:	4b454f45 	c2	0x1454f45
    1118:	4c83bc4e 	0x4c83bc4e
    111c:	4b835086 	c2	0x1835086
    1120:	01000802 	0x1000802
    1124:	00011201 	0x11201
    1128:	6b000200 	0x6b000200
    112c:	01000000 	0x1000000
    1130:	0d0efb01 	jal	43bec04 <__memory_size+0x439f404>
    1134:	01010100 	0x1010100
    1138:	00000001 	movf	zero,zero,$fcc0
    113c:	01000001 	movf	zero,t0,$fcc0
    1140:	7263732f 	0x7263732f
    1144:	68637461 	0x68637461
    1148:	66706d2f 	0x66706d2f
    114c:	626f6a2f 	0x626f6a2f
    1150:	34352f73 	ori	s5,at,0x2f73
    1154:	2f353933 	sltiu	s5,t9,14643
    1158:	39303834 	xori	s0,t1,0x3834
    115c:	34322f34 	ori	s2,at,0x2f34
    1160:	38393130 	xori	t9,at,0x3130
    1164:	6168732f 	0x6168732f
    1168:	2f646572 	sltiu	a0,k1,25970
    116c:	2f636367 	sltiu	v1,k1,25447
    1170:	6762696c 	0x6762696c
    1174:	73736f6c 	s16ldi	xr13,k1,438,ptn2
    1178:	70696d2f 	0x70696d2f
    117c:	61682f73 	0x61682f73
    1180:	6d00006c 	0x6d00006c
    1184:	5f737069 	0x5f737069
    1188:	70637865 	s8sdi	xr1,v1,-34,ptn0
    118c:	6e655f74 	0x6e655f74
    1190:	2e797274 	sltiu	t9,s3,29300
    1194:	00010053 	0x10053
    1198:	05000000 	bltz	t0,119c <__isr_vec_space+0x117c>
    119c:	00000002 	srl	zero,zero,0x0
    11a0:	00c30380 	0xc30380
    11a4:	854b8301 	lh	t3,-31999(t2)
    11a8:	02838384 	0x2838384
    11ac:	83831854 	lb	v1,6228(gp)
    11b0:	83177002 	lb	s7,28674(t8)
    11b4:	16700283 	bne	s3,s0,1bc4 <__isr_vec_space+0x1ba4>
    11b8:	0802834d 	j	a0d34 <__memory_size+0x81534>
    11bc:	00010100 	sll	zero,at,0x4
    11c0:	23700205 	addi	s0,k1,517
    11c4:	f3038000 	0xf3038000
    11c8:	4d4c0100 	lwxc1	$f4,t4(t2)
    11cc:	4b4b4b4b 	c2	0x14b4b4b
    11d0:	4b4b4b4b 	c2	0x14b4b4b
    11d4:	4b4b4b4b 	c2	0x14b4b4b
    11d8:	4b4b4b4b 	c2	0x14b4b4b
    11dc:	4b4b4b4b 	c2	0x14b4b4b
    11e0:	4b4b4b4b 	c2	0x14b4b4b
    11e4:	4b4b4c4b 	c2	0x14b4c4b
    11e8:	4b4d4b4b 	c2	0x14d4b4b
    11ec:	4b4f4b4b 	c2	0x14f4b4b
    11f0:	4b4b4d4b 	c2	0x14b4d4b
    11f4:	4b4b4b4c 	c2	0x14b4b4c
    11f8:	4b4c834b 	c2	0x14c834b
    11fc:	4d4b4c83 	0x4d4b4c83
    1200:	4b4b4b4d 	c2	0x14b4b4d
    1204:	844d4b4b 	lh	t5,19275(v0)
    1208:	834e4d4d 	lb	t6,19789(k0)
    120c:	4b4b4b88 	c2	0x14b4b88
    1210:	4b4b4b4d 	c2	0x14b4b4d
    1214:	4b4b4b4b 	c2	0x14b4b4b
    1218:	4b4b4b4b 	c2	0x14b4b4b
    121c:	4b4b4b4b 	c2	0x14b4b4b
    1220:	4b4b4b4b 	c2	0x14b4b4b
    1224:	4b4b4b4b 	c2	0x14b4b4b
    1228:	4b4c4c4b 	c2	0x14c4c4b
    122c:	4b4b4b4b 	c2	0x14b4b4b
    1230:	4b4b4b4b 	c2	0x14b4b4b
    1234:	04024c4b 	bltzl	zero,14364 <__isr_vec_space+0x14344>
    1238:	1f010100 	0x1f010100
    123c:	02000003 	0x2000003
    1240:	00023300 	sll	a2,v0,0xc
    1244:	fb010100 	sdc2	$1,256(t8)
    1248:	01000d0e 	0x1000d0e
    124c:	00010101 	0x10101
    1250:	00010000 	sll	zero,at,0x0
    1254:	732f0100 	0x732f0100
    1258:	74617263 	jalx	185c98c <__memory_size+0x183d18c>
    125c:	6d2f6863 	0x6d2f6863
    1260:	6a2f6670 	0x6a2f6670
    1264:	2f73626f 	sltiu	s3,k1,25199
    1268:	39333435 	xori	s3,t1,0x3435
    126c:	38342f35 	xori	s4,at,0x2f35
    1270:	2f343930 	sltiu	s4,t9,14640
    1274:	31303432 	andi	s0,t1,0x3432
    1278:	732f3839 	0x732f3839
    127c:	65726168 	0x65726168
    1280:	63672f64 	0x63672f64
    1284:	696c2f63 	0x696c2f63
    1288:	6f6c6762 	0x6f6c6762
    128c:	6d2f7373 	0x6d2f7373
    1290:	2f737069 	sltiu	s3,k1,28777
    1294:	006c6168 	0x6c6168
    1298:	7263732f 	0x7263732f
    129c:	68637461 	0x68637461
    12a0:	66706d2f 	0x66706d2f
    12a4:	626f6a2f 	0x626f6a2f
    12a8:	34352f73 	ori	s5,at,0x2f73
    12ac:	2f353933 	sltiu	s5,t9,14643
    12b0:	39303834 	xori	s0,t1,0x3834
    12b4:	34322f34 	ori	s2,at,0x2f34
    12b8:	32363230 	andi	s6,s1,0x3230
    12bc:	726f772f 	0x726f772f
    12c0:	626f2f6b 	0x626f2f6b
    12c4:	696d2d6a 	0x696d2d6a
    12c8:	6d2d7370 	0x6d2d7370
    12cc:	652d6974 	0x652d6974
    12d0:	672f666c 	0x672f666c
    12d4:	672f6363 	0x672f6363
    12d8:	692f6363 	0x692f6363
    12dc:	756c636e 	jalx	5b18db8 <__memory_size+0x5af95b8>
    12e0:	2f006564 	sltiu	zero,t8,25956
    12e4:	61726373 	0x61726373
    12e8:	2f686374 	sltiu	t0,k1,25460
    12ec:	2f66706d 	sltiu	a2,k1,28781
    12f0:	73626f6a 	s16ldd	xr13,k1,310,ptn0
    12f4:	3334352f 	andi	s4,t9,0x352f
    12f8:	342f3539 	ori	t7,at,0x3539
    12fc:	34393038 	ori	t9,at,0x3038
    1300:	3034322f 	andi	s4,at,0x322f
    1304:	2f383931 	sltiu	t8,t9,14641
    1308:	72616873 	d32sar	xr1,xr10,xr5,xr8,9
    130c:	672f6465 	0x672f6465
    1310:	6e2f6363 	0x6e2f6363
    1314:	696c7765 	0x696c7765
    1318:	696c2f62 	0x696c2f62
    131c:	692f6362 	0x692f6362
    1320:	756c636e 	jalx	5b18db8 <__memory_size+0x5af95b8>
    1324:	6d2f6564 	0x6d2f6564
    1328:	69686361 	0x69686361
    132c:	2f00656e 	sltiu	zero,t8,25966
    1330:	61726373 	0x61726373
    1334:	2f686374 	sltiu	t0,k1,25460
    1338:	2f66706d 	sltiu	a2,k1,28781
    133c:	73626f6a 	s16ldd	xr13,k1,310,ptn0
    1340:	3334352f 	andi	s4,t9,0x352f
    1344:	342f3539 	ori	t7,at,0x3539
    1348:	34393038 	ori	t9,at,0x3038
    134c:	3034322f 	andi	s4,at,0x322f
    1350:	2f383931 	sltiu	t8,t9,14641
    1354:	72616873 	d32sar	xr1,xr10,xr5,xr8,9
    1358:	672f6465 	0x672f6465
    135c:	6c2f6363 	0x6c2f6363
    1360:	6c676269 	0x6c676269
    1364:	2f73736f 	sltiu	s3,k1,29551
    1368:	7370696d 	s16sdi	xr5,k1,52,
    136c:	636e692f 	0x636e692f
    1370:	6564756c 	0x6564756c
    1374:	70696d2f 	0x70696d2f
    1378:	732f0073 	d32sar	xr1,xr0,xr12,xr11,12
    137c:	74617263 	jalx	185c98c <__memory_size+0x183d18c>
    1380:	6d2f6863 	0x6d2f6863
    1384:	6a2f6670 	0x6a2f6670
    1388:	2f73626f 	sltiu	s3,k1,25199
    138c:	39333435 	xori	s3,t1,0x3435
    1390:	38342f35 	xori	s4,at,0x2f35
    1394:	2f343930 	sltiu	s4,t9,14640
    1398:	31303432 	andi	s0,t1,0x3432
    139c:	732f3839 	0x732f3839
    13a0:	65726168 	0x65726168
    13a4:	63672f64 	0x63672f64
    13a8:	656e2f63 	0x656e2f63
    13ac:	62696c77 	0x62696c77
    13b0:	62696c2f 	0x62696c2f
    13b4:	6e692f63 	0x6e692f63
    13b8:	64756c63 	0x64756c63
    13bc:	732f0065 	s8sdi	xr1,t9,-64,ptn3
    13c0:	74617263 	jalx	185c98c <__memory_size+0x183d18c>
    13c4:	6d2f6863 	0x6d2f6863
    13c8:	6a2f6670 	0x6a2f6670
    13cc:	2f73626f 	sltiu	s3,k1,25199
    13d0:	39333435 	xori	s3,t1,0x3435
    13d4:	38342f35 	xori	s4,at,0x2f35
    13d8:	2f343930 	sltiu	s4,t9,14640
    13dc:	31303432 	andi	s0,t1,0x3432
    13e0:	732f3839 	0x732f3839
    13e4:	65726168 	0x65726168
    13e8:	63672f64 	0x63672f64
    13ec:	656e2f63 	0x656e2f63
    13f0:	62696c77 	0x62696c77
    13f4:	62696c2f 	0x62696c2f
    13f8:	6e692f63 	0x6e692f63
    13fc:	64756c63 	0x64756c63
    1400:	79732f65 	st.h	$w29,742(a1)
    1404:	6d000073 	0x6d000073
    1408:	5f737069 	0x5f737069
    140c:	70637865 	s8sdi	xr1,v1,-34,ptn0
    1410:	61685f74 	0x61685f74
    1414:	656c646e 	0x656c646e
    1418:	00632e72 	tlt	v1,v1,0xb9
    141c:	73000001 	maddu	t8,zero
    1420:	65646474 	0x65646474
    1424:	00682e66 	0x682e66
    1428:	5f000002 	bgtzl	t8,1434 <__isr_vec_space+0x1414>
    142c:	61666564 	0x61666564
    1430:	5f746c75 	0x5f746c75
    1434:	65707974 	0x65707974
    1438:	00682e73 	tltu	v1,t0,0xb9
    143c:	6d000003 	0x6d000003
    1440:	30633233 	andi	v1,v1,0x3233
    1444:	0400682e 	bltz	zero,1b500 <__isr_vec_space+0x1b4e0>
    1448:	74730000 	jalx	1cc0000 <__memory_size+0x1ca0800>
    144c:	746e6964 	jalx	1b9a590 <__memory_size+0x1b7ad90>
    1450:	0500682e 	bltz	t0,1b50c <__isr_vec_space+0x1b4ec>
    1454:	61680000 	0x61680000
    1458:	00682e6c 	0x682e6c
    145c:	73000004 	msub	t8,zero
    1460:	6e697274 	0x6e697274
    1464:	00682e67 	0x682e67
    1468:	75000005 	jalx	4000014 <__memory_size+0x3fe0814>
    146c:	7473696e 	jalx	1cda5b8 <__memory_size+0x1cbadb8>
    1470:	00682e64 	0x682e64
    1474:	00000006 	srlv	zero,zero,zero
    1478:	c8020500 	lwc2	$2,1280(zero)
    147c:	03800017 	0x3800017
    1480:	b2080130 	0xb2080130
    1484:	03770883 	0x3770883
    1488:	0a034a76 	j	80d29d8 <__memory_size+0x80b31d8>
    148c:	08f3494a 	j	3cd2528 <__memory_size+0x3cb2d28>
    1490:	83bc84ab 	lb	gp,-31573(sp)
    1494:	78087508 	0x78087508
    1498:	82190313 	lb	t9,787(s0)
    149c:	02f3814b 	0x2f3814b
    14a0:	bef51524 	cache	0x15,5412(s7)
    14a4:	bd3d08be 	cache	0x1d,2238(t1)
    14a8:	847508be 	lh	s5,2238(v1)
    14ac:	3c080b03 	lui	t0,0xb03
    14b0:	08f5f5f4 	j	3d7d7d0 <__memory_size+0x3d5dfd0>
    14b4:	854bbc41 	lh	t3,-17343(t2)
    14b8:	9803f4f6 	lwr	v1,-2826(zero)
    14bc:	e8034a01 	swc2	$3,18945(zero)
    14c0:	837dba7e 	lb	sp,-17794(k1)
    14c4:	019b03f3 	tltu	t4,k1,0xf
    14c8:	7eea03f2 	0x7eea03f2
    14cc:	0196034a 	0x196034a
    14d0:	7eea034a 	0x7eea034a
    14d4:	bdbd85ba 	cache	0x1d,-31302(t5)
    14d8:	083f08bd 	j	fc22f4 <__memory_size+0xfa2af4>
    14dc:	08f3f340 	j	3cfcd00 <__memory_size+0x3cdd500>
    14e0:	4b4b4b3e 	c2	0x14b4b3e
    14e4:	f3f7854b 	0xf3f7854b
    14e8:	4b3e08f3 	c2	0x13e08f3
    14ec:	844c4b4b 	lh	t4,19275(v0)
    14f0:	3f08f5f5 	0x3f08f5f5
    14f4:	3f083f08 	0x3f083f08
    14f8:	bdbd3f08 	cache	0x1d,16136(t5)
    14fc:	083f08f5 	j	fc23d4 <__memory_size+0xfa2bd4>
    1500:	083f083f 	j	fc20fc <__memory_size+0xfa28fc>
    1504:	0840083f 	j	10020fc <__memory_size+0xfe28fc>
    1508:	083d08ad 	j	f422b4 <__memory_size+0xf22ab4>
    150c:	083e083d 	j	f820f4 <__memory_size+0xf628f4>
    1510:	083d083d 	j	f420f4 <__memory_size+0xf228f4>
    1514:	083e083d 	j	f820f4 <__memory_size+0xf628f4>
    1518:	083d083d 	j	f420f4 <__memory_size+0xf228f4>
    151c:	083e083d 	j	f820f4 <__memory_size+0xf628f4>
    1520:	083d083d 	j	f420f4 <__memory_size+0xf228f4>
    1524:	083e083d 	j	f820f4 <__memory_size+0xf628f4>
    1528:	083d083d 	j	f420f4 <__memory_size+0xf228f4>
    152c:	083e083d 	j	f820f4 <__memory_size+0xf628f4>
    1530:	083d083d 	j	f420f4 <__memory_size+0xf228f4>
    1534:	083e083d 	j	f820f4 <__memory_size+0xf628f4>
    1538:	083d083d 	j	f420f4 <__memory_size+0xf228f4>
    153c:	083e083d 	j	f820f4 <__memory_size+0xf628f4>
    1540:	083d083d 	j	f420f4 <__memory_size+0xf228f4>
    1544:	083f083d 	j	fc20f4 <__memory_size+0xfa28f4>
    1548:	083f083d 	j	fc20f4 <__memory_size+0xfa28f4>
    154c:	083e083d 	j	f820f4 <__memory_size+0xf628f4>
    1550:	083d083d 	j	f420f4 <__memory_size+0xf228f4>
    1554:	083f083d 	j	fc20f4 <__memory_size+0xfa28f4>
    1558:	00180243 	sra	zero,t8,0x9
    155c:	00a60101 	0xa60101
    1560:	00020000 	sll	zero,v0,0x0
    1564:	0000006e 	0x6e
    1568:	0efb0101 	jal	bec0404 <__memory_size+0xbea0c04>
    156c:	0101000d 	break	0x101
    1570:	00000101 	0x101
    1574:	00000100 	sll	zero,zero,0x4
    1578:	63732f01 	0x63732f01
    157c:	63746172 	0x63746172
    1580:	706d2f68 	lxhu	a1,v1,t5,3
    1584:	6f6a2f66 	0x6f6a2f66
    1588:	352f7362 	ori	t7,t1,0x7362
    158c:	35393334 	ori	t9,t1,0x3334
    1590:	3038342f 	andi	t8,at,0x342f
    1594:	322f3439 	andi	t7,s1,0x3439
    1598:	39313034 	xori	s1,t1,0x3034
    159c:	68732f38 	0x68732f38
    15a0:	64657261 	0x64657261
    15a4:	6363672f 	0x6363672f
    15a8:	62696c2f 	0x62696c2f
    15ac:	736f6c67 	0x736f6c67
    15b0:	696d2f73 	0x696d2f73
    15b4:	682f7370 	0x682f7370
    15b8:	00006c61 	0x6c61
    15bc:	7370696d 	s16sdi	xr5,k1,52,
    15c0:	6378655f 	0x6378655f
    15c4:	725f7470 	d32sll	xr1,xr13,xr13,xr7,9
    15c8:	73696765 	s8sdi	xr13,k1,89,ptn2
    15cc:	2e726574 	sltiu	s2,s3,25972
    15d0:	00010053 	0x10053
    15d4:	05000000 	bltz	t0,15d8 <__isr_vec_space+0x15b8>
    15d8:	001f7402 	srl	t6,ra,0x10
    15dc:	01380380 	0x1380380
    15e0:	524b4b4f 	beql	s2,t3,14320 <__isr_vec_space+0x14300>
    15e4:	834b8383 	lb	t3,-31869(k0)
    15e8:	03844b4d 	break	0x384,0x12d
    15ec:	4b864a09 	c2	0x1864a09
    15f0:	854d4d4b 	lh	t5,19787(t2)
    15f4:	854c4b4b 	lh	t4,19275(t2)
    15f8:	86134b4b 	lh	s3,19275(s0)
    15fc:	4d4b4b85 	0x4d4b4b85
    1600:	024c854b 	0x24c854b
    1604:	01010008 	0x1010008
    1608:	00000117 	0x117
    160c:	006a0002 	0x6a0002
    1610:	01010000 	0x1010000
    1614:	000d0efb 	0xd0efb
    1618:	01010101 	0x1010101
    161c:	01000000 	0x1000000
    1620:	2f010000 	sltiu	at,t8,0
    1624:	61726373 	0x61726373
    1628:	2f686374 	sltiu	t0,k1,25460
    162c:	2f66706d 	sltiu	a2,k1,28781
    1630:	73626f6a 	s16ldd	xr13,k1,310,ptn0
    1634:	3334352f 	andi	s4,t9,0x352f
    1638:	342f3539 	ori	t7,at,0x3539
    163c:	34393038 	ori	t9,at,0x3038
    1640:	3034322f 	andi	s4,at,0x322f
    1644:	2f383931 	sltiu	t8,t9,14641
    1648:	72616873 	d32sar	xr1,xr10,xr5,xr8,9
    164c:	672f6465 	0x672f6465
    1650:	6c2f6363 	0x6c2f6363
    1654:	6c676269 	0x6c676269
    1658:	2f73736f 	sltiu	s3,k1,29551
    165c:	7370696d 	s16sdi	xr5,k1,52,
    1660:	6c61682f 	0x6c61682f
    1664:	696d0000 	0x696d0000
    1668:	655f7370 	0x655f7370
    166c:	74706378 	jalx	1c18de0 <__memory_size+0x1bf95e0>
    1670:	6f6f625f 	0x6f6f625f
    1674:	00532e74 	teq	v0,s3,0xb9
    1678:	00000001 	movf	zero,zero,$fcc0
    167c:	24020500 	li	v0,1280
    1680:	03800020 	add	zero,gp,zero
    1684:	830100d0 	lb	at,208(t8)
    1688:	4b4b4c4b 	c2	0x14b4c4b
    168c:	4b4b4b4b 	c2	0x14b4b4b
    1690:	4b4b4b4b 	c2	0x14b4b4b
    1694:	4f4c4b4b 	c3	0x14c4b4b
    1698:	4d4b4d4b 	0x4d4b4d4b
    169c:	4b874b4b 	c2	0x1874b4b
    16a0:	03134d4d 	break	0x313,0x135
    16a4:	4c4b820e 	0x4c4b820e
    16a8:	4b4b4b4b 	c2	0x14b4b4b
    16ac:	4b4c834d 	c2	0x14c834d
    16b0:	4b854b4c 	c2	0x1854b4c
    16b4:	4b4b834d 	c2	0x14b834d
    16b8:	4b4b4b4b 	c2	0x14b4b4b
    16bc:	4b4b4b4b 	c2	0x14b4b4b
    16c0:	524b4b4b 	beql	s2,t3,143f0 <__isr_vec_space+0x143d0>
    16c4:	4b4d4c4b 	c2	0x14d4c4b
    16c8:	1003134d 	beq	zero,v1,6400 <__isr_vec_space+0x63e0>
    16cc:	4b4b4d82 	c2	0x14b4d82
    16d0:	4b83154b 	c2	0x183154b
    16d4:	4b4d4b4b 	c2	0x14d4b4b
    16d8:	4b4b4b4b 	c2	0x14b4b4b
    16dc:	4b4b4b4b 	c2	0x14b4b4b
    16e0:	4b4b4b4b 	c2	0x14b4b4b
    16e4:	4b4b4b4b 	c2	0x14b4b4b
    16e8:	4b4b4b4b 	c2	0x14b4b4b
    16ec:	4b4b4b4b 	c2	0x14b4b4b
    16f0:	834d4b4b 	lb	t5,19275(k0)
    16f4:	4a15034b 	c2	0x15034b
    16f8:	0f034d4b 	jal	c0d352c <__memory_size+0xc0b3d2c>
    16fc:	4b4b8382 	c2	0x14b8382
    1700:	82110313 	lb	s1,787(s0)
    1704:	4b4b8385 	c2	0x14b8385
    1708:	4b4b4b85 	c2	0x14b4b85
    170c:	4b4b4b84 	c2	0x14b4b84
    1710:	83524b4e 	lb	s2,19278(k0)
    1714:	4b4c8484 	c2	0x14c8484
    1718:	4b844b4b 	c2	0x1844b4b
    171c:	08024c4c 	j	93130 <__memory_size+0x73930>
    1720:	98010100 	lwr	at,256(zero)
    1724:	02000000 	0x2000000
    1728:	00006900 	sll	t5,zero,0x4
    172c:	fb010100 	sdc2	$1,256(t8)
    1730:	01000d0e 	0x1000d0e
    1734:	00010101 	0x10101
    1738:	00010000 	sll	zero,at,0x0
    173c:	732f0100 	0x732f0100
    1740:	74617263 	jalx	185c98c <__memory_size+0x183d18c>
    1744:	6d2f6863 	0x6d2f6863
    1748:	6a2f6670 	0x6a2f6670
    174c:	2f73626f 	sltiu	s3,k1,25199
    1750:	39333435 	xori	s3,t1,0x3435
    1754:	38342f35 	xori	s4,at,0x2f35
    1758:	2f343930 	sltiu	s4,t9,14640
    175c:	31303432 	andi	s0,t1,0x3432
    1760:	732f3839 	0x732f3839
    1764:	65726168 	0x65726168
    1768:	63672f64 	0x63672f64
    176c:	696c2f63 	0x696c2f63
    1770:	6f6c6762 	0x6f6c6762
    1774:	6d2f7373 	0x6d2f7373
    1778:	2f737069 	sltiu	s3,k1,28777
    177c:	006c6168 	0x6c6168
    1780:	70696d00 	0x70696d00
    1784:	78655f73 	0x78655f73
    1788:	5f747063 	0x5f747063
    178c:	2e727369 	sltiu	s2,s3,29545
    1790:	00010053 	0x10053
    1794:	05000000 	bltz	t0,1798 <__isr_vec_space+0x1778>
    1798:	00020002 	srl	zero,v0,0x0
    179c:	012e0380 	0x12e0380
    17a0:	83f68383 	lb	s6,-31869(ra)
    17a4:	8383f683 	lb	v1,-2429(gp)
    17a8:	f68383f6 	sdc1	$f3,-31754(s4)
    17ac:	83f68383 	lb	s6,-31869(ra)
    17b0:	8383f683 	lb	v1,-2429(gp)
    17b4:	f78383f6 	sdc1	$f3,-31754(gp)
    17b8:	08028383 	j	a0e0c <__memory_size+0x8160c>
    17bc:	19010100 	0x19010100
    17c0:	02000000 	0x2000000
    17c4:	00001300 	sll	v0,zero,0xc
    17c8:	fb010100 	sdc2	$1,256(t8)
    17cc:	01000d0e 	0x1000d0e
    17d0:	00010101 	0x10101
    17d4:	00010000 	sll	zero,at,0x0
    17d8:	00000100 	sll	zero,zero,0x4
    17dc:	000001db 	0x1db
    17e0:	01be0002 	0x1be0002
    17e4:	01010000 	0x1010000
    17e8:	000d0efb 	0xd0efb
    17ec:	01010101 	0x1010101
    17f0:	01000000 	0x1000000
    17f4:	2f010000 	sltiu	at,t8,0
    17f8:	61726373 	0x61726373
    17fc:	2f686374 	sltiu	t0,k1,25460
    1800:	2f66706d 	sltiu	a2,k1,28781
    1804:	73626f6a 	s16ldd	xr13,k1,310,ptn0
    1808:	3334352f 	andi	s4,t9,0x352f
    180c:	342f3539 	ori	t7,at,0x3539
    1810:	34393038 	ori	t9,at,0x3038
    1814:	3034322f 	andi	s4,at,0x322f
    1818:	2f383931 	sltiu	t8,t9,14641
    181c:	72616873 	d32sar	xr1,xr10,xr5,xr8,9
    1820:	672f6465 	0x672f6465
    1824:	6c2f6363 	0x6c2f6363
    1828:	6c676269 	0x6c676269
    182c:	2f73736f 	sltiu	s3,k1,29551
    1830:	7370696d 	s16sdi	xr5,k1,52,
    1834:	6968752f 	0x6968752f
    1838:	63732f00 	0x63732f00
    183c:	63746172 	0x63746172
    1840:	706d2f68 	lxhu	a1,v1,t5,3
    1844:	6f6a2f66 	0x6f6a2f66
    1848:	352f7362 	ori	t7,t1,0x7362
    184c:	35393334 	ori	t9,t1,0x3334
    1850:	3038342f 	andi	t8,at,0x342f
    1854:	322f3439 	andi	t7,s1,0x3439
    1858:	39313034 	xori	s1,t1,0x3034
    185c:	68732f38 	0x68732f38
    1860:	64657261 	0x64657261
    1864:	6363672f 	0x6363672f
    1868:	77656e2f 	jalx	d95b8bc <__memory_size+0xd93c0bc>
    186c:	2f62696c 	sltiu	v0,k1,26988
    1870:	6362696c 	0x6362696c
    1874:	636e692f 	0x636e692f
    1878:	6564756c 	0x6564756c
    187c:	63616d2f 	0x63616d2f
    1880:	656e6968 	0x656e6968
    1884:	63732f00 	0x63732f00
    1888:	63746172 	0x63746172
    188c:	706d2f68 	lxhu	a1,v1,t5,3
    1890:	6f6a2f66 	0x6f6a2f66
    1894:	352f7362 	ori	t7,t1,0x7362
    1898:	35393334 	ori	t9,t1,0x3334
    189c:	3038342f 	andi	t8,at,0x342f
    18a0:	322f3439 	andi	t7,s1,0x3439
    18a4:	39313034 	xori	s1,t1,0x3034
    18a8:	68732f38 	0x68732f38
    18ac:	64657261 	0x64657261
    18b0:	6363672f 	0x6363672f
    18b4:	77656e2f 	jalx	d95b8bc <__memory_size+0xd93c0bc>
    18b8:	2f62696c 	sltiu	v0,k1,26988
    18bc:	6362696c 	0x6362696c
    18c0:	636e692f 	0x636e692f
    18c4:	6564756c 	0x6564756c
    18c8:	63732f00 	0x63732f00
    18cc:	63746172 	0x63746172
    18d0:	706d2f68 	lxhu	a1,v1,t5,3
    18d4:	6f6a2f66 	0x6f6a2f66
    18d8:	352f7362 	ori	t7,t1,0x7362
    18dc:	35393334 	ori	t9,t1,0x3334
    18e0:	3038342f 	andi	t8,at,0x342f
    18e4:	322f3439 	andi	t7,s1,0x3439
    18e8:	36323034 	ori	s2,s1,0x3034
    18ec:	6f772f32 	0x6f772f32
    18f0:	6f2f6b72 	0x6f2f6b72
    18f4:	6d2d6a62 	0x6d2d6a62
    18f8:	2d737069 	sltiu	s3,t3,28777
    18fc:	2d69746d 	sltiu	t1,t3,29805
    1900:	2f666c65 	sltiu	a2,k1,27749
    1904:	2f636367 	sltiu	v1,k1,25447
    1908:	2f636367 	sltiu	v1,k1,25447
    190c:	6c636e69 	0x6c636e69
    1910:	00656475 	0x656475
    1914:	7263732f 	0x7263732f
    1918:	68637461 	0x68637461
    191c:	66706d2f 	0x66706d2f
    1920:	626f6a2f 	0x626f6a2f
    1924:	34352f73 	ori	s5,at,0x2f73
    1928:	2f353933 	sltiu	s5,t9,14643
    192c:	39303834 	xori	s0,t1,0x3834
    1930:	34322f34 	ori	s2,at,0x2f34
    1934:	38393130 	xori	t9,at,0x3130
    1938:	6168732f 	0x6168732f
    193c:	2f646572 	sltiu	a0,k1,25970
    1940:	2f636367 	sltiu	v1,k1,25447
    1944:	6c77656e 	0x6c77656e
    1948:	6c2f6269 	0x6c2f6269
    194c:	2f636269 	sltiu	v1,k1,25193
    1950:	6c636e69 	0x6c636e69
    1954:	2f656475 	sltiu	a1,k1,25717
    1958:	00737973 	tltu	v1,s3,0x1e5
    195c:	69687500 	0x69687500
    1960:	6972775f 	0x6972775f
    1964:	632e6574 	0x632e6574
    1968:	00000100 	sll	zero,zero,0x4
    196c:	6665645f 	0x6665645f
    1970:	746c7561 	jalx	1b1d584 <__memory_size+0x1afdd84>
    1974:	7079745f 	udi15	v1,t9,t6,0x11
    1978:	682e7365 	0x682e7365
    197c:	00000200 	sll	zero,zero,0x8
    1980:	69647473 	0x69647473
    1984:	682e746e 	0x682e746e
    1988:	00000300 	sll	zero,zero,0xc
    198c:	64647473 	0x64647473
    1990:	682e6665 	0x682e6665
    1994:	00000400 	sll	zero,zero,0x10
    1998:	6e727265 	0x6e727265
    199c:	00682e6f 	0x682e6f
    19a0:	00000005 	lsa	zero,zero,zero,0x1
    19a4:	bc020500 	cache	0x2,1280(zero)
    19a8:	03800022 	sub	zero,gp,zero
    19ac:	4b4e0134 	c2	0x14e0134
    19b0:	f6508a45 	sdc1	$f16,-30139(s2)
    19b4:	1402f64b 	bne	zero,v0,fffff2e4 <__entry+0x403ff2e4>
    19b8:	90010100 	lbu	at,256(zero)
    19bc:	02000001 	movf	zero,s0,$fcc0
    19c0:	00017700 	sll	t6,at,0x1c
    19c4:	fb010100 	sdc2	$1,256(t8)
    19c8:	01000d0e 	0x1000d0e
    19cc:	00010101 	0x10101
    19d0:	00010000 	sll	zero,at,0x0
    19d4:	732f0100 	0x732f0100
    19d8:	74617263 	jalx	185c98c <__memory_size+0x183d18c>
    19dc:	6d2f6863 	0x6d2f6863
    19e0:	6a2f6670 	0x6a2f6670
    19e4:	2f73626f 	sltiu	s3,k1,25199
    19e8:	39333435 	xori	s3,t1,0x3435
    19ec:	38342f35 	xori	s4,at,0x2f35
    19f0:	2f343930 	sltiu	s4,t9,14640
    19f4:	31303432 	andi	s0,t1,0x3432
    19f8:	732f3839 	0x732f3839
    19fc:	65726168 	0x65726168
    1a00:	63672f64 	0x63672f64
    1a04:	696c2f63 	0x696c2f63
    1a08:	6f6c6762 	0x6f6c6762
    1a0c:	6d2f7373 	0x6d2f7373
    1a10:	2f737069 	sltiu	s3,k1,28777
    1a14:	00696875 	0x696875
    1a18:	7263732f 	0x7263732f
    1a1c:	68637461 	0x68637461
    1a20:	66706d2f 	0x66706d2f
    1a24:	626f6a2f 	0x626f6a2f
    1a28:	34352f73 	ori	s5,at,0x2f73
    1a2c:	2f353933 	sltiu	s5,t9,14643
    1a30:	39303834 	xori	s0,t1,0x3834
    1a34:	34322f34 	ori	s2,at,0x2f34
    1a38:	38393130 	xori	t9,at,0x3130
    1a3c:	6168732f 	0x6168732f
    1a40:	2f646572 	sltiu	a0,k1,25970
    1a44:	2f636367 	sltiu	v1,k1,25447
    1a48:	6c77656e 	0x6c77656e
    1a4c:	6c2f6269 	0x6c2f6269
    1a50:	2f636269 	sltiu	v1,k1,25193
    1a54:	6c636e69 	0x6c636e69
    1a58:	2f656475 	sltiu	a1,k1,25717
    1a5c:	6863616d 	0x6863616d
    1a60:	00656e69 	0x656e69
    1a64:	7263732f 	0x7263732f
    1a68:	68637461 	0x68637461
    1a6c:	66706d2f 	0x66706d2f
    1a70:	626f6a2f 	0x626f6a2f
    1a74:	34352f73 	ori	s5,at,0x2f73
    1a78:	2f353933 	sltiu	s5,t9,14643
    1a7c:	39303834 	xori	s0,t1,0x3834
    1a80:	34322f34 	ori	s2,at,0x2f34
    1a84:	38393130 	xori	t9,at,0x3130
    1a88:	6168732f 	0x6168732f
    1a8c:	2f646572 	sltiu	a0,k1,25970
    1a90:	2f636367 	sltiu	v1,k1,25447
    1a94:	6c77656e 	0x6c77656e
    1a98:	6c2f6269 	0x6c2f6269
    1a9c:	2f636269 	sltiu	v1,k1,25193
    1aa0:	6c636e69 	0x6c636e69
    1aa4:	00656475 	0x656475
    1aa8:	7263732f 	0x7263732f
    1aac:	68637461 	0x68637461
    1ab0:	66706d2f 	0x66706d2f
    1ab4:	626f6a2f 	0x626f6a2f
    1ab8:	34352f73 	ori	s5,at,0x2f73
    1abc:	2f353933 	sltiu	s5,t9,14643
    1ac0:	39303834 	xori	s0,t1,0x3834
    1ac4:	34322f34 	ori	s2,at,0x2f34
    1ac8:	38393130 	xori	t9,at,0x3130
    1acc:	6168732f 	0x6168732f
    1ad0:	2f646572 	sltiu	a0,k1,25970
    1ad4:	2f636367 	sltiu	v1,k1,25447
    1ad8:	6762696c 	0x6762696c
    1adc:	73736f6c 	s16ldi	xr13,k1,438,ptn2
    1ae0:	70696d2f 	0x70696d2f
    1ae4:	6e692f73 	0x6e692f73
    1ae8:	64756c63 	0x64756c63
    1aec:	696d2f65 	0x696d2f65
    1af0:	00007370 	tge	zero,zero,0x1cd
    1af4:	5f696875 	0x5f696875
    1af8:	65637865 	0x65637865
    1afc:	6f697470 	0x6f697470
    1b00:	00632e6e 	0x632e6e
    1b04:	5f000001 	bgtzl	t8,1b0c <__isr_vec_space+0x1aec>
    1b08:	61666564 	0x61666564
    1b0c:	5f746c75 	0x5f746c75
    1b10:	65707974 	0x65707974
    1b14:	00682e73 	tltu	v1,t0,0xb9
    1b18:	73000002 	mul	zero,t8,zero
    1b1c:	6e696474 	0x6e696474
    1b20:	00682e74 	teq	v1,t0,0xb9
    1b24:	6d000003 	0x6d000003
    1b28:	30633233 	andi	v1,v1,0x3233
    1b2c:	0400682e 	bltz	zero,1bbe8 <__isr_vec_space+0x1bbc8>
    1b30:	61680000 	0x61680000
    1b34:	00682e6c 	0x682e6c
    1b38:	00000004 	sllv	zero,zero,zero
    1b3c:	0c020500 	jal	81400 <__memory_size+0x61c00>
    1b40:	03800023 	subu	zero,gp,zero
    1b44:	4b150134 	c2	0x1150134
    1b48:	0802504c 	j	94130 <__memory_size+0x74930>
    1b4c:	9b010100 	lwr	at,256(t8)
    1b50:	02000001 	movf	zero,s0,$fcc0
    1b54:	00017600 	sll	t6,at,0x18
    1b58:	fb010100 	sdc2	$1,256(t8)
    1b5c:	01000d0e 	0x1000d0e
    1b60:	00010101 	0x10101
    1b64:	00010000 	sll	zero,at,0x0
    1b68:	732f0100 	0x732f0100
    1b6c:	74617263 	jalx	185c98c <__memory_size+0x183d18c>
    1b70:	6d2f6863 	0x6d2f6863
    1b74:	6a2f6670 	0x6a2f6670
    1b78:	2f73626f 	sltiu	s3,k1,25199
    1b7c:	39333435 	xori	s3,t1,0x3435
    1b80:	38342f35 	xori	s4,at,0x2f35
    1b84:	2f343930 	sltiu	s4,t9,14640
    1b88:	31303432 	andi	s0,t1,0x3432
    1b8c:	732f3839 	0x732f3839
    1b90:	65726168 	0x65726168
    1b94:	63672f64 	0x63672f64
    1b98:	696c2f63 	0x696c2f63
    1b9c:	6f6c6762 	0x6f6c6762
    1ba0:	6d2f7373 	0x6d2f7373
    1ba4:	2f737069 	sltiu	s3,k1,28777
    1ba8:	00696875 	0x696875
    1bac:	7263732f 	0x7263732f
    1bb0:	68637461 	0x68637461
    1bb4:	66706d2f 	0x66706d2f
    1bb8:	626f6a2f 	0x626f6a2f
    1bbc:	34352f73 	ori	s5,at,0x2f73
    1bc0:	2f353933 	sltiu	s5,t9,14643
    1bc4:	39303834 	xori	s0,t1,0x3834
    1bc8:	34322f34 	ori	s2,at,0x2f34
    1bcc:	38393130 	xori	t9,at,0x3130
    1bd0:	6168732f 	0x6168732f
    1bd4:	2f646572 	sltiu	a0,k1,25970
    1bd8:	2f636367 	sltiu	v1,k1,25447
    1bdc:	6762696c 	0x6762696c
    1be0:	73736f6c 	s16ldi	xr13,k1,438,ptn2
    1be4:	70696d2f 	0x70696d2f
    1be8:	6e692f73 	0x6e692f73
    1bec:	64756c63 	0x64756c63
    1bf0:	696d2f65 	0x696d2f65
    1bf4:	2f007370 	sltiu	zero,t8,29552
    1bf8:	61726373 	0x61726373
    1bfc:	2f686374 	sltiu	t0,k1,25460
    1c00:	2f66706d 	sltiu	a2,k1,28781
    1c04:	73626f6a 	s16ldd	xr13,k1,310,ptn0
    1c08:	3334352f 	andi	s4,t9,0x352f
    1c0c:	342f3539 	ori	t7,at,0x3539
    1c10:	34393038 	ori	t9,at,0x3038
    1c14:	3034322f 	andi	s4,at,0x322f
    1c18:	2f383931 	sltiu	t8,t9,14641
    1c1c:	72616873 	d32sar	xr1,xr10,xr5,xr8,9
    1c20:	672f6465 	0x672f6465
    1c24:	6e2f6363 	0x6e2f6363
    1c28:	696c7765 	0x696c7765
    1c2c:	696c2f62 	0x696c2f62
    1c30:	692f6362 	0x692f6362
    1c34:	756c636e 	jalx	5b18db8 <__memory_size+0x5af95b8>
    1c38:	6d2f6564 	0x6d2f6564
    1c3c:	69686361 	0x69686361
    1c40:	2f00656e 	sltiu	zero,t8,25966
    1c44:	61726373 	0x61726373
    1c48:	2f686374 	sltiu	t0,k1,25460
    1c4c:	2f66706d 	sltiu	a2,k1,28781
    1c50:	73626f6a 	s16ldd	xr13,k1,310,ptn0
    1c54:	3334352f 	andi	s4,t9,0x352f
    1c58:	342f3539 	ori	t7,at,0x3539
    1c5c:	34393038 	ori	t9,at,0x3038
    1c60:	3034322f 	andi	s4,at,0x322f
    1c64:	2f383931 	sltiu	t8,t9,14641
    1c68:	72616873 	d32sar	xr1,xr10,xr5,xr8,9
    1c6c:	672f6465 	0x672f6465
    1c70:	6e2f6363 	0x6e2f6363
    1c74:	696c7765 	0x696c7765
    1c78:	696c2f62 	0x696c2f62
    1c7c:	692f6362 	0x692f6362
    1c80:	756c636e 	jalx	5b18db8 <__memory_size+0x5af95b8>
    1c84:	00006564 	0x6564
    1c88:	5f696875 	0x5f696875
    1c8c:	69646e69 	0x69646e69
    1c90:	74636572 	jalx	18d95c8 <__memory_size+0x18b9dc8>
    1c94:	0100632e 	0x100632e
    1c98:	336d0000 	andi	t5,k1,0x0
    1c9c:	2e306332 	sltiu	s0,s1,25394
    1ca0:	00020068 	0x20068
    1ca4:	65645f00 	0x65645f00
    1ca8:	6c756166 	0x6c756166
    1cac:	79745f74 	0x79745f74
    1cb0:	2e736570 	sltiu	s3,s3,25968
    1cb4:	00030068 	0x30068
    1cb8:	64747300 	0x64747300
    1cbc:	2e746e69 	sltiu	s4,s3,28265
    1cc0:	00040068 	0x40068
    1cc4:	6c616800 	0x6c616800
    1cc8:	0200682e 	0x200682e
    1ccc:	00000000 	nop
    1cd0:	23200205 	addi	zero,t9,517
    1cd4:	23038000 	addi	v1,t8,-32768
    1cd8:	4f4b0101 	ldxc1	$f4,t3(k0)
    1cdc:	4b4b4b46 	c2	0x14b4b46
    1ce0:	464f4f4e 	c1	0x4f4f4e
    1ce4:	4c484d4b 	0x4c484d4b
    1ce8:	0008024d 	break	0x8,0x9
    1cec:	01410101 	0x1410101
    1cf0:	00020000 	sll	zero,v0,0x0
    1cf4:	0000012b 	0x12b
    1cf8:	0efb0101 	jal	bec0404 <__memory_size+0xbea0c04>
    1cfc:	0101000d 	break	0x101
    1d00:	00000101 	0x101
    1d04:	00000100 	sll	zero,zero,0x4
    1d08:	63732f01 	0x63732f01
    1d0c:	63746172 	0x63746172
    1d10:	706d2f68 	lxhu	a1,v1,t5,3
    1d14:	6f6a2f66 	0x6f6a2f66
    1d18:	352f7362 	ori	t7,t1,0x7362
    1d1c:	35393334 	ori	t9,t1,0x3334
    1d20:	3038342f 	andi	t8,at,0x342f
    1d24:	322f3439 	andi	t7,s1,0x3439
    1d28:	39313034 	xori	s1,t1,0x3034
    1d2c:	68732f38 	0x68732f38
    1d30:	64657261 	0x64657261
    1d34:	6363672f 	0x6363672f
    1d38:	77656e2f 	jalx	d95b8bc <__memory_size+0xd93c0bc>
    1d3c:	2f62696c 	sltiu	v0,k1,26988
    1d40:	6362696c 	0x6362696c
    1d44:	7272652f 	0x7272652f
    1d48:	2f006f6e 	sltiu	zero,t8,28526
    1d4c:	61726373 	0x61726373
    1d50:	2f686374 	sltiu	t0,k1,25460
    1d54:	2f66706d 	sltiu	a2,k1,28781
    1d58:	73626f6a 	s16ldd	xr13,k1,310,ptn0
    1d5c:	3334352f 	andi	s4,t9,0x352f
    1d60:	342f3539 	ori	t7,at,0x3539
    1d64:	34393038 	ori	t9,at,0x3038
    1d68:	3034322f 	andi	s4,at,0x322f
    1d6c:	2f383931 	sltiu	t8,t9,14641
    1d70:	72616873 	d32sar	xr1,xr10,xr5,xr8,9
    1d74:	672f6465 	0x672f6465
    1d78:	6e2f6363 	0x6e2f6363
    1d7c:	696c7765 	0x696c7765
    1d80:	696c2f62 	0x696c2f62
    1d84:	692f6362 	0x692f6362
    1d88:	756c636e 	jalx	5b18db8 <__memory_size+0x5af95b8>
    1d8c:	732f6564 	s8ldi	xr5,t9,-39,ptn3
    1d90:	2f007379 	sltiu	zero,t8,29561
    1d94:	61726373 	0x61726373
    1d98:	2f686374 	sltiu	t0,k1,25460
    1d9c:	2f66706d 	sltiu	a2,k1,28781
    1da0:	73626f6a 	s16ldd	xr13,k1,310,ptn0
    1da4:	3334352f 	andi	s4,t9,0x352f
    1da8:	342f3539 	ori	t7,at,0x3539
    1dac:	34393038 	ori	t9,at,0x3038
    1db0:	3034322f 	andi	s4,at,0x322f
    1db4:	2f323632 	sltiu	s2,t9,13874
    1db8:	6b726f77 	0x6b726f77
    1dbc:	6a626f2f 	0x6a626f2f
    1dc0:	70696d2d 	s16sdi	xr4,v1,182,ptn1
    1dc4:	746d2d73 	jalx	1b4b5cc <__memory_size+0x1b2bdcc>
    1dc8:	6c652d69 	0x6c652d69
    1dcc:	63672f66 	0x63672f66
    1dd0:	63672f63 	0x63672f63
    1dd4:	6e692f63 	0x6e692f63
    1dd8:	64756c63 	0x64756c63
    1ddc:	65000065 	0x65000065
    1de0:	6f6e7272 	0x6f6e7272
    1de4:	0100632e 	0x100632e
    1de8:	6f6c0000 	0x6f6c0000
    1dec:	682e6b63 	0x682e6b63
    1df0:	00000200 	sll	zero,zero,0x8
    1df4:	7079745f 	udi15	v1,t9,t6,0x11
    1df8:	682e7365 	0x682e7365
    1dfc:	00000200 	sll	zero,zero,0x8
    1e00:	64647473 	0x64647473
    1e04:	682e6665 	0x682e6665
    1e08:	00000300 	sll	zero,zero,0xc
    1e0c:	6e656572 	0x6e656572
    1e10:	00682e74 	teq	v1,t0,0xb9
    1e14:	65000002 	0x65000002
    1e18:	6f6e7272 	0x6f6e7272
    1e1c:	0200682e 	0x200682e
    1e20:	00000000 	nop
    1e24:	23640205 	addi	a0,k1,517
    1e28:	0b038000 	j	c0e0000 <__memory_size+0xc0c0800>
    1e2c:	0c021401 	jal	85004 <__memory_size+0x65804>
    1e30:	Address 0x0000000000001e30 is out of bounds.


Disassembly of section .debug_frame:

00000000 <.debug_frame>:
   0:	0000000c 	syscall
   4:	ffffffff 	sdc3	$31,-1(ra)
   8:	7c010001 	0x7c010001
   c:	001d0d1f 	0x1d0d1f
  10:	0000000c 	syscall
  14:	00000000 	nop
  18:	8000075c 	lb	zero,1884(zero)
  1c:	00000024 	and	zero,zero,zero
  20:	0000000c 	syscall
  24:	00000000 	nop
  28:	80000780 	lb	zero,1920(zero)
  2c:	00000020 	add	zero,zero,zero
  30:	0000000c 	syscall
  34:	00000000 	nop
  38:	800007a0 	lb	zero,1952(zero)
  3c:	0000001c 	0x1c
  40:	0000000c 	syscall
  44:	ffffffff 	sdc3	$31,-1(ra)
  48:	7c010001 	0x7c010001
  4c:	001d0d1f 	0x1d0d1f
  50:	0000000c 	syscall
  54:	00000040 	ssnop
  58:	800007bc 	lb	zero,1980(zero)
  5c:	00000040 	ssnop
  60:	0000000c 	syscall
  64:	00000040 	ssnop
  68:	800007fc 	lb	zero,2044(zero)
  6c:	00000044 	0x44
  70:	00000020 	add	zero,zero,zero
  74:	00000040 	ssnop
  78:	80000840 	lb	zero,2112(zero)
  7c:	0000005c 	0x5c
  80:	4c200e44 	0x4c200e44
  84:	0291019f 	0x291019f
  88:	4c020390 	0x4c020390
  8c:	d1d0000e 	0xd1d0000e
  90:	000000df 	0xdf
  94:	0000000c 	syscall
  98:	00000040 	ssnop
  9c:	8000089c 	lb	zero,2204(zero)
  a0:	00000008 	jr	zero
  a4:	0000000c 	syscall
  a8:	ffffffff 	sdc3	$31,-1(ra)
  ac:	7c010001 	0x7c010001
  b0:	001d0d1f 	0x1d0d1f
  b4:	0000000c 	syscall
  b8:	000000a4 	0xa4
  bc:	800008a4 	lb	zero,2212(zero)
  c0:	000001c0 	sll	zero,zero,0x7
  c4:	0000000c 	syscall
  c8:	000000a4 	0xa4
  cc:	80000a64 	lb	zero,2660(zero)
  d0:	00000008 	jr	zero
  d4:	0000000c 	syscall
  d8:	000000a4 	0xa4
  dc:	80000a6c 	lb	zero,2668(zero)
  e0:	00000008 	jr	zero
  e4:	0000000c 	syscall
  e8:	000000a4 	0xa4
  ec:	80000a74 	lb	zero,2676(zero)
  f0:	00000014 	0x14
  f4:	0000000c 	syscall
  f8:	000000a4 	0xa4
  fc:	80000a88 	lb	zero,2696(zero)
 100:	00000008 	jr	zero
 104:	0000000c 	syscall
 108:	000000a4 	0xa4
 10c:	80000a90 	lb	zero,2704(zero)
 110:	00000084 	0x84
 114:	0000000c 	syscall
 118:	000000a4 	0xa4
 11c:	80000b14 	lb	zero,2836(zero)
 120:	00000008 	jr	zero
 124:	0000000c 	syscall
 128:	000000a4 	0xa4
 12c:	80000b1c 	lb	zero,2844(zero)
 130:	0000007c 	0x7c
 134:	0000001c 	0x1c
 138:	000000a4 	0xa4
 13c:	80000b98 	lb	zero,2968(zero)
 140:	00000034 	teq	zero,zero
 144:	48180e44 	0x48180e44
 148:	0290019f 	0x290019f
 14c:	d0000e68 	0xd0000e68
 150:	000000df 	0xdf
 154:	0000000c 	syscall
 158:	000000a4 	0xa4
 15c:	80000bcc 	lb	zero,3020(zero)
 160:	0000007c 	0x7c
 164:	00000018 	mult	zero,zero
 168:	000000a4 	0xa4
 16c:	80000c48 	lb	zero,3144(zero)
 170:	0000001c 	0x1c
 174:	44180e44 	0x44180e44
 178:	0e54019f 	jal	950067c <__memory_size+0x94e0e7c>
 17c:	0000df00 	sll	k1,zero,0x1c
 180:	00000018 	mult	zero,zero
 184:	000000a4 	0xa4
 188:	80000c64 	lb	zero,3172(zero)
 18c:	0000001c 	0x1c
 190:	44180e44 	0x44180e44
 194:	0e54019f 	jal	950067c <__memory_size+0x94e0e7c>
 198:	0000df00 	sll	k1,zero,0x1c
 19c:	00000018 	mult	zero,zero
 1a0:	000000a4 	0xa4
 1a4:	80000c80 	lb	zero,3200(zero)
 1a8:	0000001c 	0x1c
 1ac:	44180e44 	0x44180e44
 1b0:	0e54019f 	jal	950067c <__memory_size+0x94e0e7c>
 1b4:	0000df00 	sll	k1,zero,0x1c
 1b8:	0000000c 	syscall
 1bc:	000000a4 	0xa4
 1c0:	80000c9c 	lb	zero,3228(zero)
 1c4:	00000008 	jr	zero
 1c8:	0000000c 	syscall
 1cc:	000000a4 	0xa4
 1d0:	80000ca4 	lb	zero,3236(zero)
 1d4:	00000058 	0x58
 1d8:	0000000c 	syscall
 1dc:	000000a4 	0xa4
 1e0:	80000cfc 	lb	zero,3324(zero)
 1e4:	00000048 	0x48
 1e8:	0000000c 	syscall
 1ec:	000000a4 	0xa4
 1f0:	80000d44 	lb	zero,3396(zero)
 1f4:	0000006c 	0x6c
 1f8:	0000001c 	0x1c
 1fc:	000000a4 	0xa4
 200:	80000db0 	lb	zero,3504(zero)
 204:	00000094 	0x94
 208:	48180e44 	0x48180e44
 20c:	0290019f 	0x290019f
 210:	000e8802 	srl	s1,t6,0x0
 214:	0000dfd0 	0xdfd0
 218:	0000001c 	0x1c
 21c:	000000a4 	0xa4
 220:	80000e44 	lb	zero,3652(zero)
 224:	000000cc 	syscall	0x3
 228:	48180e44 	0x48180e44
 22c:	0290019f 	0x290019f
 230:	000ec002 	srl	t8,t6,0x0
 234:	0000dfd0 	0xdfd0
 238:	0000000c 	syscall
 23c:	000000a4 	0xa4
 240:	80000f10 	lb	zero,3856(zero)
 244:	000000f8 	0xf8
 248:	00000018 	mult	zero,zero
 24c:	000000a4 	0xa4
 250:	80001008 	lb	zero,4104(zero)
 254:	0000001c 	0x1c
 258:	44180e44 	0x44180e44
 25c:	0e54019f 	jal	950067c <__memory_size+0x94e0e7c>
 260:	0000df00 	sll	k1,zero,0x1c
 264:	0000000c 	syscall
 268:	ffffffff 	sdc3	$31,-1(ra)
 26c:	7c010001 	0x7c010001
 270:	001d0d1f 	0x1d0d1f
 274:	0000000c 	syscall
 278:	00000264 	0x264
 27c:	80001024 	lb	zero,4132(zero)
 280:	00000008 	jr	zero
 284:	0000000c 	syscall
 288:	00000264 	0x264
 28c:	8000102c 	lb	zero,4140(zero)
 290:	00000034 	teq	zero,zero
 294:	00000028 	0x28
 298:	00000264 	0x264
 29c:	80001060 	lb	zero,4192(zero)
 2a0:	00000164 	0x164
 2a4:	58280e44 	0x58280e44
 2a8:	0294019f 	0x294019f
 2ac:	04920393 	bltzall	a0,10fc <__isr_vec_space+0x10dc>
 2b0:	06900591 	bltzal	s4,18f8 <__isr_vec_space+0x18d8>
 2b4:	0e014803 	jal	805200c <__memory_size+0x803280c>
 2b8:	d2d1d000 	0xd2d1d000
 2bc:	00dfd4d3 	0xdfd4d3
 2c0:	00000028 	0x28
 2c4:	00000264 	0x264
 2c8:	800011c4 	lb	zero,4548(zero)
 2cc:	00000134 	teq	zero,zero,0x4
 2d0:	58280e44 	0x58280e44
 2d4:	0294019f 	0x294019f
 2d8:	04920393 	bltzall	a0,1128 <__isr_vec_space+0x1108>
 2dc:	06900591 	bltzal	s4,1924 <__isr_vec_space+0x1904>
 2e0:	0e011803 	jal	804600c <__memory_size+0x802680c>
 2e4:	d2d1d000 	0xd2d1d000
 2e8:	00dfd4d3 	0xdfd4d3
 2ec:	0000000c 	syscall
 2f0:	ffffffff 	sdc3	$31,-1(ra)
 2f4:	7c010001 	0x7c010001
 2f8:	001d0d1f 	0x1d0d1f
 2fc:	0000000c 	syscall
 300:	000002ec 	0x2ec
 304:	800012f8 	lb	zero,4856(zero)
 308:	00000008 	jr	zero
 30c:	0000000c 	syscall
 310:	ffffffff 	sdc3	$31,-1(ra)
 314:	7c010001 	0x7c010001
 318:	001d0d1f 	0x1d0d1f
 31c:	00000018 	mult	zero,zero
 320:	0000030c 	syscall	0xc
 324:	80001348 	lb	zero,4936(zero)
 328:	00000028 	0x28
 32c:	50180e44 	beql	zero,t8,3c40 <__isr_vec_space+0x3c20>
 330:	0e54019f 	jal	950067c <__memory_size+0x94e0e7c>
 334:	0000df00 	sll	k1,zero,0x1c
 338:	0000000c 	syscall
 33c:	ffffffff 	sdc3	$31,-1(ra)
 340:	7c010001 	0x7c010001
 344:	001d0d1f 	0x1d0d1f
 348:	00000014 	0x14
 34c:	00000338 	0x338
 350:	80001370 	lb	zero,4976(zero)
 354:	0000003c 	0x3c
 358:	4c180e44 	0x4c180e44
 35c:	019f0290 	0x19f0290
 360:	0000000c 	syscall
 364:	ffffffff 	sdc3	$31,-1(ra)
 368:	7c010001 	0x7c010001
 36c:	001d0d1f 	0x1d0d1f
 370:	0000002c 	0x2c
 374:	00000360 	0x360
 378:	800013ac 	lb	zero,5036(zero)
 37c:	00000110 	0x110
 380:	48280e44 	0x48280e44
 384:	94480690 	lhu	t0,1680(v0)
 388:	03934802 	0x3934802
 38c:	4c049248 	0x4c049248
 390:	019f0591 	0x19f0591
 394:	000ee002 	srl	gp,t6,0x0
 398:	d3d2d1d0 	0xd3d2d1d0
 39c:	0000dfd4 	0xdfd4
 3a0:	0000000c 	syscall
 3a4:	ffffffff 	sdc3	$31,-1(ra)
 3a8:	7c010001 	0x7c010001
 3ac:	001d0d1f 	0x1d0d1f
 3b0:	00000038 	0x38
 3b4:	000003a0 	0x3a0
 3b8:	800014bc 	lb	zero,5308(zero)
 3bc:	00000180 	sll	zero,zero,0x6
 3c0:	48400e44 	0x48400e44
 3c4:	97480793 	lhu	t0,1939(k0)
 3c8:	04965003 	0x4965003
 3cc:	9f600694 	0x9f600694
 3d0:	95029e01 	lhu	v0,-25087(t0)
 3d4:	91089205 	lbu	t0,-28155(t0)
 3d8:	030a9009 	0x30a9009
 3dc:	000e013c 	0xe013c
 3e0:	d3d2d1d0 	0xd3d2d1d0
 3e4:	d7d6d5d4 	ldc1	$f22,-10796(s8)
 3e8:	0000dfde 	0xdfde
 3ec:	0000000c 	syscall
 3f0:	ffffffff 	sdc3	$31,-1(ra)
 3f4:	7c010001 	0x7c010001
 3f8:	001d0d1f 	0x1d0d1f
 3fc:	00000020 	add	zero,zero,zero
 400:	000003ec 	0x3ec
 404:	8000163c 	lb	zero,5692(zero)
 408:	00000088 	0x88
 40c:	44280e44 	0x44280e44
 410:	91480392 	lbu	t0,914(t2)
 414:	05904804 	bltzal	t4,12428 <__isr_vec_space+0x12408>
 418:	9f029354 	0x9f029354
 41c:	00000001 	movf	zero,zero,$fcc0
 420:	0000000c 	syscall
 424:	ffffffff 	sdc3	$31,-1(ra)
 428:	7c010001 	0x7c010001
 42c:	001d0d1f 	0x1d0d1f
 430:	0000000c 	syscall
 434:	00000420 	0x420
 438:	8000177c 	lb	zero,6012(zero)
 43c:	0000004c 	syscall	0x1
 440:	0000000c 	syscall
 444:	ffffffff 	sdc3	$31,-1(ra)
 448:	7c010001 	0x7c010001
 44c:	001d0d1f 	0x1d0d1f
 450:	00000024 	and	zero,zero,zero
 454:	00000440 	sll	zero,zero,0x11
 458:	800017c8 	lb	zero,6088(zero)
 45c:	000000c0 	ehb
 460:	44280e44 	0x44280e44
 464:	91480292 	lbu	t0,658(t2)
 468:	04904803 	bltzal	a0,12478 <__isr_vec_space+0x12458>
 46c:	02019f4c 	syscall	0x8067d
 470:	d0000e9c 	0xd0000e9c
 474:	00dfd2d1 	0xdfd2d1
 478:	0000000c 	syscall
 47c:	00000440 	sll	zero,zero,0x11
 480:	80001888 	lb	zero,6280(zero)
 484:	00000008 	jr	zero
 488:	0000003c 	0x3c
 48c:	00000440 	sll	zero,zero,0x11
 490:	80001890 	lb	zero,6288(zero)
 494:	000006e4 	0x6e4
 498:	50200e44 	beqzl	at,3dac <__isr_vec_space+0x3d8c>
 49c:	019f0490 	0x19f0490
 4a0:	48029248 	0x48029248
 4a4:	30030391 	andi	v1,zero,0x391
 4a8:	d1d00a01 	0xd1d00a01
 4ac:	0e48dfd2 	jal	9237f48 <__memory_size+0x9218748>
 4b0:	0a7c0b00 	j	9f02c00 <__memory_size+0x9ee3400>
 4b4:	dfd2d1d0 	ldc3	$18,-11824(s8)
 4b8:	0b000e48 	j	c003920 <__memory_size+0xbfe4120>
 4bc:	0e054403 	jal	815100c <__memory_size+0x813180c>
 4c0:	d2d1d000 	0xd2d1d000
 4c4:	000000df 	0xdf
 4c8:	0000000c 	syscall
 4cc:	ffffffff 	sdc3	$31,-1(ra)
 4d0:	7c010001 	0x7c010001
 4d4:	001d0d1f 	0x1d0d1f
 4d8:	0000001c 	0x1c
 4dc:	000004c8 	0x4c8
 4e0:	800022bc 	lb	zero,8892(zero)
 4e4:	00000050 	0x50
 4e8:	50200e44 	beqzl	at,3dfc <__isr_vec_space+0x3ddc>
 4ec:	0290019f 	0x290019f
 4f0:	d0000e7c 	0xd0000e7c
 4f4:	000000df 	0xdf
 4f8:	0000000c 	syscall
 4fc:	ffffffff 	sdc3	$31,-1(ra)
 500:	7c010001 	0x7c010001
 504:	001d0d1f 	0x1d0d1f
 508:	0000000c 	syscall
 50c:	000004f8 	0x4f8
 510:	8000230c 	lb	zero,8972(zero)
 514:	00000014 	0x14
 518:	0000000c 	syscall
 51c:	ffffffff 	sdc3	$31,-1(ra)
 520:	7c010001 	0x7c010001
 524:	001d0d1f 	0x1d0d1f
 528:	0000000c 	syscall
 52c:	00000518 	0x518
 530:	80002320 	lb	zero,8992(zero)
 534:	00000044 	0x44
 538:	0000000c 	syscall
 53c:	ffffffff 	sdc3	$31,-1(ra)
 540:	7c010001 	0x7c010001
 544:	001d0d1f 	0x1d0d1f
 548:	0000000c 	syscall
 54c:	00000538 	0x538
 550:	80002364 	lb	zero,9060(zero)
 554:	0000000c 	syscall

Disassembly of section .debug_str:

00000000 <.debug_str>:
   0:	676e6f6c 	0x676e6f6c
   4:	6e6f6c20 	0x6e6f6c20
   8:	6e692067 	0x6e692067
   c:	65640074 	0x65640074
  10:	62007473 	0x62007473
  14:	6f72657a 	0x6f72657a
  18:	554e4700 	bnel	t2,t6,11c1c <__isr_vec_space+0x11bfc>
  1c:	34204320 	ori	zero,at,0x4320
  20:	322e392e 	andi	t6,s1,0x392e
  24:	656d2d20 	0x656d2d20
  28:	6d2d206c 	0x6d2d206c
  2c:	74666f73 	jalx	199bdcc <__memory_size+0x197c5cc>
  30:	6f6c662d 	0x6f6c662d
  34:	2d207461 	sltiu	zero,t1,29793
  38:	6372616d 	0x6372616d
  3c:	316d3d68 	andi	t5,t3,0x3d68
  40:	20636b34 	addi	v1,v1,27444
  44:	6c706d2d 	0x6c706d2d
  48:	6d2d2074 	0x6d2d2074
  4c:	33737069 	andi	s3,k1,0x7069
  50:	20327232 	addi	s2,at,29234
  54:	79736d2d 	0x79736d2d
  58:	2069636e 	addi	t1,v1,25454
  5c:	62616d2d 	0x62616d2d
  60:	32333d69 	andi	s3,s1,0x3d69
  64:	20672d20 	addi	a3,v1,11552
  68:	00314f2d 	0x314f2d
  6c:	676e6f6c 	0x676e6f6c
  70:	6e6f6c20 	0x6e6f6c20
  74:	6e752067 	0x6e752067
  78:	6e676973 	0x6e676973
  7c:	69206465 	0x69206465
  80:	7500746e 	jalx	401d1b8 <__memory_size+0x3ffd9b8>
  84:	38746e69 	xori	s4,v1,0x6e69
  88:	7500745f 	jalx	401d17c <__memory_size+0x3ffd97c>
  8c:	6769736e 	0x6769736e
  90:	2064656e 	addi	a0,v1,25966
  94:	72616863 	s8std	xr1,s3,90,ptn0
  98:	62696c00 	0x62696c00
  9c:	7274732f 	0x7274732f
  a0:	2e676e69 	sltiu	a3,s3,28265
  a4:	656d0063 	0x656d0063
  a8:	7970636d 	0x7970636d
  ac:	6f687300 	0x6f687300
  b0:	75207472 	jalx	481d1c8 <__memory_size+0x47fd9c8>
  b4:	6769736e 	0x6769736e
  b8:	2064656e 	addi	a0,v1,25966
  bc:	00746e69 	0x746e69
  c0:	435c3a43 	c0	0x15c3a43
  c4:	72706d6f 	0x72706d6f
  c8:	6e656865 	0x6e656865
  cc:	65766973 	0x65766973
  d0:	58534f5c 	0x58534f5c
  d4:	6372735c 	0x6372735c
  d8:	6f687300 	0x6f687300
  dc:	69207472 	0x69207472
  e0:	6d00746e 	0x6d00746e
  e4:	65736d65 	0x65736d65
  e8:	6d700074 	0x6d700074
  ec:	74735f6d 	jalx	1cd7db4 <__memory_size+0x1cb85b4>
  f0:	5f6b6361 	0x5f6b6361
  f4:	00706f74 	teq	v1,s0,0x1bd
  f8:	702f6d6d 	s16sdi	xr5,at,-74,ptn1
  fc:	632e6d6d 	0x632e6d6d
 100:	65726600 	0x65726600
 104:	61705f65 	0x61705f65
 108:	5f736567 	0x5f736567
 10c:	6e756f63 	0x6e756f63
 110:	6d700074 	0x6d700074
 114:	6c615f6d 	0x6c615f6d
 118:	5f636f6c 	0x5f636f6c
 11c:	65676170 	0x65676170
 120:	6d6d7000 	0x6d6d7000
 124:	6174735f 	0x6174735f
 128:	70006b63 	s8std	xr13,zero,26,ptn0
 12c:	705f7968 	lxhu	t7,v0,ra,0
 130:	5f656761 	0x5f656761
 134:	6e756f63 	0x6e756f63
 138:	6d700074 	0x6d700074
 13c:	72665f6d 	s16sdi	xr13,s3,-210,ptn0
 140:	705f6565 	s8sdi	xr5,v0,-39,
 144:	00656761 	0x656761
 148:	5f6d6d70 	0x5f6d6d70
 14c:	74696e69 	jalx	1a5b9a4 <__memory_size+0x1a3c1a4>
 150:	7a697300 	nori.b	$w12,$w14,0x69
 154:	70797465 	s8sdi	xr1,v1,93,
 158:	72740065 	s8sdi	xr1,s3,0,
 15c:	73006575 	q16slr	xr5,xr9,xr1,xr0,12
 160:	5f657a69 	0x5f657a69
 164:	6c620074 	0x6c620074
 168:	5f6b636f 	0x5f6b636f
 16c:	657a6973 	0x657a6973
 170:	73616d00 	0x73616d00
 174:	6d76006b 	0x6d76006b
 178:	6e695f6d 	0x6e695f6d
 17c:	72007469 	0x72007469
 180:	615f7465 	0x615f7465
 184:	00726464 	0x726464
 188:	6c6f6f62 	0x6c6f6f62
 18c:	6d6d7600 	0x6d6d7600
 190:	6761705f 	0x6761705f
 194:	64615f65 	0x64615f65
 198:	75007264 	jalx	401c990 <__memory_size+0x3ffd190>
 19c:	36746e69 	ori	s4,s3,0x6e69
 1a0:	00745f34 	teq	v1,s4,0x17c
 1a4:	5f646970 	0x5f646970
 1a8:	65670074 	0x65670074
 1ac:	68705f74 	0x68705f74
 1b0:	64615f79 	0x64615f79
 1b4:	625f7264 	0x625f7264
 1b8:	69765f79 	0x69765f79
 1bc:	64615f72 	0x64615f72
 1c0:	6d007264 	0x6d007264
 1c4:	6d762f6d 	0x6d762f6d
 1c8:	00632e6d 	0x632e6d
 1cc:	5f796870 	0x5f796870
 1d0:	65676170 	0x65676170
 1d4:	6464615f 	0x6464615f
 1d8:	65730072 	0x65730072
 1dc:	61705f74 	0x61705f74
 1e0:	735f6567 	0x735f6567
 1e4:	75746174 	jalx	5d185d0 <__memory_size+0x5cf8dd0>
 1e8:	74700073 	jalx	1c001cc <__memory_size+0x1be09cc>
 1ec:	6c625f65 	0x6c625f65
 1f0:	5f6b636f 	0x5f6b636f
 1f4:	67616c66 	0x67616c66
 1f8:	6c616600 	0x6c616600
 1fc:	73006573 	d32sar	xr5,xr9,xr1,xr0,12
 200:	705f7465 	s8sdi	xr1,v0,-35,
 204:	5f656761 	0x5f656761
 208:	6f6c6c61 	0x6f6c6c61
 20c:	65746163 	0x65746163
 210:	65670064 	0x65670064
 214:	70705f74 	q16sll	xr13,xr7,xr1,xr12,1
 218:	72665f6e 	0x72665f6e
 21c:	705f6d6f 	0x705f6d6f
 220:	67006574 	0x67006574
 224:	705f7465 	s8sdi	xr1,v0,-35,
 228:	665f6469 	0x665f6469
 22c:	5f6d6f72 	0x5f6d6f72
 230:	00657470 	tge	v1,a1,0x1d1
 234:	646e6966 	0x646e6966
 238:	6f6c625f 	0x6f6c625f
 23c:	62006b63 	0x62006b63
 240:	6b636f6c 	0x6b636f6c
 244:	66666f5f 	0x66666f5f
 248:	00746573 	tltu	v1,s4,0x195
 24c:	6f6c6c61 	0x6f6c6c61
 250:	6c625f63 	0x6c625f63
 254:	006b636f 	0x6b636f
 258:	5f746567 	0x5f746567
 25c:	5f657470 	0x5f657470
 260:	705f7962 	s8ldd	xr5,v0,-34,ptn7
 264:	5f656761 	0x5f656761
 268:	72646461 	0x72646461
 26c:	65747000 	0x65747000
 270:	6464615f 	0x6464615f
 274:	65730072 	0x65730072
 278:	61705f74 	0x61705f74
 27c:	755f6567 	jalx	57d959c <__memory_size+0x57b9d9c>
 280:	6c6c616e 	0x6c6c616e
 284:	7461636f 	jalx	1858dbc <__memory_size+0x18395bc>
 288:	67006465 	0x67006465
 28c:	765f7465 	jalx	97dd194 <__memory_size+0x97bd994>
 290:	665f6e70 	0x665f6e70
 294:	5f6d6f72 	0x5f6d6f72
 298:	65676170 	0x65676170
 29c:	6464615f 	0x6464615f
 2a0:	65670072 	0x65670072
 2a4:	75735f74 	jalx	5cd7dd0 <__memory_size+0x5cb85d0>
 2a8:	62617469 	0x62617469
 2ac:	625f656c 	0x625f656c
 2b0:	6b636f6c 	0x6b636f6c
 2b4:	6f72665f 	0x6f72665f
 2b8:	74705f6d 	jalx	1c17db4 <__memory_size+0x1bf85b4>
 2bc:	72660065 	s8sdi	xr1,s3,-128,ptn1
 2c0:	625f6565 	0x625f6565
 2c4:	6b636f6c 	0x6b636f6c
 2c8:	6d6d7600 	0x6d6d7600
 2cc:	6572665f 	0x6572665f
 2d0:	61705f65 	0x61705f65
 2d4:	6a006567 	0x6a006567
 2d8:	65676475 	0x65676475
 2dc:	5f73695f 	0x5f73695f
 2e0:	696c7073 	0x696c7073
 2e4:	6c625f74 	0x6c625f74
 2e8:	006b636f 	0x6b636f
 2ec:	5f746567 	0x5f746567
 2f0:	5f6e7070 	0x5f6e7070
 2f4:	765f7962 	jalx	97de588 <__memory_size+0x97bed88>
 2f8:	62006e70 	0x62006e70
 2fc:	6b636f6c 	0x6b636f6c
 300:	7864695f 	0x7864695f
 304:	6e697500 	0x6e697500
 308:	5f363174 	0x5f363174
 30c:	69730074 	0x69730074
 310:	755f657a 	jalx	57d95e8 <__memory_size+0x57b9de8>
 314:	6f725f70 	0x6f725f70
 318:	00646e75 	0x646e75
 31c:	5f657470 	0x5f657470
 320:	65670070 	0x65670070
 324:	70705f74 	q16sll	xr13,xr7,xr1,xr12,1
 328:	72665f6e 	0x72665f6e
 32c:	705f6d6f 	0x705f6d6f
 330:	00656761 	0x656761
 334:	5f796870 	0x5f796870
 338:	72646461 	0x72646461
 33c:	65747000 	0x65747000
 340:	7300745f 	udi15	t8,zero,t6,0x11
 344:	705f7465 	s8sdi	xr1,v0,-35,
 348:	5f656761 	0x5f656761
 34c:	65736572 	0x65736572
 350:	64657672 	0x64657672
 354:	74656700 	jalx	1959c00 <__memory_size+0x193a400>
 358:	6e70765f 	0x6e70765f
 35c:	6f72665f 	0x6f72665f
 360:	74705f6d 	jalx	1c17db4 <__memory_size+0x1bf85b4>
 364:	6d760065 	0x6d760065
 368:	6c615f6d 	0x6c615f6d
 36c:	5f636f6c 	0x5f636f6c
 370:	65676170 	0x65676170
 374:	72666b00 	0x72666b00
 378:	6b006565 	0x6b006565
 37c:	6c6c616d 	0x6c6c616d
 380:	6e00636f 	0x6e00636f
 384:	625f7765 	0x625f7765
 388:	6b636f6c 	0x6b636f6c
 38c:	6464615f 	0x6464615f
 390:	6d6d0072 	0x6d6d0072
 394:	2e6d6d2f 	sltiu	t5,s3,27951
 398:	69760063 	0x69760063
 39c:	61705f72 	0x61705f72
 3a0:	615f6567 	0x615f6567
 3a4:	00726464 	0x726464
 3a8:	65676170 	0x65676170
 3ac:	6c6c615f 	0x6c6c615f
 3b0:	615f636f 	0x615f636f
 3b4:	73726464 	s8ldi	xr1,k1,-103,ptn4
 3b8:	64646100 	0x64646100
 3bc:	6f745f72 	0x6f745f72
 3c0:	7274705f 	udi15	s3,s4,t6,0x1
 3c4:	72747000 	0x72747000
 3c8:	6f6c625f 	0x6f6c625f
 3cc:	615f6b63 	0x615f6b63
 3d0:	00726464 	0x726464
 3d4:	65676170 	0x65676170
 3d8:	6c6c615f 	0x6c6c615f
 3dc:	635f636f 	0x635f636f
 3e0:	746e756f 	jalx	1b9d5bc <__memory_size+0x1b7ddbc>
 3e4:	616d0073 	0x616d0073
 3e8:	632e6e69 	0x632e6e69
 3ec:	69616d00 	0x69616d00
 3f0:	5f5f006e 	0x5f5f006e
 3f4:	78657461 	ld.h	$w17,202(t6)
 3f8:	745f7469 	jalx	17dd1a4 <__memory_size+0x17bd9a4>
 3fc:	73657079 	0x73657079
 400:	63732f00 	0x63732f00
 404:	63746172 	0x63746172
 408:	706d2f68 	lxhu	a1,v1,t5,3
 40c:	6f6a2f66 	0x6f6a2f66
 410:	352f7362 	ori	t7,t1,0x7362
 414:	35393334 	ori	t9,t1,0x3334
 418:	3038342f 	andi	t8,at,0x342f
 41c:	322f3439 	andi	t7,s1,0x3439
 420:	39313034 	xori	s1,t1,0x3034
 424:	68732f38 	0x68732f38
 428:	64657261 	0x64657261
 42c:	6363672f 	0x6363672f
 430:	77656e2f 	jalx	d95b8bc <__memory_size+0xd93c0bc>
 434:	2f62696c 	sltiu	v0,k1,26988
 438:	6362696c 	0x6362696c
 43c:	6474732f 	0x6474732f
 440:	2f62696c 	sltiu	v0,k1,26988
 444:	78657461 	ld.h	$w17,202(t6)
 448:	632e7469 	0x632e7469
 44c:	725f5f00 	0x725f5f00
 450:	73696765 	s8sdi	xr13,k1,89,ptn2
 454:	5f726574 	0x5f726574
 458:	74697865 	jalx	1a5e194 <__memory_size+0x1a3e994>
 45c:	636f7270 	0x636f7270
 460:	655f5f00 	0x655f5f00
 464:	6e6f5f74 	0x6e6f5f74
 468:	74697865 	jalx	1a5e194 <__memory_size+0x1a3e994>
 46c:	554e4700 	bnel	t2,t6,12070 <__isr_vec_space+0x12050>
 470:	34204320 	ori	zero,at,0x4320
 474:	322e392e 	andi	t6,s1,0x392e
 478:	656d2d20 	0x656d2d20
 47c:	6d2d206c 	0x6d2d206c
 480:	33737069 	andi	s3,k1,0x7069
 484:	20327232 	addi	s2,at,29234
 488:	62616d2d 	0x62616d2d
 48c:	32333d69 	andi	s3,s1,0x3d69
 490:	736d2d20 	0x736d2d20
 494:	2d74666f 	sltiu	s4,t3,26223
 498:	616f6c66 	0x616f6c66
 49c:	6d2d2074 	0x6d2d2074
 4a0:	65746e69 	0x65746e69
 4a4:	6e696c72 	0x6e696c72
 4a8:	696d2d6b 	0x696d2d6b
 4ac:	36317370 	ori	s1,s1,0x7370
 4b0:	636d2d20 	0x636d2d20
 4b4:	2d65646f 	sltiu	a1,t3,25711
 4b8:	64616572 	0x64616572
 4bc:	656c6261 	0x656c6261
 4c0:	206f6e3d 	addi	t7,v1,28221
 4c4:	6f6e6d2d 	0x6f6e6d2d
 4c8:	6f70672d 	0x6f70672d
 4cc:	2d207470 	sltiu	zero,t1,29808
 4d0:	7370696d 	s16sdi	xr5,k1,52,
 4d4:	32723233 	andi	s2,s3,0x3233
 4d8:	616d2d20 	0x616d2d20
 4dc:	333d6962 	andi	sp,t9,0x6962
 4e0:	6d2d2032 	0x6d2d2032
 4e4:	74666f73 	jalx	199bdcc <__memory_size+0x197c5cc>
 4e8:	6f6c662d 	0x6f6c662d
 4ec:	2d207461 	sltiu	zero,t1,29793
 4f0:	746c706d 	jalx	1b1c1b4 <__memory_size+0x1afc9b4>
 4f4:	736d2d20 	0x736d2d20
 4f8:	69636e79 	0x69636e79
 4fc:	20672d20 	addi	a3,v1,11552
 500:	20324f2d 	addi	s2,at,20269
 504:	20734f2d 	addi	s3,v1,20269
 508:	6f6e662d 	0x6f6e662d
 50c:	6975622d 	0x6975622d
 510:	6e69746c 	0x6e69746c
 514:	655f5f00 	0x655f5f00
 518:	78635f74 	0x78635f74
 51c:	5f5f0061 	0x5f5f0061
 520:	615f7465 	0x615f7465
 524:	69786574 	0x69786574
 528:	645f0074 	0x645f0074
 52c:	685f6f73 	0x685f6f73
 530:	6c646e61 	0x6c646e61
 534:	725f0065 	s8sdi	xr1,s2,-64,
 538:	34646e61 	ori	a0,v1,0x6e61
 53c:	655f0038 	0x655f0038
 540:	6772656d 	0x6772656d
 544:	79636e65 	st.h	$w25,710(t5)
 548:	63775f00 	0x63775f00
 54c:	6d6f7472 	0x6d6f7472
 550:	74735f62 	jalx	1cd7d88 <__memory_size+0x1cb8588>
 554:	00657461 	0x657461
 558:	7363775f 	udi15	k1,v1,t6,0x1d
 55c:	6d6f7472 	0x6d6f7472
 560:	735f7362 	s8ldd	xr13,k0,-36,ptn7
 564:	65746174 	0x65746174
 568:	626c5f00 	0x626c5f00
 56c:	7a697366 	st.w	$w13,-1628(t6)
 570:	6d5f0065 	0x6d5f0065
 574:	6f747262 	0x6f747262
 578:	735f6377 	q16sar	xr13,xr8,xr13,xr7,13
 57c:	65746174 	0x65746174
 580:	63775f00 	0x63775f00
 584:	626d6f74 	0x626d6f74
 588:	6174735f 	0x6174735f
 58c:	5f006574 	bgtzl	t8,19b60 <__isr_vec_space+0x19b40>
 590:	5f6d745f 	0x5f6d745f
 594:	00636573 	tltu	v1,v1,0x195
 598:	7562755f 	jalx	589d57c <__memory_size+0x587dd7c>
 59c:	5f5f0066 	0x5f5f0066
 5a0:	685f6d74 	0x685f6d74
 5a4:	0072756f 	0x72756f
 5a8:	66735f5f 	0x66735f5f
 5ac:	6e6f5f00 	0x6e6f5f00
 5b0:	6978655f 	0x6978655f
 5b4:	72615f74 	q16sll	xr13,xr7,xr5,xr8,9
 5b8:	5f007367 	bgtzl	t8,1d358 <__isr_vec_space+0x1d338>
 5bc:	6b6f6f63 	0x6b6f6f63
 5c0:	5f006569 	bgtzl	t8,19b68 <__isr_vec_space+0x19b48>
 5c4:	6c67735f 	0x6c67735f
 5c8:	5f006575 	bgtzl	t8,19ba0 <__isr_vec_space+0x19b80>
 5cc:	67616c66 	0x67616c66
 5d0:	695f0073 	0x695f0073
 5d4:	78635f73 	0x78635f73
 5d8:	735f0061 	0x735f0061
 5dc:	6e696474 	0x6e696474
 5e0:	6c625f00 	0x6c625f00
 5e4:	7a69736b 	0x7a69736b
 5e8:	635f0065 	0x635f0065
 5ec:	75627476 	jalx	589d1d8 <__memory_size+0x587d9d8>
 5f0:	6d5f0066 	0x6d5f0066
 5f4:	74727362 	jalx	1c9cd88 <__memory_size+0x1c7d588>
 5f8:	7363776f 	0x7363776f
 5fc:	6174735f 	0x6174735f
 600:	5f006574 	bgtzl	t8,19bd4 <__isr_vec_space+0x19bb4>
 604:	6c72626d 	0x6c72626d
 608:	735f6e65 	s8sdi	xr9,k0,-37,
 60c:	65746174 	0x65746174
 610:	6e665f00 	0x6e665f00
 614:	73677261 	0x73677261
 618:	6e665f00 	0x6e665f00
 61c:	735f0073 	d32sar	xr1,xr0,xr12,xr7,13
 620:	006e6769 	0x6e6769
 624:	6f6c665f 	0x6f6c665f
 628:	745f6b63 	jalx	17dad8c <__memory_size+0x17bb58c>
 62c:	74735f00 	jalx	1cd7c00 <__memory_size+0x1cb8400>
 630:	72726564 	s8ldi	xr5,s3,-103,ptn4
 634:	69425f00 	0x69425f00
 638:	746e6967 	jalx	1b9a59c <__memory_size+0x1b7ad9c>
 63c:	61675f00 	0x61675f00
 640:	5f616d6d 	0x5f616d6d
 644:	6e676973 	0x6e676973
 648:	006d6167 	0x6d6167
 64c:	6165725f 	0x6165725f
 650:	725f0064 	s8ldi	xr1,s2,-64,ptn7
 654:	6c757365 	0x6c757365
 658:	006b5f74 	teq	v1,t3,0x17d
 65c:	6d745f5f 	0x6d745f5f
 660:	775f5f00 	jalx	d7d7c00 <__memory_size+0xd7b8400>
 664:	00626863 	0x626863
 668:	6474735f 	0x6474735f
 66c:	0074756f 	0x74756f
 670:	7476635f 	jalx	1d98d7c <__memory_size+0x1d7957c>
 674:	006e656c 	0x6e656c
 678:	6c69665f 	0x6c69665f
 67c:	6e5f0065 	0x6e5f0065
 680:	73626f69 	0x73626f69
 684:	74615f00 	jalx	1857c00 <__memory_size+0x1838400>
 688:	74697865 	jalx	1a5e194 <__memory_size+0x1a3e994>
 68c:	735f0030 	d32sll	xr0,xr0,xr12,xr7,13
 690:	616e6769 	0x616e6769
 694:	75625f6c 	jalx	5897db0 <__memory_size+0x58785b0>
 698:	615f0066 	0x615f0066
 69c:	69746373 	0x69746373
 6a0:	625f656d 	0x625f656d
 6a4:	5f006675 	bgtzl	t8,1a07c <__isr_vec_space+0x1a05c>
 6a8:	75736572 	jalx	5cd95c8 <__memory_size+0x5cb9dc8>
 6ac:	5f00746c 	bgtzl	t8,1d860 <__isr_vec_space+0x1d840>
 6b0:	6863775f 	0x6863775f
 6b4:	6e697700 	0x6e697700
 6b8:	00745f74 	teq	v1,s4,0x17d
 6bc:	616c665f 	0x616c665f
 6c0:	00327367 	0x327367
 6c4:	6972775f 	0x6972775f
 6c8:	5f006574 	bgtzl	t8,19c9c <__isr_vec_space+0x19c7c>
 6cc:	5f6d745f 	0x5f6d745f
 6d0:	72616579 	0x72616579
 6d4:	656e5f00 	0x656e5f00
 6d8:	00667478 	0x667478
 6dc:	6d745f5f 	0x6d745f5f
 6e0:	6e6f6d5f 	0x6e6f6d5f
 6e4:	735f5f00 	0x735f5f00
 6e8:	69646964 	0x69646964
 6ec:	0074696e 	0x74696e
 6f0:	66666f5f 	0x66666f5f
 6f4:	5f00745f 	bgtzl	t8,1d874 <__isr_vec_space+0x1d854>
 6f8:	6c61635f 	0x6c61635f
 6fc:	78655f6c 	0x78655f6c
 700:	72707469 	0x72707469
 704:	0073636f 	0x73636f
 708:	6572665f 	0x6572665f
 70c:	73696c65 	s8sdi	xr1,k1,91,ptn2
 710:	6d5f0074 	0x6d5f0074
 714:	61747362 	0x61747362
 718:	745f6574 	jalx	17d95d0 <__memory_size+0x17b9dd0>
 71c:	4f4c5f00 	c3	0x14c5f00
 720:	525f4b43 	beql	s2,ra,13430 <__isr_vec_space+0x13410>
 724:	52554345 	beql	s2,s5,1143c <__isr_vec_space+0x1141c>
 728:	45564953 	0x45564953
 72c:	5f00545f 	bgtzl	t8,158ac <__isr_vec_space+0x1588c>
 730:	5f6d745f 	0x5f6d745f
 734:	7961646d 	0x7961646d
 738:	656e5f00 	0x656e5f00
 73c:	685f0077 	0x685f0077
 740:	7272655f 	udi15	s3,s2,t4,0x15
 744:	5f006f6e 	bgtzl	t8,1c500 <__isr_vec_space+0x1c4e0>
 748:	5f6d745f 	0x5f6d745f
 74c:	79616479 	0x79616479
 750:	735f5f00 	0x735f5f00
 754:	00667562 	0x667562
 758:	626f695f 	0x626f695f
 75c:	5f5f0073 	0x5f5f0073
 760:	454c4946 	bc1any4f	$fcc3,12c7c <__isr_vec_space+0x12c5c>
 764:	63732f00 	0x63732f00
 768:	63746172 	0x63746172
 76c:	706d2f68 	lxhu	a1,v1,t5,3
 770:	6f6a2f66 	0x6f6a2f66
 774:	352f7362 	ori	t7,t1,0x7362
 778:	35393334 	ori	t9,t1,0x3334
 77c:	3038342f 	andi	t8,at,0x342f
 780:	322f3439 	andi	t7,s1,0x3439
 784:	39313034 	xori	s1,t1,0x3034
 788:	68732f38 	0x68732f38
 78c:	64657261 	0x64657261
 790:	6363672f 	0x6363672f
 794:	77656e2f 	jalx	d95b8bc <__memory_size+0xd93c0bc>
 798:	2f62696c 	sltiu	v0,k1,26988
 79c:	6362696c 	0x6362696c
 7a0:	6474732f 	0x6474732f
 7a4:	2f62696c 	sltiu	v0,k1,26988
 7a8:	74697865 	jalx	1a5e194 <__memory_size+0x1a3e994>
 7ac:	5f00632e 	bgtzl	t8,19468 <__isr_vec_space+0x19448>
 7b0:	4946735f 	0x4946735f
 7b4:	5f00454c 	bgtzl	t8,11ce8 <__isr_vec_space+0x11cc8>
 7b8:	7473626d 	jalx	1cd89b4 <__memory_size+0x1cb91b4>
 7bc:	00657461 	0x657461
 7c0:	6e61725f 	0x6e61725f
 7c4:	656e5f64 	0x656e5f64
 7c8:	5f007478 	bgtzl	t8,1d9ac <__isr_vec_space+0x1d98c>
 7cc:	656c626d 	0x656c626d
 7d0:	74735f6e 	jalx	1cd7db8 <__memory_size+0x1cb85b8>
 7d4:	00657461 	0x657461
 7d8:	636e695f 	0x636e695f
 7dc:	6e695f00 	0x6e695f00
 7e0:	635f0064 	0x635f0064
 7e4:	65727275 	0x65727275
 7e8:	6c5f746e 	0x6c5f746e
 7ec:	6c61636f 	0x6c61636f
 7f0:	5f5f0065 	0x5f5f0065
 7f4:	61656c63 	0x61656c63
 7f8:	0070756e 	0x70756e
 7fc:	78616d5f 	0x78616d5f
 800:	00736477 	0x736477
 804:	6565725f 	0x6565725f
 808:	5f00746e 	bgtzl	t8,1d9c4 <__isr_vec_space+0x1d9a4>
 80c:	64656573 	0x64656573
 810:	635f5f00 	0x635f5f00
 814:	746e756f 	jalx	1b9d5bc <__memory_size+0x1b7ddbc>
 818:	765f5f00 	jalx	97d7c00 <__memory_size+0x97b8400>
 81c:	65756c61 	0x65756c61
 820:	65735f00 	0x65735f00
 824:	5f006b65 	bgtzl	t8,1b5bc <__isr_vec_space+0x1b59c>
 828:	736f7066 	s32mulu	xr1,xr12,k1,t7
 82c:	5f00745f 	bgtzl	t8,1d9ac <__isr_vec_space+0x1d98c>
 830:	5f6d745f 	0x5f6d745f
 834:	006e696d 	0x6e696d
 838:	6c756d5f 	0x6c756d5f
 83c:	735f0074 	q16sll	xr1,xr0,xr12,xr7,13
 840:	6f747274 	0x6f747274
 844:	616c5f6b 	0x616c5f6b
 848:	5f007473 	bgtzl	t8,1da18 <__isr_vec_space+0x1d9f8>
 84c:	79746e66 	st.w	$w25,1488(t5)
 850:	00736570 	tge	v1,s3,0x195
 854:	6464615f 	0x6464615f
 858:	555f5f00 	bnel	t2,ra,1845c <__isr_vec_space+0x1843c>
 85c:	676e6f4c 	0x676e6f4c
 860:	65675f00 	0x65675f00
 864:	74616474 	jalx	18591d0 <__memory_size+0x18399d0>
 868:	72655f65 	s8sdi	xr13,s3,87,ptn1
 86c:	675f0072 	0x675f0072
 870:	61626f6c 	0x61626f6c
 874:	6d695f6c 	0x6d695f6c
 878:	65727570 	0x65727570
 87c:	7274705f 	udi15	s3,s4,t6,0x1
 880:	75635f00 	jalx	58d7c00 <__memory_size+0x58b8400>
 884:	6e657272 	0x6e657272
 888:	61635f74 	0x61635f74
 88c:	6f676574 	0x6f676574
 890:	5f007972 	bgtzl	t8,1ee5c <__isr_vec_space+0x1ee3c>
 894:	73756e75 	q16slr	xr9,xr11,xr5,xr13,13
 898:	725f6465 	s8sdi	xr1,s2,-39,
 89c:	00646e61 	0x646e61
 8a0:	7364775f 	udi15	k1,a0,t6,0x1d
 8a4:	745f5f00 	jalx	17d7c00 <__memory_size+0x17b8400>
 8a8:	64775f6d 	0x64775f6d
 8ac:	5f007961 	bgtzl	t8,1ee34 <__isr_vec_space+0x1ee14>
 8b0:	65756c67 	0x65756c67
 8b4:	6d6e5f00 	0x6d6e5f00
 8b8:	6f6c6c61 	0x6f6c6c61
 8bc:	6c5f0063 	0x6c5f0063
 8c0:	5f613436 	0x5f613436
 8c4:	00667562 	0x667562
 8c8:	6769735f 	0x6769735f
 8cc:	6e75665f 	0x6e75665f
 8d0:	6e5f0063 	0x6e5f0063
 8d4:	00667562 	0x667562
 8d8:	756e755f 	jalx	5b9d57c <__memory_size+0x5b7dd7c>
 8dc:	00646573 	tltu	v1,a0,0x195
 8e0:	6d745f5f 	0x6d745f5f
 8e4:	6473695f 	0x6473695f
 8e8:	5f007473 	bgtzl	t8,1dab8 <__isr_vec_space+0x1da98>
 8ec:	61636f6c 	0x61636f6c
 8f0:	6d69746c 	0x6d69746c
 8f4:	75625f65 	jalx	5897d94 <__memory_size+0x5878594>
 8f8:	635f0066 	0x635f0066
 8fc:	65736f6c 	0x65736f6c
 900:	34725f00 	ori	s2,v1,0x5f00
 904:	6d5f0038 	0x6d5f0038
 908:	776f7462 	jalx	dbdd188 <__memory_size+0xdbbd988>
 90c:	74735f63 	jalx	1cd7d8c <__memory_size+0x1cb858c>
 910:	00657461 	0x657461
 914:	7335705f 	udi15	t9,s5,t6,0x1
 918:	706d6900 	0x706d6900
 91c:	5f657275 	0x5f657275
 920:	61746164 	0x61746164
 924:	63732f00 	0x63732f00
 928:	63746172 	0x63746172
 92c:	706d2f68 	lxhu	a1,v1,t5,3
 930:	6f6a2f66 	0x6f6a2f66
 934:	352f7362 	ori	t7,t1,0x7362
 938:	35393334 	ori	t9,t1,0x3334
 93c:	3038342f 	andi	t8,at,0x342f
 940:	322f3439 	andi	t7,s1,0x3439
 944:	39313034 	xori	s1,t1,0x3034
 948:	68732f38 	0x68732f38
 94c:	64657261 	0x64657261
 950:	6363672f 	0x6363672f
 954:	77656e2f 	jalx	d95b8bc <__memory_size+0xd93c0bc>
 958:	2f62696c 	sltiu	v0,k1,26988
 95c:	6362696c 	0x6362696c
 960:	6565722f 	0x6565722f
 964:	692f746e 	0x692f746e
 968:	7275706d 	s16sdi	xr1,s3,-328,
 96c:	00632e65 	0x632e65
 970:	7263732f 	0x7263732f
 974:	68637461 	0x68637461
 978:	66706d2f 	0x66706d2f
 97c:	626f6a2f 	0x626f6a2f
 980:	34352f73 	ori	s5,at,0x2f73
 984:	2f353933 	sltiu	s5,t9,14643
 988:	39303834 	xori	s0,t1,0x3834
 98c:	34322f34 	ori	s2,at,0x2f34
 990:	38393130 	xori	t9,at,0x3130
 994:	6168732f 	0x6168732f
 998:	2f646572 	sltiu	a0,k1,25970
 99c:	2f636367 	sltiu	v1,k1,25447
 9a0:	6c77656e 	0x6c77656e
 9a4:	6c2f6269 	0x6c2f6269
 9a8:	2f636269 	sltiu	v1,k1,25193
 9ac:	6c647473 	0x6c647473
 9b0:	5f2f6269 	0x5f2f6269
 9b4:	6574615f 	0x6574615f
 9b8:	2e746978 	sltiu	s4,s3,27000
 9bc:	616c0063 	0x616c0063
 9c0:	00707473 	tltu	v1,s0,0x1d1
 9c4:	74736572 	jalx	1cd95c8 <__memory_size+0x1cb9dc8>
 9c8:	00747261 	0x747261
 9cc:	74615f5f 	jalx	1857d7c <__memory_size+0x183857c>
 9d0:	74697865 	jalx	1a5e194 <__memory_size+0x1a3e994>
 9d4:	636f6c5f 	0x636f6c5f
 9d8:	732f006b 	s16std	xr1,t9,-128,ptn1
 9dc:	74617263 	jalx	185c98c <__memory_size+0x183d18c>
 9e0:	6d2f6863 	0x6d2f6863
 9e4:	6a2f6670 	0x6a2f6670
 9e8:	2f73626f 	sltiu	s3,k1,25199
 9ec:	39333435 	xori	s3,t1,0x3435
 9f0:	38342f35 	xori	s4,at,0x2f35
 9f4:	2f343930 	sltiu	s4,t9,14640
 9f8:	31303432 	andi	s0,t1,0x3432
 9fc:	732f3839 	0x732f3839
 a00:	65726168 	0x65726168
 a04:	63672f64 	0x63672f64
 a08:	656e2f63 	0x656e2f63
 a0c:	62696c77 	0x62696c77
 a10:	62696c2f 	0x62696c2f
 a14:	74732f63 	jalx	1ccbd8c <__memory_size+0x1cac58c>
 a18:	62696c64 	0x62696c64
 a1c:	635f5f2f 	0x635f5f2f
 a20:	5f6c6c61 	0x5f6c6c61
 a24:	78657461 	ld.h	$w17,202(t6)
 a28:	632e7469 	0x632e7469
 a2c:	63732f00 	0x63732f00
 a30:	63746172 	0x63746172
 a34:	706d2f68 	lxhu	a1,v1,t5,3
 a38:	6f6a2f66 	0x6f6a2f66
 a3c:	352f7362 	ori	t7,t1,0x7362
 a40:	35393334 	ori	t9,t1,0x3334
 a44:	3038342f 	andi	t8,at,0x342f
 a48:	322f3439 	andi	t7,s1,0x3439
 a4c:	39313034 	xori	s1,t1,0x3034
 a50:	68732f38 	0x68732f38
 a54:	64657261 	0x64657261
 a58:	6363672f 	0x6363672f
 a5c:	62696c2f 	0x62696c2f
 a60:	736f6c67 	0x736f6c67
 a64:	696d2f73 	0x696d2f73
 a68:	752f7370 	jalx	4bdcdc0 <__memory_size+0x4bbd5c0>
 a6c:	752f6968 	jalx	4bda5a0 <__memory_size+0x4bbada0>
 a70:	655f6968 	0x655f6968
 a74:	2e746978 	sltiu	s4,s3,27000
 a78:	5f5f0063 	0x5f5f0063
 a7c:	75746572 	jalx	5d195c8 <__memory_size+0x5cf9dc8>
 a80:	745f6e72 	jalx	17db9c8 <__memory_size+0x17bc1c8>
 a84:	6f625f6f 	0x6f625f6f
 a88:	6500746f 	0x6500746f
 a8c:	5f746978 	0x5f746978
 a90:	65646f63 	0x65646f63
 a94:	655f5f00 	0x655f5f00
 a98:	00746978 	0x746978
 a9c:	20554e47 	addi	s5,v0,20039
 aa0:	2e342043 	sltiu	s4,s1,8259
 aa4:	20322e39 	addi	s2,at,11833
 aa8:	6c656d2d 	0x6c656d2d
 aac:	636d2d20 	0x636d2d20
 ab0:	2d65646f 	sltiu	a1,t3,25711
 ab4:	64616572 	0x64616572
 ab8:	656c6261 	0x656c6261
 abc:	206f6e3d 	addi	t7,v1,28221
 ac0:	6e696d2d 	0x6e696d2d
 ac4:	6c726574 	0x6c726574
 ac8:	2d6b6e69 	sltiu	t3,t3,28265
 acc:	7370696d 	s16sdi	xr5,k1,52,
 ad0:	2d203631 	sltiu	zero,t1,13873
 ad4:	646f636d 	0x646f636d
 ad8:	65722d65 	0x65722d65
 adc:	62616461 	0x62616461
 ae0:	6e3d656c 	0x6e3d656c
 ae4:	6d2d206f 	0x6d2d206f
 ae8:	672d6f6e 	0x672d6f6e
 aec:	74706f70 	jalx	1c1bdc0 <__memory_size+0x1bfc5c0>
 af0:	696d2d20 	0x696d2d20
 af4:	32337370 	andi	s3,s1,0x7370
 af8:	2d203272 	sltiu	zero,t1,12914
 afc:	6962616d 	0x6962616d
 b00:	2032333d 	addi	s2,at,13117
 b04:	6f736d2d 	0x6f736d2d
 b08:	662d7466 	0x662d7466
 b0c:	74616f6c 	jalx	185bdb0 <__memory_size+0x183c5b0>
 b10:	706d2d20 	0x706d2d20
 b14:	2d20746c 	sltiu	zero,t1,29804
 b18:	6e79736d 	0x6e79736d
 b1c:	2d206963 	sltiu	zero,t1,26979
 b20:	672d2067 	0x672d2067
 b24:	324f2d20 	andi	t7,s2,0x2d20
 b28:	734f2d20 	0x734f2d20
 b2c:	324f2d20 	andi	t7,s2,0x2d20
 b30:	324f2d20 	andi	t7,s2,0x2d20
 b34:	734f2d20 	0x734f2d20
 b38:	755f5f00 	jalx	57d7c00 <__memory_size+0x57b8400>
 b3c:	655f6573 	0x655f6573
 b40:	74706378 	jalx	1c18de0 <__memory_size+0x1bf95e0>
 b44:	6f6f625f 	0x6f6f625f
 b48:	5f5f0074 	0x5f5f0074
 b4c:	33746e69 	andi	s4,k1,0x6e69
 b50:	00745f32 	tlt	v1,s4,0x17c
 b54:	31677261 	andi	a3,t3,0x7261
 b58:	675f5f00 	0x675f5f00
 b5c:	735f7465 	s8sdi	xr1,k0,-35,
 b60:	74726174 	jalx	1c985d0 <__memory_size+0x1c78dd0>
 b64:	425f7075 	c0	0x5f7075
 b68:	2f005645 	sltiu	zero,t8,22085
 b6c:	61726373 	0x61726373
 b70:	2f686374 	sltiu	t0,k1,25460
 b74:	2f66706d 	sltiu	a2,k1,28781
 b78:	73626f6a 	s16ldd	xr13,k1,310,ptn0
 b7c:	3334352f 	andi	s4,t9,0x352f
 b80:	342f3539 	ori	t7,at,0x3539
 b84:	34393038 	ori	t9,at,0x3038
 b88:	3034322f 	andi	s4,at,0x322f
 b8c:	2f383931 	sltiu	t8,t9,14641
 b90:	72616873 	d32sar	xr1,xr10,xr5,xr8,9
 b94:	672f6465 	0x672f6465
 b98:	6c2f6363 	0x6c2f6363
 b9c:	6c676269 	0x6c676269
 ba0:	2f73736f 	sltiu	s3,k1,29551
 ba4:	7370696d 	s16sdi	xr5,k1,52,
 ba8:	6968752f 	0x6968752f
 bac:	6968752f 	0x6968752f
 bb0:	7465675f 	jalx	1959d7c <__memory_size+0x193a57c>
 bb4:	6d61725f 	0x6d61725f
 bb8:	6e61725f 	0x6e61725f
 bbc:	632e6567 	0x632e6567
 bc0:	6d5f5f00 	0x6d5f5f00
 bc4:	726f6d65 	s8sdi	xr5,s3,-37,ptn3
 bc8:	69735f79 	0x69735f79
 bcc:	7200657a 	q8mac	xr5,xr9,xr1,xr0,SA
 bd0:	7478655f 	jalx	1e1957c <__memory_size+0x1df9d7c>
 bd4:	00746e65 	0x746e65
 bd8:	5f6d6172 	0x5f6d6172
 bdc:	65747865 	0x65747865
 be0:	5f00746e 	bgtzl	t8,1dd9c <__isr_vec_space+0x1dd7c>
 be4:	6d656d5f 	0x6d656d5f
 be8:	5f79726f 	0x5f79726f
 bec:	65736162 	0x65736162
 bf0:	625f7200 	0x625f7200
 bf4:	00657361 	0x657361
 bf8:	5f6d6172 	0x5f6d6172
 bfc:	65736162 	0x65736162
 c00:	65675f00 	0x65675f00
 c04:	61725f74 	0x61725f74
 c08:	61725f6d 	0x61725f6d
 c0c:	0065676e 	0x65676e
 c10:	73747570 	d32sll	xr5,xr13,xr1,xr13,13
 c14:	5f00736e 	bgtzl	t8,1d9d0 <__isr_vec_space+0x1d9b0>
 c18:	6168635f 	0x6168635f
 c1c:	755f6e69 	jalx	57db9a4 <__memory_size+0x57bc1a4>
 c20:	655f6968 	0x655f6968
 c24:	74706378 	jalx	1c18de0 <__memory_size+0x1bf95e0>
 c28:	755f5f00 	jalx	57d7c00 <__memory_size+0x57b8400>
 c2c:	695f6968 	0x695f6968
 c30:	7269646e 	0x7269646e
 c34:	00746365 	0x746365
 c38:	73756163 	s8std	xr5,k1,88,
 c3c:	5f5f0065 	0x5f5f0065
 c40:	65637865 	0x65637865
 c44:	6f697470 	0x6f697470
 c48:	61685f6e 	0x61685f6e
 c4c:	656c646e 	0x656c646e
 c50:	7265765f 	udi15	s3,a1,t6,0x19
 c54:	65736f62 	0x65736f62
 c58:	756f6400 	jalx	5bd9000 <__memory_size+0x5bb9800>
 c5c:	00656c62 	0x656c62
 c60:	66696873 	0x66696873
 c64:	696c0074 	0x696c0074
 c68:	74636b6e 	jalx	18dadb8 <__memory_size+0x18bb5b8>
 c6c:	5f5f0078 	0x5f5f0078
 c70:	746e6975 	jalx	1b9a5d4 <__memory_size+0x1b7add4>
 c74:	745f3233 	jalx	17cc8cc <__memory_size+0x17ad0cc>
 c78:	6e696c00 	0x6e696c00
 c7c:	7473006b 	jalx	1cc01ac <__memory_size+0x1ca09ac>
 c80:	6e656c72 	0x6e656c72
 c84:	736f7000 	0x736f7000
 c88:	70670074 	q16sll	xr1,xr0,xr12,xr9,1
 c8c:	00787463 	0x787463
 c90:	76646162 	jalx	9918588 <__memory_size+0x98f8d88>
 c94:	72646461 	0x72646461
 c98:	6f6c6600 	0x6f6c6600
 c9c:	73007461 	0x73007461
 ca0:	5f676572 	0x5f676572
 ca4:	5f5f0074 	0x5f5f0074
 ca8:	5f696875 	0x5f696875
 cac:	65637865 	0x65637865
 cb0:	6f697470 	0x6f697470
 cb4:	5f5f006e 	0x5f5f006e
 cb8:	73756c66 	s32mulu	xr1,xr11,k1,s5
 cbc:	6f745f68 	0x6f745f68
 cc0:	72657a5f 	udi15	s3,a1,t7,0x9
 cc4:	7570006f 	jalx	5c001bc <__memory_size+0x5be09bc>
 cc8:	646e7374 	0x646e7374
 ccc:	732f0073 	d32sar	xr1,xr0,xr12,xr11,12
 cd0:	74617263 	jalx	185c98c <__memory_size+0x183d18c>
 cd4:	6d2f6863 	0x6d2f6863
 cd8:	6a2f6670 	0x6a2f6670
 cdc:	2f73626f 	sltiu	s3,k1,25199
 ce0:	39333435 	xori	s3,t1,0x3435
 ce4:	38342f35 	xori	s4,at,0x2f35
 ce8:	2f343930 	sltiu	s4,t9,14640
 cec:	31303432 	andi	s0,t1,0x3432
 cf0:	732f3839 	0x732f3839
 cf4:	65726168 	0x65726168
 cf8:	63672f64 	0x63672f64
 cfc:	696c2f63 	0x696c2f63
 d00:	6f6c6762 	0x6f6c6762
 d04:	6d2f7373 	0x6d2f7373
 d08:	2f737069 	sltiu	s3,k1,28777
 d0c:	2f6c6168 	sltiu	t4,k1,24936
 d10:	7370696d 	s16sdi	xr5,k1,52,
 d14:	6378655f 	0x6378655f
 d18:	685f7470 	0x685f7470
 d1c:	6c646e61 	0x6c646e61
 d20:	632e7265 	0x632e7265
 d24:	67696400 	0x67696400
 d28:	00737469 	0x737469
 d2c:	70646162 	s8ldd	xr5,v1,24,ptn1
 d30:	74736e69 	jalx	1cdb9a4 <__memory_size+0x1cbc1a4>
 d34:	61620072 	0x61620072
 d38:	736e6964 	s8ldi	xr5,k1,-102,ptn3
 d3c:	2f007274 	sltiu	zero,t8,29300
 d40:	61726373 	0x61726373
 d44:	2f686374 	sltiu	t0,k1,25460
 d48:	2f66706d 	sltiu	a2,k1,28781
 d4c:	73626f6a 	s16ldd	xr13,k1,310,ptn0
 d50:	3334352f 	andi	s4,t9,0x352f
 d54:	342f3539 	ori	t7,at,0x3539
 d58:	34393038 	ori	t9,at,0x3038
 d5c:	3034322f 	andi	s4,at,0x322f
 d60:	2f383931 	sltiu	t8,t9,14641
 d64:	72616873 	d32sar	xr1,xr10,xr5,xr8,9
 d68:	672f6465 	0x672f6465
 d6c:	6e2f6363 	0x6e2f6363
 d70:	696c7765 	0x696c7765
 d74:	696c2f62 	0x696c2f62
 d78:	6d2f6362 	0x6d2f6362
 d7c:	69686361 	0x69686361
 d80:	6d2f656e 	0x6d2f656e
 d84:	2f737069 	sltiu	s3,k1,28777
 d88:	6c727473 	0x6c727473
 d8c:	632e6e65 	0x632e6e65
 d90:	77656e00 	jalx	d95b800 <__memory_size+0xd93c000>
 d94:	7272655f 	udi15	s3,s2,t4,0x15
 d98:	61006f6e 	0x61006f6e
 d9c:	00326772 	tlt	at,s2,0x19d
 da0:	7263732f 	0x7263732f
 da4:	68637461 	0x68637461
 da8:	66706d2f 	0x66706d2f
 dac:	626f6a2f 	0x626f6a2f
 db0:	34352f73 	ori	s5,at,0x2f73
 db4:	2f353933 	sltiu	s5,t9,14643
 db8:	39303834 	xori	s0,t1,0x3834
 dbc:	34322f34 	ori	s2,at,0x2f34
 dc0:	38393130 	xori	t9,at,0x3130
 dc4:	6168732f 	0x6168732f
 dc8:	2f646572 	sltiu	a0,k1,25970
 dcc:	2f636367 	sltiu	v1,k1,25447
 dd0:	6762696c 	0x6762696c
 dd4:	73736f6c 	s16ldi	xr13,k1,438,ptn2
 dd8:	70696d2f 	0x70696d2f
 ddc:	68752f73 	0x68752f73
 de0:	68752f69 	0x68752f69
 de4:	72775f69 	0x72775f69
 de8:	2e657469 	sltiu	a1,s3,29801
 dec:	72610063 	s8std	xr1,s3,64,ptn0
 df0:	5f003367 	bgtzl	t8,db90 <__isr_vec_space+0xdb70>
 df4:	7272655f 	udi15	s3,s2,t4,0x15
 df8:	65006f6e 	0x65006f6e
 dfc:	6f6e7272 	0x6f6e7272
 e00:	706d745f 	udi15	v1,t5,t6,0x11
 e04:	63732f00 	0x63732f00
 e08:	63746172 	0x63746172
 e0c:	706d2f68 	lxhu	a1,v1,t5,3
 e10:	6f6a2f66 	0x6f6a2f66
 e14:	352f7362 	ori	t7,t1,0x7362
 e18:	35393334 	ori	t9,t1,0x3334
 e1c:	3038342f 	andi	t8,at,0x342f
 e20:	322f3439 	andi	t7,s1,0x3439
 e24:	39313034 	xori	s1,t1,0x3034
 e28:	68732f38 	0x68732f38
 e2c:	64657261 	0x64657261
 e30:	6363672f 	0x6363672f
 e34:	62696c2f 	0x62696c2f
 e38:	736f6c67 	0x736f6c67
 e3c:	696d2f73 	0x696d2f73
 e40:	752f7370 	jalx	4bdcdc0 <__memory_size+0x4bbd5c0>
 e44:	752f6968 	jalx	4bda5a0 <__memory_size+0x4bbada0>
 e48:	655f6968 	0x655f6968
 e4c:	70656378 	0x70656378
 e50:	6e6f6974 	0x6e6f6974
 e54:	2f00632e 	sltiu	zero,t8,25390
 e58:	61726373 	0x61726373
 e5c:	2f686374 	sltiu	t0,k1,25460
 e60:	2f66706d 	sltiu	a2,k1,28781
 e64:	73626f6a 	s16ldd	xr13,k1,310,ptn0
 e68:	3334352f 	andi	s4,t9,0x352f
 e6c:	342f3539 	ori	t7,at,0x3539
 e70:	34393038 	ori	t9,at,0x3038
 e74:	3034322f 	andi	s4,at,0x322f
 e78:	2f383931 	sltiu	t8,t9,14641
 e7c:	72616873 	d32sar	xr1,xr10,xr5,xr8,9
 e80:	672f6465 	0x672f6465
 e84:	6c2f6363 	0x6c2f6363
 e88:	6c676269 	0x6c676269
 e8c:	2f73736f 	sltiu	s3,k1,29551
 e90:	7370696d 	s16sdi	xr5,k1,52,
 e94:	6968752f 	0x6968752f
 e98:	6968752f 	0x6968752f
 e9c:	646e695f 	0x646e695f
 ea0:	63657269 	0x63657269
 ea4:	00632e74 	teq	v1,v1,0xb9
 ea8:	31746572 	andi	s4,t3,0x6572
 eac:	74657200 	jalx	195c800 <__memory_size+0x193d000>
 eb0:	72610032 	0x72610032
 eb4:	2f003467 	sltiu	zero,t8,13415
 eb8:	61726373 	0x61726373
 ebc:	2f686374 	sltiu	t0,k1,25460
 ec0:	2f66706d 	sltiu	a2,k1,28781
 ec4:	73626f6a 	s16ldd	xr13,k1,310,ptn0
 ec8:	3334352f 	andi	s4,t9,0x352f
 ecc:	342f3539 	ori	t7,at,0x3539
 ed0:	34393038 	ori	t9,at,0x3038
 ed4:	3034322f 	andi	s4,at,0x322f
 ed8:	2f383931 	sltiu	t8,t9,14641
 edc:	72616873 	d32sar	xr1,xr10,xr5,xr8,9
 ee0:	672f6465 	0x672f6465
 ee4:	6e2f6363 	0x6e2f6363
 ee8:	696c7765 	0x696c7765
 eec:	696c2f62 	0x696c2f62
 ef0:	652f6362 	0x652f6362
 ef4:	6f6e7272 	0x6f6e7272
 ef8:	7272652f 	0x7272652f
 efc:	632e6f6e 	0x632e6f6e
	...

Disassembly of section .debug_loc:

00000000 <.debug_loc>:
       0:	00000000 	nop
       4:	0000000c 	syscall
       8:	0c540001 	jal	1500004 <__memory_size+0x14e0804>
       c:	24000000 	li	zero,0
      10:	01000000 	0x1000000
      14:	00005400 	sll	t2,zero,0x10
	...
      20:	00100000 	sll	zero,s0,0x0
      24:	00010000 	sll	zero,at,0x0
      28:	00001055 	0x1055
      2c:	00002400 	sll	a0,zero,0x10
      30:	55000100 	bnezl	t0,434 <__isr_vec_space+0x414>
      34:	00000000 	nop
	...
      40:	00000008 	jr	zero
      44:	08560001 	j	1580004 <__memory_size+0x1560804>
      48:	1c000000 	bgtz	zero,4c <__isr_vec_space+0x2c>
      4c:	04000000 	bltz	zero,50 <__isr_vec_space+0x30>
      50:	5601f300 	bnel	s0,at,ffffcc54 <__entry+0x403fcc54>
      54:	0000009f 	0x9f
      58:	00000000 	nop
      5c:	00002400 	sll	a0,zero,0x10
      60:	00003000 	sll	a2,zero,0x0
      64:	54000100 	bnezl	zero,468 <__isr_vec_space+0x448>
      68:	00000030 	tge	zero,zero
      6c:	00000044 	0x44
      70:	01f30004 	sllv	zero,s3,t7
      74:	00009f54 	0x9f54
      78:	00000000 	nop
      7c:	00240000 	0x240000
      80:	00300000 	0x300000
      84:	00010000 	sll	zero,at,0x0
      88:	00003056 	0x3056
      8c:	00003c00 	sll	a3,zero,0x10
      90:	f3000400 	0xf3000400
      94:	009f5601 	0x9f5601
      98:	00000000 	nop
      9c:	44000000 	mfc1	zero,$f0
      a0:	4c000000 	lwxc1	$f0,zero(zero)
      a4:	01000000 	0x1000000
      a8:	004c5400 	0x4c5400
      ac:	00600000 	0x600000
      b0:	00040000 	sll	zero,a0,0x0
      b4:	9f5401f3 	0x9f5401f3
	...
      c0:	00000044 	0x44
      c4:	0000004c 	syscall	0x1
      c8:	4c550001 	ldxc1	$f0,s5(v0)
      cc:	60000000 	0x60000000
      d0:	04000000 	bltz	zero,d4 <__isr_vec_space+0xb4>
      d4:	5501f300 	bnel	t0,at,ffffccd8 <__entry+0x403fccd8>
      d8:	0000009f 	0x9f
      dc:	00000000 	nop
      e0:	00004400 	sll	t0,zero,0x10
      e4:	00004c00 	sll	t1,zero,0x10
      e8:	55000100 	bnezl	t0,4ec <__isr_vec_space+0x4cc>
      ec:	0000004c 	syscall	0x1
      f0:	00000058 	0x58
      f4:	01f30004 	sllv	zero,s3,t7
      f8:	00009f55 	0x9f55
      fc:	00000000 	nop
     100:	00280000 	0x280000
     104:	00380000 	0x380000
     108:	00010000 	sll	zero,at,0x0
     10c:	00000052 	mflhxu	zero
     110:	00000000 	nop
     114:	0000a000 	sll	s4,zero,0x0
     118:	0000b000 	sll	s6,zero,0x0
     11c:	9e000600 	0x9e000600
     120:	04300004 	bltzal	at,134 <__isr_vec_space+0x114>
     124:	0000b080 	sll	s6,zero,0x2
     128:	0000d800 	sll	k1,zero,0x0
     12c:	60000100 	0x60000100
	...
     138:	000000a0 	0xa0
     13c:	000000b0 	tge	zero,zero,0x2
     140:	9f300002 	0x9f300002
	...
     150:	00000028 	0x28
     154:	9f300002 	0x9f300002
     158:	00000028 	0x28
     15c:	00000070 	tge	zero,zero,0x1
     160:	00530001 	0x530001
     164:	00000000 	nop
     168:	64000000 	0x64000000
     16c:	78000000 	andi.b	$w0,$w0,0x0
     170:	02000000 	0x2000000
     174:	789f3000 	andi.b	$w0,$w6,0x9f
     178:	98000000 	lwr	zero,0(zero)
     17c:	02000000 	0x2000000
     180:	989f3100 	lwr	ra,12544(a0)
     184:	b4000000 	0xb4000000
     188:	02000000 	0x2000000
     18c:	b49f3200 	0xb49f3200
     190:	cc000000 	pref	0x0,0(zero)
     194:	02000000 	0x2000000
     198:	cc9f3300 	pref	0x1f,13056(a0)
     19c:	e0000000 	sc	zero,0(zero)
     1a0:	02000000 	0x2000000
     1a4:	e09f3400 	sc	ra,13312(a0)
     1a8:	0c000000 	jal	0 <hardware_exit_hook>
     1ac:	02000001 	movf	zero,s0,$fcc0
     1b0:	009f3500 	0x9f3500
     1b4:	00000000 	nop
     1b8:	64000000 	0x64000000
     1bc:	6c000000 	0x6c000000
     1c0:	02000000 	0x2000000
     1c4:	6c9f3000 	0x6c9f3000
     1c8:	8c000000 	lw	zero,0(zero)
     1cc:	04000000 	bltz	zero,1d0 <__isr_vec_space+0x1b0>
     1d0:	04000a00 	bltz	zero,29d4 <__isr_vec_space+0x29b4>
     1d4:	00008c9f 	0x8c9f
     1d8:	0000ac00 	sll	s5,zero,0x10
     1dc:	0a000400 	j	8001000 <__memory_size+0x7fe1800>
     1e0:	ac9f0600 	sw	ra,1536(a0)
     1e4:	c4000000 	lwc1	$f0,0(zero)
     1e8:	04000000 	bltz	zero,1ec <__isr_vec_space+0x1cc>
     1ec:	07000a00 	bltz	t8,29f0 <__isr_vec_space+0x29d0>
     1f0:	0000c49f 	0xc49f
     1f4:	0000d800 	sll	k1,zero,0x0
     1f8:	0a000400 	j	8001000 <__memory_size+0x7fe1800>
     1fc:	d89f0800 	ldc2	$31,2048(a0)
     200:	0c000000 	jal	0 <hardware_exit_hook>
     204:	04000001 	bltz	zero,20c <__isr_vec_space+0x1ec>
     208:	09000a00 	j	4002800 <__memory_size+0x3fe3000>
     20c:	00010c9f 	0x10c9f
     210:	0001c000 	sll	t8,at,0x0
     214:	52000100 	beqzl	s0,618 <__isr_vec_space+0x5f8>
     218:	00000000 	nop
     21c:	00000000 	nop
     220:	00000064 	0x64
     224:	00000078 	0x78
     228:	48400004 	0x48400004
     22c:	00789f24 	0x789f24
     230:	00980000 	0x980000
     234:	00040000 	sll	zero,a0,0x0
     238:	9f244740 	0x9f244740
     23c:	00000098 	0x98
     240:	000000b4 	teq	zero,zero,0x2
     244:	46400004 	c1	0x400004
     248:	00b49f24 	0xb49f24
     24c:	00cc0000 	0xcc0000
     250:	00040000 	sll	zero,a0,0x0
     254:	9f244540 	0x9f244540
     258:	000000cc 	syscall	0x3
     25c:	000000e0 	0xe0
     260:	44400004 	0x44400004
     264:	00e09f24 	0xe09f24
     268:	010c0000 	0x10c0000
     26c:	00040000 	sll	zero,a0,0x0
     270:	9f244340 	0x9f244340
     274:	0000010c 	syscall	0x4
     278:	000001c0 	sll	zero,zero,0x7
     27c:	00530001 	0x530001
     280:	00000000 	nop
     284:	64000000 	0x64000000
     288:	84000000 	lh	zero,0(zero)
     28c:	04000000 	bltz	zero,290 <__isr_vec_space+0x270>
     290:	04000a00 	bltz	zero,2a94 <__isr_vec_space+0x2a74>
     294:	0000849f 	0x849f
     298:	0000a400 	sll	s4,zero,0x10
     29c:	0a000400 	j	8001000 <__memory_size+0x7fe1800>
     2a0:	a49f0200 	sh	ra,512(a0)
     2a4:	0c000000 	jal	0 <hardware_exit_hook>
     2a8:	04000001 	bltz	zero,2b0 <__isr_vec_space+0x290>
     2ac:	01000a00 	0x1000a00
     2b0:	00010c9f 	0x10c9f
     2b4:	00015000 	sll	t2,at,0x0
     2b8:	08000300 	j	c00 <__isr_vec_space+0xbe0>
     2bc:	01509f80 	0x1509f80
     2c0:	01940000 	0x1940000
     2c4:	00030000 	sll	zero,v1,0x0
     2c8:	949f4008 	lhu	ra,16392(a0)
     2cc:	c0000001 	ll	zero,1(zero)
     2d0:	03000001 	movf	zero,t8,$fcc0
     2d4:	9f200800 	0x9f200800
	...
     2e0:	000000a4 	0xa4
     2e4:	000000bc 	0xbc
     2e8:	9f300002 	0x9f300002
     2ec:	000000bc 	0xbc
     2f0:	000000d0 	0xd0
     2f4:	9f310002 	0x9f310002
     2f8:	000000d0 	0xd0
     2fc:	000000e4 	0xe4
     300:	9f320002 	0x9f320002
     304:	000000e4 	0xe4
     308:	0000010c 	syscall	0x4
     30c:	9f330002 	0x9f330002
	...
     318:	000001ec 	0x1ec
     31c:	000001ec 	0x1ec
     320:	ec540001 	swc3	$20,1(v0)
     324:	f0000001 	0xf0000001
     328:	07000001 	bltz	t8,330 <__isr_vec_space+0x310>
     32c:	0b007400 	j	c01d000 <__memory_size+0xbffd800>
     330:	9f1af000 	0x9f1af000
     334:	000001f0 	tge	zero,zero,0x7
     338:	00000270 	tge	zero,zero,0x9
     33c:	01f30008 	0x1f30008
     340:	f0000b54 	0xf0000b54
     344:	00009f1a 	0x9f1a
     348:	00000000 	nop
     34c:	01f00000 	0x1f00000
     350:	02200000 	0x2200000
     354:	00020000 	sll	zero,v0,0x0
     358:	023c9f30 	tge	s1,gp,0x27c
     35c:	02440000 	0x2440000
     360:	00020000 	sll	zero,v0,0x0
     364:	02549f30 	tge	s2,s4,0x27c
     368:	025c0000 	0x25c0000
     36c:	00020000 	sll	zero,v0,0x0
     370:	025c9f30 	tge	s2,gp,0x27c
     374:	02700000 	0x2700000
     378:	00020000 	sll	zero,v0,0x0
     37c:	00009f31 	tgeu	zero,zero,0x27c
     380:	00000000 	nop
     384:	01ec0000 	0x1ec0000
     388:	01f00000 	0x1f00000
     38c:	00070000 	sll	zero,a3,0x0
     390:	000b0074 	teq	zero,t3,0x1
     394:	f09f1af0 	0xf09f1af0
     398:	70000001 	maddu	zero,zero
     39c:	08000002 	j	8 <ABIFlags_isa_ext>
     3a0:	5401f300 	bnel	zero,at,ffffcfa4 <__entry+0x403fcfa4>
     3a4:	1af0000b 	0x1af0000b
     3a8:	0000009f 	0x9f
     3ac:	00000000 	nop
     3b0:	0001fc00 	sll	ra,at,0x10
     3b4:	00022000 	sll	a0,v0,0x0
     3b8:	11000600 	beqz	t0,1bbc <__isr_vec_space+0x1b9c>
     3bc:	8090a080 	lb	s0,-24448(a0)
     3c0:	00022078 	0x22078
     3c4:	00023c00 	sll	a3,v0,0x10
     3c8:	72000200 	0x72000200
     3cc:	00023c00 	sll	a3,v0,0x10
     3d0:	00024400 	sll	t0,v0,0x10
     3d4:	11000600 	beqz	t0,1bd8 <__isr_vec_space+0x1bb8>
     3d8:	8090a080 	lb	s0,-24448(a0)
     3dc:	00025478 	0x25478
     3e0:	00025c00 	sll	t3,v0,0x10
     3e4:	11000600 	beqz	t0,1be8 <__isr_vec_space+0x1bc8>
     3e8:	8090a080 	lb	s0,-24448(a0)
     3ec:	00000078 	0x78
     3f0:	00000000 	nop
     3f4:	00027800 	sll	t7,v0,0x0
     3f8:	0002a800 	sll	s5,v0,0x0
     3fc:	30000200 	andi	zero,zero,0x200
     400:	0002d89f 	0x2d89f
     404:	0002e000 	sll	gp,v0,0x0
     408:	30000200 	andi	zero,zero,0x200
     40c:	0002e09f 	0x2e09f
     410:	0002f400 	sll	s8,v0,0x10
     414:	31000200 	andi	zero,t0,0x200
     418:	0000009f 	0x9f
     41c:	00000000 	nop
     420:	00028800 	sll	s1,v0,0x0
     424:	00028c00 	sll	s1,v0,0x10
     428:	52000700 	beqzl	s0,202c <__isr_vec_space+0x200c>
     42c:	04730493 	bgezall	v1,167c <__isr_vec_space+0x165c>
     430:	028c0493 	0x28c0493
     434:	02a80000 	0x2a80000
     438:	000d0000 	sll	zero,t5,0x0
     43c:	03049352 	0x3049352
     440:	80002f00 	lb	zero,12032(zero)
     444:	93042306 	lbu	a0,8966(t8)
     448:	0002ac04 	0x2ac04
     44c:	0002bc00 	sll	s7,v0,0x10
     450:	73000800 	madd	$ac1,t8,zero
     454:	73049300 	s32madd	xr12,xr4,t8,a0
     458:	d8049304 	ldc2	$4,-27900(zero)
     45c:	e0000002 	sc	zero,2(zero)
     460:	0d000002 	jal	4000008 <__memory_size+0x3fe0808>
     464:	04935200 	bgezall	a0,14c68 <__isr_vec_space+0x14c48>
     468:	002f0003 	0x2f0003
     46c:	04230680 	bgezl	at,1e70 <__isr_vec_space+0x1e50>
     470:	00000493 	0x493
     474:	00000000 	nop
     478:	02f40000 	0x2f40000
     47c:	03040000 	0x3040000
     480:	00010000 	sll	zero,at,0x0
     484:	00030454 	0x30454
     488:	00031400 	sll	v0,v1,0x10
     48c:	60000100 	0x60000100
     490:	00000314 	0x314
     494:	00000328 	0x328
     498:	01f30004 	sllv	zero,s3,t7
     49c:	00009f54 	0x9f54
     4a0:	00000000 	nop
     4a4:	030c0000 	0x30c0000
     4a8:	03100000 	0x3100000
     4ac:	00010000 	sll	zero,at,0x0
     4b0:	00000052 	mflhxu	zero
     4b4:	00000000 	nop
     4b8:	00030c00 	sll	at,v1,0x10
     4bc:	00031000 	sll	v0,v1,0x0
     4c0:	80000c00 	lb	zero,3072(zero)
     4c4:	f0000b00 	0xf0000b00
     4c8:	3c00721a 	lui	zero,0x721a
     4cc:	189f2124 	0x189f2124
     4d0:	28000003 	slti	zero,zero,3
     4d4:	01000003 	0x1000003
     4d8:	00005200 	sll	t2,zero,0x8
     4dc:	00000000 	nop
     4e0:	03280000 	0x3280000
     4e4:	037c0000 	0x37c0000
     4e8:	00010000 	sll	zero,at,0x0
     4ec:	00037c54 	0x37c54
     4f0:	00039000 	sll	s2,v1,0x0
     4f4:	f3000400 	0xf3000400
     4f8:	909f5401 	lbu	ra,21505(a0)
     4fc:	a4000003 	sh	zero,3(zero)
     500:	01000003 	0x1000003
     504:	00005400 	sll	t2,zero,0x10
     508:	00000000 	nop
     50c:	03280000 	0x3280000
     510:	03700000 	0x3700000
     514:	00010000 	sll	zero,at,0x0
     518:	00037055 	0x37055
     51c:	00037800 	sll	t7,v1,0x0
     520:	75000500 	jalx	4001400 <__memory_size+0x3fe1c00>
     524:	9f243400 	0x9f243400
     528:	00000378 	0x378
     52c:	000003a4 	0x3a4
     530:	00550001 	movt	zero,v0,$fcc5
     534:	00000000 	nop
     538:	34000000 	li	zero,0x0
     53c:	54000003 	bnezl	zero,54c <__isr_vec_space+0x52c>
     540:	06000003 	bltz	s0,550 <__isr_vec_space+0x530>
     544:	00049e00 	sll	s3,a0,0x18
     548:	54800410 	bnezl	a0,158c <__isr_vec_space+0x156c>
     54c:	6c000003 	0x6c000003
     550:	01000003 	0x1000003
     554:	036c5200 	0x36c5200
     558:	03700000 	0x3700000
     55c:	00060000 	sll	zero,a2,0x0
     560:	1000049e 	b	17dc <__isr_vec_space+0x17bc>
     564:	03908004 	sllv	s0,s0,gp
     568:	039c0000 	0x39c0000
     56c:	00010000 	sll	zero,at,0x0
     570:	00000052 	mflhxu	zero
     574:	00000000 	nop
     578:	00033400 	sll	a2,v1,0x10
     57c:	00035400 	sll	t2,v1,0x10
     580:	30000200 	andi	zero,zero,0x200
     584:	00036c9f 	0x36c9f
     588:	00037000 	sll	t6,v1,0x0
     58c:	30000200 	andi	zero,zero,0x200
     590:	0000009f 	0x9f
     594:	00000000 	nop
     598:	00033c00 	sll	a3,v1,0x10
     59c:	00035400 	sll	t2,v1,0x10
     5a0:	53000600 	beqzl	t8,1da4 <__isr_vec_space+0x1d84>
     5a4:	93580493 	lbu	t8,1171(k0)
     5a8:	00035404 	0x35404
     5ac:	00035800 	sll	t3,v1,0x0
     5b0:	72000700 	0x72000700
     5b4:	58049300 	0x58049300
     5b8:	03580493 	0x3580493
     5bc:	036c0000 	0x36c0000
     5c0:	00080000 	sll	zero,t0,0x0
     5c4:	04930072 	bgezall	a0,790 <__isr_vec_space+0x770>
     5c8:	04930472 	bgezall	a0,1794 <__isr_vec_space+0x1774>
     5cc:	0000036c 	0x36c
     5d0:	00000370 	tge	zero,zero,0xd
     5d4:	93530006 	lbu	s3,6(k0)
     5d8:	04935804 	bgezall	a0,165ec <__isr_vec_space+0x165cc>
     5dc:	00000390 	0x390
     5e0:	0000039c 	0x39c
     5e4:	93530006 	lbu	s3,6(k0)
     5e8:	04935804 	bgezall	a0,165fc <__isr_vec_space+0x165dc>
     5ec:	00000000 	nop
     5f0:	00000000 	nop
     5f4:	00000370 	tge	zero,zero,0xd
     5f8:	00000390 	0x390
     5fc:	cf090003 	pref	0x9,3(t8)
     600:	0000009f 	0x9f
     604:	00000000 	nop
     608:	0003a400 	sll	s4,v1,0x10
     60c:	0003b300 	sll	s6,v1,0xc
     610:	54000100 	bnezl	zero,a14 <__isr_vec_space+0x9f4>
     614:	000003b3 	tltu	zero,zero,0xe
     618:	000003c0 	sll	zero,zero,0xf
     61c:	01f30004 	sllv	zero,s3,t7
     620:	00009f54 	0x9f54
     624:	00000000 	nop
     628:	03c00000 	0x3c00000
     62c:	03cf0000 	0x3cf0000
     630:	00010000 	sll	zero,at,0x0
     634:	0003cf54 	0x3cf54
     638:	0003dc00 	sll	k1,v1,0x10
     63c:	f3000400 	0xf3000400
     640:	009f5401 	0x9f5401
     644:	00000000 	nop
     648:	dc000000 	ldc3	$0,0(zero)
     64c:	eb000003 	swc2	$0,3(t8)
     650:	01000003 	0x1000003
     654:	03eb5400 	0x3eb5400
     658:	03f80000 	0x3f80000
     65c:	00040000 	sll	zero,a0,0x0
     660:	9f5401f3 	0x9f5401f3
	...
     66c:	00000400 	sll	zero,zero,0x10
     670:	00000404 	0x404
     674:	93540006 	lbu	s4,6(k0)
     678:	04935504 	bgezall	a0,15a8c <__isr_vec_space+0x15a6c>
     67c:	00000404 	0x404
     680:	00000458 	0x458
     684:	03f30006 	srlv	zero,s3,ra
     688:	9f2504f5 	0x9f2504f5
	...
     694:	00000400 	sll	zero,zero,0x10
     698:	0000041c 	0x41c
     69c:	9f4c0002 	0x9f4c0002
     6a0:	0000041c 	0x41c
     6a4:	00000450 	0x450
     6a8:	00520001 	0x520001
     6ac:	00000000 	nop
     6b0:	58000000 	blezl	zero,6b4 <__isr_vec_space+0x694>
     6b4:	8c000004 	lw	zero,4(zero)
     6b8:	01000004 	sllv	zero,zero,t0
     6bc:	048c5400 	teqi	a0,21504
     6c0:	04a00000 	bltz	a1,6c4 <__isr_vec_space+0x6a4>
     6c4:	00040000 	sll	zero,a0,0x0
     6c8:	9f5401f3 	0x9f5401f3
	...
     6d4:	000004a0 	0x4a0
     6d8:	000004a4 	0x4a4
     6dc:	a4540001 	sh	s4,1(v0)
     6e0:	0c000004 	jal	10 <ABIFlags_flags1>
     6e4:	04000005 	bltz	zero,6fc <__isr_vec_space+0x6dc>
     6e8:	5401f300 	bnel	zero,at,ffffd2ec <__entry+0x403fd2ec>
     6ec:	0000009f 	0x9f
     6f0:	00000000 	nop
     6f4:	0004a400 	sll	s4,a0,0x10
     6f8:	0004e800 	sll	sp,a0,0x0
     6fc:	54000100 	bnezl	zero,b00 <__isr_vec_space+0xae0>
     700:	000004e8 	0x4e8
     704:	0000050c 	syscall	0x14
     708:	01f30008 	0x1f30008
     70c:	0fff0a54 	jal	ffc2950 <__memory_size+0xffa3150>
     710:	00009f1a 	0x9f1a
     714:	00000000 	nop
     718:	04a40000 	0x4a40000
     71c:	04c00000 	bltz	a2,720 <__isr_vec_space+0x700>
     720:	00020000 	sll	zero,v0,0x0
     724:	04c09f30 	bltz	a2,fffe83e8 <__entry+0x403e83e8>
     728:	04e00000 	bltz	a3,72c <__isr_vec_space+0x70c>
     72c:	00010000 	sll	zero,at,0x0
     730:	0004e052 	0x4e052
     734:	0004e400 	sll	gp,a0,0x10
     738:	30000200 	andi	zero,zero,0x200
     73c:	0000009f 	0x9f
     740:	00000000 	nop
     744:	00050c00 	sll	at,a1,0x10
     748:	00051c00 	sll	v1,a1,0x10
     74c:	54000100 	bnezl	zero,b50 <__isr_vec_space+0xb30>
     750:	0000051c 	0x51c
     754:	00000520 	0x520
     758:	20550001 	addi	s5,v0,1
     75c:	a0000005 	sb	zero,5(zero)
     760:	04000005 	bltz	zero,778 <__isr_vec_space+0x758>
     764:	5401f300 	bnel	zero,at,ffffd368 <__entry+0x403fd368>
     768:	0000009f 	0x9f
     76c:	00000000 	nop
     770:	00051c00 	sll	v1,a1,0x10
     774:	00056b00 	sll	t5,a1,0xc
     778:	54000100 	bnezl	zero,b7c <__isr_vec_space+0xb5c>
     77c:	0000056b 	0x56b
     780:	000005a0 	0x5a0
     784:	01f30008 	0x1f30008
     788:	f0000b54 	0xf0000b54
     78c:	00009f1a 	0x9f1a
     790:	00000000 	nop
     794:	05200000 	bltz	t1,798 <__isr_vec_space+0x778>
     798:	056b0000 	tltiu	t3,0
     79c:	00010000 	sll	zero,at,0x0
     7a0:	00056b55 	0x56b55
     7a4:	0005a000 	sll	s4,a1,0x0
     7a8:	f3000800 	0xf3000800
     7ac:	ff0a5401 	sdc3	$10,21505(t8)
     7b0:	009f1a0f 	0x9f1a0f
     7b4:	00000000 	nop
     7b8:	20000000 	addi	zero,zero,0
     7bc:	40000005 	mfc0	zero,$0,5
     7c0:	02000005 	lsa	zero,s0,zero,0x1
     7c4:	409f3000 	mtc0	ra,c0_wired
     7c8:	60000005 	0x60000005
     7cc:	01000005 	lsa	zero,t0,zero,0x1
     7d0:	05606000 	bltz	t3,187d4 <__isr_vec_space+0x187b4>
     7d4:	05640000 	0x5640000
     7d8:	00020000 	sll	zero,v0,0x0
     7dc:	00009f30 	tge	zero,zero,0x27c
     7e0:	00000000 	nop
     7e4:	05a00000 	bltz	t5,7e8 <__isr_vec_space+0x7c8>
     7e8:	05e80000 	tgei	t7,0
     7ec:	00010000 	sll	zero,at,0x0
     7f0:	0005e854 	0x5e854
     7f4:	00062800 	sll	a1,a2,0x0
     7f8:	f3000400 	0xf3000400
     7fc:	289f5401 	slti	ra,a0,21505
     800:	3c000006 	lui	zero,0x6
     804:	01000006 	srlv	zero,zero,t0
     808:	063c5400 	0x63c5400
     80c:	06440000 	0x6440000
     810:	00040000 	sll	zero,a0,0x0
     814:	9f5401f3 	0x9f5401f3
     818:	00000644 	0x644
     81c:	0000065c 	0x65c
     820:	5c540001 	0x5c540001
     824:	6c000006 	0x6c000006
     828:	04000006 	bltz	zero,844 <__isr_vec_space+0x824>
     82c:	5401f300 	bnel	zero,at,ffffd430 <__entry+0x403fd430>
     830:	0000009f 	0x9f
     834:	00000000 	nop
     838:	0005a000 	sll	s4,a1,0x0
     83c:	0005e800 	sll	sp,a1,0x0
     840:	55000100 	bnezl	t0,c44 <__isr_vec_space+0xc24>
     844:	000005e8 	0x5e8
     848:	000005ef 	0x5ef
     84c:	ef560001 	swc3	$22,1(k0)
     850:	28000005 	slti	zero,zero,5
     854:	04000006 	bltz	zero,870 <__isr_vec_space+0x850>
     858:	5501f300 	bnel	t0,at,ffffd45c <__entry+0x403fd45c>
     85c:	0006289f 	0x6289f
     860:	00063c00 	sll	a3,a2,0x10
     864:	55000100 	bnezl	t0,c68 <__isr_vec_space+0xc48>
     868:	0000063c 	0x63c
     86c:	00000644 	0x644
     870:	01f30004 	sllv	zero,s3,t7
     874:	06449f55 	0x6449f55
     878:	065c0000 	0x65c0000
     87c:	00010000 	sll	zero,at,0x0
     880:	00065c55 	0x65c55
     884:	00066c00 	sll	t5,a2,0x10
     888:	f3000400 	0xf3000400
     88c:	009f5501 	0x9f5501
     890:	00000000 	nop
     894:	ac000000 	sw	zero,0(zero)
     898:	d0000005 	0xd0000005
     89c:	02000005 	lsa	zero,s0,zero,0x1
     8a0:	449f3000 	mtc1	ra,$f6
     8a4:	50000006 	beqzl	zero,8c0 <__isr_vec_space+0x8a0>
     8a8:	02000006 	srlv	zero,zero,s0
     8ac:	509f3000 	beql	a0,ra,c8b0 <__isr_vec_space+0xc890>
     8b0:	5c000006 	bgtzl	zero,8cc <__isr_vec_space+0x8ac>
     8b4:	02000006 	srlv	zero,zero,s0
     8b8:	009f3100 	0x9f3100
     8bc:	00000000 	nop
     8c0:	bc000000 	cache	0x0,0(zero)
     8c4:	c0000005 	ll	zero,5(zero)
     8c8:	07000005 	bltz	t8,8e0 <__isr_vec_space+0x8c0>
     8cc:	04936000 	bgezall	a0,188d0 <__isr_vec_space+0x188b0>
     8d0:	04930472 	bgezall	a0,1a9c <__isr_vec_space+0x1a7c>
     8d4:	000005c0 	sll	zero,zero,0x17
     8d8:	000005d0 	0x5d0
     8dc:	9360000d 	lbu	zero,13(k1)
     8e0:	2f000304 	sltiu	zero,t8,772
     8e4:	23068000 	addi	a2,t8,-32768
     8e8:	d4049304 	ldc1	$f4,-27900(zero)
     8ec:	e0000005 	sc	zero,5(zero)
     8f0:	08000005 	j	14 <ABIFlags_flags2>
     8f4:	93007200 	lbu	zero,29184(t8)
     8f8:	93047204 	lbu	a0,29188(t8)
     8fc:	00062804 	sllv	a1,a2,zero
     900:	00063c00 	sll	a3,a2,0x10
     904:	60000600 	0x60000600
     908:	93580493 	lbu	t8,1171(k0)
     90c:	00064404 	0x64404
     910:	00065000 	sll	t2,a2,0x0
     914:	60000d00 	0x60000d00
     918:	00030493 	0x30493
     91c:	0680002f 	bltz	s4,9dc <__isr_vec_space+0x9bc>
     920:	04930423 	bgezall	a0,19b0 <__isr_vec_space+0x1990>
     924:	00000000 	nop
     928:	00000000 	nop
     92c:	000005f0 	tge	zero,zero,0x17
     930:	0000060c 	syscall	0x18
     934:	00520001 	0x520001
     938:	00000000 	nop
     93c:	6c000000 	0x6c000000
     940:	74000006 	jalx	18 <ABIFlags_flags2+0x4>
     944:	01000006 	srlv	zero,zero,t0
     948:	06745400 	0x6745400
     94c:	07640000 	0x7640000
     950:	00040000 	sll	zero,a0,0x0
     954:	9f5401f3 	0x9f5401f3
	...
     960:	0000066c 	0x66c
     964:	00000704 	0x704
     968:	04550001 	0x4550001
     96c:	30000007 	andi	zero,zero,0x7
     970:	04000007 	bltz	zero,990 <__isr_vec_space+0x970>
     974:	5501f300 	bnel	t0,at,ffffd578 <__entry+0x403fd578>
     978:	0007309f 	0x7309f
     97c:	00075400 	sll	t2,a3,0x10
     980:	55000100 	bnezl	t0,d84 <__isr_vec_space+0xd64>
     984:	00000754 	0x754
     988:	00000764 	0x764
     98c:	01f30004 	sllv	zero,s3,t7
     990:	00009f55 	0x9f55
     994:	00000000 	nop
     998:	06740000 	0x6740000
     99c:	06980000 	0x6980000
     9a0:	00020000 	sll	zero,v0,0x0
     9a4:	07409f30 	bltz	k0,fffe8668 <__entry+0x403e8668>
     9a8:	07480000 	tgei	k0,0
     9ac:	00020000 	sll	zero,v0,0x0
     9b0:	07489f30 	tgei	k0,-24784
     9b4:	07540000 	0x7540000
     9b8:	00020000 	sll	zero,v0,0x0
     9bc:	00009f31 	tgeu	zero,zero,0x27c
     9c0:	00000000 	nop
     9c4:	06700000 	bltzal	s3,9c8 <__isr_vec_space+0x9a8>
     9c8:	06740000 	0x6740000
     9cc:	00010000 	sll	zero,at,0x0
     9d0:	00067454 	0x67454
     9d4:	00076400 	sll	t4,a3,0x10
     9d8:	f3000400 	0xf3000400
     9dc:	009f5401 	0x9f5401
     9e0:	00000000 	nop
     9e4:	80000000 	lb	zero,0(zero)
     9e8:	98000006 	lwr	zero,6(zero)
     9ec:	06000006 	bltz	s0,a08 <__isr_vec_space+0x9e8>
     9f0:	a0801100 	sb	zero,4352(a0)
     9f4:	98788090 	lwr	t8,-32624(v1)
     9f8:	b0000006 	0xb0000006
     9fc:	02000006 	srlv	zero,zero,s0
     a00:	40007300 	0x40007300
     a04:	48000007 	mfc2	zero,$0,7
     a08:	06000007 	bltz	s0,a28 <__isr_vec_space+0xa08>
     a0c:	a0801100 	sb	zero,4352(a0)
     a10:	00788090 	0x788090
     a14:	00000000 	nop
     a18:	64000000 	0x64000000
     a1c:	6c000007 	0x6c000007
     a20:	01000007 	srav	zero,zero,t0
     a24:	076c5400 	teqi	k1,21504
     a28:	07800000 	bltz	gp,a2c <__isr_vec_space+0xa0c>
     a2c:	00040000 	sll	zero,a0,0x0
     a30:	9f5401f3 	0x9f5401f3
	...
     a3c:	0000003c 	0x3c
     a40:	0000007f 	0x7f
     a44:	7f540001 	0x7f540001
     a48:	cc000000 	pref	0x0,0(zero)
     a4c:	01000000 	0x1000000
     a50:	00cc6200 	0xcc6200
     a54:	00df0000 	0xdf0000
     a58:	00010000 	sll	zero,at,0x0
     a5c:	0000df54 	0xdf54
     a60:	00016000 	sll	t4,at,0x0
     a64:	62000100 	0x62000100
     a68:	00000160 	0x160
     a6c:	00000167 	0x167
     a70:	67540001 	0x67540001
     a74:	90000001 	lbu	zero,1(zero)
     a78:	01000001 	movf	zero,t0,$fcc0
     a7c:	01906200 	0x1906200
     a80:	01a00000 	0x1a00000
     a84:	00040000 	sll	zero,a0,0x0
     a88:	9f5401f3 	0x9f5401f3
	...
     a94:	0000003c 	0x3c
     a98:	0000007f 	0x7f
     a9c:	7f550001 	0x7f550001
     aa0:	00000000 	nop
     aa4:	01000001 	movf	zero,t0,$fcc0
     aa8:	01586000 	0x1586000
     aac:	01600000 	0x1600000
     ab0:	00010000 	sll	zero,at,0x0
     ab4:	00016060 	0x16060
     ab8:	00016700 	sll	t4,at,0x1c
     abc:	55000100 	bnezl	t0,ec0 <__isr_vec_space+0xea0>
     ac0:	00000167 	0x167
     ac4:	00000180 	sll	zero,zero,0x6
     ac8:	00600001 	movf	zero,v1,$fcc0
     acc:	00000000 	nop
     ad0:	68000000 	0x68000000
     ad4:	78000000 	andi.b	$w0,$w0,0x0
     ad8:	02000000 	0x2000000
     adc:	cc9f3000 	pref	0x1f,12288(a0)
     ae0:	20000000 	addi	zero,zero,0
     ae4:	01000001 	movf	zero,t0,$fcc0
     ae8:	01606100 	0x1606100
     aec:	01800000 	0x1800000
     af0:	00020000 	sll	zero,v0,0x0
     af4:	00009f30 	tge	zero,zero,0x27c
     af8:	00000000 	nop
     afc:	00e00000 	0xe00000
     b00:	00ef0000 	0xef0000
     b04:	00010000 	sll	zero,at,0x0
     b08:	00010852 	0x10852
     b0c:	00011700 	sll	v0,at,0x1c
     b10:	52000100 	beqzl	s0,f14 <__isr_vec_space+0xef4>
     b14:	00000168 	0x168
     b18:	00000177 	0x177
     b1c:	00520001 	0x520001
     b20:	00000000 	nop
     b24:	f4000000 	sdc1	$f0,0(zero)
     b28:	f8000000 	sdc2	$0,0(zero)
     b2c:	01000000 	0x1000000
     b30:	00f85200 	0xf85200
     b34:	01580000 	0x1580000
     b38:	00010000 	sll	zero,at,0x0
     b3c:	00017864 	0x17864
     b40:	00018000 	sll	s0,at,0x0
     b44:	52000100 	beqzl	s0,f48 <__isr_vec_space+0xf28>
     b48:	00000000 	nop
     b4c:	00000000 	nop
     b50:	000000f4 	teq	zero,zero,0x3
     b54:	00000100 	sll	zero,zero,0x4
     b58:	9f310002 	0x9f310002
     b5c:	00000100 	sll	zero,zero,0x4
     b60:	00000120 	0x120
     b64:	78600001 	bmnzi.b	$w0,$w0,0x60
     b68:	80000001 	lb	zero,1(zero)
     b6c:	02000001 	movf	zero,s0,$fcc0
     b70:	009f3100 	0x9f3100
     b74:	00000000 	nop
     b78:	80000000 	lb	zero,0(zero)
     b7c:	8f000000 	lw	zero,0(t8)
     b80:	01000000 	0x1000000
     b84:	00bc5200 	0xbc5200
     b88:	00cc0000 	0xcc0000
     b8c:	00010000 	sll	zero,at,0x0
     b90:	00000052 	mflhxu	zero
     b94:	00000000 	nop
     b98:	0000a000 	sll	s4,zero,0x0
     b9c:	0000af00 	sll	s5,zero,0x1c
     ba0:	52000100 	beqzl	s0,fa4 <__isr_vec_space+0xf84>
     ba4:	00000000 	nop
     ba8:	00000000 	nop
     bac:	000001a0 	0x1a0
     bb0:	0000020c 	syscall	0x8
     bb4:	0c540001 	jal	1500004 <__memory_size+0x14e0804>
     bb8:	94000002 	lhu	zero,2(zero)
     bbc:	04000002 	bltz	zero,bc8 <__isr_vec_space+0xba8>
     bc0:	5401f300 	bnel	zero,at,ffffd7c4 <__entry+0x403fd7c4>
     bc4:	0002949f 	0x2949f
     bc8:	0002b300 	sll	s6,v0,0xc
     bcc:	54000100 	bnezl	zero,fd0 <__isr_vec_space+0xfb0>
     bd0:	000002b3 	tltu	zero,zero,0xa
     bd4:	000002d4 	0x2d4
     bd8:	01f30004 	sllv	zero,s3,t7
     bdc:	00009f54 	0x9f54
     be0:	00000000 	nop
     be4:	01bc0000 	0x1bc0000
     be8:	020c0000 	0x20c0000
     bec:	00010000 	sll	zero,at,0x0
     bf0:	00020c54 	0x20c54
     bf4:	00029400 	sll	s2,v0,0x10
     bf8:	f3000400 	0xf3000400
     bfc:	949f5401 	lhu	ra,21505(a0)
     c00:	b3000002 	0xb3000002
     c04:	01000002 	0x1000002
     c08:	02b35400 	0x2b35400
     c0c:	02d40000 	0x2d40000
     c10:	00040000 	sll	zero,a0,0x0
     c14:	9f5401f3 	0x9f5401f3
	...
     c20:	000001bc 	0x1bc
     c24:	0000020c 	syscall	0x8
     c28:	00740007 	srav	zero,s4,v1
     c2c:	1af0000b 	0x1af0000b
     c30:	00020c9f 	0x20c9f
     c34:	00029400 	sll	s2,v0,0x10
     c38:	f3000800 	0xf3000800
     c3c:	000b5401 	0xb5401
     c40:	949f1af0 	lhu	ra,6896(a0)
     c44:	b3000002 	0xb3000002
     c48:	07000002 	bltz	t8,c54 <__isr_vec_space+0xc34>
     c4c:	0b007400 	j	c01d000 <__memory_size+0xbffd800>
     c50:	9f1af000 	0x9f1af000
     c54:	000002b3 	tltu	zero,zero,0xa
     c58:	000002d4 	0x2d4
     c5c:	01f30008 	0x1f30008
     c60:	f0000b54 	0xf0000b54
     c64:	00009f1a 	0x9f1a
     c68:	00000000 	nop
     c6c:	01bc0000 	0x1bc0000
     c70:	01dc0000 	0x1dc0000
     c74:	00020000 	sll	zero,v0,0x0
     c78:	01dc9f30 	tge	t6,gp,0x27c
     c7c:	01f00000 	0x1f00000
     c80:	00010000 	sll	zero,at,0x0
     c84:	00023860 	0x23860
     c88:	00026400 	sll	t4,v0,0x10
     c8c:	60000100 	0x60000100
     c90:	00000264 	0x264
     c94:	00000274 	teq	zero,zero,0x9
     c98:	0403000a 	bgezl	zero,cc4 <__isr_vec_space+0xca4>
     c9c:	20804030 	addi	zero,a0,16432
     ca0:	9f220072 	0x9f220072
     ca4:	00000274 	teq	zero,zero,0x9
     ca8:	0000027c 	0x27c
     cac:	00720009 	0x720009
     cb0:	40300403 	0x40300403
     cb4:	7c9f1c80 	ext	ra,a0,0x12,0x4
     cb8:	88000002 	lwl	zero,2(zero)
     cbc:	0a000002 	j	8000008 <__memory_size+0x7fe0808>
     cc0:	30040300 	andi	a0,zero,0x300
     cc4:	72208040 	s32madd	xr1,xr0,s1,zero
     cc8:	949f2200 	lhu	ra,8704(a0)
     ccc:	a0000002 	sb	zero,2(zero)
     cd0:	02000002 	0x2000002
     cd4:	a09f3000 	sb	ra,12288(a0)
     cd8:	ac000002 	sw	zero,2(zero)
     cdc:	01000002 	0x1000002
     ce0:	00006000 	sll	t4,zero,0x0
     ce4:	00000000 	nop
     ce8:	02180000 	0x2180000
     cec:	021f0000 	0x21f0000
     cf0:	00010000 	sll	zero,at,0x0
     cf4:	00021f52 	0x21f52
     cf8:	00023400 	sll	a2,v0,0x10
     cfc:	63000100 	0x63000100
	...
     d08:	000001f0 	tge	zero,zero,0x7
     d0c:	0000020c 	syscall	0x8
     d10:	0c540001 	jal	1500004 <__memory_size+0x14e0804>
     d14:	34000002 	li	zero,0x2
     d18:	01000002 	0x1000002
     d1c:	00006100 	sll	t4,zero,0x4
     d20:	00000000 	nop
     d24:	02000000 	0x2000000
     d28:	02940000 	0x2940000
     d2c:	00010000 	sll	zero,at,0x0
     d30:	00000064 	0x64
     d34:	00000000 	nop
     d38:	00020000 	sll	zero,v0,0x0
     d3c:	00020c00 	sll	at,v0,0x10
     d40:	30000200 	andi	zero,zero,0x200
     d44:	00020c9f 	0x20c9f
     d48:	00023400 	sll	a2,v0,0x10
     d4c:	62000100 	0x62000100
     d50:	00000238 	0x238
     d54:	00000294 	0x294
     d58:	00540001 	movf	zero,v0,$fcc5
	...
     d64:	10000000 	b	d68 <__isr_vec_space+0xd48>
     d68:	01000000 	0x1000000
     d6c:	00105400 	sll	t2,s0,0x10
     d70:	001b0000 	sll	zero,k1,0x0
     d74:	00010000 	sll	zero,at,0x0
     d78:	00001b55 	0x1b55
     d7c:	00002800 	sll	a1,zero,0x0
     d80:	f3000400 	0xf3000400
     d84:	009f5401 	0x9f5401
	...
     d90:	17000000 	bnez	t8,d94 <__isr_vec_space+0xd74>
     d94:	01000000 	0x1000000
     d98:	00175400 	sll	t2,s7,0x10
     d9c:	003c0000 	0x3c0000
     da0:	00010000 	sll	zero,at,0x0
     da4:	00000060 	0x60
	...
     db0:	00006400 	sll	t4,zero,0x10
     db4:	54000100 	bnezl	zero,11b8 <__isr_vec_space+0x1198>
     db8:	00000064 	0x64
     dbc:	00000104 	0x104
     dc0:	04610001 	bgez	v1,dc8 <__isr_vec_space+0xda8>
     dc4:	10000001 	b	dcc <__isr_vec_space+0xdac>
     dc8:	04000001 	bltz	zero,dd0 <__isr_vec_space+0xdb0>
     dcc:	5401f300 	bnel	zero,at,ffffd9d0 <__entry+0x403fd9d0>
     dd0:	0000009f 	0x9f
	...
     ddc:	00006400 	sll	t4,zero,0x10
     de0:	55000100 	bnezl	t0,11e4 <__isr_vec_space+0x11c4>
     de4:	00000064 	0x64
     de8:	0000006c 	0x6c
     dec:	6c620001 	0x6c620001
     df0:	73000000 	madd	t8,zero
     df4:	01000000 	0x1000000
     df8:	00735500 	0x735500
     dfc:	01000000 	0x1000000
     e00:	00010000 	sll	zero,at,0x0
     e04:	00010062 	0x10062
     e08:	00011000 	sll	v0,at,0x0
     e0c:	f3000400 	0xf3000400
     e10:	009f5501 	0x9f5501
	...
     e1c:	64000000 	0x64000000
     e20:	01000000 	0x1000000
     e24:	00645600 	0x645600
     e28:	006c0000 	0x6c0000
     e2c:	00010000 	sll	zero,at,0x0
     e30:	00006c64 	0x6c64
     e34:	00007300 	sll	t6,zero,0xc
     e38:	56000100 	bnezl	s0,123c <__isr_vec_space+0x121c>
     e3c:	00000073 	tltu	zero,zero,0x1
     e40:	000000f8 	0xf8
     e44:	f8640001 	sdc2	$4,1(v1)
     e48:	10000000 	b	e4c <__isr_vec_space+0xe2c>
     e4c:	04000001 	bltz	zero,e54 <__isr_vec_space+0xe34>
     e50:	5601f300 	bnel	s0,at,ffffda54 <__entry+0x403fda54>
     e54:	0000009f 	0x9f
	...
     e60:	00006400 	sll	t4,zero,0x10
     e64:	57000100 	bnezl	t8,1268 <__isr_vec_space+0x1248>
     e68:	00000064 	0x64
     e6c:	0000006c 	0x6c
     e70:	6c630001 	0x6c630001
     e74:	73000000 	madd	t8,zero
     e78:	01000000 	0x1000000
     e7c:	00735700 	0x735700
     e80:	00fc0000 	0xfc0000
     e84:	00010000 	sll	zero,at,0x0
     e88:	0000fc63 	0xfc63
     e8c:	00011000 	sll	v0,at,0x0
     e90:	f3000400 	0xf3000400
     e94:	009f5701 	0x9f5701
     e98:	00000000 	nop
     e9c:	9c000000 	0x9c000000
     ea0:	d4000000 	ldc1	$f0,0(zero)
     ea4:	04000000 	bltz	zero,ea8 <__isr_vec_space+0xe88>
     ea8:	01887200 	0x1887200
     eac:	0000009f 	0x9f
     eb0:	00000000 	nop
     eb4:	00003400 	sll	a2,zero,0x10
     eb8:	00005800 	sll	t3,zero,0x0
     ebc:	52000100 	beqzl	s0,12c0 <__isr_vec_space+0x12a0>
     ec0:	00000058 	0x58
     ec4:	00000064 	0x64
     ec8:	c8800003 	lwc2	$0,3(a0)
     ecc:	00006c02 	srl	t5,zero,0x10
     ed0:	00007300 	sll	t6,zero,0xc
     ed4:	80000300 	lb	zero,768(zero)
     ed8:	007402c8 	0x7402c8
     edc:	00e80000 	0xe80000
     ee0:	00010000 	sll	zero,at,0x0
     ee4:	00000052 	mflhxu	zero
	...
     ef0:	00004c00 	sll	t1,zero,0x10
     ef4:	54000100 	bnezl	zero,12f8 <__isr_vec_space+0x12d8>
     ef8:	0000004c 	syscall	0x1
     efc:	00000160 	0x160
     f00:	60660001 	0x60660001
     f04:	80000001 	lb	zero,1(zero)
     f08:	04000001 	bltz	zero,f10 <__isr_vec_space+0xef0>
     f0c:	5401f300 	bnel	zero,at,ffffdb10 <__entry+0x403fdb10>
     f10:	0000009f 	0x9f
	...
     f1c:	00004c00 	sll	t1,zero,0x10
     f20:	55000100 	bnezl	t0,1324 <__isr_vec_space+0x1304>
     f24:	0000004c 	syscall	0x1
     f28:	00000168 	0x168
     f2c:	68640001 	0x68640001
     f30:	80000001 	lb	zero,1(zero)
     f34:	04000001 	bltz	zero,f3c <__isr_vec_space+0xf1c>
     f38:	5501f300 	bnel	t0,at,ffffdb3c <__entry+0x403fdb3c>
     f3c:	0000009f 	0x9f
     f40:	00000000 	nop
     f44:	00011000 	sll	v0,at,0x0
     f48:	00011800 	sll	v1,at,0x0
     f4c:	82000200 	lb	zero,512(s0)
     f50:	00011c00 	sll	v1,at,0x10
     f54:	00012400 	sll	a0,at,0x10
     f58:	52000100 	beqzl	s0,135c <__isr_vec_space+0x133c>
     f5c:	00000000 	nop
     f60:	00000000 	nop
     f64:	00000058 	0x58
     f68:	0000011c 	0x11c
     f6c:	1c620001 	0x1c620001
     f70:	24000001 	li	zero,1
     f74:	01000001 	movf	zero,t0,$fcc0
     f78:	01245200 	0x1245200
     f7c:	01700000 	0x1700000
     f80:	00010000 	sll	zero,at,0x0
     f84:	00000062 	0x62
     f88:	00000000 	nop
     f8c:	00011000 	sll	v0,at,0x0
     f90:	00011800 	sll	v1,at,0x0
     f94:	82000700 	lb	zero,1792(s0)
     f98:	88230600 	lwl	v1,1536(at)
     f9c:	011c9f01 	0x11c9f01
     fa0:	01240000 	0x1240000
     fa4:	00040000 	sll	zero,a0,0x0
     fa8:	9f018872 	0x9f018872
	...
     fb4:	00000068 	0x68
     fb8:	00000154 	0x154
     fbc:	00650001 	movt	zero,v1,$fcc1
     fc0:	00000000 	nop
     fc4:	78000000 	andi.b	$w0,$w0,0x0
     fc8:	e4000000 	swc1	$f0,0(zero)
     fcc:	05000000 	bltz	t0,fd0 <__isr_vec_space+0xfb0>
     fd0:	00853100 	0x853100
     fd4:	00e49f24 	0xe49f24
     fd8:	00ec0000 	0xec0000
     fdc:	00050000 	sll	zero,a1,0x0
     fe0:	24018531 	li	at,-31439
     fe4:	0001249f 	0x1249f
     fe8:	00015400 	sll	t2,at,0x10
     fec:	31000500 	andi	zero,t0,0x500
     ff0:	9f240085 	0x9f240085
	...
     ffc:	00000090 	0x90
    1000:	000000c7 	0xc7
    1004:	24530001 	addiu	s3,v0,1
    1008:	3b000001 	xori	zero,t8,0x1
    100c:	01000001 	movf	zero,t0,$fcc0
    1010:	01445300 	0x1445300
    1014:	014b0000 	0x14b0000
    1018:	00010000 	sll	zero,at,0x0
    101c:	00000053 	mtlhx	zero
    1020:	00000000 	nop
    1024:	0000b400 	sll	s6,zero,0x10
    1028:	0000e000 	sll	gp,zero,0x0
    102c:	6e000100 	0x6e000100
    1030:	00000124 	0x124
    1034:	00000154 	0x154
    1038:	006e0001 	0x6e0001
	...
    1044:	34000000 	li	zero,0x0
    1048:	01000000 	0x1000000
    104c:	00345400 	0x345400
    1050:	00880000 	0x880000
    1054:	00010000 	sll	zero,at,0x0
    1058:	00000063 	0x63
	...
    1064:	00003800 	sll	a3,zero,0x0
    1068:	54000100 	bnezl	zero,146c <__isr_vec_space+0x144c>
    106c:	00000038 	0x38
    1070:	0000004c 	syscall	0x1
    1074:	00560001 	0x560001
	...
    1080:	38000000 	xori	zero,zero,0x0
    1084:	01000000 	0x1000000
    1088:	00385500 	0x385500
    108c:	004c0000 	0x4c0000
    1090:	00010000 	sll	zero,at,0x0
    1094:	00000057 	0x57
	...
    10a0:	00002b00 	sll	a1,zero,0xc
    10a4:	54000100 	bnezl	zero,14a8 <__isr_vec_space+0x1488>
    10a8:	0000002b 	sltu	zero,zero,zero
    10ac:	000000b4 	teq	zero,zero,0x2
    10b0:	b4610001 	0xb4610001
    10b4:	c0000000 	ll	zero,0(zero)
    10b8:	04000000 	bltz	zero,10bc <__isr_vec_space+0x109c>
    10bc:	5401f300 	bnel	zero,at,ffffdcc0 <__entry+0x403fdcc0>
    10c0:	0000009f 	0x9f
	...
    10cc:	00002b00 	sll	a1,zero,0xc
    10d0:	55000100 	bnezl	t0,14d4 <__isr_vec_space+0x14b4>
    10d4:	0000002b 	sltu	zero,zero,zero
    10d8:	000000b0 	tge	zero,zero,0x2
    10dc:	b0620001 	0xb0620001
    10e0:	c0000000 	ll	zero,0(zero)
    10e4:	04000000 	bltz	zero,10e8 <__isr_vec_space+0x10c8>
    10e8:	5501f300 	bnel	t0,at,ffffdcec <__entry+0x403fdcec>
    10ec:	0000009f 	0x9f
	...
    10f8:	00002b00 	sll	a1,zero,0xc
    10fc:	56000100 	bnezl	s0,1500 <__isr_vec_space+0x14e0>
    1100:	0000002b 	sltu	zero,zero,zero
    1104:	000000b8 	0xb8
    1108:	b8600001 	swr	zero,1(v1)
    110c:	c0000000 	ll	zero,0(zero)
    1110:	04000000 	bltz	zero,1114 <__isr_vec_space+0x10f4>
    1114:	5601f300 	bnel	s0,at,ffffdd18 <__entry+0x403fdd18>
    1118:	0000009f 	0x9f
    111c:	00000000 	nop
    1120:	00000400 	sll	zero,zero,0x10
    1124:	00005400 	sll	t2,zero,0x10
    1128:	91000200 	lbu	zero,512(t0)
    112c:	00005468 	0x5468
    1130:	00008700 	sll	s0,zero,0x1c
    1134:	75000200 	jalx	4000800 <__memory_size+0x3fe1000>
    1138:	00008700 	sll	s0,zero,0x1c
    113c:	0000b800 	sll	s7,zero,0x0
    1140:	91000200 	lbu	zero,512(t0)
    1144:	0000b868 	0xb868
    1148:	0000c000 	sll	t8,zero,0x0
    114c:	8d000200 	lw	zero,512(t0)
    1150:	00000068 	0x68
    1154:	00000000 	nop
    1158:	00003c00 	sll	a3,zero,0x10
    115c:	00004c00 	sll	t1,zero,0x10
    1160:	4c000200 	lwxc1	$f8,zero(zero)
    1164:	0000609f 	0x609f
    1168:	00006800 	sll	t5,zero,0x0
    116c:	52000100 	beqzl	s0,1570 <__isr_vec_space+0x1550>
    1170:	00000068 	0x68
    1174:	00000074 	teq	zero,zero,0x1
    1178:	73310009 	0x73310009
    117c:	24321c00 	addiu	s2,at,7168
    1180:	749f1c23 	jalx	27c708c <__memory_size+0x27a788c>
    1184:	87000000 	lh	zero,0(t8)
    1188:	08000000 	j	0 <hardware_exit_hook>
    118c:	09007300 	j	401cc00 <__memory_size+0x3ffd400>
    1190:	1c231efc 	0x1c231efc
    1194:	0000009f 	0x9f
    1198:	00000000 	nop
    119c:	00000400 	sll	zero,zero,0x10
    11a0:	00004c00 	sll	t1,zero,0x10
    11a4:	30000200 	andi	zero,zero,0x200
    11a8:	0000609f 	0x609f
    11ac:	00008700 	sll	s0,zero,0x1c
    11b0:	53000100 	beqzl	t8,15b4 <__isr_vec_space+0x1594>
    11b4:	00000000 	nop
    11b8:	00000000 	nop
    11bc:	000000c0 	ehb
    11c0:	000000c7 	0xc7
    11c4:	c7540001 	lwc1	$f20,1(k0)
    11c8:	c8000000 	lwc2	$0,0(zero)
    11cc:	04000000 	bltz	zero,11d0 <__isr_vec_space+0x11b0>
    11d0:	5401f300 	bnel	zero,at,ffffddd4 <__entry+0x403fddd4>
    11d4:	0000009f 	0x9f
    11d8:	00000000 	nop
    11dc:	0000c000 	sll	t8,zero,0x0
    11e0:	0000c700 	sll	t8,zero,0x1c
    11e4:	55000100 	bnezl	t0,15e8 <__isr_vec_space+0x15c8>
    11e8:	000000c7 	0xc7
    11ec:	000000c8 	0xc8
    11f0:	01f30004 	sllv	zero,s3,t7
    11f4:	00009f55 	0x9f55
    11f8:	00000000 	nop
    11fc:	00c00000 	0xc00000
    1200:	00c70000 	0xc70000
    1204:	00010000 	sll	zero,at,0x0
    1208:	0000c756 	0xc756
    120c:	0000c800 	sll	t9,zero,0x0
    1210:	f3000400 	0xf3000400
    1214:	009f5601 	0x9f5601
    1218:	00000000 	nop
    121c:	c8000000 	lwc2	$0,0(zero)
    1220:	10000000 	b	1224 <__isr_vec_space+0x1204>
    1224:	01000001 	movf	zero,t0,$fcc0
    1228:	01105400 	0x1105400
    122c:	01180000 	0x1180000
    1230:	00010000 	sll	zero,at,0x0
    1234:	00011860 	0x11860
    1238:	00011c00 	sll	v1,at,0x10
    123c:	54000100 	bnezl	zero,1640 <__isr_vec_space+0x1620>
    1240:	0000011c 	0x11c
    1244:	00000124 	0x124
    1248:	24600001 	addiu	zero,v1,1
    124c:	28000001 	slti	zero,zero,1
    1250:	01000001 	movf	zero,t0,$fcc0
    1254:	01285400 	0x1285400
    1258:	01300000 	0x1300000
    125c:	00010000 	sll	zero,at,0x0
    1260:	00013060 	0x13060
    1264:	00013400 	sll	a2,at,0x10
    1268:	54000100 	bnezl	zero,166c <__isr_vec_space+0x164c>
    126c:	00000134 	teq	zero,zero,0x4
    1270:	00000150 	0x150
    1274:	50600001 	beqzl	v1,127c <__isr_vec_space+0x125c>
    1278:	54000001 	bnezl	zero,1280 <__isr_vec_space+0x1260>
    127c:	01000001 	movf	zero,t0,$fcc0
    1280:	01545400 	0x1545400
    1284:	015c0000 	0x15c0000
    1288:	00010000 	sll	zero,at,0x0
    128c:	00015c60 	0x15c60
    1290:	00016400 	sll	t4,at,0x10
    1294:	54000100 	bnezl	zero,1698 <__isr_vec_space+0x1678>
    1298:	00000164 	0x164
    129c:	0000017c 	0x17c
    12a0:	7c600001 	0x7c600001
    12a4:	84000001 	lh	zero,1(zero)
    12a8:	01000001 	movf	zero,t0,$fcc0
    12ac:	01845400 	0x1845400
    12b0:	01900000 	0x1900000
    12b4:	00010000 	sll	zero,at,0x0
    12b8:	00019060 	0x19060
    12bc:	0001a800 	sll	s5,at,0x0
    12c0:	54000100 	bnezl	zero,16c4 <__isr_vec_space+0x16a4>
    12c4:	000001a8 	0x1a8
    12c8:	000001ec 	0x1ec
    12cc:	ec600001 	swc3	$0,1(v1)
    12d0:	fc000001 	sdc3	$0,1(zero)
    12d4:	01000001 	movf	zero,t0,$fcc0
    12d8:	01fc5400 	0x1fc5400
    12dc:	021c0000 	0x21c0000
    12e0:	00010000 	sll	zero,at,0x0
    12e4:	00021c60 	0x21c60
    12e8:	00022300 	sll	a0,v0,0xc
    12ec:	54000100 	bnezl	zero,16f0 <__isr_vec_space+0x16d0>
    12f0:	00000223 	0x223
    12f4:	00000224 	0x224
    12f8:	01f30004 	sllv	zero,s3,t7
    12fc:	02249f54 	0x2249f54
    1300:	02430000 	0x2430000
    1304:	00010000 	sll	zero,at,0x0
    1308:	00024354 	0x24354
    130c:	00026000 	sll	t4,v0,0x0
    1310:	60000100 	0x60000100
    1314:	00000260 	0x260
    1318:	00000267 	0x267
    131c:	67540001 	0x67540001
    1320:	68000002 	0x68000002
    1324:	04000002 	bltz	zero,1330 <__isr_vec_space+0x1310>
    1328:	5401f300 	bnel	zero,at,ffffdf2c <__entry+0x403fdf2c>
    132c:	0002689f 	0x2689f
    1330:	00026c00 	sll	t5,v0,0x10
    1334:	54000100 	bnezl	zero,1738 <__isr_vec_space+0x1718>
    1338:	0000026c 	0x26c
    133c:	00000274 	teq	zero,zero,0x9
    1340:	74600001 	jalx	1800004 <__memory_size+0x17e0804>
    1344:	78000002 	shf.b	$w0,$w0,0x0
    1348:	01000002 	0x1000002
    134c:	02785400 	0x2785400
    1350:	02800000 	0x2800000
    1354:	00010000 	sll	zero,at,0x0
    1358:	00028060 	0x28060
    135c:	00028400 	sll	s0,v0,0x10
    1360:	54000100 	bnezl	zero,1764 <__isr_vec_space+0x1744>
    1364:	00000284 	0x284
    1368:	0000028c 	syscall	0xa
    136c:	8c600001 	lw	zero,1(v1)
    1370:	94000002 	lhu	zero,2(zero)
    1374:	01000002 	0x1000002
    1378:	02945400 	0x2945400
    137c:	02a00000 	0x2a00000
    1380:	00010000 	sll	zero,at,0x0
    1384:	0002a060 	0x2a060
    1388:	0002a800 	sll	s5,v0,0x0
    138c:	54000100 	bnezl	zero,1790 <__isr_vec_space+0x1770>
    1390:	000002a8 	0x2a8
    1394:	000002b4 	teq	zero,zero,0xa
    1398:	b4600001 	0xb4600001
    139c:	dc000002 	ldc3	$0,2(zero)
    13a0:	01000002 	0x1000002
    13a4:	02dc5400 	0x2dc5400
    13a8:	03100000 	0x3100000
    13ac:	00010000 	sll	zero,at,0x0
    13b0:	00031060 	0x31060
    13b4:	00033800 	sll	a3,v1,0x0
    13b8:	54000100 	bnezl	zero,17bc <__isr_vec_space+0x179c>
    13bc:	00000338 	0x338
    13c0:	0000036c 	0x36c
    13c4:	6c600001 	0x6c600001
    13c8:	74000003 	jalx	c <ABIFlags_ases>
    13cc:	01000003 	0x1000003
    13d0:	03745400 	0x3745400
    13d4:	037c0000 	0x37c0000
    13d8:	00010000 	sll	zero,at,0x0
    13dc:	00037c60 	0x37c60
    13e0:	00038400 	sll	s0,v1,0x10
    13e4:	54000100 	bnezl	zero,17e8 <__isr_vec_space+0x17c8>
    13e8:	00000384 	0x384
    13ec:	00000390 	0x390
    13f0:	90600001 	lbu	zero,1(v1)
    13f4:	98000003 	lwr	zero,3(zero)
    13f8:	01000003 	0x1000003
    13fc:	03985400 	0x3985400
    1400:	03a40000 	0x3a40000
    1404:	00010000 	sll	zero,at,0x0
    1408:	0003a460 	0x3a460
    140c:	0003ac00 	sll	s5,v1,0x10
    1410:	54000100 	bnezl	zero,1814 <__isr_vec_space+0x17f4>
    1414:	000003ac 	0x3ac
    1418:	000003b8 	0x3b8
    141c:	b8600001 	swr	zero,1(v1)
    1420:	c0000003 	ll	zero,3(zero)
    1424:	01000003 	0x1000003
    1428:	03c05400 	0x3c05400
    142c:	03cc0000 	0x3cc0000
    1430:	00010000 	sll	zero,at,0x0
    1434:	0003cc60 	0x3cc60
    1438:	0003d000 	sll	k0,v1,0x0
    143c:	54000100 	bnezl	zero,1840 <__isr_vec_space+0x1820>
    1440:	000003d0 	0x3d0
    1444:	000003d8 	0x3d8
    1448:	d8600001 	ldc2	$0,1(v1)
    144c:	dc000003 	ldc3	$0,3(zero)
    1450:	01000003 	0x1000003
    1454:	03dc5400 	0x3dc5400
    1458:	03e40000 	0x3e40000
    145c:	00010000 	sll	zero,at,0x0
    1460:	0003e460 	0x3e460
    1464:	0003e800 	sll	sp,v1,0x0
    1468:	54000100 	bnezl	zero,186c <__isr_vec_space+0x184c>
    146c:	000003e8 	0x3e8
    1470:	000003f4 	teq	zero,zero,0xf
    1474:	f4600001 	sdc1	$f0,1(v1)
    1478:	fc000003 	sdc3	$0,3(zero)
    147c:	01000003 	0x1000003
    1480:	03fc5400 	0x3fc5400
    1484:	04080000 	tgei	zero,0
    1488:	00010000 	sll	zero,at,0x0
    148c:	00040860 	0x40860
    1490:	00041000 	sll	v0,a0,0x0
    1494:	54000100 	bnezl	zero,1898 <__isr_vec_space+0x1878>
    1498:	00000410 	0x410
    149c:	0000041c 	0x41c
    14a0:	1c600001 	bgtz	v1,14a8 <__isr_vec_space+0x1488>
    14a4:	24000004 	li	zero,4
    14a8:	01000004 	sllv	zero,zero,t0
    14ac:	04245400 	0x4245400
    14b0:	04300000 	bltzal	at,14b4 <__isr_vec_space+0x1494>
    14b4:	00010000 	sll	zero,at,0x0
    14b8:	00043060 	0x43060
    14bc:	00043800 	sll	a3,a0,0x0
    14c0:	54000100 	bnezl	zero,18c4 <__isr_vec_space+0x18a4>
    14c4:	00000438 	0x438
    14c8:	00000444 	0x444
    14cc:	44600001 	0x44600001
    14d0:	48000004 	mfc2	zero,$0,4
    14d4:	01000004 	sllv	zero,zero,t0
    14d8:	04485400 	tgei	v0,21504
    14dc:	07a40000 	0x7a40000
    14e0:	00010000 	sll	zero,at,0x0
    14e4:	0007a460 	0x7a460
    14e8:	0007ac00 	sll	s5,a3,0x10
    14ec:	f3000400 	0xf3000400
    14f0:	009f5401 	0x9f5401
    14f4:	00000000 	nop
    14f8:	c8000000 	lwc2	$0,0(zero)
    14fc:	0c000000 	jal	0 <hardware_exit_hook>
    1500:	01000001 	movf	zero,t0,$fcc0
    1504:	010c5500 	0x10c5500
    1508:	01180000 	0x1180000
    150c:	00040000 	sll	zero,a0,0x0
    1510:	9f5501f3 	0x9f5501f3
    1514:	00000118 	0x118
    1518:	0000013c 	0x13c
    151c:	3c550001 	0x3c550001
    1520:	50000001 	beqzl	zero,1528 <__isr_vec_space+0x1508>
    1524:	04000001 	bltz	zero,152c <__isr_vec_space+0x150c>
    1528:	5501f300 	bnel	t0,at,ffffe12c <__entry+0x403fe12c>
    152c:	0001509f 	0x1509f
    1530:	00016000 	sll	t4,at,0x0
    1534:	55000100 	bnezl	t0,1938 <__isr_vec_space+0x1918>
    1538:	00000160 	0x160
    153c:	0000017c 	0x17c
    1540:	01f30004 	sllv	zero,s3,t7
    1544:	017c9f55 	0x17c9f55
    1548:	01800000 	0x1800000
    154c:	00010000 	sll	zero,at,0x0
    1550:	00018055 	0x18055
    1554:	00019000 	sll	s2,at,0x0
    1558:	f3000400 	0xf3000400
    155c:	909f5501 	lbu	ra,21761(a0)
    1560:	b4000001 	0xb4000001
    1564:	01000001 	movf	zero,t0,$fcc0
    1568:	01b45500 	0x1b45500
    156c:	01c00000 	0x1c00000
    1570:	00040000 	sll	zero,a0,0x0
    1574:	9f5501f3 	0x9f5501f3
    1578:	000001c0 	sll	zero,zero,0x7
    157c:	000001c4 	0x1c4
    1580:	c4550001 	lwc1	$f21,1(v0)
    1584:	ec000001 	swc3	$0,1(zero)
    1588:	04000001 	bltz	zero,1590 <__isr_vec_space+0x1570>
    158c:	5501f300 	bnel	t0,at,ffffe190 <__entry+0x403fe190>
    1590:	0001ec9f 	0x1ec9f
    1594:	0001fc00 	sll	ra,at,0x10
    1598:	55000100 	bnezl	t0,199c <__isr_vec_space+0x197c>
    159c:	000001fc 	0x1fc
    15a0:	00000224 	0x224
    15a4:	01f30004 	sllv	zero,s3,t7
    15a8:	02249f55 	0x2249f55
    15ac:	02430000 	0x2430000
    15b0:	00010000 	sll	zero,at,0x0
    15b4:	00024355 	0x24355
    15b8:	00026800 	sll	t5,v0,0x0
    15bc:	f3000400 	0xf3000400
    15c0:	689f5501 	0x689f5501
    15c4:	90000002 	lbu	zero,2(zero)
    15c8:	01000002 	0x1000002
    15cc:	02905500 	0x2905500
    15d0:	02a00000 	0x2a00000
    15d4:	00040000 	sll	zero,a0,0x0
    15d8:	9f5501f3 	0x9f5501f3
    15dc:	000002a0 	0x2a0
    15e0:	000002a4 	0x2a4
    15e4:	a4550001 	sh	s5,1(v0)
    15e8:	b4000002 	0xb4000002
    15ec:	04000002 	bltz	zero,15f8 <__isr_vec_space+0x15d8>
    15f0:	5501f300 	bnel	t0,at,ffffe1f4 <__entry+0x403fe1f4>
    15f4:	0002b49f 	0x2b49f
    15f8:	00030000 	sll	zero,v1,0x0
    15fc:	55000100 	bnezl	t0,1a00 <__isr_vec_space+0x19e0>
    1600:	00000300 	sll	zero,zero,0xc
    1604:	00000310 	0x310
    1608:	01f30004 	sllv	zero,s3,t7
    160c:	03109f55 	0x3109f55
    1610:	035c0000 	0x35c0000
    1614:	00010000 	sll	zero,at,0x0
    1618:	00035c55 	0x35c55
    161c:	00036c00 	sll	t5,v1,0x10
    1620:	f3000400 	0xf3000400
    1624:	6c9f5501 	0x6c9f5501
    1628:	70000003 	s32max	xr0,xr0,xr0
    162c:	01000003 	0x1000003
    1630:	03705500 	0x3705500
    1634:	037c0000 	0x37c0000
    1638:	00040000 	sll	zero,a0,0x0
    163c:	9f5501f3 	0x9f5501f3
    1640:	0000037c 	0x37c
    1644:	00000380 	sll	zero,zero,0xe
    1648:	80550001 	lb	s5,1(v0)
    164c:	90000003 	lbu	zero,3(zero)
    1650:	04000003 	bltz	zero,1660 <__isr_vec_space+0x1640>
    1654:	5501f300 	bnel	t0,at,ffffe258 <__entry+0x403fe258>
    1658:	0003909f 	0x3909f
    165c:	00039400 	sll	s2,v1,0x10
    1660:	55000100 	bnezl	t0,1a64 <__isr_vec_space+0x1a44>
    1664:	00000394 	0x394
    1668:	000003a4 	0x3a4
    166c:	01f30004 	sllv	zero,s3,t7
    1670:	03a49f55 	0x3a49f55
    1674:	03a80000 	0x3a80000
    1678:	00010000 	sll	zero,at,0x0
    167c:	0003a855 	0x3a855
    1680:	0003b800 	sll	s7,v1,0x0
    1684:	f3000400 	0xf3000400
    1688:	b89f5501 	swr	ra,21761(a0)
    168c:	bc000003 	cache	0x0,3(zero)
    1690:	01000003 	0x1000003
    1694:	03bc5500 	0x3bc5500
    1698:	03cc0000 	0x3cc0000
    169c:	00040000 	sll	zero,a0,0x0
    16a0:	9f5501f3 	0x9f5501f3
    16a4:	000003cc 	syscall	0xf
    16a8:	000003ec 	0x3ec
    16ac:	ec550001 	swc3	$21,1(v0)
    16b0:	f4000003 	sdc1	$f0,3(zero)
    16b4:	04000003 	bltz	zero,16c4 <__isr_vec_space+0x16a4>
    16b8:	5501f300 	bnel	t0,at,ffffe2bc <__entry+0x403fe2bc>
    16bc:	0003f49f 	0x3f49f
    16c0:	0003f800 	sll	ra,v1,0x0
    16c4:	55000100 	bnezl	t0,1ac8 <__isr_vec_space+0x1aa8>
    16c8:	000003f8 	0x3f8
    16cc:	00000408 	jr.hb	zero
    16d0:	01f30004 	sllv	zero,s3,t7
    16d4:	04089f55 	tgei	zero,-24747
    16d8:	040c0000 	teqi	zero,0
    16dc:	00010000 	sll	zero,at,0x0
    16e0:	00040c55 	0x40c55
    16e4:	00041c00 	sll	v1,a0,0x10
    16e8:	f3000400 	0xf3000400
    16ec:	1c9f5501 	0x1c9f5501
    16f0:	20000004 	addi	zero,zero,4
    16f4:	01000004 	sllv	zero,zero,t0
    16f8:	04205500 	bltz	at,16afc <__isr_vec_space+0x16adc>
    16fc:	04300000 	bltzal	at,1700 <__isr_vec_space+0x16e0>
    1700:	00040000 	sll	zero,a0,0x0
    1704:	9f5501f3 	0x9f5501f3
    1708:	00000430 	tge	zero,zero,0x10
    170c:	00000434 	teq	zero,zero,0x10
    1710:	34550001 	ori	s5,v0,0x1
    1714:	44000004 	0x44000004
    1718:	04000004 	bltz	zero,172c <__isr_vec_space+0x170c>
    171c:	5501f300 	bnel	t0,at,ffffe320 <__entry+0x403fe320>
    1720:	0004449f 	0x4449f
    1724:	00044c00 	sll	t1,a0,0x10
    1728:	55000100 	bnezl	t0,1b2c <__isr_vec_space+0x1b0c>
    172c:	0000044c 	syscall	0x11
    1730:	000007ac 	0x7ac
    1734:	01f30004 	sllv	zero,s3,t7
    1738:	00009f55 	0x9f55
    173c:	00000000 	nop
    1740:	02c80000 	0x2c80000
    1744:	02cc0000 	0x2cc0000
    1748:	00010000 	sll	zero,at,0x0
    174c:	00000052 	mflhxu	zero
    1750:	00000000 	nop
    1754:	0002d800 	sll	k1,v0,0x0
    1758:	0002e000 	sll	gp,v0,0x0
    175c:	53000100 	beqzl	t8,1b60 <__isr_vec_space+0x1b40>
    1760:	00000000 	nop
    1764:	00000000 	nop
    1768:	000002ec 	0x2ec
    176c:	000002f0 	tge	zero,zero,0xb
    1770:	0072000d 	break	0x72
    1774:	f7ffff11 	sdc1	$f31,-239(ra)
    1778:	44401a77 	0x44401a77
    177c:	009f2124 	0x9f2124
    1780:	00000000 	nop
    1784:	ec000000 	swc3	$0,0(zero)
    1788:	f0000002 	0xf0000002
    178c:	01000002 	0x1000002
    1790:	00005200 	sll	t2,zero,0x8
    1794:	00000000 	nop
    1798:	03240000 	0x3240000
    179c:	03280000 	0x3280000
    17a0:	00010000 	sll	zero,at,0x0
    17a4:	00000052 	mflhxu	zero
    17a8:	00000000 	nop
    17ac:	00033400 	sll	a2,v1,0x10
    17b0:	00033c00 	sll	a3,v1,0x10
    17b4:	53000100 	beqzl	t8,1bb8 <__isr_vec_space+0x1b98>
    17b8:	00000000 	nop
    17bc:	00000000 	nop
    17c0:	00000348 	0x348
    17c4:	0000034c 	syscall	0xd
    17c8:	0072000d 	break	0x72
    17cc:	f7ffff11 	sdc1	$f31,-239(ra)
    17d0:	44401a77 	0x44401a77
    17d4:	009f2124 	0x9f2124
    17d8:	00000000 	nop
    17dc:	48000000 	mfc2	zero,$0
    17e0:	4c000003 	mfc3	zero,$0,3
    17e4:	01000003 	0x1000003
    17e8:	00005200 	sll	t2,zero,0x8
	...
    17f4:	00180000 	sll	zero,t8,0x0
    17f8:	00010000 	sll	zero,at,0x0
    17fc:	00001854 	0x1854
    1800:	00005000 	sll	t2,zero,0x0
    1804:	f3000400 	0xf3000400
    1808:	009f5401 	0x9f5401
	...
    1814:	18000000 	blez	zero,1818 <__isr_vec_space+0x17f8>
    1818:	01000000 	0x1000000
    181c:	00185500 	sll	t2,t8,0x14
    1820:	00500000 	0x500000
    1824:	00040000 	sll	zero,a0,0x0
    1828:	9f5501f3 	0x9f5501f3
	...
    1838:	00000033 	tltu	zero,zero
    183c:	33560001 	andi	s6,k0,0x1
    1840:	50000000 	beqzl	zero,1844 <__isr_vec_space+0x1824>
    1844:	04000000 	bltz	zero,1848 <__isr_vec_space+0x1828>
    1848:	5601f300 	bnel	s0,at,ffffe44c <__entry+0x403fe44c>
    184c:	0000009f 	0x9f
	...
    1858:	00000800 	sll	at,zero,0x0
    185c:	54000100 	bnezl	zero,1c60 <__isr_vec_space+0x1c40>
    1860:	00000008 	jr	zero
    1864:	00000044 	0x44
    1868:	00580001 	movf	zero,v0,$fcc6
    186c:	00000000 	nop
    1870:	Address 0x0000000000001870 is out of bounds.


Disassembly of section .debug_ranges:

00000000 <.debug_ranges>:
   0:	000001fc 	0x1fc
   4:	00000210 	0x210
   8:	00000220 	0x220
   c:	0000022c 	0x22c
  10:	0000025c 	0x25c
  14:	00000264 	0x264
	...
  20:	00000288 	0x288
  24:	00000298 	0x298
  28:	000002ac 	0x2ac
  2c:	000002b4 	teq	zero,zero,0xa
  30:	000002e0 	0x2e0
  34:	000002e8 	0x2e8
	...
  40:	0000033c 	0x33c
  44:	00000340 	sll	zero,zero,0xd
  48:	00000358 	0x358
  4c:	0000035c 	0x35c
	...
  58:	000005bc 	0x5bc
  5c:	000005c0 	sll	zero,zero,0x17
  60:	000005d4 	0x5d4
  64:	000005d8 	0x5d8
	...
  70:	00000680 	sll	zero,zero,0x1a
  74:	00000688 	0x688
  78:	00000698 	0x698
  7c:	000006a0 	0x6a0
	...
  88:	00000068 	0x68
  8c:	00000078 	0x78
  90:	000000cc 	syscall	0x3
  94:	00000158 	0x158
  98:	00000160 	0x160
  9c:	00000178 	0x178
	...
  a8:	00000014 	0x14
  ac:	00000018 	mult	zero,zero
  b0:	00000078 	0x78
  b4:	000000e0 	0xe0
  b8:	00000124 	0x124
  bc:	0000014c 	syscall	0x5
	...
  c8:	ffffffff 	sdc3	$31,-1(ra)
  cc:	00000000 	nop
  d0:	80000000 	lb	zero,0(zero)
  d4:	80000194 	lb	zero,404(zero)
  d8:	80002370 	lb	zero,9072(zero)
  dc:	80002538 	lb	zero,9528(zero)
	...

Disassembly of section .reginfo:

00000000 <.reginfo>:
   0:	b200037c 	0xb200037c
	...
  14:	8000aee8 	lb	zero,-20760(zero)

Disassembly of section .pdr:

00000000 <.pdr>:
   0:	80000324 	lb	zero,804(zero)
	...
  20:	80000440 	lb	zero,1088(zero)
	...
  40:	800004a4 	lb	zero,1188(zero)
	...
  60:	80000578 	lb	zero,1400(zero)
	...
  80:	9fc00000 	0x9fc00000
	...
  a0:	9fc00014 	0x9fc00014
	...
  c0:	9fc000a8 	0x9fc000a8
	...
  e0:	9fc00100 	0x9fc00100
	...
 100:	9fc00160 	0x9fc00160
	...
 120:	9fc00288 	0x9fc00288
	...
 140:	9fc00308 	0x9fc00308
	...
 160:	8000075c 	lb	zero,1884(zero)
	...
 178:	0000001d 	0x1d
 17c:	0000001f 	0x1f
 180:	80000780 	lb	zero,1920(zero)
	...
 198:	0000001d 	0x1d
 19c:	0000001f 	0x1f
 1a0:	800007a0 	lb	zero,1952(zero)
	...
 1b8:	0000001d 	0x1d
 1bc:	0000001f 	0x1f
 1c0:	800007bc 	lb	zero,1980(zero)
	...
 1d8:	0000001d 	0x1d
 1dc:	0000001f 	0x1f
 1e0:	800007fc 	lb	zero,2044(zero)
	...
 1f8:	0000001d 	0x1d
 1fc:	0000001f 	0x1f
 200:	80000840 	lb	zero,2112(zero)
 204:	80030000 	lb	v1,0(zero)
 208:	fffffffc 	sdc3	$31,-4(ra)
	...
 214:	00000020 	add	zero,zero,zero
 218:	0000001d 	0x1d
 21c:	0000001f 	0x1f
 220:	8000089c 	lb	zero,2204(zero)
	...
 238:	0000001d 	0x1d
 23c:	0000001f 	0x1f
 240:	800008a4 	lb	zero,2212(zero)
	...
 258:	0000001d 	0x1d
 25c:	0000001f 	0x1f
 260:	80000a64 	lb	zero,2660(zero)
	...
 278:	0000001d 	0x1d
 27c:	0000001f 	0x1f
 280:	80000a6c 	lb	zero,2668(zero)
	...
 298:	0000001d 	0x1d
 29c:	0000001f 	0x1f
 2a0:	80000a74 	lb	zero,2676(zero)
	...
 2b8:	0000001d 	0x1d
 2bc:	0000001f 	0x1f
 2c0:	80000a88 	lb	zero,2696(zero)
	...
 2d8:	0000001d 	0x1d
 2dc:	0000001f 	0x1f
 2e0:	80000a90 	lb	zero,2704(zero)
	...
 2f8:	0000001d 	0x1d
 2fc:	0000001f 	0x1f
 300:	80000b14 	lb	zero,2836(zero)
	...
 318:	0000001d 	0x1d
 31c:	0000001f 	0x1f
 320:	80000b1c 	lb	zero,2844(zero)
	...
 338:	0000001d 	0x1d
 33c:	0000001f 	0x1f
 340:	80000b98 	lb	zero,2968(zero)
 344:	80010000 	lb	at,0(zero)
 348:	fffffffc 	sdc3	$31,-4(ra)
	...
 354:	00000018 	mult	zero,zero
 358:	0000001d 	0x1d
 35c:	0000001f 	0x1f
 360:	80000bcc 	lb	zero,3020(zero)
	...
 378:	0000001d 	0x1d
 37c:	0000001f 	0x1f
 380:	80000c48 	lb	zero,3144(zero)
 384:	80000000 	lb	zero,0(zero)
 388:	fffffffc 	sdc3	$31,-4(ra)
	...
 394:	00000018 	mult	zero,zero
 398:	0000001d 	0x1d
 39c:	0000001f 	0x1f
 3a0:	80000c64 	lb	zero,3172(zero)
 3a4:	80000000 	lb	zero,0(zero)
 3a8:	fffffffc 	sdc3	$31,-4(ra)
	...
 3b4:	00000018 	mult	zero,zero
 3b8:	0000001d 	0x1d
 3bc:	0000001f 	0x1f
 3c0:	80000c80 	lb	zero,3200(zero)
 3c4:	80000000 	lb	zero,0(zero)
 3c8:	fffffffc 	sdc3	$31,-4(ra)
	...
 3d4:	00000018 	mult	zero,zero
 3d8:	0000001d 	0x1d
 3dc:	0000001f 	0x1f
 3e0:	80000c9c 	lb	zero,3228(zero)
	...
 3f8:	0000001d 	0x1d
 3fc:	0000001f 	0x1f
 400:	80000ca4 	lb	zero,3236(zero)
	...
 418:	0000001d 	0x1d
 41c:	0000001f 	0x1f
 420:	80000cfc 	lb	zero,3324(zero)
	...
 438:	0000001d 	0x1d
 43c:	0000001f 	0x1f
 440:	80000d44 	lb	zero,3396(zero)
	...
 458:	0000001d 	0x1d
 45c:	0000001f 	0x1f
 460:	80000db0 	lb	zero,3504(zero)
 464:	80010000 	lb	at,0(zero)
 468:	fffffffc 	sdc3	$31,-4(ra)
	...
 474:	00000018 	mult	zero,zero
 478:	0000001d 	0x1d
 47c:	0000001f 	0x1f
 480:	80000e44 	lb	zero,3652(zero)
 484:	80010000 	lb	at,0(zero)
 488:	fffffffc 	sdc3	$31,-4(ra)
	...
 494:	00000018 	mult	zero,zero
 498:	0000001d 	0x1d
 49c:	0000001f 	0x1f
 4a0:	80000f10 	lb	zero,3856(zero)
	...
 4b8:	0000001d 	0x1d
 4bc:	0000001f 	0x1f
 4c0:	80001008 	lb	zero,4104(zero)
 4c4:	80000000 	lb	zero,0(zero)
 4c8:	fffffffc 	sdc3	$31,-4(ra)
	...
 4d4:	00000018 	mult	zero,zero
 4d8:	0000001d 	0x1d
 4dc:	0000001f 	0x1f
 4e0:	80001024 	lb	zero,4132(zero)
	...
 4f8:	0000001d 	0x1d
 4fc:	0000001f 	0x1f
 500:	8000102c 	lb	zero,4140(zero)
	...
 518:	0000001d 	0x1d
 51c:	0000001f 	0x1f
 520:	80001060 	lb	zero,4192(zero)
 524:	801f0000 	lb	ra,0(zero)
 528:	fffffffc 	sdc3	$31,-4(ra)
	...
 534:	00000028 	0x28
 538:	0000001d 	0x1d
 53c:	0000001f 	0x1f
 540:	800011c4 	lb	zero,4548(zero)
 544:	801f0000 	lb	ra,0(zero)
 548:	fffffffc 	sdc3	$31,-4(ra)
	...
 554:	00000028 	0x28
 558:	0000001d 	0x1d
 55c:	0000001f 	0x1f
 560:	800012f8 	lb	zero,4856(zero)
	...
 578:	0000001d 	0x1d
 57c:	0000001f 	0x1f
 580:	80001348 	lb	zero,4936(zero)
 584:	80000000 	lb	zero,0(zero)
 588:	fffffffc 	sdc3	$31,-4(ra)
	...
 594:	00000018 	mult	zero,zero
 598:	0000001d 	0x1d
 59c:	0000001f 	0x1f
 5a0:	80001370 	lb	zero,4976(zero)
 5a4:	80010000 	lb	at,0(zero)
 5a8:	fffffffc 	sdc3	$31,-4(ra)
	...
 5b4:	00000018 	mult	zero,zero
 5b8:	0000001d 	0x1d
 5bc:	0000001f 	0x1f
 5c0:	800013ac 	lb	zero,5036(zero)
 5c4:	801f0000 	lb	ra,0(zero)
 5c8:	fffffffc 	sdc3	$31,-4(ra)
	...
 5d4:	00000028 	0x28
 5d8:	0000001d 	0x1d
 5dc:	0000001f 	0x1f
 5e0:	800014bc 	lb	zero,5308(zero)
 5e4:	c0ff0000 	ll	ra,0(a3)
 5e8:	fffffffc 	sdc3	$31,-4(ra)
	...
 5f4:	00000040 	ssnop
 5f8:	0000001d 	0x1d
 5fc:	0000001f 	0x1f
 600:	8000163c 	lb	zero,5692(zero)
 604:	800f0000 	lb	t7,0(zero)
 608:	fffffffc 	sdc3	$31,-4(ra)
	...
 614:	00000028 	0x28
 618:	0000001d 	0x1d
 61c:	0000001f 	0x1f
 620:	800016c4 	lb	zero,5828(zero)
	...
 640:	8000177c 	lb	zero,6012(zero)
	...
 658:	0000001d 	0x1d
 65c:	0000001f 	0x1f
 660:	80000000 	lb	zero,0(zero)
	...
 680:	80002370 	lb	zero,9072(zero)
	...
 694:	000000b0 	tge	zero,zero,0x2
 698:	0000001d 	0x1d
 69c:	00000000 	nop
 6a0:	800017c8 	lb	zero,6088(zero)
 6a4:	80070000 	lb	a3,0(zero)
 6a8:	fffffffc 	sdc3	$31,-4(ra)
	...
 6b4:	00000028 	0x28
 6b8:	0000001d 	0x1d
 6bc:	0000001f 	0x1f
 6c0:	80001888 	lb	zero,6280(zero)
	...
 6d8:	0000001d 	0x1d
 6dc:	0000001f 	0x1f
 6e0:	80001890 	lb	zero,6288(zero)
 6e4:	80070000 	lb	a3,0(zero)
 6e8:	fffffffc 	sdc3	$31,-4(ra)
	...
 6f4:	00000020 	add	zero,zero,zero
 6f8:	0000001d 	0x1d
 6fc:	0000001f 	0x1f
 700:	80001f74 	lb	zero,8052(zero)
	...
 720:	80002024 	lb	zero,8228(zero)
	...
 740:	800020a0 	lb	zero,8352(zero)
	...
 760:	80002140 	lb	zero,8512(zero)
	...
 780:	800021f8 	lb	zero,8696(zero)
	...
 7a0:	80002210 	lb	zero,8720(zero)
	...
 7c0:	80000200 	lb	zero,512(zero)
	...
 7e0:	800022a0 	lb	zero,8864(zero)
	...
 800:	800022bc 	lb	zero,8892(zero)
 804:	80010000 	lb	at,0(zero)
 808:	fffffffc 	sdc3	$31,-4(ra)
	...
 814:	00000020 	add	zero,zero,zero
 818:	0000001d 	0x1d
 81c:	0000001f 	0x1f
 820:	8000230c 	lb	zero,8972(zero)
	...
 838:	0000001d 	0x1d
 83c:	0000001f 	0x1f
 840:	80002320 	lb	zero,8992(zero)
	...
 858:	0000001d 	0x1d
 85c:	0000001f 	0x1f
 860:	80002364 	lb	zero,9060(zero)
	...
 878:	0000001d 	0x1d
 87c:	0000001f 	0x1f

Disassembly of section .gnu.attributes:

00000000 <.gnu.attributes>:
   0:	00000f41 	0xf41
   4:	756e6700 	jalx	5b99c00 <__memory_size+0x5b7a400>
   8:	00070100 	sll	zero,a3,0x4
   c:	03040000 	0x3040000

Disassembly of section .comment:

00000000 <.comment>:
   0:	3a434347 	xori	v1,s2,0x4347
   4:	6f432820 	0x6f432820
   8:	63736564 	0x63736564
   c:	20657061 	addi	a1,v1,28769
  10:	20554e47 	addi	s5,v0,20039
  14:	6c6f6f54 	0x6c6f6f54
  18:	30322073 	andi	s2,at,0x2073
  1c:	302e3631 	andi	t6,at,0x3631
  20:	33302d35 	andi	s0,t9,0x2d35
  24:	726f6620 	0x726f6620
  28:	50494d20 	beql	v0,t1,134ac <__isr_vec_space+0x1348c>
  2c:	544d2053 	bnel	v0,t5,817c <__isr_vec_space+0x815c>
  30:	61422049 	0x61422049
  34:	4d206572 	0x4d206572
  38:	6c617465 	0x6c617465
  3c:	2e342029 	sltiu	s4,s1,8233
  40:	00322e39 	0x322e39
