	.section .mdebug.abi32
	.previous
	.nan	legacy
	.module	softfloat
	.module	oddspreg
	.text
.Ltext0:
	.cfi_sections	.debug_frame
	.align	2
	.globl	test_pmm
.LFB37 = .
	.file 1 "main.c"
	.loc 1 16 0
	.cfi_startproc
	.set	nomips16
	.set	nomicromips
	.ent	test_pmm
	.type	test_pmm, @function
test_pmm:
	.frame	$sp,24,$31		# vars= 0, regs= 2/0, args= 16, gp= 0
	.mask	0x80010000,-4
	.fmask	0x00000000,0
	.set	noreorder
	.set	nomacro
	addiu	$sp,$sp,-24
	.cfi_def_cfa_offset 24
	sw	$31,20($sp)
	.cfi_offset 31, -4
	.cfi_offset 16, -8
	.loc 1 22 0
	jal	pmm_init
	sw	$16,16($sp)

.LVL0 = .
	li	$16,35			# 0x23
.LVL1 = .
.L2:
.LBB2 = .
	.loc 1 25 0 discriminator 3
	jal	pmm_alloc_page
	addiu	$16,$16,-1

.LVL2 = .
	.loc 1 26 0 discriminator 3
	jal	writeValTo7SegsHex
	move	$4,$2

.LVL3 = .
	.loc 1 27 0 discriminator 3
	jal	delay
	nop

.LVL4 = .
.LBE2 = .
	.loc 1 24 0 discriminator 3
	bne	$16,$0,.L2
	lw	$31,20($sp)

	.loc 1 34 0
	lw	$16,16($sp)
.LVL5 = .
	jr	$31
	addiu	$sp,$sp,24

	.cfi_def_cfa_offset 0
	.cfi_restore 16
	.cfi_restore 31
	.set	macro
	.set	reorder
	.end	test_pmm
	.cfi_endproc
.LFE37:
	.size	test_pmm, .-test_pmm
	.align	2
	.globl	test_vmm
.LFB38 = .
	.loc 1 36 0
	.cfi_startproc
	.set	nomips16
	.set	nomicromips
	.ent	test_vmm
	.type	test_vmm, @function
test_vmm:
	.frame	$sp,24,$31		# vars= 0, regs= 1/0, args= 16, gp= 0
	.mask	0x80000000,-4
	.fmask	0x00000000,0
	.set	noreorder
	.set	nomacro
	addiu	$sp,$sp,-24
	.cfi_def_cfa_offset 24
	sw	$31,20($sp)
	.cfi_offset 31, -4
	.loc 1 41 0
	jal	pmm_init
	nop

.LVL6 = .
	.loc 1 43 0
	jal	vmm_init
	nop

.LVL7 = .
	.loc 1 44 0
	move	$4,$0
	jal	kmalloc
	li	$5,32			# 0x20

.LVL8 = .
	.loc 1 57 0
	lw	$31,20($sp)
	jr	$31
	addiu	$sp,$sp,24

	.cfi_def_cfa_offset 0
	.cfi_restore 31
	.set	macro
	.set	reorder
	.end	test_vmm
	.cfi_endproc
.LFE38:
	.size	test_vmm, .-test_vmm
	.align	2
	.globl	main
.LFB39 = .
	.loc 1 59 0
	.cfi_startproc
	.set	nomips16
	.set	nomicromips
	.ent	main
	.type	main, @function
main:
	.frame	$sp,24,$31		# vars= 0, regs= 2/0, args= 16, gp= 0
	.mask	0x80010000,-4
	.fmask	0x00000000,0
	.set	noreorder
	.set	nomacro
	addiu	$sp,$sp,-24
	.cfi_def_cfa_offset 24
	sw	$31,20($sp)
	.cfi_offset 31, -4
	.cfi_offset 16, -8
	.loc 1 60 0
	jal	mm_init
	sw	$16,16($sp)

.LVL9 = .
	.loc 1 65 0
	jal	proc_init
	li	$16,1717960704			# 0x66660000

.LVL10 = .
	.loc 1 66 0
	jal	cpu_idle
	addiu	$16,$16,26214

.LVL11 = .
.L8:
	.loc 1 67 0 discriminator 1
	jal	writeValTo7SegsHex
	move	$4,$16

.LVL12 = .
	b	.L8
	nop

	.set	macro
	.set	reorder
	.end	main
	.cfi_endproc
.LFE39:
	.size	main, .-main
	.align	2
	.globl	_mips_handle_exception
.LFB40 = .
	.loc 1 74 0
	.cfi_startproc
	.set	nomips16
	.set	nomicromips
	.ent	_mips_handle_exception
	.type	_mips_handle_exception, @function
_mips_handle_exception:
	.frame	$sp,32,$31		# vars= 0, regs= 2/0, args= 24, gp= 0
	.mask	0x80010000,-4
	.fmask	0x00000000,0
.LVL13 = .
	addiu	$sp,$sp,-32
	.cfi_def_cfa_offset 32
	sw	$31,28($sp)
	sw	$16,24($sp)
	.cfi_offset 31, -4
	.cfi_offset 16, -8
	.loc 1 76 0
	sltu	$2,$5,9
	.set	noreorder
	.set	nomacro
	beq	$2,$0,.L11
	move	$16,$4
	.set	macro
	.set	reorder

	sll	$3,$5,2
	lui	$2,%hi(.L13)
	addiu	$2,$2,%lo(.L13)
	addu	$2,$2,$3
	lw	$2,0($2)
	jr	$2
	.rdata
	.align	2
	.align	2
.L13:
	.word	.L11
	.word	.L12
	.word	.L14
	.word	.L14
	.word	.L15
	.word	.L15
	.word	.L11
	.word	.L11
	.word	.L16
	.text
.L16:
.LBB3 = .
	.loc 1 78 0
	li	$4,286326784			# 0x11110000
.LVL14 = .
	.set	noreorder
	.set	nomacro
	jal	writeValTo7SegsHex
	addiu	$4,$4,4369
	.set	macro
	.set	reorder

.LVL15 = .
	.loc 1 79 0
	lw	$2,4($16)
	li	$3,1			# 0x1
	.set	noreorder
	.set	nomacro
	bne	$2,$3,.L17
	li	$3,2			# 0x2
	.set	macro
	.set	reorder

.LBB4 = .
	.loc 1 81 0
	lw	$2,%gp_rel(current)($28)
	lw	$3,60($16)
	sw	$3,44($2)
	.loc 1 82 0
	lw	$3,64($16)
	sw	$3,48($2)
	.loc 1 83 0
	lw	$3,68($16)
	sw	$3,52($2)
	.loc 1 84 0
	lw	$3,72($16)
	sw	$3,56($2)
	.loc 1 85 0
	lw	$3,76($16)
	sw	$3,60($2)
	.loc 1 86 0
	lw	$3,80($16)
	sw	$3,64($2)
	.loc 1 87 0
	lw	$3,84($16)
	sw	$3,68($2)
	.loc 1 88 0
	lw	$3,88($16)
	sw	$3,72($2)
	.loc 1 89 0
	lw	$3,112($16)
	sw	$3,76($2)
	.loc 1 90 0
	lw	$3,116($16)
	sw	$3,80($2)
	.loc 1 91 0
	lw	$3,120($16)
	sw	$3,84($2)
	.loc 1 92 0
	lw	$3,124($16)
	.loc 1 94 0
	.set	noreorder
	.set	nomacro
	jal	schedule
	sw	$3,36($2)
	.set	macro
	.set	reorder

.LVL16 = .
	.loc 1 96 0
	lw	$3,40($2)
	sw	$3,12($16)
	.loc 1 97 0
	lw	$3,44($2)
	sw	$3,60($16)
	.loc 1 98 0
	lw	$3,48($2)
	sw	$3,64($16)
	.loc 1 99 0
	lw	$3,52($2)
	sw	$3,68($16)
	.loc 1 100 0
	lw	$3,56($2)
	sw	$3,72($16)
	.loc 1 101 0
	lw	$3,60($2)
	sw	$3,76($16)
	.loc 1 102 0
	lw	$3,64($2)
	sw	$3,80($16)
	.loc 1 103 0
	lw	$3,68($2)
	sw	$3,84($16)
	.loc 1 104 0
	lw	$3,72($2)
	sw	$3,88($16)
	.loc 1 108 0
	lw	$3,80($2)
	sw	$3,116($16)
	.loc 1 109 0
	lw	$3,84($2)
	sw	$3,120($16)
	.loc 1 110 0
	lw	$3,36($2)
	addiu	$3,$3,4
	sw	$3,124($16)
	.loc 1 112 0
	.set	noreorder
	.set	nomacro
	jal	set_current
	move	$4,$2
	.set	macro
	.set	reorder

.LVL17 = .
.LBE4 = .
	.set	noreorder
	.set	nomacro
	b	.L22
	lw	$31,28($sp)
	.set	macro
	.set	reorder

.L17:
	.loc 1 114 0
	.set	noreorder
	.set	nomacro
	bne	$2,$3,.L22
	lw	$31,28($sp)
	.set	macro
	.set	reorder

.LBB5 = .
	.loc 1 115 0
	li	$4,33685504			# 0x2020000
	.set	noreorder
	.set	nomacro
	jal	writeValTo7SegsHex
	addiu	$4,$4,514
	.set	macro
	.set	reorder

.LVL18 = .
	.loc 1 116 0
	lw	$4,12($16)
	lw	$5,16($16)
	.set	noreorder
	.set	nomacro
	jal	create_proc
	lw	$6,20($16)
	.set	macro
	.set	reorder

.LVL19 = .
	.loc 1 117 0
	.set	noreorder
	.set	nomacro
	jal	writeValTo7SegsDec
	move	$4,$2
	.set	macro
	.set	reorder

.LVL20 = .
	.loc 1 119 0
	lw	$2,124($16)
	addiu	$2,$2,4
.LBE5 = .
.LBE3 = .
	.set	noreorder
	.set	nomacro
	b	.L10
	sw	$2,124($16)
	.set	macro
	.set	reorder

.LVL21 = .
.L12:
.LBB10 = .
	.loc 1 123 0
	li	$4,33685504			# 0x2020000
.LVL22 = .
	.set	noreorder
	.set	nomacro
	jal	writeValTo7SegsHex
	addiu	$4,$4,514
	.set	macro
	.set	reorder

.LVL23 = .
	.loc 1 124 0
	.set	noreorder
	.set	nomacro
	b	.L22
	lw	$31,28($sp)
	.set	macro
	.set	reorder

.LVL24 = .
.L15:
	.loc 1 127 0
	li	$4,67371008			# 0x4040000
.LVL25 = .
	.set	noreorder
	.set	nomacro
	jal	writeValTo7SegsHex
	addiu	$4,$4,1028
	.set	macro
	.set	reorder

.LVL26 = .
	.loc 1 128 0
	.set	noreorder
	.set	nomacro
	b	.L22
	lw	$31,28($sp)
	.set	macro
	.set	reorder

.LVL27 = .
.L14:
	.loc 1 133 0
	li	$4,16842752			# 0x1010000
.LVL28 = .
	.set	noreorder
	.set	nomacro
	jal	writeValTo7SegsHex
	addiu	$4,$4,257
	.set	macro
	.set	reorder

.LVL29 = .
	.loc 1 137 0
	li	$2,4095			# 0xfff
 #APP
 # 137 "main.c" 1
	.set push 
.set noreorder
mtc0 $2,$5,0
ehb
.set pop
 # 0 "" 2
.LVL30 = .
	.loc 1 140 0
 #NO_APP
	lw	$16,128($16)
.LVL31 = .
	srl	$16,$16,12
.LVL32 = .
	.loc 1 145 0
	andi	$2,$16,0x1
	bne	$2,$0,.L19
	.loc 1 146 0
	.set	noreorder
	.set	nomacro
	jal	get_ppn_by_vpn
	move	$4,$16
	.set	macro
	.set	reorder

.LVL33 = .
	.loc 1 147 0
	sll	$2,$2,6
.LVL34 = .
	ori	$2,$2,0x7
 #APP
 # 147 "main.c" 1
	.set push 
.set noreorder
mtc0 $2,$2,0
ehb
.set pop
 # 0 "" 2
	.loc 1 148 0
 #NO_APP
	.set	noreorder
	.set	nomacro
	jal	get_ppn_by_vpn
	addiu	$4,$16,1
	.set	macro
	.set	reorder

.LVL35 = .
	.loc 1 149 0
	sll	$2,$2,6
.LVL36 = .
	ori	$2,$2,0x5
 #APP
 # 149 "main.c" 1
	.set push 
.set noreorder
mtc0 $2,$3,0
ehb
.set pop
 # 0 "" 2
 #NO_APP
	.set	noreorder
	.set	nomacro
	b	.L23
	sll	$16,$16,12
	.set	macro
	.set	reorder

.LVL37 = .
.L19:
	.loc 1 152 0
	.set	noreorder
	.set	nomacro
	jal	get_ppn_by_vpn
	addiu	$4,$16,-1
	.set	macro
	.set	reorder

.LVL38 = .
	.loc 1 153 0
	sll	$2,$2,6
.LVL39 = .
	ori	$2,$2,0x5
 #APP
 # 153 "main.c" 1
	.set push 
.set noreorder
mtc0 $2,$2,0
ehb
.set pop
 # 0 "" 2
	.loc 1 154 0
 #NO_APP
	.set	noreorder
	.set	nomacro
	jal	get_ppn_by_vpn
	move	$4,$16
	.set	macro
	.set	reorder

.LVL40 = .
	.loc 1 155 0
	sll	$2,$2,6
.LVL41 = .
	ori	$2,$2,0x7
 #APP
 # 155 "main.c" 1
	.set push 
.set noreorder
mtc0 $2,$3,0
ehb
.set pop
 # 0 "" 2
	.loc 1 159 0
 #NO_APP
	sll	$16,$16,12
.LVL42 = .
.L23:
 #APP
 # 159 "main.c" 1
	.set push 
.set noreorder
mtc0 $16,$10,0
ehb
.set pop
 # 0 "" 2
 #NO_APP
.LBB6 = .
	.loc 1 163 0
 #APP
 # 163 "main.c" 1
	mfc0 $4,$10,0
 # 0 "" 2
 #NO_APP
.LBE6 = .
.LBB7 = .
	.loc 1 164 0
 #APP
 # 164 "main.c" 1
	mfc0 $5,$2,0
 # 0 "" 2
 #NO_APP
.LBE7 = .
.LBB8 = .
	.loc 1 165 0
 #APP
 # 165 "main.c" 1
	mfc0 $6,$3,0
 # 0 "" 2
 #NO_APP
.LBE8 = .
.LBB9 = .
	.loc 1 166 0
 #APP
 # 166 "main.c" 1
	mfc0 $7,$5,0
 # 0 "" 2
 #NO_APP
.LBE9 = .
	.loc 1 162 0
	li	$2,1			# 0x1
	.set	noreorder
	.set	nomacro
	jal	mips_tlbwi2
	sw	$2,16($sp)
	.set	macro
	.set	reorder

.LVL43 = .
	.loc 1 181 0
	.set	noreorder
	.set	nomacro
	b	.L22
	lw	$31,28($sp)
	.set	macro
	.set	reorder

.LVL44 = .
.L11:
	.loc 1 183 0
	.set	noreorder
	.set	nomacro
	jal	__exception_handle
	move	$4,$16
	.set	macro
	.set	reorder

.LVL45 = .
.L10:
.LBE10 = .
	.loc 1 186 0
	lw	$31,28($sp)
.L22:
	lw	$16,24($sp)
	.set	noreorder
	.set	nomacro
	jr	$31
	addiu	$sp,$sp,32
	.set	macro
	.set	reorder

	.cfi_def_cfa_offset 0
	.cfi_restore 16
	.cfi_restore 31
	.end	_mips_handle_exception
	.cfi_endproc
.LFE40:
	.size	_mips_handle_exception, .-_mips_handle_exception

	.comm	pte_p,4,4
.Letext0:
	.file 2 "c:\\progra~1\\imagin~1\\toolch~1\\mips-mti-elf\\2016.05-03\\mips-mti-elf\\include\\mips\\m32tlb.h"
	.file 3 "c:\\progra~1\\imagin~1\\toolch~1\\mips-mti-elf\\2016.05-03\\mips-mti-elf\\include\\mips\\m32c0.h"
	.file 4 "c:\\progra~1\\imagin~1\\toolch~1\\mips-mti-elf\\2016.05-03\\mips-mti-elf\\include\\machine\\_default_types.h"
	.file 5 "c:\\progra~1\\imagin~1\\toolch~1\\mips-mti-elf\\2016.05-03\\mips-mti-elf\\include\\stdint.h"
	.file 6 "c:\\progra~1\\imagin~1\\toolch~1\\mips-mti-elf\\2016.05-03\\mips-mti-elf\\include\\mips\\hal.h"
	.file 7 "c:\\progra~1\\imagin~1\\toolch~1\\mips-mti-elf\\2016.05-03\\lib\\gcc\\mips-mti-elf\\4.9.2\\include\\stddef.h"
	.file 8 "c:\\progra~1\\imagin~1\\toolch~1\\mips-mti-elf\\2016.05-03\\mips-mti-elf\\include\\sys\\types.h"
	.file 9 "./include/types.h"
	.file 10 "./include/task/proc.h"
	.file 11 "./include/mm/vmm.h"
	.file 12 "./include/mm/pmm.h"
	.file 13 "./include/debug.h"
	.file 14 "./include/mm/mm.h"