
program.elf:     file format elf32-tradlittlemips

SYMBOL TABLE:
9fc00000 l    d  .bootrom	00000000 .bootrom
80000000 l    d  .exception_vector	00000000 .exception_vector
80000200 l    d  .text	00000000 .text
80003564 l    d  .init	00000000 .init
80003588 l    d  .fini	00000000 .fini
800035a4 l    d  .eh_frame	00000000 .eh_frame
800035a8 l    d  .jcr	00000000 .jcr
800035ac l    d  .ctors	00000000 .ctors
800035b4 l    d  .dtors	00000000 .dtors
800035c0 l    d  .MIPS.abiflags	00000000 .MIPS.abiflags
800035d8 l    d  .rodata	00000000 .rodata
80003ad0 l    d  .data	00000000 .data
80003f90 l    d  .sdata	00000000 .sdata
80003fa8 l    d  .sbss	00000000 .sbss
80003fd4 l    d  .bss	00000000 .bss
800042a0 l    d  .startdata	00000000 .startdata
00000000 l    d  .debug_aranges	00000000 .debug_aranges
00000000 l    d  .debug_info	00000000 .debug_info
00000000 l    d  .debug_abbrev	00000000 .debug_abbrev
00000000 l    d  .debug_line	00000000 .debug_line
00000000 l    d  .debug_frame	00000000 .debug_frame
00000000 l    d  .debug_str	00000000 .debug_str
00000000 l    d  .debug_loc	00000000 .debug_loc
00000000 l    d  .debug_ranges	00000000 .debug_ranges
00000000 l    d  .mdebug.abi32	00000000 .mdebug.abi32
00000000 l    d  .reginfo	00000000 .reginfo
00000000 l    d  .pdr	00000000 .pdr
00000000 l    d  .gnu.attributes	00000000 .gnu.attributes
00000000 l    d  .comment	00000000 .comment
00000000 l    df *ABS*	00000000 mips_excpt_entry.o
80000000 l       .exception_vector	00000000 __tlb_refill_loop
80000080 l       .exception_vector	00000000 __xtlb_refill_loop
80000100 l       .exception_vector	00000000 __cache_error_loop
00000000 l    df *ABS*	00000000 c:/progra~1/imagin~1/toolch~1/mips-mti-elf/2016.05-03/bin/../lib/gcc/mips-mti-elf/4.9.2/../../../../mips-mti-elf/lib/mipsel-r2-soft-newlib/lib\crt0.o
00000000 l       *ABS*	00000000 ABIFlags_version
00000002 l       *ABS*	00000000 ABIFlags_isa_level
00000003 l       *ABS*	00000000 ABIFlags_isa_rev
00000004 l       *ABS*	00000000 ABIFlags_gpr_size
00000005 l       *ABS*	00000000 ABIFlags_cpr1_size
00000006 l       *ABS*	00000000 ABIFlags_cpr2_size
00000007 l       *ABS*	00000000 ABIFlags_fp_abi
00000008 l       *ABS*	00000000 ABIFlags_isa_ext
0000000c l       *ABS*	00000000 ABIFlags_ases
00000010 l       *ABS*	00000000 ABIFlags_flags1
00000014 l       *ABS*	00000000 ABIFlags_flags2
800046a0 l       .startdata	00000000 __lstack
800046a0 l       .startdata	00000000 __ram_extent
80003ad0 l       .data	00000000 __temp_space
80000320 l     F .text	00000064 zerobss
80000384 l     F .text	000000d4 init
00000000 l    df *ABS*	00000000 crtstuff.c
800035ac l     O .ctors	00000000 __CTOR_LIST__
800035b4 l     O .dtors	00000000 __DTOR_LIST__
800035a4 l     O .eh_frame	00000000 __EH_FRAME_BEGIN__
800035a8 l     O .jcr	00000000 __JCR_LIST__
80000498 l     F .text	00000000 deregister_tm_clones
800004d4 l     F .text	00000000 register_tm_clones
8000051c l     F .text	00000000 __do_global_dtors_aux
80003fd4 l     O .bss	00000001 completed.3449
80003fd8 l     O .bss	00000004 dtor_idx.3451
800005dc l     F .text	00000000 frame_dummy
80003fdc l     O .bss	00000018 object.3461
00000000 l    df *ABS*	00000000 debug.c
00000000 l    df *ABS*	00000000 process/proc.c
800008bc l     F .text	00000020 init_main
800008dc l     F .text	00000064 alloc_proc
80003fb8 l     O .sbss	00000004 nr_process
00000000 l    df *ABS*	00000000 schedule/sched.c
00000000 l    df *ABS*	00000000 mm/pmm.c
00000000 l    df *ABS*	00000000 mm/vmm.c
00000000 l    df *ABS*	00000000 mm/mm.c
00000000 l    df *ABS*	00000000 mm/mm_test.c
00000000 l    df *ABS*	00000000 main.c
00000000 l    df *ABS*	00000000 crtstuff.c
800035b0 l     O .ctors	00000000 __CTOR_END__
800035a4 l     O .eh_frame	00000000 __FRAME_END__
800035a8 l     O .jcr	00000000 __JCR_END__
80001d5c l     F .text	00000000 __do_global_ctors_aux
00000000 l    df *ABS*	00000000 c:/progra~1/imagin~1/toolch~1/mips-mti-elf/2016.05-03/bin/../lib/gcc/mips-mti-elf/4.9.2/mipsel-r2-soft-newlib/lib/crtn.o
8000357c l       .init	00000000 init
80003598 l       .fini	00000000 fini
00000000 l    df *ABS*	00000000 /scratch/mpf/jobs/54395/48094/240198/shared/gcc/newlib/libc/stdlib/atexit.c
00000000 l    df *ABS*	00000000 /scratch/mpf/jobs/54395/48094/240198/shared/gcc/newlib/libc/stdlib/exit.c
00000000 l    df *ABS*	00000000 /scratch/mpf/jobs/54395/48094/240198/shared/gcc/newlib/libc/include/sys/lock.h
80003b08 l     O .data	00000428 impure_data
00000000 l    df *ABS*	00000000 /scratch/mpf/jobs/54395/48094/240198/shared/gcc/newlib/libc/stdlib/__atexit.c
00000000 l    df *ABS*	00000000 /scratch/mpf/jobs/54395/48094/240198/shared/gcc/newlib/libc/stdlib/__call_atexit.c
00000000 l    df *ABS*	00000000 /scratch/mpf/jobs/54395/48094/240198/shared/gcc/libgloss/mips/uhi/uhi_exit.c
00000000 l    df *ABS*	00000000 /scratch/mpf/jobs/54395/48094/240198/shared/gcc/libgloss/mips/uhi/uhi_get_ram_range.c
00000000 l    df *ABS*	00000000 /scratch/mpf/jobs/54395/48094/240198/shared/gcc/libgloss/mips/hal/mips_excpt_handler.c
800027f4 l     F .text	000000c0 putsnds.constprop.0
800028b4 l     F .text	00000008 putsns
00000000 l    df *ABS*	00000000 /scratch/mpf/jobs/54395/48094/240198/shared/gcc/libgloss/mips/uhi/uhi_write.c
00000000 l    df *ABS*	00000000 /scratch/mpf/jobs/54395/48094/240198/shared/gcc/libgloss/mips/uhi/uhi_exception.c
00000000 l    df *ABS*	00000000 /scratch/mpf/jobs/54395/48094/240198/shared/gcc/libgloss/mips/uhi/uhi_indirect.c
00000000 l    df *ABS*	00000000 /scratch/mpf/jobs/54395/48094/240198/shared/gcc/newlib/libc/errno/errno.c
80000fec g     F .text	00000014 get_vpn_from_pte
80001bac g     F .text	00000030 test_vmm
80001094 g     F .text	00000078 get_ppn_by_vpn
800012c4 g     F .text	00000008 is_split_block
80002560 g     F .text	00000088 __exit
80003f9c g     O .sdata	00000004 vmm_page_addr
80003ad0 g       .data	00000000 _fdata
800028bc g     F .text	000006e4 __exception_handle_verbose
80003fc4 g     O .sbss	00000004 pte_p
80000bf0 g     F .text	00000014 wakeup_proc
80003fc0 g     O .sbss	00000004 pid
80003fac g     O .sbss	00000004 tno
8000339c g     F .text	000001c8 __exception_save
8000267c g     F .text	0000004c mips_tlbrwr2
80003390 g     F .text	0000000c __errno
80001000 g     F .text	00000008 get_pid_from_pte
80004158 g     O .bss	00000040 page_alloc_counts
80003fb4 g     O .sbss	00000004 idleproc
800035a4 g       .fini	00000000 _etext
80003fc8 g     O .sbss	00000008 proc_list
8000bf90 g       *ABS*	00000000 _gp
8000156c g     F .text	000000ec vmm_alloc_page
80000cb0 g     F .text	00000040 pmm_alloc_page
80000dbc g     F .text	000001f8 vmm_init
80000d88 g     F .text	0000000c free_pages_count
80001e08 g     F .text	0000039c memcpy
80003f90 g     O .sdata	00000000 .hidden __TMC_END__
80001850 g     F .text	00000134 kfree
00000020 g       *ABS*	00000000 __isr_vec_space
800035b8 g     O .dtors	00000000 .hidden __DTOR_END__
80003f98 g     O .sdata	00000004 pmm_stack_top
00000000  w      *UND*	00000000 malloc
80003fbc g     O .sbss	00000004 index_
800011e0 g     F .text	0000001c set_page_allocated
80001b58 g     F .text	00000008 test_free_memory
8000110c g     F .text	00000034 get_phy_addr_by_vir_addr
80003fd4 g       .bss	00000000 _bss_start
80003224  w    F .text	00000018 __get_startup_BEV
80003f90 g     O .sdata	00000000 .hidden __dso_handle
00000000 g       *ABS*	00000000 __DYNAMIC
80003338 g     F .text	00000014 __uhi_exception
80001228 g     F .text	0000009c get_page_status
80001b6c g     F .text	00000040 test_pmm
00000001 g       *ABS*	00000000 __use_excpt_boot
80001658 g     F .text	0000001c vmm_free_page
8000339c  w    F .text	000001c8 _mips_xtlb_refill
800007d4 g     F .text	000000c8 writeValTo7SegsHex
800006c0 g     F .text	00000010 led_red
80003fa0 g     O .sdata	00000004 _global_impure_ptr
80001c0c g     F .text	00000150 _mips_handle_exception
800025e8 g     F .text	0000004c _get_ram_range
80000c04 g     F .text	000000ac schedule
80003050  w    F .text	0000007c __register_excpt_boot
80000640 g     F .text	00000064 switch_to
80003564 g     F .init	00000000 _init
80000fe4 g     F .text	00000008 get_ppn_from_pte
800032e8 g     F .text	00000050 write
800012cc g     F .text	00000064 get_suitable_block_from_pte
80000940 g     F .text	0000004c set_proc_name
80003f94 g     O .sdata	00000004 phy_page_count
00000000  w      *UND*	00000000 __deregister_frame_info
80002fa0  w    F .text	000000b0 __register_excpt_handler
00000000  w      *UND*	00000000 _ITM_registerTMCloneTable
800026c8 g     F .text	00000038 mips_tlbri2
800023e0 g     F .text	00000180 __call_exitprocs
8000265c g     F .text	00000020 mips_tlbwr2
80000000 g       *ABS*	00000000 __app_start
80000000 g       *ABS*	00000000 __flash_app_start
80000200 g       .text	00000000 _ftext
80000204 g     F .text	0000011c _start
00000000 g     F *ABS*	00000000 hardware_hazard_hook
800022d0 g     F .text	00000110 __register_exitproc
80004030 g     O .bss	00000074 block_flag
800013e4 g     F .text	00000094 free_block
80003fb0 g     O .sbss	00000004 current
80003f7c g     O .data	00000020 __MIPS_UHI_BAD_POINTER
00000000 g     F *ABS*	00000000 software_init_hook
8000275c g     F .text	00000098 mips_tlbinval
80003fd0 g     O .sbss	00000004 idx
80000fb4 g     F .text	00000028 set_vpn_to_pte
00000001 g       *ABS*	00000000 __flush_to_zero
80000000 g       *ABS*	00000000 __excpt_ebase
80000ba0 g     F .text	00000050 cpu_idle
8000167c g     F .text	00000050 mm_init
00000000  w      *UND*	00000000 _ITM_deregisterTMCloneTable
80001674 g     F .text	00000008 addr_to_ptr
80001008 g     F .text	00000084 get_pte_by_page_addr
80000000 g       *ABS*	00000000 __memory_base
8000108c g     F .text	00000008 get_vpn_from_page_addr
80000d94 g     F .text	00000028 set_ppn_to_pte
800021a4 g     F .text	0000012c memset
80001bdc g     F .text	00000030 main
80000cf0 g     F .text	0000003c pmm_free_page
80003f34 g     O .data	00000000 __start_ctx
8000098c g     F .text	00000008 set_current
8000071c g     F .text	000000b8 writeValTo7SegsDec
00000000 g     F *ABS*	00000000 hardware_init_hook
80003adc g     O .data	00000028 alloc_size
80001330 g     F .text	00000048 up_round
800028bc g     F .text	00000000 __exception_handle
80000204 g     F .text	00000000 __entry
80001478 g     F .text	000000f4 find_block
800040e0 g     O .bss	00000078 pmm_stack
8000063c  w    F .text	00000004 __getargs
80002634 g     F .text	00000028 mips_tlbwi2
800006d0 g     F .text	0000004c delay
80001984 g     F .text	0000015c test_alloc_memory
80003588 g     F .fini	00000000 _fini
00000000       F *UND*	00000000 _get_ram_info
80004198 g     O .bss	00000100 page_alloc_addrs
80001da4 g     F .text	00000028 atexit
8000339c  w    F .text	000001c8 _mips_general_exception
80000d2c g     F .text	0000005c pmm_init
80002700 g     F .text	0000005c mips_tlbprobe2
8000316c  w    F .text	000000b8 __chain_uhi_excpt
800011fc g     F .text	0000001c set_page_reserved
80003fa4 g     O .sdata	00000004 _impure_ptr
80001ae0 g     F .text	00000078 test_rw_memory
80003ff4 g     O .bss	0000003a block_size
80003fa8 g     O .sbss	00000004 value_global
00000000 g     F *ABS*	00000000 hardware_exit_hook
80001218 g     F .text	00000010 get_page_status_from_pte
8000339c  w    F .text	000001c8 _mips_tlb_refill
00000000  w      *UND*	00000000 _mips_cache_error
80040000 g     O *ABS*	00000000 __stack
80000000 g     F .exception_vector	00000194 __exception_entry
8000089c g     F .text	00000020 writeValTo7SegsHex1
80000000 g       .exception_vector	00000000 __base
80003fa8 g       .sbss	00000000 _edata
bfc00000 g       *ABS*	00000000 __flash_start
80004298 g       .bss	00000000 _end
8000334c g     F .text	00000044 __uhi_indirect
0001f800 g       *ABS*	00000000 __memory_size
800040a4 g     O .bss	0000003a block_offset
800016cc g     F .text	00000184 kmalloc
80003f30 g     O .data	00000004 __first_boot
80001140 g     F .text	00000084 set_page_status
80001dcc g     F .text	0000003c exit
80000994 g     F .text	0000006c proc_run
800011c4 g     F .text	0000001c set_page_unallocated
80000a00 g     F .text	000000d4 create_proc
80000458 g     F .text	00000040 _exit
8000bf90 g       *ABS*	00000000 __global
800032cc g     F .text	0000001c strlen
80001b60 g     F .text	0000000c test_global_variable
8000063c  w    F .text	00000000 __isr_vec
80000fdc g     F .text	00000008 get_ppn_from_page_addr
00000000  w      *UND*	00000000 _Jv_RegisterClasses
00000000 g       *ABS*	00000000 __isr_vec_count
8000323c  w    F .text	00000090 __convert_argv_pointers
800035d8 g       .MIPS.abiflags	00000000 __MIPS_abiflags_end
80003fa8 g       .sbss	00000000 _fbss
00000000  w      *UND*	00000000 __register_frame_info
800030cc  w    F .text	000000a0 __return_to_boot
80001378 g     F .text	0000006c alloc_block
80000ad4 g     F .text	000000cc proc_init
800035c0 g       .MIPS.abiflags	00000000 __MIPS_abiflags_start
00000000  w      *UND*	00000000 free



Disassembly of section .exception_vector:

80000000 <__exception_entry>:
/scratch/mpf/jobs/54395/48094/240198/shared/gcc/libgloss/mips/hal/mips_excpt_entry.S:68
80000000:	3c1b8000 	lui	k1,0x8000
80000004:	277b3f30 	addiu	k1,k1,16176
/scratch/mpf/jobs/54395/48094/240198/shared/gcc/libgloss/mips/hal/mips_excpt_entry.S:69
80000008:	8f7b0000 	lw	k1,0(k1)
/scratch/mpf/jobs/54395/48094/240198/shared/gcc/libgloss/mips/hal/mips_excpt_entry.S:70
8000000c:	13600003 	beqz	k1,8000001c <__exception_entry+0x1c>
80000010:	00000000 	nop
/scratch/mpf/jobs/54395/48094/240198/shared/gcc/libgloss/mips/hal/mips_excpt_entry.S:73
80000014:	08000081 	j	80000204 <__entry>
80000018:	00000000 	nop
/scratch/mpf/jobs/54395/48094/240198/shared/gcc/libgloss/mips/hal/mips_excpt_entry.S:75
8000001c:	3c1b8000 	lui	k1,0x8000
80000020:	277b339c 	addiu	k1,k1,13212
/scratch/mpf/jobs/54395/48094/240198/shared/gcc/libgloss/mips/hal/mips_excpt_entry.S:76
80000024:	1360fff6 	beqz	k1,80000000 <__exception_entry>
80000028:	00000000 	nop
/scratch/mpf/jobs/54395/48094/240198/shared/gcc/libgloss/mips/hal/mips_excpt_entry.S:77
8000002c:	03600008 	jr	k1
80000030:	00000000 	nop
	...

80000080 <__xtlb_refill_loop>:
/scratch/mpf/jobs/54395/48094/240198/shared/gcc/libgloss/mips/hal/mips_excpt_entry.S:83
80000080:	3c1b8000 	lui	k1,0x8000
80000084:	277b339c 	addiu	k1,k1,13212
/scratch/mpf/jobs/54395/48094/240198/shared/gcc/libgloss/mips/hal/mips_excpt_entry.S:84
80000088:	1360fffd 	beqz	k1,80000080 <__xtlb_refill_loop>
8000008c:	00000000 	nop
/scratch/mpf/jobs/54395/48094/240198/shared/gcc/libgloss/mips/hal/mips_excpt_entry.S:85
80000090:	03600008 	jr	k1
80000094:	00000000 	nop
	...

80000100 <__cache_error_loop>:
/scratch/mpf/jobs/54395/48094/240198/shared/gcc/libgloss/mips/hal/mips_excpt_entry.S:90
80000100:	3c1b0000 	lui	k1,0x0
80000104:	277b0000 	addiu	k1,k1,0
/scratch/mpf/jobs/54395/48094/240198/shared/gcc/libgloss/mips/hal/mips_excpt_entry.S:91
80000108:	1360fffd 	beqz	k1,80000100 <__cache_error_loop>
8000010c:	00000000 	nop
/scratch/mpf/jobs/54395/48094/240198/shared/gcc/libgloss/mips/hal/mips_excpt_entry.S:92
80000110:	03600008 	jr	k1
80000114:	00000000 	nop
	...
/scratch/mpf/jobs/54395/48094/240198/shared/gcc/libgloss/mips/hal/mips_excpt_entry.S:96
80000180:	afbbffc8 	sw	k1,-56(sp)
/scratch/mpf/jobs/54395/48094/240198/shared/gcc/libgloss/mips/hal/mips_excpt_entry.S:99
80000184:	3c1b8000 	lui	k1,0x8000
80000188:	277b339c 	addiu	k1,k1,13212
/scratch/mpf/jobs/54395/48094/240198/shared/gcc/libgloss/mips/hal/mips_excpt_entry.S:100
8000018c:	03600008 	jr	k1
80000190:	00000000 	nop
	...

Disassembly of section .text:

80000200 <_ftext>:
/scratch/mpf/jobs/54395/48094/240198/shared/gcc/libgloss/mips/hal/crt0.S:78
80000200:	00000000 	nop

80000204 <__entry>:
/scratch/mpf/jobs/54395/48094/240198/shared/gcc/libgloss/mips/hal/crt0.S:111
80000204:	3c088000 	lui	t0,0x8000
80000208:	25083ad0 	addiu	t0,t0,15056
/scratch/mpf/jobs/54395/48094/240198/shared/gcc/libgloss/mips/hal/crt0.S:112
8000020c:	ad040000 	sw	a0,0(t0)
/scratch/mpf/jobs/54395/48094/240198/shared/gcc/libgloss/mips/hal/crt0.S:113
80000210:	ad050004 	sw	a1,4(t0)
/scratch/mpf/jobs/54395/48094/240198/shared/gcc/libgloss/mips/hal/crt0.S:121
80000214:	ad060008 	sw	a2,8(t0)
80000218:	3c198000 	lui	t9,0x8000
8000021c:	27392fa0 	addiu	t9,t9,12192
/scratch/mpf/jobs/54395/48094/240198/shared/gcc/libgloss/mips/hal/crt0.S:122
80000220:	13200006 	beqz	t9,8000023c <__entry+0x38>
80000224:	00000000 	nop
/scratch/mpf/jobs/54395/48094/240198/shared/gcc/libgloss/mips/hal/crt0.S:123
80000228:	03e02025 	move	a0,ra
/scratch/mpf/jobs/54395/48094/240198/shared/gcc/libgloss/mips/hal/crt0.S:124
8000022c:	0320f809 	jalr	t9
80000230:	00000000 	nop
/scratch/mpf/jobs/54395/48094/240198/shared/gcc/libgloss/mips/hal/crt0.S:125
80000234:	10000004 	b	80000248 <__entry+0x44>
80000238:	00000000 	nop
/scratch/mpf/jobs/54395/48094/240198/shared/gcc/libgloss/mips/hal/crt0.S:128
8000023c:	40806800 	mtc0	zero,c0_cause
/scratch/mpf/jobs/54395/48094/240198/shared/gcc/libgloss/mips/hal/crt0.S:129
80000240:	00000000 	nop
/scratch/mpf/jobs/54395/48094/240198/shared/gcc/libgloss/mips/hal/crt0.S:130
80000244:	00001025 	move	v0,zero
/scratch/mpf/jobs/54395/48094/240198/shared/gcc/libgloss/mips/hal/crt0.S:136
80000248:	3c088000 	lui	t0,0x8000
8000024c:	250835c0 	addiu	t0,t0,13760
/scratch/mpf/jobs/54395/48094/240198/shared/gcc/libgloss/mips/hal/crt0.S:137
80000250:	3c098000 	lui	t1,0x8000
80000254:	252935d8 	addiu	t1,t1,13784
/scratch/mpf/jobs/54395/48094/240198/shared/gcc/libgloss/mips/hal/crt0.S:138
80000258:	2529ffe8 	addiu	t1,t1,-24
/scratch/mpf/jobs/54395/48094/240198/shared/gcc/libgloss/mips/hal/crt0.S:142
8000025c:	15090021 	bne	t0,t1,800002e4 <__entry+0xe0>
80000260:	00000000 	nop
/scratch/mpf/jobs/54395/48094/240198/shared/gcc/libgloss/mips/hal/crt0.S:145
80000264:	91090002 	lbu	t1,2(t0)
/scratch/mpf/jobs/54395/48094/240198/shared/gcc/libgloss/mips/hal/crt0.S:146
80000268:	2d230003 	sltiu	v1,t1,3
/scratch/mpf/jobs/54395/48094/240198/shared/gcc/libgloss/mips/hal/crt0.S:148
8000026c:	10600003 	beqz	v1,8000027c <__entry+0x78>
80000270:	39290040 	xori	t1,t1,0x40
/scratch/mpf/jobs/54395/48094/240198/shared/gcc/libgloss/mips/hal/crt0.S:149
80000274:	3c030010 	lui	v1,0x10
/scratch/mpf/jobs/54395/48094/240198/shared/gcc/libgloss/mips/hal/crt0.S:150
80000278:	00431025 	or	v0,v0,v1
/scratch/mpf/jobs/54395/48094/240198/shared/gcc/libgloss/mips/hal/crt0.S:153
8000027c:	15200002 	bnez	t1,80000288 <__entry+0x84>
80000280:	240300e0 	li	v1,224
/scratch/mpf/jobs/54395/48094/240198/shared/gcc/libgloss/mips/hal/crt0.S:154
80000284:	00431025 	or	v0,v0,v1
/scratch/mpf/jobs/54395/48094/240198/shared/gcc/libgloss/mips/hal/crt0.S:157
80000288:	8d09000c 	lw	t1,12(t0)
/scratch/mpf/jobs/54395/48094/240198/shared/gcc/libgloss/mips/hal/crt0.S:158
8000028c:	31290013 	andi	t1,t1,0x13
/scratch/mpf/jobs/54395/48094/240198/shared/gcc/libgloss/mips/hal/crt0.S:160
80000290:	11200002 	beqz	t1,8000029c <__entry+0x98>
80000294:	3c030100 	lui	v1,0x100
/scratch/mpf/jobs/54395/48094/240198/shared/gcc/libgloss/mips/hal/crt0.S:161
80000298:	00431025 	or	v0,v0,v1
/scratch/mpf/jobs/54395/48094/240198/shared/gcc/libgloss/mips/hal/crt0.S:164
8000029c:	91090007 	lbu	t1,7(t0)
/scratch/mpf/jobs/54395/48094/240198/shared/gcc/libgloss/mips/hal/crt0.S:165
800002a0:	39290003 	xori	t1,t1,0x3
/scratch/mpf/jobs/54395/48094/240198/shared/gcc/libgloss/mips/hal/crt0.S:167
800002a4:	11200010 	beqz	t1,800002e8 <__entry+0xe4>
800002a8:	3c032000 	lui	v1,0x2000
/scratch/mpf/jobs/54395/48094/240198/shared/gcc/libgloss/mips/hal/crt0.S:168
800002ac:	00431025 	or	v0,v0,v1
/scratch/mpf/jobs/54395/48094/240198/shared/gcc/libgloss/mips/hal/crt0.S:171
800002b0:	91090005 	lbu	t1,5(t0)
/scratch/mpf/jobs/54395/48094/240198/shared/gcc/libgloss/mips/hal/crt0.S:172
800002b4:	39290002 	xori	t1,t1,0x2
/scratch/mpf/jobs/54395/48094/240198/shared/gcc/libgloss/mips/hal/crt0.S:174
800002b8:	15200002 	bnez	t1,800002c4 <__entry+0xc0>
800002bc:	3c030400 	lui	v1,0x400
/scratch/mpf/jobs/54395/48094/240198/shared/gcc/libgloss/mips/hal/crt0.S:175
800002c0:	00431025 	or	v0,v0,v1
/scratch/mpf/jobs/54395/48094/240198/shared/gcc/libgloss/mips/hal/crt0.S:178
800002c4:	8d09000c 	lw	t1,12(t0)
/scratch/mpf/jobs/54395/48094/240198/shared/gcc/libgloss/mips/hal/crt0.S:179
800002c8:	31290200 	andi	t1,t1,0x200
/scratch/mpf/jobs/54395/48094/240198/shared/gcc/libgloss/mips/hal/crt0.S:181
800002cc:	11200006 	beqz	t1,800002e8 <__entry+0xe4>
800002d0:	3c030400 	lui	v1,0x400
/scratch/mpf/jobs/54395/48094/240198/shared/gcc/libgloss/mips/hal/crt0.S:182
800002d4:	00431025 	or	v0,v0,v1
/scratch/mpf/jobs/54395/48094/240198/shared/gcc/libgloss/mips/hal/crt0.S:183
800002d8:	3c030800 	lui	v1,0x800
/scratch/mpf/jobs/54395/48094/240198/shared/gcc/libgloss/mips/hal/crt0.S:188
800002dc:	10000002 	b	800002e8 <__entry+0xe4>
800002e0:	40838005 	mtc0	v1,$16,5
/scratch/mpf/jobs/54395/48094/240198/shared/gcc/libgloss/mips/hal/crt0.S:194
800002e4:	24020000 	li	v0,0
/scratch/mpf/jobs/54395/48094/240198/shared/gcc/libgloss/mips/hal/crt0.S:201
800002e8:	40826000 	mtc0	v0,c0_status
/scratch/mpf/jobs/54395/48094/240198/shared/gcc/libgloss/mips/hal/crt0.S:202
800002ec:	00000000 	nop
/scratch/mpf/jobs/54395/48094/240198/shared/gcc/libgloss/mips/hal/crt0.S:205
800002f0:	3c080000 	lui	t0,0x0
800002f4:	25080000 	addiu	t0,t0,0
/scratch/mpf/jobs/54395/48094/240198/shared/gcc/libgloss/mips/hal/crt0.S:206
800002f8:	11000003 	beqz	t0,80000308 <__entry+0x104>
800002fc:	00000000 	nop
/scratch/mpf/jobs/54395/48094/240198/shared/gcc/libgloss/mips/hal/crt0.S:207
80000300:	0100f809 	jalr	t0
/scratch/mpf/jobs/54395/48094/240198/shared/gcc/libgloss/mips/hal/crt0.S:213
80000304:	00000000 	nop
80000308:	3c028000 	lui	v0,0x8000
8000030c:	24420318 	addiu	v0,v0,792
/scratch/mpf/jobs/54395/48094/240198/shared/gcc/libgloss/mips/hal/crt0.S:214
80000310:	00400008 	jr	v0
80000314:	00000000 	nop
/scratch/mpf/jobs/54395/48094/240198/shared/gcc/libgloss/mips/hal/crt0.S:216
80000318:	3c1c8001 	lui	gp,0x8001
/scratch/mpf/jobs/54395/48094/240198/shared/gcc/libgloss/mips/hal/crt0.S:227
8000031c:	279cbf90 	addiu	gp,gp,-16496

80000320 <zerobss>:
80000320:	3c028000 	lui	v0,0x8000
80000324:	24423fa8 	addiu	v0,v0,16296
/scratch/mpf/jobs/54395/48094/240198/shared/gcc/libgloss/mips/hal/crt0.S:228
80000328:	3c038000 	lui	v1,0x8000
8000032c:	24634298 	addiu	v1,v1,17048
/scratch/mpf/jobs/54395/48094/240198/shared/gcc/libgloss/mips/hal/crt0.S:229
80000330:	10430004 	beq	v0,v1,80000344 <zerobss+0x24>
80000334:	00000000 	nop
/scratch/mpf/jobs/54395/48094/240198/shared/gcc/libgloss/mips/hal/crt0.S:231
80000338:	24420004 	addiu	v0,v0,4
/scratch/mpf/jobs/54395/48094/240198/shared/gcc/libgloss/mips/hal/crt0.S:233
8000033c:	1443fffe 	bne	v0,v1,80000338 <zerobss+0x18>
80000340:	ac40fffc 	sw	zero,-4(v0)
/scratch/mpf/jobs/54395/48094/240198/shared/gcc/libgloss/mips/hal/crt0.S:236
80000344:	3c088004 	lui	t0,0x8004
80000348:	25080000 	addiu	t0,t0,0
/scratch/mpf/jobs/54395/48094/240198/shared/gcc/libgloss/mips/hal/crt0.S:237
8000034c:	1500000b 	bnez	t0,8000037c <zerobss+0x5c>
80000350:	00000000 	nop
/scratch/mpf/jobs/54395/48094/240198/shared/gcc/libgloss/mips/hal/crt0.S:239
80000354:	3c1d8000 	lui	sp,0x8000
80000358:	27bd46a0 	addiu	sp,sp,18080
/scratch/mpf/jobs/54395/48094/240198/shared/gcc/libgloss/mips/hal/crt0.S:241
8000035c:	24040000 	li	a0,0
/scratch/mpf/jobs/54395/48094/240198/shared/gcc/libgloss/mips/hal/crt0.S:242
80000360:	3c058000 	lui	a1,0x8000
/scratch/mpf/jobs/54395/48094/240198/shared/gcc/libgloss/mips/hal/crt0.S:243
80000364:	0c00097a 	jal	800025e8 <_get_ram_range>
80000368:	24a546a0 	addiu	a1,a1,18080
/scratch/mpf/jobs/54395/48094/240198/shared/gcc/libgloss/mips/hal/crt0.S:246
8000036c:	3c048000 	lui	a0,0x8000
80000370:	248446a0 	addiu	a0,a0,18080
/scratch/mpf/jobs/54395/48094/240198/shared/gcc/libgloss/mips/hal/crt0.S:247
80000374:	8c880000 	lw	t0,0(a0)
/scratch/mpf/jobs/54395/48094/240198/shared/gcc/libgloss/mips/hal/crt0.S:248
80000378:	8d00fffc 	lw	zero,-4(t0)
/scratch/mpf/jobs/54395/48094/240198/shared/gcc/libgloss/mips/hal/crt0.S:253
8000037c:	2508ffc0 	addiu	t0,t0,-64
/scratch/mpf/jobs/54395/48094/240198/shared/gcc/libgloss/mips/hal/crt0.S:269
80000380:	0100e825 	move	sp,t0

80000384 <init>:
80000384:	3c190000 	lui	t9,0x0
80000388:	27390000 	addiu	t9,t9,0
/scratch/mpf/jobs/54395/48094/240198/shared/gcc/libgloss/mips/hal/crt0.S:270
8000038c:	13200003 	beqz	t9,8000039c <init+0x18>
80000390:	00000000 	nop
/scratch/mpf/jobs/54395/48094/240198/shared/gcc/libgloss/mips/hal/crt0.S:271
80000394:	0320f809 	jalr	t9
80000398:	00000000 	nop
/scratch/mpf/jobs/54395/48094/240198/shared/gcc/libgloss/mips/hal/crt0.S:273
8000039c:	3c190000 	lui	t9,0x0
800003a0:	27390000 	addiu	t9,t9,0
/scratch/mpf/jobs/54395/48094/240198/shared/gcc/libgloss/mips/hal/crt0.S:274
800003a4:	13200003 	beqz	t9,800003b4 <init+0x30>
800003a8:	00000000 	nop
/scratch/mpf/jobs/54395/48094/240198/shared/gcc/libgloss/mips/hal/crt0.S:275
800003ac:	0320f809 	jalr	t9
800003b0:	00000000 	nop
/scratch/mpf/jobs/54395/48094/240198/shared/gcc/libgloss/mips/hal/crt0.S:277
800003b4:	3c048000 	lui	a0,0x8000
800003b8:	24843588 	addiu	a0,a0,13704
/scratch/mpf/jobs/54395/48094/240198/shared/gcc/libgloss/mips/hal/crt0.S:278
800003bc:	0c000769 	jal	80001da4 <atexit>
800003c0:	00000000 	nop
/scratch/mpf/jobs/54395/48094/240198/shared/gcc/libgloss/mips/hal/crt0.S:288
800003c4:	0c000d59 	jal	80003564 <_init>
800003c8:	00000000 	nop
/scratch/mpf/jobs/54395/48094/240198/shared/gcc/libgloss/mips/hal/crt0.S:291
800003cc:	3c088000 	lui	t0,0x8000
800003d0:	25083ad0 	addiu	t0,t0,15056
/scratch/mpf/jobs/54395/48094/240198/shared/gcc/libgloss/mips/hal/crt0.S:292
800003d4:	8d040000 	lw	a0,0(t0)
/scratch/mpf/jobs/54395/48094/240198/shared/gcc/libgloss/mips/hal/crt0.S:293
800003d8:	8d050004 	lw	a1,4(t0)
/scratch/mpf/jobs/54395/48094/240198/shared/gcc/libgloss/mips/hal/crt0.S:294
800003dc:	8d060008 	lw	a2,8(t0)
/scratch/mpf/jobs/54395/48094/240198/shared/gcc/libgloss/mips/hal/crt0.S:298
800003e0:	3c088000 	lui	t0,0x8000
800003e4:	2508323c 	addiu	t0,t0,12860
/scratch/mpf/jobs/54395/48094/240198/shared/gcc/libgloss/mips/hal/crt0.S:299
800003e8:	11000003 	beqz	t0,800003f8 <init+0x74>
800003ec:	00000000 	nop
/scratch/mpf/jobs/54395/48094/240198/shared/gcc/libgloss/mips/hal/crt0.S:300
800003f0:	0100f809 	jalr	t0
800003f4:	00000000 	nop
/scratch/mpf/jobs/54395/48094/240198/shared/gcc/libgloss/mips/hal/crt0.S:303
800003f8:	1c800013 	bgtz	a0,80000448 <init+0xc4>
800003fc:	00000000 	nop
/scratch/mpf/jobs/54395/48094/240198/shared/gcc/libgloss/mips/hal/crt0.S:305
80000400:	1080000c 	beqz	a0,80000434 <init+0xb0>
80000404:	00000000 	nop
/scratch/mpf/jobs/54395/48094/240198/shared/gcc/libgloss/mips/hal/crt0.S:308
80000408:	2884ffff 	slti	a0,a0,-1
/scratch/mpf/jobs/54395/48094/240198/shared/gcc/libgloss/mips/hal/crt0.S:309
8000040c:	14800009 	bnez	a0,80000434 <init+0xb0>
80000410:	00000000 	nop
/scratch/mpf/jobs/54395/48094/240198/shared/gcc/libgloss/mips/hal/crt0.S:313
80000414:	3c088000 	lui	t0,0x8000
80000418:	2508063c 	addiu	t0,t0,1596
/scratch/mpf/jobs/54395/48094/240198/shared/gcc/libgloss/mips/hal/crt0.S:314
8000041c:	11000005 	beqz	t0,80000434 <init+0xb0>
80000420:	00000000 	nop
/scratch/mpf/jobs/54395/48094/240198/shared/gcc/libgloss/mips/hal/crt0.S:315
80000424:	0100f809 	jalr	t0
80000428:	00000000 	nop
/scratch/mpf/jobs/54395/48094/240198/shared/gcc/libgloss/mips/hal/crt0.S:316
8000042c:	10000006 	b	80000448 <init+0xc4>
80000430:	00000000 	nop
/scratch/mpf/jobs/54395/48094/240198/shared/gcc/libgloss/mips/hal/crt0.S:319
80000434:	00002025 	move	a0,zero
/scratch/mpf/jobs/54395/48094/240198/shared/gcc/libgloss/mips/hal/crt0.S:320
80000438:	27a50020 	addiu	a1,sp,32
/scratch/mpf/jobs/54395/48094/240198/shared/gcc/libgloss/mips/hal/crt0.S:321
8000043c:	27a60028 	addiu	a2,sp,40
/scratch/mpf/jobs/54395/48094/240198/shared/gcc/libgloss/mips/hal/crt0.S:322
80000440:	aca00000 	sw	zero,0(a1)
/scratch/mpf/jobs/54395/48094/240198/shared/gcc/libgloss/mips/hal/crt0.S:323
80000444:	acc00000 	sw	zero,0(a2)
/scratch/mpf/jobs/54395/48094/240198/shared/gcc/libgloss/mips/hal/crt0.S:326
80000448:	0c0006f7 	jal	80001bdc <main>
8000044c:	00000000 	nop
/scratch/mpf/jobs/54395/48094/240198/shared/gcc/libgloss/mips/hal/crt0.S:330
80000450:	0c000773 	jal	80001dcc <exit>
80000454:	00402025 	move	a0,v0

80000458 <_exit>:
/scratch/mpf/jobs/54395/48094/240198/shared/gcc/libgloss/mips/hal/crt0.S:355
80000458:	3c088000 	lui	t0,0x8000
8000045c:	25083ad0 	addiu	t0,t0,15056
/scratch/mpf/jobs/54395/48094/240198/shared/gcc/libgloss/mips/hal/crt0.S:356
80000460:	ad040000 	sw	a0,0(t0)
/scratch/mpf/jobs/54395/48094/240198/shared/gcc/libgloss/mips/hal/crt0.S:373
80000464:	3c080000 	lui	t0,0x0
80000468:	25080000 	addiu	t0,t0,0
/scratch/mpf/jobs/54395/48094/240198/shared/gcc/libgloss/mips/hal/crt0.S:374
8000046c:	11000003 	beqz	t0,8000047c <_exit+0x24>
80000470:	00000000 	nop
/scratch/mpf/jobs/54395/48094/240198/shared/gcc/libgloss/mips/hal/crt0.S:375
80000474:	0100f809 	jalr	t0
80000478:	00000000 	nop
/scratch/mpf/jobs/54395/48094/240198/shared/gcc/libgloss/mips/hal/crt0.S:379
8000047c:	3c088000 	lui	t0,0x8000
80000480:	25083ad0 	addiu	t0,t0,15056
/scratch/mpf/jobs/54395/48094/240198/shared/gcc/libgloss/mips/hal/crt0.S:383
80000484:	0c000958 	jal	80002560 <__exit>
80000488:	8d040000 	lw	a0,0(t0)
/scratch/mpf/jobs/54395/48094/240198/shared/gcc/libgloss/mips/hal/crt0.S:386
8000048c:	03ff000d 	break	0x3ff
/scratch/mpf/jobs/54395/48094/240198/shared/gcc/libgloss/mips/hal/crt0.S:387
80000490:	1000fff1 	b	80000458 <_exit>
80000494:	00000000 	nop

80000498 <deregister_tm_clones>:
deregister_tm_clones():
80000498:	3c048000 	lui	a0,0x8000
8000049c:	3c028000 	lui	v0,0x8000
800004a0:	24843f90 	addiu	a0,a0,16272
800004a4:	24423f93 	addiu	v0,v0,16275
800004a8:	00441023 	subu	v0,v0,a0
800004ac:	2c420007 	sltiu	v0,v0,7
800004b0:	14400006 	bnez	v0,800004cc <deregister_tm_clones+0x34>
800004b4:	3c190000 	lui	t9,0x0
800004b8:	27390000 	addiu	t9,t9,0
800004bc:	13200003 	beqz	t9,800004cc <deregister_tm_clones+0x34>
800004c0:	00000000 	nop
800004c4:	03200008 	jr	t9
800004c8:	00000000 	nop
800004cc:	03e00008 	jr	ra
800004d0:	00000000 	nop

800004d4 <register_tm_clones>:
register_tm_clones():
800004d4:	3c048000 	lui	a0,0x8000
800004d8:	3c028000 	lui	v0,0x8000
800004dc:	24843f90 	addiu	a0,a0,16272
800004e0:	24423f90 	addiu	v0,v0,16272
800004e4:	00441023 	subu	v0,v0,a0
800004e8:	00021083 	sra	v0,v0,0x2
800004ec:	00022fc2 	srl	a1,v0,0x1f
800004f0:	00a22821 	addu	a1,a1,v0
800004f4:	00052843 	sra	a1,a1,0x1
800004f8:	10a00006 	beqz	a1,80000514 <register_tm_clones+0x40>
800004fc:	3c190000 	lui	t9,0x0
80000500:	27390000 	addiu	t9,t9,0
80000504:	13200003 	beqz	t9,80000514 <register_tm_clones+0x40>
80000508:	00000000 	nop
8000050c:	03200008 	jr	t9
80000510:	00000000 	nop
80000514:	03e00008 	jr	ra
80000518:	00000000 	nop

8000051c <__do_global_dtors_aux>:
__do_global_dtors_aux():
8000051c:	27bdffd8 	addiu	sp,sp,-40
80000520:	afb10018 	sw	s1,24(sp)
80000524:	3c118000 	lui	s1,0x8000
80000528:	afbf0024 	sw	ra,36(sp)
8000052c:	afb30020 	sw	s3,32(sp)
80000530:	afb2001c 	sw	s2,28(sp)
80000534:	afb00014 	sw	s0,20(sp)
80000538:	92223fd4 	lbu	v0,16340(s1)
8000053c:	14400020 	bnez	v0,800005c0 <__do_global_dtors_aux+0xa4>
80000540:	3c028000 	lui	v0,0x8000
80000544:	3c108000 	lui	s0,0x8000
80000548:	244235b4 	addiu	v0,v0,13748
8000054c:	261035b8 	addiu	s0,s0,13752
80000550:	3c138000 	lui	s3,0x8000
80000554:	02028023 	subu	s0,s0,v0
80000558:	00409025 	move	s2,v0
8000055c:	00108083 	sra	s0,s0,0x2
80000560:	2610ffff 	addiu	s0,s0,-1
80000564:	8e623fd8 	lw	v0,16344(s3)
80000568:	0050182b 	sltu	v1,v0,s0
8000056c:	10600009 	beqz	v1,80000594 <__do_global_dtors_aux+0x78>
80000570:	24420001 	addiu	v0,v0,1
80000574:	ae623fd8 	sw	v0,16344(s3)
80000578:	00021080 	sll	v0,v0,0x2
8000057c:	02421021 	addu	v0,s2,v0
80000580:	8c420000 	lw	v0,0(v0)
80000584:	0040f809 	jalr	v0
80000588:	00000000 	nop
8000058c:	1000fff6 	b	80000568 <__do_global_dtors_aux+0x4c>
80000590:	8e623fd8 	lw	v0,16344(s3)
80000594:	0c000126 	jal	80000498 <deregister_tm_clones>
80000598:	00000000 	nop
8000059c:	3c020000 	lui	v0,0x0
800005a0:	24420000 	addiu	v0,v0,0
800005a4:	10400005 	beqz	v0,800005bc <__do_global_dtors_aux+0xa0>
800005a8:	24020001 	li	v0,1
800005ac:	3c048000 	lui	a0,0x8000
800005b0:	0c000000 	jal	80000000 <__app_start>
800005b4:	248435a4 	addiu	a0,a0,13732
800005b8:	24020001 	li	v0,1
800005bc:	a2223fd4 	sb	v0,16340(s1)
800005c0:	8fbf0024 	lw	ra,36(sp)
800005c4:	8fb30020 	lw	s3,32(sp)
800005c8:	8fb2001c 	lw	s2,28(sp)
800005cc:	8fb10018 	lw	s1,24(sp)
800005d0:	8fb00014 	lw	s0,20(sp)
800005d4:	03e00008 	jr	ra
800005d8:	27bd0028 	addiu	sp,sp,40

800005dc <frame_dummy>:
frame_dummy():
800005dc:	3c020000 	lui	v0,0x0
800005e0:	27bdffe8 	addiu	sp,sp,-24
800005e4:	24420000 	addiu	v0,v0,0
800005e8:	10400006 	beqz	v0,80000604 <frame_dummy+0x28>
800005ec:	afbf0014 	sw	ra,20(sp)
800005f0:	3c048000 	lui	a0,0x8000
800005f4:	3c058000 	lui	a1,0x8000
800005f8:	248435a4 	addiu	a0,a0,13732
800005fc:	0c000000 	jal	80000000 <__app_start>
80000600:	24a53fdc 	addiu	a1,a1,16348
80000604:	3c048000 	lui	a0,0x8000
80000608:	248435a8 	addiu	a0,a0,13736
8000060c:	8c820000 	lw	v0,0(a0)
80000610:	10400008 	beqz	v0,80000634 <frame_dummy+0x58>
80000614:	8fbf0014 	lw	ra,20(sp)
80000618:	3c020000 	lui	v0,0x0
8000061c:	24420000 	addiu	v0,v0,0
80000620:	10400004 	beqz	v0,80000634 <frame_dummy+0x58>
80000624:	00000000 	nop
80000628:	0040f809 	jalr	v0
8000062c:	00000000 	nop
80000630:	8fbf0014 	lw	ra,20(sp)
80000634:	08000135 	j	800004d4 <register_tm_clones>
80000638:	27bd0018 	addiu	sp,sp,24

8000063c <__getargs>:
C:\Users\lzy05\OneDrive\18-19-Fall\SCD\git\src/boot/dummy.S:58
8000063c:	00000000 	nop

80000640 <switch_to>:
C:\Users\lzy05\OneDrive\18-19-Fall\SCD\git\src/process/switch.S:8
80000640:	ac900000 	sw	s0,0(a0)
C:\Users\lzy05\OneDrive\18-19-Fall\SCD\git\src/process/switch.S:9
80000644:	ac910004 	sw	s1,4(a0)
C:\Users\lzy05\OneDrive\18-19-Fall\SCD\git\src/process/switch.S:10
80000648:	ac920008 	sw	s2,8(a0)
C:\Users\lzy05\OneDrive\18-19-Fall\SCD\git\src/process/switch.S:11
8000064c:	ac93000c 	sw	s3,12(a0)
C:\Users\lzy05\OneDrive\18-19-Fall\SCD\git\src/process/switch.S:12
80000650:	ac940010 	sw	s4,16(a0)
C:\Users\lzy05\OneDrive\18-19-Fall\SCD\git\src/process/switch.S:13
80000654:	ac950014 	sw	s5,20(a0)
C:\Users\lzy05\OneDrive\18-19-Fall\SCD\git\src/process/switch.S:14
80000658:	ac960018 	sw	s6,24(a0)
C:\Users\lzy05\OneDrive\18-19-Fall\SCD\git\src/process/switch.S:15
8000065c:	ac97001c 	sw	s7,28(a0)
C:\Users\lzy05\OneDrive\18-19-Fall\SCD\git\src/process/switch.S:16
80000660:	ac9d0020 	sw	sp,32(a0)
C:\Users\lzy05\OneDrive\18-19-Fall\SCD\git\src/process/switch.S:17
80000664:	ac9e0024 	sw	s8,36(a0)
C:\Users\lzy05\OneDrive\18-19-Fall\SCD\git\src/process/switch.S:18
80000668:	ac9f0028 	sw	ra,40(a0)
C:\Users\lzy05\OneDrive\18-19-Fall\SCD\git\src/process/switch.S:20
8000066c:	8cb00000 	lw	s0,0(a1)
C:\Users\lzy05\OneDrive\18-19-Fall\SCD\git\src/process/switch.S:21
80000670:	8cb10004 	lw	s1,4(a1)
C:\Users\lzy05\OneDrive\18-19-Fall\SCD\git\src/process/switch.S:22
80000674:	8cb20008 	lw	s2,8(a1)
C:\Users\lzy05\OneDrive\18-19-Fall\SCD\git\src/process/switch.S:23
80000678:	8cb3000c 	lw	s3,12(a1)
C:\Users\lzy05\OneDrive\18-19-Fall\SCD\git\src/process/switch.S:24
8000067c:	8cb40010 	lw	s4,16(a1)
C:\Users\lzy05\OneDrive\18-19-Fall\SCD\git\src/process/switch.S:25
80000680:	8cb50014 	lw	s5,20(a1)
C:\Users\lzy05\OneDrive\18-19-Fall\SCD\git\src/process/switch.S:26
80000684:	8cb60018 	lw	s6,24(a1)
C:\Users\lzy05\OneDrive\18-19-Fall\SCD\git\src/process/switch.S:27
80000688:	8cb7001c 	lw	s7,28(a1)
C:\Users\lzy05\OneDrive\18-19-Fall\SCD\git\src/process/switch.S:28
8000068c:	8ca60020 	lw	a2,32(a1)
C:\Users\lzy05\OneDrive\18-19-Fall\SCD\git\src/process/switch.S:29
80000690:	8cbe0024 	lw	s8,36(a1)
C:\Users\lzy05\OneDrive\18-19-Fall\SCD\git\src/process/switch.S:31
80000694:	acdffffc 	sw	ra,-4(a2)
C:\Users\lzy05\OneDrive\18-19-Fall\SCD\git\src/process/switch.S:33
80000698:	8ca80028 	lw	t0,40(a1)
C:\Users\lzy05\OneDrive\18-19-Fall\SCD\git\src/process/switch.S:35
8000069c:	01000008 	jr	t0
800006a0:	00000000 	nop
	...

800006c0 <led_red>:
led_red():
C:\Users\lzy05\OneDrive\18-19-Fall\SCD\git\src/debug.c:72
800006c0:	3c02bf80 	lui	v0,0xbf80
800006c4:	ac440000 	sw	a0,0(v0)
800006c8:	03e00008 	jr	ra
800006cc:	00000000 	nop

800006d0 <delay>:
delay():
C:\Users\lzy05\OneDrive\18-19-Fall\SCD\git\src/debug.c:75
800006d0:	27bdfff8 	addiu	sp,sp,-8
C:\Users\lzy05\OneDrive\18-19-Fall\SCD\git\src/debug.c:77
800006d4:	afa00000 	sw	zero,0(sp)
800006d8:	8fa30000 	lw	v1,0(sp)
800006dc:	3c02006a 	lui	v0,0x6a
800006e0:	3442cfc0 	ori	v0,v0,0xcfc0
800006e4:	0062102b 	sltu	v0,v1,v0
800006e8:	1040000a 	beqz	v0,80000714 <delay+0x44>
800006ec:	00000000 	nop
C:\Users\lzy05\OneDrive\18-19-Fall\SCD\git\src/debug.c:77 (discriminator 3)
800006f0:	3c03006a 	lui	v1,0x6a
800006f4:	3463cfc0 	ori	v1,v1,0xcfc0
800006f8:	8fa20000 	lw	v0,0(sp)
800006fc:	24420001 	addiu	v0,v0,1
80000700:	afa20000 	sw	v0,0(sp)
80000704:	8fa20000 	lw	v0,0(sp)
80000708:	0043102b 	sltu	v0,v0,v1
8000070c:	1440fffa 	bnez	v0,800006f8 <delay+0x28>
80000710:	00000000 	nop
C:\Users\lzy05\OneDrive\18-19-Fall\SCD\git\src/debug.c:78
80000714:	03e00008 	jr	ra
80000718:	27bd0008 	addiu	sp,sp,8

8000071c <writeValTo7SegsDec>:
writeValTo7SegsDec():
C:\Users\lzy05\OneDrive\18-19-Fall\SCD\git\src/debug.c:5
8000071c:	27bdffd8 	addiu	sp,sp,-40
80000720:	afbf0024 	sw	ra,36(sp)
C:\Users\lzy05\OneDrive\18-19-Fall\SCD\git\src/debug.c:9
80000724:	afa00014 	sw	zero,20(sp)
80000728:	afa00018 	sw	zero,24(sp)
C:\Users\lzy05\OneDrive\18-19-Fall\SCD\git\src/debug.c:10
8000072c:	3c05bf80 	lui	a1,0xbf80
80000730:	24a50014 	addiu	a1,a1,20
C:\Users\lzy05\OneDrive\18-19-Fall\SCD\git\src/debug.c:14
80000734:	3c07cccc 	lui	a3,0xcccc
80000738:	34e7cccd 	ori	a3,a3,0xcccd
C:\Users\lzy05\OneDrive\18-19-Fall\SCD\git\src/debug.c:17
8000073c:	24080001 	li	t0,1
C:\Users\lzy05\OneDrive\18-19-Fall\SCD\git\src/debug.c:14 (discriminator 2)
80000740:	00870019 	multu	a0,a3
80000744:	00003010 	mfhi	a2
80000748:	000610c2 	srl	v0,a2,0x3
8000074c:	00021840 	sll	v1,v0,0x1
80000750:	000210c0 	sll	v0,v0,0x3
80000754:	00621021 	addu	v0,v1,v0
80000758:	00821023 	subu	v0,a0,v0
8000075c:	afa20010 	sw	v0,16(sp)
C:\Users\lzy05\OneDrive\18-19-Fall\SCD\git\src/debug.c:15 (discriminator 2)
80000760:	8fa20010 	lw	v0,16(sp)
80000764:	aca20000 	sw	v0,0(a1)
C:\Users\lzy05\OneDrive\18-19-Fall\SCD\git\src/debug.c:16 (discriminator 2)
80000768:	000620c2 	srl	a0,a2,0x3
C:\Users\lzy05\OneDrive\18-19-Fall\SCD\git\src/debug.c:17 (discriminator 2)
8000076c:	8fa20014 	lw	v0,20(sp)
80000770:	00481004 	sllv	v0,t0,v0
80000774:	afa2001c 	sw	v0,28(sp)
C:\Users\lzy05\OneDrive\18-19-Fall\SCD\git\src/debug.c:18 (discriminator 2)
80000778:	8fa30018 	lw	v1,24(sp)
8000077c:	8fa2001c 	lw	v0,28(sp)
80000780:	00431025 	or	v0,v0,v1
80000784:	afa20018 	sw	v0,24(sp)
C:\Users\lzy05\OneDrive\18-19-Fall\SCD\git\src/debug.c:19 (discriminator 2)
80000788:	24a50004 	addiu	a1,a1,4
C:\Users\lzy05\OneDrive\18-19-Fall\SCD\git\src/debug.c:20 (discriminator 2)
8000078c:	8fa20014 	lw	v0,20(sp)
80000790:	24420001 	addiu	v0,v0,1
80000794:	afa20014 	sw	v0,20(sp)
C:\Users\lzy05\OneDrive\18-19-Fall\SCD\git\src/debug.c:21 (discriminator 2)
80000798:	10800005 	beqz	a0,800007b0 <writeValTo7SegsDec+0x94>
8000079c:	00000000 	nop
C:\Users\lzy05\OneDrive\18-19-Fall\SCD\git\src/debug.c:21 (discriminator 1)
800007a0:	8fa20014 	lw	v0,20(sp)
800007a4:	28420008 	slti	v0,v0,8
800007a8:	1440ffe6 	bnez	v0,80000744 <writeValTo7SegsDec+0x28>
800007ac:	00870019 	multu	a0,a3
C:\Users\lzy05\OneDrive\18-19-Fall\SCD\git\src/debug.c:23
800007b0:	8fa20018 	lw	v0,24(sp)
800007b4:	00021027 	nor	v0,zero,v0
800007b8:	3c03bf80 	lui	v1,0xbf80
800007bc:	ac620010 	sw	v0,16(v1)
C:\Users\lzy05\OneDrive\18-19-Fall\SCD\git\src/debug.c:25
800007c0:	0c0001b4 	jal	800006d0 <delay>
800007c4:	00000000 	nop
C:\Users\lzy05\OneDrive\18-19-Fall\SCD\git\src/debug.c:27
800007c8:	8fbf0024 	lw	ra,36(sp)
800007cc:	03e00008 	jr	ra
800007d0:	27bd0028 	addiu	sp,sp,40

800007d4 <writeValTo7SegsHex>:
writeValTo7SegsHex():
C:\Users\lzy05\OneDrive\18-19-Fall\SCD\git\src/debug.c:29
800007d4:	27bdffe0 	addiu	sp,sp,-32
800007d8:	afbf001c 	sw	ra,28(sp)
C:\Users\lzy05\OneDrive\18-19-Fall\SCD\git\src/debug.c:42
800007dc:	3c02bf80 	lui	v0,0xbf80
800007e0:	ac400010 	sw	zero,16(v0)
C:\Users\lzy05\OneDrive\18-19-Fall\SCD\git\src/debug.c:44
800007e4:	afa40010 	sw	a0,16(sp)
C:\Users\lzy05\OneDrive\18-19-Fall\SCD\git\src/debug.c:46
800007e8:	8fa30010 	lw	v1,16(sp)
800007ec:	ac430014 	sw	v1,20(v0)
C:\Users\lzy05\OneDrive\18-19-Fall\SCD\git\src/debug.c:47
800007f0:	8fa30010 	lw	v1,16(sp)
800007f4:	00031902 	srl	v1,v1,0x4
800007f8:	afa30010 	sw	v1,16(sp)
C:\Users\lzy05\OneDrive\18-19-Fall\SCD\git\src/debug.c:48
800007fc:	8fa30010 	lw	v1,16(sp)
80000800:	ac430018 	sw	v1,24(v0)
C:\Users\lzy05\OneDrive\18-19-Fall\SCD\git\src/debug.c:49
80000804:	8fa30010 	lw	v1,16(sp)
80000808:	00031902 	srl	v1,v1,0x4
8000080c:	afa30010 	sw	v1,16(sp)
C:\Users\lzy05\OneDrive\18-19-Fall\SCD\git\src/debug.c:50
80000810:	8fa30010 	lw	v1,16(sp)
80000814:	ac43001c 	sw	v1,28(v0)
C:\Users\lzy05\OneDrive\18-19-Fall\SCD\git\src/debug.c:51
80000818:	8fa30010 	lw	v1,16(sp)
8000081c:	00031902 	srl	v1,v1,0x4
80000820:	afa30010 	sw	v1,16(sp)
C:\Users\lzy05\OneDrive\18-19-Fall\SCD\git\src/debug.c:52
80000824:	8fa30010 	lw	v1,16(sp)
80000828:	ac430020 	sw	v1,32(v0)
C:\Users\lzy05\OneDrive\18-19-Fall\SCD\git\src/debug.c:53
8000082c:	8fa30010 	lw	v1,16(sp)
80000830:	00031902 	srl	v1,v1,0x4
80000834:	afa30010 	sw	v1,16(sp)
C:\Users\lzy05\OneDrive\18-19-Fall\SCD\git\src/debug.c:54
80000838:	8fa30010 	lw	v1,16(sp)
8000083c:	ac430024 	sw	v1,36(v0)
C:\Users\lzy05\OneDrive\18-19-Fall\SCD\git\src/debug.c:55
80000840:	8fa30010 	lw	v1,16(sp)
80000844:	00031902 	srl	v1,v1,0x4
80000848:	afa30010 	sw	v1,16(sp)
C:\Users\lzy05\OneDrive\18-19-Fall\SCD\git\src/debug.c:56
8000084c:	8fa30010 	lw	v1,16(sp)
80000850:	ac430028 	sw	v1,40(v0)
C:\Users\lzy05\OneDrive\18-19-Fall\SCD\git\src/debug.c:57
80000854:	8fa30010 	lw	v1,16(sp)
80000858:	00031902 	srl	v1,v1,0x4
8000085c:	afa30010 	sw	v1,16(sp)
C:\Users\lzy05\OneDrive\18-19-Fall\SCD\git\src/debug.c:58
80000860:	8fa30010 	lw	v1,16(sp)
80000864:	ac43002c 	sw	v1,44(v0)
C:\Users\lzy05\OneDrive\18-19-Fall\SCD\git\src/debug.c:59
80000868:	8fa30010 	lw	v1,16(sp)
8000086c:	00031902 	srl	v1,v1,0x4
80000870:	afa30010 	sw	v1,16(sp)
C:\Users\lzy05\OneDrive\18-19-Fall\SCD\git\src/debug.c:60
80000874:	8fa30010 	lw	v1,16(sp)
80000878:	ac430030 	sw	v1,48(v0)
C:\Users\lzy05\OneDrive\18-19-Fall\SCD\git\src/debug.c:61
8000087c:	8fa20010 	lw	v0,16(sp)
80000880:	00021102 	srl	v0,v0,0x4
80000884:	afa20010 	sw	v0,16(sp)
C:\Users\lzy05\OneDrive\18-19-Fall\SCD\git\src/debug.c:63
80000888:	0c0001b4 	jal	800006d0 <delay>
8000088c:	00000000 	nop
C:\Users\lzy05\OneDrive\18-19-Fall\SCD\git\src/debug.c:64
80000890:	8fbf001c 	lw	ra,28(sp)
80000894:	03e00008 	jr	ra
80000898:	27bd0020 	addiu	sp,sp,32

8000089c <writeValTo7SegsHex1>:
writeValTo7SegsHex1():
C:\Users\lzy05\OneDrive\18-19-Fall\SCD\git\src/debug.c:66
8000089c:	27bdffe8 	addiu	sp,sp,-24
800008a0:	afbf0014 	sw	ra,20(sp)
C:\Users\lzy05\OneDrive\18-19-Fall\SCD\git\src/debug.c:67
800008a4:	00042400 	sll	a0,a0,0x10
800008a8:	0c0001f5 	jal	800007d4 <writeValTo7SegsHex>
800008ac:	00852021 	addu	a0,a0,a1
C:\Users\lzy05\OneDrive\18-19-Fall\SCD\git\src/debug.c:68
800008b0:	8fbf0014 	lw	ra,20(sp)
800008b4:	03e00008 	jr	ra
800008b8:	27bd0018 	addiu	sp,sp,24

800008bc <init_main>:
init_main():
C:\Users\lzy05\OneDrive\18-19-Fall\SCD\git\src/process/proc.c:87
800008bc:	27bdffe8 	addiu	sp,sp,-24
800008c0:	afbf0014 	sw	ra,20(sp)
C:\Users\lzy05\OneDrive\18-19-Fall\SCD\git\src/process/proc.c:90
800008c4:	3c045555 	lui	a0,0x5555
800008c8:	0c0001f5 	jal	800007d4 <writeValTo7SegsHex>
800008cc:	24845555 	addiu	a0,a0,21845
C:\Users\lzy05\OneDrive\18-19-Fall\SCD\git\src/process/proc.c:91
800008d0:	8fbf0014 	lw	ra,20(sp)
800008d4:	03e00008 	jr	ra
800008d8:	27bd0018 	addiu	sp,sp,24

800008dc <alloc_proc>:
alloc_proc():
C:\Users\lzy05\OneDrive\18-19-Fall\SCD\git\src/process/proc.c:19
800008dc:	27bdffe8 	addiu	sp,sp,-24
800008e0:	afbf0014 	sw	ra,20(sp)
800008e4:	afb00010 	sw	s0,16(sp)
C:\Users\lzy05\OneDrive\18-19-Fall\SCD\git\src/process/proc.c:20
800008e8:	0c0005b3 	jal	800016cc <kmalloc>
800008ec:	24050068 	li	a1,104
C:\Users\lzy05\OneDrive\18-19-Fall\SCD\git\src/process/proc.c:23
800008f0:	1040000e 	beqz	v0,8000092c <alloc_proc+0x50>
800008f4:	00408025 	move	s0,v0
C:\Users\lzy05\OneDrive\18-19-Fall\SCD\git\src/process/proc.c:24
800008f8:	2402ffff 	li	v0,-1
800008fc:	ae020008 	sw	v0,8(s0)
C:\Users\lzy05\OneDrive\18-19-Fall\SCD\git\src/process/proc.c:25
80000900:	ae000020 	sw	zero,32(s0)
C:\Users\lzy05\OneDrive\18-19-Fall\SCD\git\src/process/proc.c:26
80000904:	ae00001c 	sw	zero,28(s0)
C:\Users\lzy05\OneDrive\18-19-Fall\SCD\git\src/process/proc.c:27
80000908:	ae000024 	sw	zero,36(s0)
C:\Users\lzy05\OneDrive\18-19-Fall\SCD\git\src/process/proc.c:29
8000090c:	26040028 	addiu	a0,s0,40
80000910:	00002825 	move	a1,zero
80000914:	0c000869 	jal	800021a4 <memset>
80000918:	2406002c 	li	a2,44
C:\Users\lzy05\OneDrive\18-19-Fall\SCD\git\src/process/proc.c:31
8000091c:	2604000c 	addiu	a0,s0,12
80000920:	00002825 	move	a1,zero
80000924:	0c000869 	jal	800021a4 <memset>
80000928:	2406000f 	li	a2,15
C:\Users\lzy05\OneDrive\18-19-Fall\SCD\git\src/process/proc.c:37
8000092c:	02001025 	move	v0,s0
80000930:	8fbf0014 	lw	ra,20(sp)
80000934:	8fb00010 	lw	s0,16(sp)
80000938:	03e00008 	jr	ra
8000093c:	27bd0018 	addiu	sp,sp,24

80000940 <set_proc_name>:
set_proc_name():
C:\Users\lzy05\OneDrive\18-19-Fall\SCD\git\src/process/proc.c:42
80000940:	27bdffe0 	addiu	sp,sp,-32
80000944:	afbf001c 	sw	ra,28(sp)
80000948:	afb10018 	sw	s1,24(sp)
8000094c:	afb00014 	sw	s0,20(sp)
80000950:	00a08825 	move	s1,a1
C:\Users\lzy05\OneDrive\18-19-Fall\SCD\git\src/process/proc.c:43
80000954:	2490000c 	addiu	s0,a0,12
80000958:	02002025 	move	a0,s0
8000095c:	00002825 	move	a1,zero
80000960:	0c000869 	jal	800021a4 <memset>
80000964:	24060010 	li	a2,16
C:\Users\lzy05\OneDrive\18-19-Fall\SCD\git\src/process/proc.c:44
80000968:	02002025 	move	a0,s0
8000096c:	02202825 	move	a1,s1
80000970:	0c000782 	jal	80001e08 <memcpy>
80000974:	2406000f 	li	a2,15
C:\Users\lzy05\OneDrive\18-19-Fall\SCD\git\src/process/proc.c:45
80000978:	8fbf001c 	lw	ra,28(sp)
8000097c:	8fb10018 	lw	s1,24(sp)
80000980:	8fb00014 	lw	s0,20(sp)
80000984:	03e00008 	jr	ra
80000988:	27bd0020 	addiu	sp,sp,32

8000098c <set_current>:
set_current():
C:\Users\lzy05\OneDrive\18-19-Fall\SCD\git\src/process/proc.c:50
8000098c:	03e00008 	jr	ra
80000990:	af848020 	sw	a0,-32736(gp)

80000994 <proc_run>:
proc_run():
C:\Users\lzy05\OneDrive\18-19-Fall\SCD\git\src/process/proc.c:62
80000994:	27bdffe0 	addiu	sp,sp,-32
80000998:	afbf001c 	sw	ra,28(sp)
8000099c:	afb10018 	sw	s1,24(sp)
800009a0:	afb00014 	sw	s0,20(sp)
C:\Users\lzy05\OneDrive\18-19-Fall\SCD\git\src/process/proc.c:64
800009a4:	8f918020 	lw	s1,-32736(gp)
800009a8:	10910010 	beq	a0,s1,800009ec <proc_run+0x58>
800009ac:	00808025 	move	s0,a0
set_current():
C:\Users\lzy05\OneDrive\18-19-Fall\SCD\git\src/process/proc.c:50
800009b0:	af848020 	sw	a0,-32736(gp)
proc_run():
C:\Users\lzy05\OneDrive\18-19-Fall\SCD\git\src/process/proc.c:68
800009b4:	0c0001f5 	jal	800007d4 <writeValTo7SegsHex>
800009b8:	8c840050 	lw	a0,80(a0)
C:\Users\lzy05\OneDrive\18-19-Fall\SCD\git\src/process/proc.c:70
800009bc:	3c041476 	lui	a0,0x1476
800009c0:	0c0001f5 	jal	800007d4 <writeValTo7SegsHex>
800009c4:	24846666 	addiu	a0,a0,26214
C:\Users\lzy05\OneDrive\18-19-Fall\SCD\git\src/process/proc.c:73
800009c8:	0c0001f5 	jal	800007d4 <writeValTo7SegsHex>
800009cc:	8e040048 	lw	a0,72(s0)
C:\Users\lzy05\OneDrive\18-19-Fall\SCD\git\src/process/proc.c:74
800009d0:	26240028 	addiu	a0,s1,40
800009d4:	0c000190 	jal	80000640 <switch_to>
800009d8:	26050028 	addiu	a1,s0,40
C:\Users\lzy05\OneDrive\18-19-Fall\SCD\git\src/process/proc.c:75
800009dc:	3c040756 	lui	a0,0x756
800009e0:	0c0001f5 	jal	800007d4 <writeValTo7SegsHex>
800009e4:	24846666 	addiu	a0,a0,26214
set_current():
C:\Users\lzy05\OneDrive\18-19-Fall\SCD\git\src/process/proc.c:50
800009e8:	af918020 	sw	s1,-32736(gp)
proc_run():
C:\Users\lzy05\OneDrive\18-19-Fall\SCD\git\src/process/proc.c:79
800009ec:	8fbf001c 	lw	ra,28(sp)
800009f0:	8fb10018 	lw	s1,24(sp)
800009f4:	8fb00014 	lw	s0,20(sp)
800009f8:	03e00008 	jr	ra
800009fc:	27bd0020 	addiu	sp,sp,32

80000a00 <create_proc>:
create_proc():
C:\Users\lzy05\OneDrive\18-19-Fall\SCD\git\src/process/proc.c:104
80000a00:	27bdffd8 	addiu	sp,sp,-40
80000a04:	afbf0024 	sw	ra,36(sp)
80000a08:	afb40020 	sw	s4,32(sp)
80000a0c:	afb3001c 	sw	s3,28(sp)
80000a10:	afb20018 	sw	s2,24(sp)
80000a14:	afb10014 	sw	s1,20(sp)
80000a18:	afb00010 	sw	s0,16(sp)
C:\Users\lzy05\OneDrive\18-19-Fall\SCD\git\src/process/proc.c:109
80000a1c:	8f91801c 	lw	s1,-32740(gp)
80000a20:	26220001 	addiu	v0,s1,1
80000a24:	af82801c 	sw	v0,-32740(gp)
C:\Users\lzy05\OneDrive\18-19-Fall\SCD\git\src/process/proc.c:111
80000a28:	8f838028 	lw	v1,-32728(gp)
80000a2c:	28630401 	slti	v1,v1,1025
80000a30:	10600020 	beqz	v1,80000ab4 <create_proc+0xb4>
80000a34:	02801025 	move	v0,s4
80000a38:	00c09825 	move	s3,a2
80000a3c:	00809025 	move	s2,a0
C:\Users\lzy05\OneDrive\18-19-Fall\SCD\git\src/process/proc.c:114
80000a40:	0c000237 	jal	800008dc <alloc_proc>
80000a44:	02202025 	move	a0,s1
C:\Users\lzy05\OneDrive\18-19-Fall\SCD\git\src/process/proc.c:116
80000a48:	10400019 	beqz	v0,80000ab0 <create_proc+0xb0>
80000a4c:	00408025 	move	s0,v0
C:\Users\lzy05\OneDrive\18-19-Fall\SCD\git\src/process/proc.c:120
80000a50:	8f828020 	lw	v0,-32736(gp)
80000a54:	ae020024 	sw	v0,36(s0)
C:\Users\lzy05\OneDrive\18-19-Fall\SCD\git\src/process/proc.c:121
80000a58:	ae130004 	sw	s3,4(s0)
C:\Users\lzy05\OneDrive\18-19-Fall\SCD\git\src/process/proc.c:123
80000a5c:	ae110000 	sw	s1,0(s0)
setup_kstack():
C:\Users\lzy05\OneDrive\18-19-Fall\SCD\git\src/process/proc.c:83
80000a60:	02202025 	move	a0,s1
80000a64:	0c0005b3 	jal	800016cc <kmalloc>
80000a68:	24051000 	li	a1,4096
80000a6c:	ae02001c 	sw	v0,28(s0)
create_proc():
C:\Users\lzy05\OneDrive\18-19-Fall\SCD\git\src/process/proc.c:126
80000a70:	ae120050 	sw	s2,80(s0)
C:\Users\lzy05\OneDrive\18-19-Fall\SCD\git\src/process/proc.c:127
80000a74:	24421000 	addiu	v0,v0,4096
80000a78:	ae020048 	sw	v0,72(s0)
C:\Users\lzy05\OneDrive\18-19-Fall\SCD\git\src/process/proc.c:130
80000a7c:	26030054 	addiu	v1,s0,84
list_add():
C:\Users\lzy05\OneDrive\18-19-Fall\SCD\git\src/./include/lib/list.h:41
80000a80:	27828038 	addiu	v0,gp,-32712
80000a84:	8c440000 	lw	a0,0(v0)
__list_add():
C:\Users\lzy05\OneDrive\18-19-Fall\SCD\git\src/./include/lib/list.h:33
80000a88:	ac830004 	sw	v1,4(a0)
C:\Users\lzy05\OneDrive\18-19-Fall\SCD\git\src/./include/lib/list.h:34
80000a8c:	ae040054 	sw	a0,84(s0)
C:\Users\lzy05\OneDrive\18-19-Fall\SCD\git\src/./include/lib/list.h:35
80000a90:	ae020058 	sw	v0,88(s0)
C:\Users\lzy05\OneDrive\18-19-Fall\SCD\git\src/./include/lib/list.h:36
80000a94:	ac430000 	sw	v1,0(v0)
create_proc():
C:\Users\lzy05\OneDrive\18-19-Fall\SCD\git\src/process/proc.c:133
80000a98:	8f828028 	lw	v0,-32728(gp)
80000a9c:	24420001 	addiu	v0,v0,1
80000aa0:	af828028 	sw	v0,-32728(gp)
C:\Users\lzy05\OneDrive\18-19-Fall\SCD\git\src/process/proc.c:134
80000aa4:	0c0002fc 	jal	80000bf0 <wakeup_proc>
80000aa8:	02002025 	move	a0,s0
C:\Users\lzy05\OneDrive\18-19-Fall\SCD\git\src/process/proc.c:136
80000aac:	8e140000 	lw	s4,0(s0)
C:\Users\lzy05\OneDrive\18-19-Fall\SCD\git\src/process/proc.c:140
80000ab0:	02801025 	move	v0,s4
80000ab4:	8fbf0024 	lw	ra,36(sp)
80000ab8:	8fb40020 	lw	s4,32(sp)
80000abc:	8fb3001c 	lw	s3,28(sp)
80000ac0:	8fb20018 	lw	s2,24(sp)
80000ac4:	8fb10014 	lw	s1,20(sp)
80000ac8:	8fb00010 	lw	s0,16(sp)
80000acc:	03e00008 	jr	ra
80000ad0:	27bd0028 	addiu	sp,sp,40

80000ad4 <proc_init>:
proc_init():
C:\Users\lzy05\OneDrive\18-19-Fall\SCD\git\src/process/proc.c:143
80000ad4:	27bdffe8 	addiu	sp,sp,-24
80000ad8:	afbf0014 	sw	ra,20(sp)
80000adc:	afb00010 	sw	s0,16(sp)
init_list_head():
C:\Users\lzy05\OneDrive\18-19-Fall\SCD\git\src/./include/lib/list.h:26
80000ae0:	27828038 	addiu	v0,gp,-32712
80000ae4:	ac420000 	sw	v0,0(v0)
C:\Users\lzy05\OneDrive\18-19-Fall\SCD\git\src/./include/lib/list.h:27
80000ae8:	ac420004 	sw	v0,4(v0)
proc_init():
C:\Users\lzy05\OneDrive\18-19-Fall\SCD\git\src/process/proc.c:148
80000aec:	8f90801c 	lw	s0,-32740(gp)
80000af0:	26020001 	addiu	v0,s0,1
80000af4:	af82801c 	sw	v0,-32740(gp)
C:\Users\lzy05\OneDrive\18-19-Fall\SCD\git\src/process/proc.c:149
80000af8:	0c000237 	jal	800008dc <alloc_proc>
80000afc:	02002025 	move	a0,s0
80000b00:	af828024 	sw	v0,-32732(gp)
C:\Users\lzy05\OneDrive\18-19-Fall\SCD\git\src/process/proc.c:152
80000b04:	ac500000 	sw	s0,0(v0)
C:\Users\lzy05\OneDrive\18-19-Fall\SCD\git\src/process/proc.c:153
80000b08:	8f828024 	lw	v0,-32732(gp)
80000b0c:	ac400008 	sw	zero,8(v0)
C:\Users\lzy05\OneDrive\18-19-Fall\SCD\git\src/process/proc.c:154
80000b10:	ac400004 	sw	zero,4(v0)
C:\Users\lzy05\OneDrive\18-19-Fall\SCD\git\src/process/proc.c:155
80000b14:	24030001 	li	v1,1
80000b18:	ac430020 	sw	v1,32(v0)
C:\Users\lzy05\OneDrive\18-19-Fall\SCD\git\src/process/proc.c:156
80000b1c:	3c049999 	lui	a0,0x9999
80000b20:	0c0001f5 	jal	800007d4 <writeValTo7SegsHex>
80000b24:	34849999 	ori	a0,a0,0x9999
C:\Users\lzy05\OneDrive\18-19-Fall\SCD\git\src/process/proc.c:157
80000b28:	0c0001f5 	jal	800007d4 <writeValTo7SegsHex>
80000b2c:	8f848024 	lw	a0,-32732(gp)
C:\Users\lzy05\OneDrive\18-19-Fall\SCD\git\src/process/proc.c:159
80000b30:	8f848024 	lw	a0,-32732(gp)
80000b34:	3c058000 	lui	a1,0x8000
80000b38:	0c000250 	jal	80000940 <set_proc_name>
80000b3c:	24a5369c 	addiu	a1,a1,13980
C:\Users\lzy05\OneDrive\18-19-Fall\SCD\git\src/process/proc.c:160
80000b40:	8f828028 	lw	v0,-32728(gp)
80000b44:	24420001 	addiu	v0,v0,1
80000b48:	af828028 	sw	v0,-32728(gp)
C:\Users\lzy05\OneDrive\18-19-Fall\SCD\git\src/process/proc.c:161
80000b4c:	8f848024 	lw	a0,-32732(gp)
C:\Users\lzy05\OneDrive\18-19-Fall\SCD\git\src/process/proc.c:162
80000b50:	0c0001f5 	jal	800007d4 <writeValTo7SegsHex>
80000b54:	af848020 	sw	a0,-32736(gp)
C:\Users\lzy05\OneDrive\18-19-Fall\SCD\git\src/process/proc.c:163
80000b58:	3c041426 	lui	a0,0x1426
80000b5c:	0c0001f5 	jal	800007d4 <writeValTo7SegsHex>
80000b60:	24846666 	addiu	a0,a0,26214
C:\Users\lzy05\OneDrive\18-19-Fall\SCD\git\src/process/proc.c:164
80000b64:	3c048000 	lui	a0,0x8000
80000b68:	248408bc 	addiu	a0,a0,2236
80000b6c:	00002825 	move	a1,zero
80000b70:	0c000280 	jal	80000a00 <create_proc>
80000b74:	24060001 	li	a2,1
C:\Users\lzy05\OneDrive\18-19-Fall\SCD\git\src/process/proc.c:169
80000b78:	0c0001f5 	jal	800007d4 <writeValTo7SegsHex>
80000b7c:	8f848020 	lw	a0,-32736(gp)
C:\Users\lzy05\OneDrive\18-19-Fall\SCD\git\src/process/proc.c:170
80000b80:	8f828020 	lw	v0,-32736(gp)
80000b84:	8c440020 	lw	a0,32(v0)
80000b88:	0c0001f5 	jal	800007d4 <writeValTo7SegsHex>
80000b8c:	00000000 	nop
C:\Users\lzy05\OneDrive\18-19-Fall\SCD\git\src/process/proc.c:172
80000b90:	8fbf0014 	lw	ra,20(sp)
80000b94:	8fb00010 	lw	s0,16(sp)
80000b98:	03e00008 	jr	ra
80000b9c:	27bd0018 	addiu	sp,sp,24

80000ba0 <cpu_idle>:
cpu_idle():
C:\Users\lzy05\OneDrive\18-19-Fall\SCD\git\src/process/proc.c:175
80000ba0:	27bdffe0 	addiu	sp,sp,-32
80000ba4:	afbf001c 	sw	ra,28(sp)
80000ba8:	afb10018 	sw	s1,24(sp)
80000bac:	afb00014 	sw	s0,20(sp)
C:\Users\lzy05\OneDrive\18-19-Fall\SCD\git\src/process/proc.c:179
80000bb0:	3c111111 	lui	s1,0x1111
80000bb4:	26312266 	addiu	s1,s1,8806
C:\Users\lzy05\OneDrive\18-19-Fall\SCD\git\src/process/proc.c:182
80000bb8:	3c101641 	lui	s0,0x1641
80000bbc:	26102266 	addiu	s0,s0,8806
C:\Users\lzy05\OneDrive\18-19-Fall\SCD\git\src/process/proc.c:178
80000bc0:	8f828020 	lw	v0,-32736(gp)
80000bc4:	8c420020 	lw	v0,32(v0)
80000bc8:	10400005 	beqz	v0,80000be0 <cpu_idle+0x40>
80000bcc:	00000000 	nop
C:\Users\lzy05\OneDrive\18-19-Fall\SCD\git\src/process/proc.c:179
80000bd0:	0c0001f5 	jal	800007d4 <writeValTo7SegsHex>
80000bd4:	02202025 	move	a0,s1
C:\Users\lzy05\OneDrive\18-19-Fall\SCD\git\src/process/proc.c:180
80000bd8:	0c000301 	jal	80000c04 <schedule>
80000bdc:	00000000 	nop
C:\Users\lzy05\OneDrive\18-19-Fall\SCD\git\src/process/proc.c:182
80000be0:	0c0001f5 	jal	800007d4 <writeValTo7SegsHex>
80000be4:	02002025 	move	a0,s0
C:\Users\lzy05\OneDrive\18-19-Fall\SCD\git\src/process/proc.c:183
80000be8:	1000fff6 	b	80000bc4 <cpu_idle+0x24>
80000bec:	8f828020 	lw	v0,-32736(gp)

80000bf0 <wakeup_proc>:
wakeup_proc():
C:\Users\lzy05\OneDrive\18-19-Fall\SCD\git\src/schedule/sched.c:7
80000bf0:	8c820008 	lw	v0,8(a0)
80000bf4:	54400001 	bnezl	v0,80000bfc <wakeup_proc+0xc>
80000bf8:	ac800008 	sw	zero,8(a0)
80000bfc:	03e00008 	jr	ra
80000c00:	00000000 	nop

80000c04 <schedule>:
schedule():
C:\Users\lzy05\OneDrive\18-19-Fall\SCD\git\src/schedule/sched.c:16
80000c04:	27bdffe8 	addiu	sp,sp,-24
80000c08:	afbf0014 	sw	ra,20(sp)
80000c0c:	afb00010 	sw	s0,16(sp)
C:\Users\lzy05\OneDrive\18-19-Fall\SCD\git\src/schedule/sched.c:22
80000c10:	8f828020 	lw	v0,-32736(gp)
80000c14:	8c430000 	lw	v1,0(v0)
80000c18:	54600001 	bnezl	v1,80000c20 <schedule+0x1c>
80000c1c:	ac400020 	sw	zero,32(v0)
C:\Users\lzy05\OneDrive\18-19-Fall\SCD\git\src/schedule/sched.c:21
80000c20:	00008025 	move	s0,zero
C:\Users\lzy05\OneDrive\18-19-Fall\SCD\git\src/schedule/sched.c:19
80000c24:	00003025 	move	a2,zero
C:\Users\lzy05\OneDrive\18-19-Fall\SCD\git\src/schedule/sched.c:27
80000c28:	27828038 	addiu	v0,gp,-32712
C:\Users\lzy05\OneDrive\18-19-Fall\SCD\git\src/schedule/sched.c:31
80000c2c:	00402825 	move	a1,v0
80000c30:	8c420000 	lw	v0,0(v0)
80000c34:	10450015 	beq	v0,a1,80000c8c <schedule+0x88>
80000c38:	00000000 	nop
C:\Users\lzy05\OneDrive\18-19-Fall\SCD\git\src/schedule/sched.c:34
80000c3c:	8c43ffb4 	lw	v1,-76(v0)
80000c40:	5460fffc 	bnezl	v1,80000c34 <schedule+0x30>
80000c44:	8c420000 	lw	v0,0(v0)
C:\Users\lzy05\OneDrive\18-19-Fall\SCD\git\src/schedule/sched.c:36
80000c48:	8c43ffb0 	lw	v1,-80(v0)
80000c4c:	00c3202a 	slt	a0,a2,v1
80000c50:	5080fff8 	beqzl	a0,80000c34 <schedule+0x30>
80000c54:	8c420000 	lw	v0,0(v0)
C:\Users\lzy05\OneDrive\18-19-Fall\SCD\git\src/schedule/sched.c:32
80000c58:	2450ffac 	addiu	s0,v0,-84
C:\Users\lzy05\OneDrive\18-19-Fall\SCD\git\src/schedule/sched.c:38
80000c5c:	1000fff4 	b	80000c30 <schedule+0x2c>
80000c60:	00603025 	move	a2,v1
C:\Users\lzy05\OneDrive\18-19-Fall\SCD\git\src/schedule/sched.c:50 (discriminator 1)
80000c64:	10400003 	beqz	v0,80000c74 <schedule+0x70>
80000c68:	8f828020 	lw	v0,-32736(gp)
C:\Users\lzy05\OneDrive\18-19-Fall\SCD\git\src/schedule/sched.c:51
80000c6c:	8f908024 	lw	s0,-32732(gp)
C:\Users\lzy05\OneDrive\18-19-Fall\SCD\git\src/schedule/sched.c:54
80000c70:	8f828020 	lw	v0,-32736(gp)
80000c74:	5202000b 	beql	s0,v0,80000ca4 <schedule+0xa0>
80000c78:	8fbf0014 	lw	ra,20(sp)
C:\Users\lzy05\OneDrive\18-19-Fall\SCD\git\src/schedule/sched.c:55
80000c7c:	0c000265 	jal	80000994 <proc_run>
80000c80:	02002025 	move	a0,s0
C:\Users\lzy05\OneDrive\18-19-Fall\SCD\git\src/schedule/sched.c:58
80000c84:	10000007 	b	80000ca4 <schedule+0xa0>
80000c88:	8fbf0014 	lw	ra,20(sp)
C:\Users\lzy05\OneDrive\18-19-Fall\SCD\git\src/schedule/sched.c:49
80000c8c:	0c0001f5 	jal	800007d4 <writeValTo7SegsHex>
80000c90:	8e040000 	lw	a0,0(s0)
C:\Users\lzy05\OneDrive\18-19-Fall\SCD\git\src/schedule/sched.c:50
80000c94:	5600fff3 	bnezl	s0,80000c64 <schedule+0x60>
80000c98:	8e020008 	lw	v0,8(s0)
80000c9c:	1000fff4 	b	80000c70 <schedule+0x6c>
80000ca0:	8f908024 	lw	s0,-32732(gp)
C:\Users\lzy05\OneDrive\18-19-Fall\SCD\git\src/schedule/sched.c:58
80000ca4:	8fb00010 	lw	s0,16(sp)
80000ca8:	03e00008 	jr	ra
80000cac:	27bd0018 	addiu	sp,sp,24

80000cb0 <pmm_alloc_page>:
pmm_alloc_page():
C:\Users\lzy05\OneDrive\18-19-Fall\SCD\git\src/mm/pmm.c:31
80000cb0:	8f828008 	lw	v0,-32760(gp)
80000cb4:	2403ffff 	li	v1,-1
80000cb8:	1043000b 	beq	v0,v1,80000ce8 <pmm_alloc_page+0x38>
80000cbc:	2443ffff 	addiu	v1,v0,-1
C:\Users\lzy05\OneDrive\18-19-Fall\SCD\git\src/mm/pmm.c:34
80000cc0:	af838008 	sw	v1,-32760(gp)
80000cc4:	00021080 	sll	v0,v0,0x2
80000cc8:	3c038000 	lui	v1,0x8000
80000ccc:	246340e0 	addiu	v1,v1,16608
80000cd0:	00431021 	addu	v0,v0,v1
80000cd4:	8c420000 	lw	v0,0(v0)
C:\Users\lzy05\OneDrive\18-19-Fall\SCD\git\src/mm/pmm.c:35
80000cd8:	8f838004 	lw	v1,-32764(gp)
80000cdc:	2463ffff 	addiu	v1,v1,-1
C:\Users\lzy05\OneDrive\18-19-Fall\SCD\git\src/mm/pmm.c:37
80000ce0:	03e00008 	jr	ra
80000ce4:	af838004 	sw	v1,-32764(gp)
C:\Users\lzy05\OneDrive\18-19-Fall\SCD\git\src/mm/pmm.c:38
80000ce8:	03e00008 	jr	ra
80000cec:	00001025 	move	v0,zero

80000cf0 <pmm_free_page>:
pmm_free_page():
C:\Users\lzy05\OneDrive\18-19-Fall\SCD\git\src/mm/pmm.c:44
80000cf0:	8f828008 	lw	v0,-32760(gp)
80000cf4:	2403001d 	li	v1,29
80000cf8:	1043000a 	beq	v0,v1,80000d24 <pmm_free_page+0x34>
80000cfc:	24420001 	addiu	v0,v0,1
C:\Users\lzy05\OneDrive\18-19-Fall\SCD\git\src/mm/pmm.c:46
80000d00:	af828008 	sw	v0,-32760(gp)
80000d04:	00021080 	sll	v0,v0,0x2
80000d08:	3c038000 	lui	v1,0x8000
80000d0c:	246340e0 	addiu	v1,v1,16608
80000d10:	00431021 	addu	v0,v0,v1
80000d14:	ac440000 	sw	a0,0(v0)
C:\Users\lzy05\OneDrive\18-19-Fall\SCD\git\src/mm/pmm.c:47
80000d18:	8f828004 	lw	v0,-32764(gp)
80000d1c:	24420001 	addiu	v0,v0,1
80000d20:	af828004 	sw	v0,-32764(gp)
80000d24:	03e00008 	jr	ra
80000d28:	00000000 	nop

80000d2c <pmm_init>:
pmm_init():
C:\Users\lzy05\OneDrive\18-19-Fall\SCD\git\src/mm/pmm.c:13
80000d2c:	27bdffe0 	addiu	sp,sp,-32
80000d30:	afbf001c 	sw	ra,28(sp)
80000d34:	afb10018 	sw	s1,24(sp)
80000d38:	afb00014 	sw	s0,20(sp)
C:\Users\lzy05\OneDrive\18-19-Fall\SCD\git\src/mm/pmm.c:14
80000d3c:	2402ffff 	li	v0,-1
80000d40:	af828004 	sw	v0,-32764(gp)
C:\Users\lzy05\OneDrive\18-19-Fall\SCD\git\src/mm/pmm.c:15
80000d44:	af828008 	sw	v0,-32760(gp)
80000d48:	3c100002 	lui	s0,0x2
80000d4c:	26102000 	addiu	s0,s0,8192
C:\Users\lzy05\OneDrive\18-19-Fall\SCD\git\src/mm/pmm.c:19
80000d50:	3c110003 	lui	s1,0x3
80000d54:	3631f000 	ori	s1,s1,0xf000
C:\Users\lzy05\OneDrive\18-19-Fall\SCD\git\src/mm/pmm.c:21 (discriminator 3)
80000d58:	0c00033c 	jal	80000cf0 <pmm_free_page>
80000d5c:	02002025 	move	a0,s0
C:\Users\lzy05\OneDrive\18-19-Fall\SCD\git\src/mm/pmm.c:22 (discriminator 3)
80000d60:	26101000 	addiu	s0,s0,4096
C:\Users\lzy05\OneDrive\18-19-Fall\SCD\git\src/mm/pmm.c:23 (discriminator 3)
80000d64:	8f828004 	lw	v0,-32764(gp)
80000d68:	24420001 	addiu	v0,v0,1
C:\Users\lzy05\OneDrive\18-19-Fall\SCD\git\src/mm/pmm.c:19 (discriminator 3)
80000d6c:	1611fffa 	bne	s0,s1,80000d58 <pmm_init+0x2c>
80000d70:	af828004 	sw	v0,-32764(gp)
C:\Users\lzy05\OneDrive\18-19-Fall\SCD\git\src/mm/pmm.c:25
80000d74:	8fbf001c 	lw	ra,28(sp)
80000d78:	8fb10018 	lw	s1,24(sp)
80000d7c:	8fb00014 	lw	s0,20(sp)
80000d80:	03e00008 	jr	ra
80000d84:	27bd0020 	addiu	sp,sp,32

80000d88 <free_pages_count>:
free_pages_count():
C:\Users\lzy05\OneDrive\18-19-Fall\SCD\git\src/mm/pmm.c:52
80000d88:	8f828004 	lw	v0,-32764(gp)
80000d8c:	03e00008 	jr	ra
80000d90:	24420001 	addiu	v0,v0,1

80000d94 <set_ppn_to_pte>:
set_ppn_to_pte():
C:\Users\lzy05\OneDrive\18-19-Fall\SCD\git\src/mm/vmm.c:102
80000d94:	8ca20000 	lw	v0,0(a1)
80000d98:	7c42c800 	ext	v0,v0,0x0,0x1a
80000d9c:	8ca30004 	lw	v1,4(a1)
80000da0:	00042680 	sll	a0,a0,0x1a
80000da4:	000437c3 	sra	a2,a0,0x1f
80000da8:	00441025 	or	v0,v0,a0
80000dac:	aca20000 	sw	v0,0(a1)
80000db0:	00661825 	or	v1,v1,a2
80000db4:	03e00008 	jr	ra
80000db8:	aca30004 	sw	v1,4(a1)

80000dbc <vmm_init>:
vmm_init():
C:\Users\lzy05\OneDrive\18-19-Fall\SCD\git\src/mm/vmm.c:17
80000dbc:	27bdffd8 	addiu	sp,sp,-40
80000dc0:	afbf0024 	sw	ra,36(sp)
80000dc4:	afb40020 	sw	s4,32(sp)
80000dc8:	afb3001c 	sw	s3,28(sp)
80000dcc:	afb20018 	sw	s2,24(sp)
80000dd0:	afb10014 	sw	s1,20(sp)
80000dd4:	afb00010 	sw	s0,16(sp)
C:\Users\lzy05\OneDrive\18-19-Fall\SCD\git\src/mm/vmm.c:22
80000dd8:	3c028002 	lui	v0,0x8002
80000ddc:	af828034 	sw	v0,-32716(gp)
80000de0:	24140022 	li	s4,34
80000de4:	00008025 	move	s0,zero
C:\Users\lzy05\OneDrive\18-19-Fall\SCD\git\src/mm/vmm.c:36
80000de8:	24120030 	li	s2,48
80000dec:	00009825 	move	s3,zero
C:\Users\lzy05\OneDrive\18-19-Fall\SCD\git\src/mm/vmm.c:22
80000df0:	3c118003 	lui	s1,0x8003
C:\Users\lzy05\OneDrive\18-19-Fall\SCD\git\src/mm/vmm.c:30
80000df4:	2e03001d 	sltiu	v1,s0,29
80000df8:	5060000a 	beqzl	v1,80000e24 <vmm_init+0x68>
80000dfc:	ac520000 	sw	s2,0(v0)
C:\Users\lzy05\OneDrive\18-19-Fall\SCD\git\src/mm/vmm.c:31
80000e00:	00002025 	move	a0,zero
80000e04:	00002825 	move	a1,zero
80000e08:	ac440000 	sw	a0,0(v0)
80000e0c:	ac450004 	sw	a1,4(v0)
C:\Users\lzy05\OneDrive\18-19-Fall\SCD\git\src/mm/vmm.c:32
80000e10:	02802025 	move	a0,s4
80000e14:	0c000365 	jal	80000d94 <set_ppn_to_pte>
80000e18:	8f858034 	lw	a1,-32716(gp)
80000e1c:	10000002 	b	80000e28 <vmm_init+0x6c>
80000e20:	26940001 	addiu	s4,s4,1
C:\Users\lzy05\OneDrive\18-19-Fall\SCD\git\src/mm/vmm.c:36
80000e24:	ac530004 	sw	s3,4(v0)
C:\Users\lzy05\OneDrive\18-19-Fall\SCD\git\src/mm/vmm.c:22 (discriminator 2)
80000e28:	8f828034 	lw	v0,-32716(gp)
80000e2c:	24420008 	addiu	v0,v0,8
80000e30:	af828034 	sw	v0,-32716(gp)
80000e34:	0051182b 	sltu	v1,v0,s1
80000e38:	1460ffee 	bnez	v1,80000df4 <vmm_init+0x38>
80000e3c:	26100001 	addiu	s0,s0,1
C:\Users\lzy05\OneDrive\18-19-Fall\SCD\git\src/mm/vmm.c:42
80000e40:	3c048000 	lui	a0,0x8000
80000e44:	a48040a4 	sh	zero,16548(a0)
C:\Users\lzy05\OneDrive\18-19-Fall\SCD\git\src/mm/vmm.c:44
80000e48:	3c038000 	lui	v1,0x8000
80000e4c:	3c021000 	lui	v0,0x1000
80000e50:	ac624030 	sw	v0,16432(v1)
C:\Users\lzy05\OneDrive\18-19-Fall\SCD\git\src/mm/vmm.c:46
80000e54:	3c028000 	lui	v0,0x8000
80000e58:	24050400 	li	a1,1024
80000e5c:	a4453ff4 	sh	a1,16372(v0)
C:\Users\lzy05\OneDrive\18-19-Fall\SCD\git\src/mm/vmm.c:49
80000e60:	248440a4 	addiu	a0,a0,16548
80000e64:	a4850002 	sh	a1,2(a0)
C:\Users\lzy05\OneDrive\18-19-Fall\SCD\git\src/mm/vmm.c:51
80000e68:	24634030 	addiu	v1,v1,16432
80000e6c:	3c050800 	lui	a1,0x800
80000e70:	ac650004 	sw	a1,4(v1)
C:\Users\lzy05\OneDrive\18-19-Fall\SCD\git\src/mm/vmm.c:53
80000e74:	24423ff4 	addiu	v0,v0,16372
80000e78:	24050200 	li	a1,512
80000e7c:	a4450002 	sh	a1,2(v0)
C:\Users\lzy05\OneDrive\18-19-Fall\SCD\git\src/mm/vmm.c:58
80000e80:	24050600 	li	a1,1536
80000e84:	a4850004 	sh	a1,4(a0)
C:\Users\lzy05\OneDrive\18-19-Fall\SCD\git\src/mm/vmm.c:60
80000e88:	3c050400 	lui	a1,0x400
80000e8c:	ac650008 	sw	a1,8(v1)
C:\Users\lzy05\OneDrive\18-19-Fall\SCD\git\src/mm/vmm.c:62
80000e90:	24050100 	li	a1,256
80000e94:	a4450004 	sh	a1,4(v0)
C:\Users\lzy05\OneDrive\18-19-Fall\SCD\git\src/mm/vmm.c:58
80000e98:	24060700 	li	a2,1792
80000e9c:	a4860006 	sh	a2,6(a0)
C:\Users\lzy05\OneDrive\18-19-Fall\SCD\git\src/mm/vmm.c:60
80000ea0:	3c060200 	lui	a2,0x200
80000ea4:	ac66000c 	sw	a2,12(v1)
C:\Users\lzy05\OneDrive\18-19-Fall\SCD\git\src/mm/vmm.c:62
80000ea8:	a4450006 	sh	a1,6(v0)
C:\Users\lzy05\OneDrive\18-19-Fall\SCD\git\src/mm/vmm.c:58
80000eac:	24060800 	li	a2,2048
80000eb0:	a4860008 	sh	a2,8(a0)
C:\Users\lzy05\OneDrive\18-19-Fall\SCD\git\src/mm/vmm.c:60
80000eb4:	3c040100 	lui	a0,0x100
80000eb8:	ac640010 	sw	a0,16(v1)
C:\Users\lzy05\OneDrive\18-19-Fall\SCD\git\src/mm/vmm.c:62
80000ebc:	a4450008 	sh	a1,8(v0)
80000ec0:	3c068000 	lui	a2,0x8000
80000ec4:	24c640ae 	addiu	a2,a2,16558
80000ec8:	3c058000 	lui	a1,0x8000
80000ecc:	24a54044 	addiu	a1,a1,16452
80000ed0:	3c048000 	lui	a0,0x8000
80000ed4:	24843ffe 	addiu	a0,a0,16382
C:\Users\lzy05\OneDrive\18-19-Fall\SCD\git\src/mm/vmm.c:61
80000ed8:	3c030080 	lui	v1,0x80
C:\Users\lzy05\OneDrive\18-19-Fall\SCD\git\src/mm/vmm.c:59
80000edc:	24020900 	li	v0,2304
C:\Users\lzy05\OneDrive\18-19-Fall\SCD\git\src/mm/vmm.c:73
80000ee0:	24080080 	li	t0,128
C:\Users\lzy05\OneDrive\18-19-Fall\SCD\git\src/mm/vmm.c:68
80000ee4:	24070d00 	li	a3,3328
C:\Users\lzy05\OneDrive\18-19-Fall\SCD\git\src/mm/vmm.c:69 (discriminator 3)
80000ee8:	a4c20000 	sh	v0,0(a2)
C:\Users\lzy05\OneDrive\18-19-Fall\SCD\git\src/mm/vmm.c:70 (discriminator 3)
80000eec:	24420080 	addiu	v0,v0,128
C:\Users\lzy05\OneDrive\18-19-Fall\SCD\git\src/mm/vmm.c:71 (discriminator 3)
80000ef0:	aca30000 	sw	v1,0(a1)
C:\Users\lzy05\OneDrive\18-19-Fall\SCD\git\src/mm/vmm.c:72 (discriminator 3)
80000ef4:	00031843 	sra	v1,v1,0x1
C:\Users\lzy05\OneDrive\18-19-Fall\SCD\git\src/mm/vmm.c:73 (discriminator 3)
80000ef8:	a4880000 	sh	t0,0(a0)
80000efc:	24c60002 	addiu	a2,a2,2
80000f00:	24a50004 	addiu	a1,a1,4
C:\Users\lzy05\OneDrive\18-19-Fall\SCD\git\src/mm/vmm.c:68 (discriminator 3)
80000f04:	1447fff8 	bne	v0,a3,80000ee8 <vmm_init+0x12c>
80000f08:	24840002 	addiu	a0,a0,2
80000f0c:	3c068000 	lui	a2,0x8000
80000f10:	24c640be 	addiu	a2,a2,16574
80000f14:	3c058000 	lui	a1,0x8000
80000f18:	24a54064 	addiu	a1,a1,16484
80000f1c:	3c048000 	lui	a0,0x8000
80000f20:	2484400e 	addiu	a0,a0,16398
C:\Users\lzy05\OneDrive\18-19-Fall\SCD\git\src/mm/vmm.c:84
80000f24:	24080040 	li	t0,64
C:\Users\lzy05\OneDrive\18-19-Fall\SCD\git\src/mm/vmm.c:79
80000f28:	24070f00 	li	a3,3840
C:\Users\lzy05\OneDrive\18-19-Fall\SCD\git\src/mm/vmm.c:80 (discriminator 3)
80000f2c:	a4c20000 	sh	v0,0(a2)
C:\Users\lzy05\OneDrive\18-19-Fall\SCD\git\src/mm/vmm.c:81 (discriminator 3)
80000f30:	24420040 	addiu	v0,v0,64
C:\Users\lzy05\OneDrive\18-19-Fall\SCD\git\src/mm/vmm.c:82 (discriminator 3)
80000f34:	aca30000 	sw	v1,0(a1)
C:\Users\lzy05\OneDrive\18-19-Fall\SCD\git\src/mm/vmm.c:83 (discriminator 3)
80000f38:	00031843 	sra	v1,v1,0x1
C:\Users\lzy05\OneDrive\18-19-Fall\SCD\git\src/mm/vmm.c:84 (discriminator 3)
80000f3c:	a4880000 	sh	t0,0(a0)
80000f40:	24c60002 	addiu	a2,a2,2
80000f44:	24a50004 	addiu	a1,a1,4
C:\Users\lzy05\OneDrive\18-19-Fall\SCD\git\src/mm/vmm.c:79 (discriminator 3)
80000f48:	1447fff8 	bne	v0,a3,80000f2c <vmm_init+0x170>
80000f4c:	24840002 	addiu	a0,a0,2
80000f50:	3c068000 	lui	a2,0x8000
80000f54:	24c640ce 	addiu	a2,a2,16590
80000f58:	3c058000 	lui	a1,0x8000
80000f5c:	24a54084 	addiu	a1,a1,16516
80000f60:	3c048000 	lui	a0,0x8000
80000f64:	2484401e 	addiu	a0,a0,16414
C:\Users\lzy05\OneDrive\18-19-Fall\SCD\git\src/mm/vmm.c:95
80000f68:	24080020 	li	t0,32
C:\Users\lzy05\OneDrive\18-19-Fall\SCD\git\src/mm/vmm.c:90
80000f6c:	24071000 	li	a3,4096
C:\Users\lzy05\OneDrive\18-19-Fall\SCD\git\src/mm/vmm.c:91 (discriminator 3)
80000f70:	a4c20000 	sh	v0,0(a2)
C:\Users\lzy05\OneDrive\18-19-Fall\SCD\git\src/mm/vmm.c:92 (discriminator 3)
80000f74:	24420020 	addiu	v0,v0,32
C:\Users\lzy05\OneDrive\18-19-Fall\SCD\git\src/mm/vmm.c:93 (discriminator 3)
80000f78:	aca30000 	sw	v1,0(a1)
C:\Users\lzy05\OneDrive\18-19-Fall\SCD\git\src/mm/vmm.c:94 (discriminator 3)
80000f7c:	00031843 	sra	v1,v1,0x1
C:\Users\lzy05\OneDrive\18-19-Fall\SCD\git\src/mm/vmm.c:95 (discriminator 3)
80000f80:	a4880000 	sh	t0,0(a0)
80000f84:	24c60002 	addiu	a2,a2,2
80000f88:	24a50004 	addiu	a1,a1,4
C:\Users\lzy05\OneDrive\18-19-Fall\SCD\git\src/mm/vmm.c:90 (discriminator 3)
80000f8c:	1447fff8 	bne	v0,a3,80000f70 <vmm_init+0x1b4>
80000f90:	24840002 	addiu	a0,a0,2
C:\Users\lzy05\OneDrive\18-19-Fall\SCD\git\src/mm/vmm.c:98
80000f94:	8fbf0024 	lw	ra,36(sp)
80000f98:	8fb40020 	lw	s4,32(sp)
80000f9c:	8fb3001c 	lw	s3,28(sp)
80000fa0:	8fb20018 	lw	s2,24(sp)
80000fa4:	8fb10014 	lw	s1,20(sp)
80000fa8:	8fb00010 	lw	s0,16(sp)
80000fac:	03e00008 	jr	ra
80000fb0:	27bd0028 	addiu	sp,sp,40

80000fb4 <set_vpn_to_pte>:
set_vpn_to_pte():
C:\Users\lzy05\OneDrive\18-19-Fall\SCD\git\src/mm/vmm.c:107
80000fb4:	8ca20000 	lw	v0,0(a1)
80000fb8:	7c02a984 	ins	v0,zero,0x6,0x10
80000fbc:	8ca30004 	lw	v1,4(a1)
80000fc0:	00042180 	sll	a0,a0,0x6
80000fc4:	000437c3 	sra	a2,a0,0x1f
80000fc8:	00441025 	or	v0,v0,a0
80000fcc:	aca20000 	sw	v0,0(a1)
80000fd0:	00661825 	or	v1,v1,a2
80000fd4:	03e00008 	jr	ra
80000fd8:	aca30004 	sw	v1,4(a1)

80000fdc <get_ppn_from_page_addr>:
get_ppn_from_page_addr():
C:\Users\lzy05\OneDrive\18-19-Fall\SCD\git\src/mm/vmm.c:113
80000fdc:	03e00008 	jr	ra
80000fe0:	00041302 	srl	v0,a0,0xc

80000fe4 <get_ppn_from_pte>:
get_ppn_from_pte():
C:\Users\lzy05\OneDrive\18-19-Fall\SCD\git\src/mm/vmm.c:118
80000fe4:	03e00008 	jr	ra
80000fe8:	00041682 	srl	v0,a0,0x1a

80000fec <get_vpn_from_pte>:
get_vpn_from_pte():
C:\Users\lzy05\OneDrive\18-19-Fall\SCD\git\src/mm/vmm.c:122
80000fec:	3c0203ff 	lui	v0,0x3ff
80000ff0:	3442ffc0 	ori	v0,v0,0xffc0
80000ff4:	00821024 	and	v0,a0,v0
C:\Users\lzy05\OneDrive\18-19-Fall\SCD\git\src/mm/vmm.c:123
80000ff8:	03e00008 	jr	ra
80000ffc:	00021182 	srl	v0,v0,0x6

80001000 <get_pid_from_pte>:
get_pid_from_pte():
C:\Users\lzy05\OneDrive\18-19-Fall\SCD\git\src/mm/vmm.c:128
80001000:	03e00008 	jr	ra
80001004:	3082000f 	andi	v0,a0,0xf

80001008 <get_pte_by_page_addr>:
get_pte_by_page_addr():
C:\Users\lzy05\OneDrive\18-19-Fall\SCD\git\src/mm/vmm.c:132
80001008:	af808018 	sw	zero,-32744(gp)
get_vpn_from_page_addr():
C:\Users\lzy05\OneDrive\18-19-Fall\SCD\git\src/mm/vmm.c:152
8000100c:	00042302 	srl	a0,a0,0xc
get_pte_by_page_addr():
C:\Users\lzy05\OneDrive\18-19-Fall\SCD\git\src/mm/vmm.c:136
80001010:	3c028002 	lui	v0,0x8002
80001014:	af828034 	sw	v0,-32716(gp)
get_vpn_from_pte():
C:\Users\lzy05\OneDrive\18-19-Fall\SCD\git\src/mm/vmm.c:122
80001018:	8c430000 	lw	v1,0(v0)
8000101c:	3c0203ff 	lui	v0,0x3ff
80001020:	3442ffc0 	ori	v0,v0,0xffc0
80001024:	00621024 	and	v0,v1,v0
80001028:	00021182 	srl	v0,v0,0x6
get_pte_by_page_addr():
C:\Users\lzy05\OneDrive\18-19-Fall\SCD\git\src/mm/vmm.c:143
8000102c:	14820010 	bne	a0,v0,80001070 <get_pte_by_page_addr+0x68>
80001030:	3c028002 	lui	v0,0x8002
80001034:	10000008 	b	80001058 <get_pte_by_page_addr+0x50>
80001038:	00000000 	nop
get_vpn_from_pte():
C:\Users\lzy05\OneDrive\18-19-Fall\SCD\git\src/mm/vmm.c:122
8000103c:	8c430000 	lw	v1,0(v0)
80001040:	00661824 	and	v1,v1,a2
80001044:	00031982 	srl	v1,v1,0x6
get_pte_by_page_addr():
C:\Users\lzy05\OneDrive\18-19-Fall\SCD\git\src/mm/vmm.c:143
80001048:	54830005 	bnel	a0,v1,80001060 <get_pte_by_page_addr+0x58>
8000104c:	24420008 	addiu	v0,v0,8
80001050:	03e00008 	jr	ra
80001054:	00000000 	nop
C:\Users\lzy05\OneDrive\18-19-Fall\SCD\git\src/mm/vmm.c:144
80001058:	03e00008 	jr	ra
8000105c:	00000000 	nop
C:\Users\lzy05\OneDrive\18-19-Fall\SCD\git\src/mm/vmm.c:136 (discriminator 2)
80001060:	1445fff6 	bne	v0,a1,8000103c <get_pte_by_page_addr+0x34>
80001064:	af828034 	sw	v0,-32716(gp)
C:\Users\lzy05\OneDrive\18-19-Fall\SCD\git\src/mm/vmm.c:147
80001068:	03e00008 	jr	ra
8000106c:	00001025 	move	v0,zero
C:\Users\lzy05\OneDrive\18-19-Fall\SCD\git\src/mm/vmm.c:136
80001070:	24420008 	addiu	v0,v0,8
80001074:	af828034 	sw	v0,-32716(gp)
get_vpn_from_pte():
C:\Users\lzy05\OneDrive\18-19-Fall\SCD\git\src/mm/vmm.c:122
80001078:	3c0603ff 	lui	a2,0x3ff
8000107c:	34c6ffc0 	ori	a2,a2,0xffc0
get_pte_by_page_addr():
C:\Users\lzy05\OneDrive\18-19-Fall\SCD\git\src/mm/vmm.c:136
80001080:	3c058002 	lui	a1,0x8002
80001084:	1000ffed 	b	8000103c <get_pte_by_page_addr+0x34>
80001088:	24a500e8 	addiu	a1,a1,232

8000108c <get_vpn_from_page_addr>:
get_vpn_from_page_addr():
C:\Users\lzy05\OneDrive\18-19-Fall\SCD\git\src/mm/vmm.c:153
8000108c:	03e00008 	jr	ra
80001090:	00041302 	srl	v0,a0,0xc

80001094 <get_ppn_by_vpn>:
get_ppn_by_vpn():
C:\Users\lzy05\OneDrive\18-19-Fall\SCD\git\src/mm/vmm.c:158
80001094:	3c028002 	lui	v0,0x8002
80001098:	af828034 	sw	v0,-32716(gp)
C:\Users\lzy05\OneDrive\18-19-Fall\SCD\git\src/mm/vmm.c:160
8000109c:	8c420000 	lw	v0,0(v0)
get_vpn_from_pte():
C:\Users\lzy05\OneDrive\18-19-Fall\SCD\git\src/mm/vmm.c:122
800010a0:	3c0303ff 	lui	v1,0x3ff
800010a4:	3463ffc0 	ori	v1,v1,0xffc0
800010a8:	00431824 	and	v1,v0,v1
800010ac:	00031982 	srl	v1,v1,0x6
get_ppn_by_vpn():
C:\Users\lzy05\OneDrive\18-19-Fall\SCD\git\src/mm/vmm.c:160
800010b0:	1483000f 	bne	a0,v1,800010f0 <get_ppn_by_vpn+0x5c>
800010b4:	3c038002 	lui	v1,0x8002
C:\Users\lzy05\OneDrive\18-19-Fall\SCD\git\src/mm/vmm.c:117
800010b8:	03e00008 	jr	ra
800010bc:	00021682 	srl	v0,v0,0x1a
C:\Users\lzy05\OneDrive\18-19-Fall\SCD\git\src/mm/vmm.c:160
800010c0:	8c620000 	lw	v0,0(v1)
get_vpn_from_pte():
C:\Users\lzy05\OneDrive\18-19-Fall\SCD\git\src/mm/vmm.c:122
800010c4:	00472824 	and	a1,v0,a3
800010c8:	00052982 	srl	a1,a1,0x6
get_ppn_by_vpn():
C:\Users\lzy05\OneDrive\18-19-Fall\SCD\git\src/mm/vmm.c:160
800010cc:	14850003 	bne	a0,a1,800010dc <get_ppn_by_vpn+0x48>
800010d0:	24630008 	addiu	v1,v1,8
C:\Users\lzy05\OneDrive\18-19-Fall\SCD\git\src/mm/vmm.c:161
800010d4:	03e00008 	jr	ra
800010d8:	00021682 	srl	v0,v0,0x1a
C:\Users\lzy05\OneDrive\18-19-Fall\SCD\git\src/mm/vmm.c:158 (discriminator 2)
800010dc:	1466fff8 	bne	v1,a2,800010c0 <get_ppn_by_vpn+0x2c>
800010e0:	af838034 	sw	v1,-32716(gp)
C:\Users\lzy05\OneDrive\18-19-Fall\SCD\git\src/mm/vmm.c:164
800010e4:	00001025 	move	v0,zero
800010e8:	03e00008 	jr	ra
800010ec:	00000000 	nop
C:\Users\lzy05\OneDrive\18-19-Fall\SCD\git\src/mm/vmm.c:158
800010f0:	24630008 	addiu	v1,v1,8
800010f4:	af838034 	sw	v1,-32716(gp)
get_vpn_from_pte():
C:\Users\lzy05\OneDrive\18-19-Fall\SCD\git\src/mm/vmm.c:122
800010f8:	3c0703ff 	lui	a3,0x3ff
800010fc:	34e7ffc0 	ori	a3,a3,0xffc0
get_ppn_by_vpn():
C:\Users\lzy05\OneDrive\18-19-Fall\SCD\git\src/mm/vmm.c:158
80001100:	3c068002 	lui	a2,0x8002
80001104:	1000ffee 	b	800010c0 <get_ppn_by_vpn+0x2c>
80001108:	24c600e8 	addiu	a2,a2,232

8000110c <get_phy_addr_by_vir_addr>:
get_phy_addr_by_vir_addr():
C:\Users\lzy05\OneDrive\18-19-Fall\SCD\git\src/mm/vmm.c:167
8000110c:	27bdffe8 	addiu	sp,sp,-24
80001110:	afbf0014 	sw	ra,20(sp)
80001114:	afb00010 	sw	s0,16(sp)
80001118:	00808025 	move	s0,a0
C:\Users\lzy05\OneDrive\18-19-Fall\SCD\git\src/mm/vmm.c:170
8000111c:	0c000425 	jal	80001094 <get_ppn_by_vpn>
80001120:	00042302 	srl	a0,a0,0xc
C:\Users\lzy05\OneDrive\18-19-Fall\SCD\git\src/mm/vmm.c:171
80001124:	00021300 	sll	v0,v0,0xc
80001128:	7c105804 	ins	s0,zero,0x0,0xc
C:\Users\lzy05\OneDrive\18-19-Fall\SCD\git\src/mm/vmm.c:173
8000112c:	00501025 	or	v0,v0,s0
80001130:	8fbf0014 	lw	ra,20(sp)
80001134:	8fb00010 	lw	s0,16(sp)
80001138:	03e00008 	jr	ra
8000113c:	27bd0018 	addiu	sp,sp,24

80001140 <set_page_status>:
set_page_status():
C:\Users\lzy05\OneDrive\18-19-Fall\SCD\git\src/mm/vmm.c:186
80001140:	2ca20003 	sltiu	v0,a1,3
80001144:	10400018 	beqz	v0,800011a8 <set_page_status+0x68>
80001148:	3c028002 	lui	v0,0x8002
C:\Users\lzy05\OneDrive\18-19-Fall\SCD\git\src/mm/vmm.c:190
8000114c:	af828034 	sw	v0,-32716(gp)
C:\Users\lzy05\OneDrive\18-19-Fall\SCD\git\src/mm/vmm.c:192
80001150:	8c430000 	lw	v1,0(v0)
80001154:	8c480004 	lw	t0,4(v0)
get_ppn_from_pte():
C:\Users\lzy05\OneDrive\18-19-Fall\SCD\git\src/mm/vmm.c:117
80001158:	00031682 	srl	v0,v1,0x1a
set_page_status():
C:\Users\lzy05\OneDrive\18-19-Fall\SCD\git\src/mm/vmm.c:192
8000115c:	14820014 	bne	a0,v0,800011b0 <set_page_status+0x70>
80001160:	3c028002 	lui	v0,0x8002
C:\Users\lzy05\OneDrive\18-19-Fall\SCD\git\src/mm/vmm.c:195
80001164:	10000006 	b	80001180 <set_page_status+0x40>
80001168:	7c032904 	ins	v1,zero,0x4,0x2
C:\Users\lzy05\OneDrive\18-19-Fall\SCD\git\src/mm/vmm.c:192
8000116c:	8c430000 	lw	v1,0(v0)
get_ppn_from_pte():
C:\Users\lzy05\OneDrive\18-19-Fall\SCD\git\src/mm/vmm.c:117
80001170:	00033682 	srl	a2,v1,0x1a
set_page_status():
C:\Users\lzy05\OneDrive\18-19-Fall\SCD\git\src/mm/vmm.c:192
80001174:	14860009 	bne	a0,a2,8000119c <set_page_status+0x5c>
80001178:	8c480004 	lw	t0,4(v0)
8000117c:	7c032904 	ins	v1,zero,0x4,0x2
C:\Users\lzy05\OneDrive\18-19-Fall\SCD\git\src/mm/vmm.c:194
80001180:	00052900 	sll	a1,a1,0x4
C:\Users\lzy05\OneDrive\18-19-Fall\SCD\git\src/mm/vmm.c:195
80001184:	000527c3 	sra	a0,a1,0x1f
80001188:	00651825 	or	v1,v1,a1
8000118c:	ac430000 	sw	v1,0(v0)
80001190:	01044025 	or	t0,t0,a0
C:\Users\lzy05\OneDrive\18-19-Fall\SCD\git\src/mm/vmm.c:196
80001194:	03e00008 	jr	ra
80001198:	ac480004 	sw	t0,4(v0)
C:\Users\lzy05\OneDrive\18-19-Fall\SCD\git\src/mm/vmm.c:190 (discriminator 2)
8000119c:	24420008 	addiu	v0,v0,8
800011a0:	1447fff2 	bne	v0,a3,8000116c <set_page_status+0x2c>
800011a4:	af828034 	sw	v0,-32716(gp)
800011a8:	03e00008 	jr	ra
800011ac:	00000000 	nop
C:\Users\lzy05\OneDrive\18-19-Fall\SCD\git\src/mm/vmm.c:190
800011b0:	24420008 	addiu	v0,v0,8
800011b4:	af828034 	sw	v0,-32716(gp)
800011b8:	3c078002 	lui	a3,0x8002
800011bc:	1000ffeb 	b	8000116c <set_page_status+0x2c>
800011c0:	24e700e8 	addiu	a3,a3,232

800011c4 <set_page_unallocated>:
set_page_unallocated():
C:\Users\lzy05\OneDrive\18-19-Fall\SCD\git\src/mm/vmm.c:175
800011c4:	27bdffe8 	addiu	sp,sp,-24
800011c8:	afbf0014 	sw	ra,20(sp)
C:\Users\lzy05\OneDrive\18-19-Fall\SCD\git\src/mm/vmm.c:176
800011cc:	0c000450 	jal	80001140 <set_page_status>
800011d0:	00002825 	move	a1,zero
C:\Users\lzy05\OneDrive\18-19-Fall\SCD\git\src/mm/vmm.c:177
800011d4:	8fbf0014 	lw	ra,20(sp)
800011d8:	03e00008 	jr	ra
800011dc:	27bd0018 	addiu	sp,sp,24

800011e0 <set_page_allocated>:
set_page_allocated():
C:\Users\lzy05\OneDrive\18-19-Fall\SCD\git\src/mm/vmm.c:178
800011e0:	27bdffe8 	addiu	sp,sp,-24
800011e4:	afbf0014 	sw	ra,20(sp)
C:\Users\lzy05\OneDrive\18-19-Fall\SCD\git\src/mm/vmm.c:179
800011e8:	0c000450 	jal	80001140 <set_page_status>
800011ec:	24050001 	li	a1,1
C:\Users\lzy05\OneDrive\18-19-Fall\SCD\git\src/mm/vmm.c:180
800011f0:	8fbf0014 	lw	ra,20(sp)
800011f4:	03e00008 	jr	ra
800011f8:	27bd0018 	addiu	sp,sp,24

800011fc <set_page_reserved>:
set_page_reserved():
C:\Users\lzy05\OneDrive\18-19-Fall\SCD\git\src/mm/vmm.c:181
800011fc:	27bdffe8 	addiu	sp,sp,-24
80001200:	afbf0014 	sw	ra,20(sp)
C:\Users\lzy05\OneDrive\18-19-Fall\SCD\git\src/mm/vmm.c:182
80001204:	0c000450 	jal	80001140 <set_page_status>
80001208:	24050002 	li	a1,2
C:\Users\lzy05\OneDrive\18-19-Fall\SCD\git\src/mm/vmm.c:183
8000120c:	8fbf0014 	lw	ra,20(sp)
80001210:	03e00008 	jr	ra
80001214:	27bd0018 	addiu	sp,sp,24

80001218 <get_page_status_from_pte>:
get_page_status_from_pte():
C:\Users\lzy05\OneDrive\18-19-Fall\SCD\git\src/mm/vmm.c:203
80001218:	8f828034 	lw	v0,-32716(gp)
8000121c:	8c420000 	lw	v0,0(v0)
C:\Users\lzy05\OneDrive\18-19-Fall\SCD\git\src/mm/vmm.c:205
80001220:	03e00008 	jr	ra
80001224:	7c420900 	ext	v0,v0,0x4,0x2

80001228 <get_page_status>:
get_page_status():
C:\Users\lzy05\OneDrive\18-19-Fall\SCD\git\src/mm/vmm.c:207
80001228:	27bdffe8 	addiu	sp,sp,-24
8000122c:	afbf0014 	sw	ra,20(sp)
get_vpn_from_page_addr():
C:\Users\lzy05\OneDrive\18-19-Fall\SCD\git\src/mm/vmm.c:152
80001230:	00044302 	srl	t0,a0,0xc
get_page_status():
C:\Users\lzy05\OneDrive\18-19-Fall\SCD\git\src/mm/vmm.c:210
80001234:	3c028002 	lui	v0,0x8002
80001238:	af828034 	sw	v0,-32716(gp)
C:\Users\lzy05\OneDrive\18-19-Fall\SCD\git\src/mm/vmm.c:212
8000123c:	8c440000 	lw	a0,0(v0)
80001240:	8c450004 	lw	a1,4(v0)
get_vpn_from_pte():
C:\Users\lzy05\OneDrive\18-19-Fall\SCD\git\src/mm/vmm.c:122
80001244:	3c0203ff 	lui	v0,0x3ff
80001248:	3442ffc0 	ori	v0,v0,0xffc0
8000124c:	00821024 	and	v0,a0,v0
80001250:	00021182 	srl	v0,v0,0x6
get_page_status():
C:\Users\lzy05\OneDrive\18-19-Fall\SCD\git\src/mm/vmm.c:212
80001254:	55020011 	bnel	t0,v0,8000129c <get_page_status+0x74>
80001258:	3c028002 	lui	v0,0x8002
8000125c:	10000006 	b	80001278 <get_page_status+0x50>
80001260:	00000000 	nop
80001264:	8c440000 	lw	a0,0(v0)
get_vpn_from_pte():
C:\Users\lzy05\OneDrive\18-19-Fall\SCD\git\src/mm/vmm.c:122
80001268:	00871824 	and	v1,a0,a3
8000126c:	00031982 	srl	v1,v1,0x6
get_page_status():
C:\Users\lzy05\OneDrive\18-19-Fall\SCD\git\src/mm/vmm.c:212
80001270:	15030005 	bne	t0,v1,80001288 <get_page_status+0x60>
80001274:	8c450004 	lw	a1,4(v0)
C:\Users\lzy05\OneDrive\18-19-Fall\SCD\git\src/mm/vmm.c:213
80001278:	0c000486 	jal	80001218 <get_page_status_from_pte>
8000127c:	00000000 	nop
80001280:	1000000e 	b	800012bc <get_page_status+0x94>
80001284:	8fbf0014 	lw	ra,20(sp)
C:\Users\lzy05\OneDrive\18-19-Fall\SCD\git\src/mm/vmm.c:210 (discriminator 2)
80001288:	24420008 	addiu	v0,v0,8
8000128c:	1446fff5 	bne	v0,a2,80001264 <get_page_status+0x3c>
80001290:	af828034 	sw	v0,-32716(gp)
C:\Users\lzy05\OneDrive\18-19-Fall\SCD\git\src/mm/vmm.c:216
80001294:	10000008 	b	800012b8 <get_page_status+0x90>
80001298:	2402ffff 	li	v0,-1
C:\Users\lzy05\OneDrive\18-19-Fall\SCD\git\src/mm/vmm.c:210
8000129c:	24420008 	addiu	v0,v0,8
800012a0:	af828034 	sw	v0,-32716(gp)
get_vpn_from_pte():
C:\Users\lzy05\OneDrive\18-19-Fall\SCD\git\src/mm/vmm.c:122
800012a4:	3c0703ff 	lui	a3,0x3ff
800012a8:	34e7ffc0 	ori	a3,a3,0xffc0
get_page_status():
C:\Users\lzy05\OneDrive\18-19-Fall\SCD\git\src/mm/vmm.c:210
800012ac:	3c068002 	lui	a2,0x8002
800012b0:	1000ffec 	b	80001264 <get_page_status+0x3c>
800012b4:	24c600e8 	addiu	a2,a2,232
C:\Users\lzy05\OneDrive\18-19-Fall\SCD\git\src/mm/vmm.c:217
800012b8:	8fbf0014 	lw	ra,20(sp)
800012bc:	03e00008 	jr	ra
800012c0:	27bd0018 	addiu	sp,sp,24

800012c4 <is_split_block>:
is_split_block():
C:\Users\lzy05\OneDrive\18-19-Fall\SCD\git\src/mm/vmm.c:226
800012c4:	03e00008 	jr	ra
800012c8:	000417c2 	srl	v0,a0,0x1f

800012cc <get_suitable_block_from_pte>:
get_suitable_block_from_pte():
C:\Users\lzy05\OneDrive\18-19-Fall\SCD\git\src/mm/vmm.c:233
800012cc:	04a10014 	bgez	a1,80001320 <get_suitable_block_from_pte+0x54>
800012d0:	3c048000 	lui	a0,0x8000
800012d4:	2484402c 	addiu	a0,a0,16428
800012d8:	3c078000 	lui	a3,0x8000
800012dc:	24e740a0 	addiu	a3,a3,16544
800012e0:	2402001c 	li	v0,28
C:\Users\lzy05\OneDrive\18-19-Fall\SCD\git\src/mm/vmm.c:238
800012e4:	10000004 	b	800012f8 <get_suitable_block_from_pte+0x2c>
800012e8:	2408ffff 	li	t0,-1
800012ec:	2484fffe 	addiu	a0,a0,-2
800012f0:	1048000d 	beq	v0,t0,80001328 <get_suitable_block_from_pte+0x5c>
800012f4:	24e7fffc 	addiu	a3,a3,-4
C:\Users\lzy05\OneDrive\18-19-Fall\SCD\git\src/mm/vmm.c:236
800012f8:	94830000 	lhu	v1,0(a0)
800012fc:	0066182b 	sltu	v1,v1,a2
80001300:	5460fffa 	bnezl	v1,800012ec <get_suitable_block_from_pte+0x20>
80001304:	2442ffff 	addiu	v0,v0,-1
C:\Users\lzy05\OneDrive\18-19-Fall\SCD\git\src/mm/vmm.c:236 (discriminator 1)
80001308:	8ce30000 	lw	v1,0(a3)
8000130c:	00a31824 	and	v1,a1,v1
80001310:	5460fff6 	bnezl	v1,800012ec <get_suitable_block_from_pte+0x20>
80001314:	2442ffff 	addiu	v0,v0,-1
80001318:	03e00008 	jr	ra
8000131c:	00000000 	nop
C:\Users\lzy05\OneDrive\18-19-Fall\SCD\git\src/mm/vmm.c:234
80001320:	03e00008 	jr	ra
80001324:	2402ffff 	li	v0,-1
C:\Users\lzy05\OneDrive\18-19-Fall\SCD\git\src/mm/vmm.c:242
80001328:	03e00008 	jr	ra
8000132c:	2402ffff 	li	v0,-1

80001330 <up_round>:
up_round():
C:\Users\lzy05\OneDrive\18-19-Fall\SCD\git\src/mm/vmm.c:250
80001330:	2c830021 	sltiu	v1,a0,33
80001334:	1460000e 	bnez	v1,80001370 <up_round+0x40>
80001338:	24020020 	li	v0,32
C:\Users\lzy05\OneDrive\18-19-Fall\SCD\git\src/mm/vmm.c:252
8000133c:	2c830041 	sltiu	v1,a0,65
80001340:	1460000b 	bnez	v1,80001370 <up_round+0x40>
80001344:	24020040 	li	v0,64
C:\Users\lzy05\OneDrive\18-19-Fall\SCD\git\src/mm/vmm.c:254
80001348:	2c830081 	sltiu	v1,a0,129
8000134c:	14600008 	bnez	v1,80001370 <up_round+0x40>
80001350:	24020080 	li	v0,128
C:\Users\lzy05\OneDrive\18-19-Fall\SCD\git\src/mm/vmm.c:256
80001354:	2c830101 	sltiu	v1,a0,257
80001358:	14600005 	bnez	v1,80001370 <up_round+0x40>
8000135c:	24020100 	li	v0,256
C:\Users\lzy05\OneDrive\18-19-Fall\SCD\git\src/mm/vmm.c:258
80001360:	2c840201 	sltiu	a0,a0,513
C:\Users\lzy05\OneDrive\18-19-Fall\SCD\git\src/mm/vmm.c:260
80001364:	24020400 	li	v0,1024
80001368:	24030200 	li	v1,512
8000136c:	0064100b 	movn	v0,v1,a0
C:\Users\lzy05\OneDrive\18-19-Fall\SCD\git\src/mm/vmm.c:261
80001370:	03e00008 	jr	ra
80001374:	00000000 	nop

80001378 <alloc_block>:
alloc_block():
C:\Users\lzy05\OneDrive\18-19-Fall\SCD\git\src/mm/vmm.c:264
80001378:	30840fff 	andi	a0,a0,0xfff
C:\Users\lzy05\OneDrive\18-19-Fall\SCD\git\src/mm/vmm.c:267
8000137c:	3c028000 	lui	v0,0x8000
80001380:	944240a4 	lhu	v0,16548(v0)
80001384:	1044000c 	beq	v0,a0,800013b8 <alloc_block+0x40>
80001388:	3c038000 	lui	v1,0x8000
8000138c:	246340a6 	addiu	v1,v1,16550
C:\Users\lzy05\OneDrive\18-19-Fall\SCD\git\src/mm/vmm.c:266
80001390:	24020001 	li	v0,1
80001394:	2406001d 	li	a2,29
C:\Users\lzy05\OneDrive\18-19-Fall\SCD\git\src/mm/vmm.c:267
80001398:	94650000 	lhu	a1,0(v1)
8000139c:	50a40008 	beql	a1,a0,800013c0 <alloc_block+0x48>
800013a0:	8f848034 	lw	a0,-32716(gp)
C:\Users\lzy05\OneDrive\18-19-Fall\SCD\git\src/mm/vmm.c:266 (discriminator 2)
800013a4:	24420001 	addiu	v0,v0,1
800013a8:	1446fffb 	bne	v0,a2,80001398 <alloc_block+0x20>
800013ac:	24630002 	addiu	v1,v1,2
C:\Users\lzy05\OneDrive\18-19-Fall\SCD\git\src/mm/vmm.c:270
800013b0:	10000003 	b	800013c0 <alloc_block+0x48>
800013b4:	8f848034 	lw	a0,-32716(gp)
C:\Users\lzy05\OneDrive\18-19-Fall\SCD\git\src/mm/vmm.c:266
800013b8:	00001025 	move	v0,zero
C:\Users\lzy05\OneDrive\18-19-Fall\SCD\git\src/mm/vmm.c:270
800013bc:	8f848034 	lw	a0,-32716(gp)
800013c0:	00021080 	sll	v0,v0,0x2
800013c4:	3c038000 	lui	v1,0x8000
800013c8:	24634030 	addiu	v1,v1,16432
800013cc:	00431021 	addu	v0,v0,v1
800013d0:	8c430000 	lw	v1,0(v0)
800013d4:	8c820004 	lw	v0,4(a0)
800013d8:	00431025 	or	v0,v0,v1
800013dc:	03e00008 	jr	ra
800013e0:	ac820004 	sw	v0,4(a0)

800013e4 <free_block>:
free_block():
C:\Users\lzy05\OneDrive\18-19-Fall\SCD\git\src/mm/vmm.c:274
800013e4:	27bdffe8 	addiu	sp,sp,-24
800013e8:	afbf0014 	sw	ra,20(sp)
800013ec:	afb00010 	sw	s0,16(sp)
800013f0:	00802825 	move	a1,a0
C:\Users\lzy05\OneDrive\18-19-Fall\SCD\git\src/mm/vmm.c:276
800013f4:	30a50fff 	andi	a1,a1,0xfff
C:\Users\lzy05\OneDrive\18-19-Fall\SCD\git\src/mm/vmm.c:279
800013f8:	3c028000 	lui	v0,0x8000
800013fc:	944240a4 	lhu	v0,16548(v0)
80001400:	1045000d 	beq	v0,a1,80001438 <free_block+0x54>
80001404:	7c045804 	ins	a0,zero,0x0,0xc
80001408:	3c028000 	lui	v0,0x8000
8000140c:	244240a6 	addiu	v0,v0,16550
C:\Users\lzy05\OneDrive\18-19-Fall\SCD\git\src/mm/vmm.c:278
80001410:	24100001 	li	s0,1
80001414:	2406001d 	li	a2,29
C:\Users\lzy05\OneDrive\18-19-Fall\SCD\git\src/mm/vmm.c:279
80001418:	94430000 	lhu	v1,0(v0)
8000141c:	10650007 	beq	v1,a1,8000143c <free_block+0x58>
80001420:	00000000 	nop
C:\Users\lzy05\OneDrive\18-19-Fall\SCD\git\src/mm/vmm.c:278 (discriminator 2)
80001424:	26100001 	addiu	s0,s0,1
80001428:	1606fffb 	bne	s0,a2,80001418 <free_block+0x34>
8000142c:	24420002 	addiu	v0,v0,2
80001430:	10000002 	b	8000143c <free_block+0x58>
80001434:	00000000 	nop
C:\Users\lzy05\OneDrive\18-19-Fall\SCD\git\src/mm/vmm.c:278
80001438:	00008025 	move	s0,zero
C:\Users\lzy05\OneDrive\18-19-Fall\SCD\git\src/mm/vmm.c:282
8000143c:	0c000402 	jal	80001008 <get_pte_by_page_addr>
80001440:	00108080 	sll	s0,s0,0x2
80001444:	af828034 	sw	v0,-32716(gp)
C:\Users\lzy05\OneDrive\18-19-Fall\SCD\git\src/mm/vmm.c:283
80001448:	3c038000 	lui	v1,0x8000
8000144c:	24634030 	addiu	v1,v1,16432
80001450:	02038021 	addu	s0,s0,v1
80001454:	8e030000 	lw	v1,0(s0)
80001458:	00032027 	nor	a0,zero,v1
8000145c:	8c430004 	lw	v1,4(v0)
80001460:	00641824 	and	v1,v1,a0
80001464:	ac430004 	sw	v1,4(v0)
C:\Users\lzy05\OneDrive\18-19-Fall\SCD\git\src/mm/vmm.c:284
80001468:	8fbf0014 	lw	ra,20(sp)
8000146c:	8fb00010 	lw	s0,16(sp)
80001470:	03e00008 	jr	ra
80001474:	27bd0018 	addiu	sp,sp,24

80001478 <find_block>:
find_block():
C:\Users\lzy05\OneDrive\18-19-Fall\SCD\git\src/mm/vmm.c:286
80001478:	27bdffc8 	addiu	sp,sp,-56
8000147c:	afbf0034 	sw	ra,52(sp)
80001480:	afb70030 	sw	s7,48(sp)
80001484:	afb6002c 	sw	s6,44(sp)
80001488:	afb50028 	sw	s5,40(sp)
8000148c:	afb40024 	sw	s4,36(sp)
80001490:	afb30020 	sw	s3,32(sp)
80001494:	afb2001c 	sw	s2,28(sp)
80001498:	afb10018 	sw	s1,24(sp)
8000149c:	afb00014 	sw	s0,20(sp)
800014a0:	0080a025 	move	s4,a0
800014a4:	00a0b825 	move	s7,a1
C:\Users\lzy05\OneDrive\18-19-Fall\SCD\git\src/mm/vmm.c:292
800014a8:	3c028002 	lui	v0,0x8002
800014ac:	af828034 	sw	v0,-32716(gp)
800014b0:	3c108002 	lui	s0,0x8002
C:\Users\lzy05\OneDrive\18-19-Fall\SCD\git\src/mm/vmm.c:294
800014b4:	24150001 	li	s5,1
C:\Users\lzy05\OneDrive\18-19-Fall\SCD\git\src/mm/vmm.c:299
800014b8:	2416ffff 	li	s6,-1
C:\Users\lzy05\OneDrive\18-19-Fall\SCD\git\src/mm/vmm.c:292
800014bc:	3c138002 	lui	s3,0x8002
800014c0:	267300e8 	addiu	s3,s3,232
C:\Users\lzy05\OneDrive\18-19-Fall\SCD\git\src/mm/vmm.c:294
800014c4:	8e110000 	lw	s1,0(s0)
get_pid_from_pte():
C:\Users\lzy05\OneDrive\18-19-Fall\SCD\git\src/mm/vmm.c:127
800014c8:	3222000f 	andi	v0,s1,0xf
find_block():
C:\Users\lzy05\OneDrive\18-19-Fall\SCD\git\src/mm/vmm.c:294
800014cc:	16820018 	bne	s4,v0,80001530 <find_block+0xb8>
800014d0:	8e120004 	lw	s2,4(s0)
C:\Users\lzy05\OneDrive\18-19-Fall\SCD\git\src/mm/vmm.c:294 (discriminator 1)
800014d4:	02202025 	move	a0,s1
800014d8:	0c000486 	jal	80001218 <get_page_status_from_pte>
800014dc:	02402825 	move	a1,s2
800014e0:	54550014 	bnel	v0,s5,80001534 <find_block+0xbc>
800014e4:	26100008 	addiu	s0,s0,8
C:\Users\lzy05\OneDrive\18-19-Fall\SCD\git\src/mm/vmm.c:295
800014e8:	06430012 	bgezl	s2,80001534 <find_block+0xbc>
800014ec:	26100008 	addiu	s0,s0,8
C:\Users\lzy05\OneDrive\18-19-Fall\SCD\git\src/mm/vmm.c:296
800014f0:	02202025 	move	a0,s1
800014f4:	02402825 	move	a1,s2
800014f8:	0c0004b3 	jal	800012cc <get_suitable_block_from_pte>
800014fc:	02e03025 	move	a2,s7
C:\Users\lzy05\OneDrive\18-19-Fall\SCD\git\src/mm/vmm.c:299
80001500:	1056000b 	beq	v0,s6,80001530 <find_block+0xb8>
80001504:	3c0303ff 	lui	v1,0x3ff
get_vpn_from_pte():
C:\Users\lzy05\OneDrive\18-19-Fall\SCD\git\src/mm/vmm.c:122
80001508:	3463ffc0 	ori	v1,v1,0xffc0
8000150c:	02231824 	and	v1,s1,v1
find_block():
C:\Users\lzy05\OneDrive\18-19-Fall\SCD\git\src/mm/vmm.c:301
80001510:	00031980 	sll	v1,v1,0x6
80001514:	00021040 	sll	v0,v0,0x1
80001518:	3c048000 	lui	a0,0x8000
8000151c:	248440a4 	addiu	a0,a0,16548
80001520:	00441021 	addu	v0,v0,a0
80001524:	94420000 	lhu	v0,0(v0)
C:\Users\lzy05\OneDrive\18-19-Fall\SCD\git\src/mm/vmm.c:306
80001528:	10000005 	b	80001540 <find_block+0xc8>
8000152c:	00621021 	addu	v0,v1,v0
C:\Users\lzy05\OneDrive\18-19-Fall\SCD\git\src/mm/vmm.c:292 (discriminator 2)
80001530:	26100008 	addiu	s0,s0,8
80001534:	1613ffe3 	bne	s0,s3,800014c4 <find_block+0x4c>
80001538:	af908034 	sw	s0,-32716(gp)
C:\Users\lzy05\OneDrive\18-19-Fall\SCD\git\src/mm/vmm.c:309
8000153c:	00001025 	move	v0,zero
C:\Users\lzy05\OneDrive\18-19-Fall\SCD\git\src/mm/vmm.c:310
80001540:	8fbf0034 	lw	ra,52(sp)
80001544:	8fb70030 	lw	s7,48(sp)
80001548:	8fb6002c 	lw	s6,44(sp)
8000154c:	8fb50028 	lw	s5,40(sp)
80001550:	8fb40024 	lw	s4,36(sp)
80001554:	8fb30020 	lw	s3,32(sp)
80001558:	8fb2001c 	lw	s2,28(sp)
8000155c:	8fb10018 	lw	s1,24(sp)
80001560:	8fb00014 	lw	s0,20(sp)
80001564:	03e00008 	jr	ra
80001568:	27bd0038 	addiu	sp,sp,56

8000156c <vmm_alloc_page>:
vmm_alloc_page():
C:\Users\lzy05\OneDrive\18-19-Fall\SCD\git\src/mm/vmm.c:314
8000156c:	8f82800c 	lw	v0,-32756(gp)
get_ppn_from_page_addr():
C:\Users\lzy05\OneDrive\18-19-Fall\SCD\git\src/mm/vmm.c:112
80001570:	00042302 	srl	a0,a0,0xc
vmm_alloc_page():
C:\Users\lzy05\OneDrive\18-19-Fall\SCD\git\src/mm/vmm.c:318
80001574:	3c038002 	lui	v1,0x8002
80001578:	af838034 	sw	v1,-32716(gp)
get_ppn_from_pte():
C:\Users\lzy05\OneDrive\18-19-Fall\SCD\git\src/mm/vmm.c:117
8000157c:	8c630000 	lw	v1,0(v1)
80001580:	00031e82 	srl	v1,v1,0x1a
vmm_alloc_page():
C:\Users\lzy05\OneDrive\18-19-Fall\SCD\git\src/mm/vmm.c:320
80001584:	1483002b 	bne	a0,v1,80001634 <vmm_alloc_page+0xc8>
80001588:	3c038002 	lui	v1,0x8002
C:\Users\lzy05\OneDrive\18-19-Fall\SCD\git\src/mm/vmm.c:321
8000158c:	10000006 	b	800015a8 <vmm_alloc_page+0x3c>
80001590:	00004025 	move	t0,zero
get_ppn_from_pte():
C:\Users\lzy05\OneDrive\18-19-Fall\SCD\git\src/mm/vmm.c:117
80001594:	8c670000 	lw	a3,0(v1)
80001598:	00073e82 	srl	a3,a3,0x1a
vmm_alloc_page():
C:\Users\lzy05\OneDrive\18-19-Fall\SCD\git\src/mm/vmm.c:320
8000159c:	54870021 	bnel	a0,a3,80001624 <vmm_alloc_page+0xb8>
800015a0:	24630008 	addiu	v1,v1,8
800015a4:	00004025 	move	t0,zero
C:\Users\lzy05\OneDrive\18-19-Fall\SCD\git\src/mm/vmm.c:321
800015a8:	00004825 	move	t1,zero
800015ac:	ac680000 	sw	t0,0(v1)
800015b0:	ac690004 	sw	t1,4(v1)
C:\Users\lzy05\OneDrive\18-19-Fall\SCD\git\src/mm/vmm.c:322
800015b4:	8f878034 	lw	a3,-32716(gp)
800015b8:	00042680 	sll	a0,a0,0x1a
800015bc:	8ce30000 	lw	v1,0(a3)
800015c0:	00642025 	or	a0,v1,a0
800015c4:	ace40000 	sw	a0,0(a3)
C:\Users\lzy05\OneDrive\18-19-Fall\SCD\git\src/mm/vmm.c:323
800015c8:	8f878034 	lw	a3,-32716(gp)
C:\Users\lzy05\OneDrive\18-19-Fall\SCD\git\src/mm/vmm.c:316
800015cc:	00021b02 	srl	v1,v0,0xc
C:\Users\lzy05\OneDrive\18-19-Fall\SCD\git\src/mm/vmm.c:323
800015d0:	00032180 	sll	a0,v1,0x6
800015d4:	8ce30000 	lw	v1,0(a3)
800015d8:	00641825 	or	v1,v1,a0
800015dc:	ace30000 	sw	v1,0(a3)
C:\Users\lzy05\OneDrive\18-19-Fall\SCD\git\src/mm/vmm.c:324
800015e0:	8f848034 	lw	a0,-32716(gp)
800015e4:	8c830000 	lw	v1,0(a0)
800015e8:	34630010 	ori	v1,v1,0x10
800015ec:	ac830000 	sw	v1,0(a0)
C:\Users\lzy05\OneDrive\18-19-Fall\SCD\git\src/mm/vmm.c:325
800015f0:	8f848034 	lw	a0,-32716(gp)
800015f4:	30a5000f 	andi	a1,a1,0xf
800015f8:	8c830000 	lw	v1,0(a0)
800015fc:	00652825 	or	a1,v1,a1
C:\Users\lzy05\OneDrive\18-19-Fall\SCD\git\src/mm/vmm.c:326
80001600:	24030001 	li	v1,1
80001604:	14c30010 	bne	a2,v1,80001648 <vmm_alloc_page+0xdc>
80001608:	ac850000 	sw	a1,0(a0)
C:\Users\lzy05\OneDrive\18-19-Fall\SCD\git\src/mm/vmm.c:327
8000160c:	8f848034 	lw	a0,-32716(gp)
80001610:	8c830004 	lw	v1,4(a0)
80001614:	3c058000 	lui	a1,0x8000
80001618:	00651825 	or	v1,v1,a1
8000161c:	1000000a 	b	80001648 <vmm_alloc_page+0xdc>
80001620:	ac830004 	sw	v1,4(a0)
C:\Users\lzy05\OneDrive\18-19-Fall\SCD\git\src/mm/vmm.c:318 (discriminator 2)
80001624:	1468ffdb 	bne	v1,t0,80001594 <vmm_alloc_page+0x28>
80001628:	af838034 	sw	v1,-32716(gp)
8000162c:	10000007 	b	8000164c <vmm_alloc_page+0xe0>
80001630:	8f83800c 	lw	v1,-32756(gp)
C:\Users\lzy05\OneDrive\18-19-Fall\SCD\git\src/mm/vmm.c:318
80001634:	24630008 	addiu	v1,v1,8
80001638:	af838034 	sw	v1,-32716(gp)
8000163c:	3c088002 	lui	t0,0x8002
80001640:	1000ffd4 	b	80001594 <vmm_alloc_page+0x28>
80001644:	250800e8 	addiu	t0,t0,232
C:\Users\lzy05\OneDrive\18-19-Fall\SCD\git\src/mm/vmm.c:335
80001648:	8f83800c 	lw	v1,-32756(gp)
8000164c:	24631000 	addiu	v1,v1,4096
C:\Users\lzy05\OneDrive\18-19-Fall\SCD\git\src/mm/vmm.c:337
80001650:	03e00008 	jr	ra
80001654:	af83800c 	sw	v1,-32756(gp)

80001658 <vmm_free_page>:
vmm_free_page():
C:\Users\lzy05\OneDrive\18-19-Fall\SCD\git\src/mm/vmm.c:340
80001658:	27bdffe8 	addiu	sp,sp,-24
8000165c:	afbf0014 	sw	ra,20(sp)
C:\Users\lzy05\OneDrive\18-19-Fall\SCD\git\src/mm/vmm.c:345
80001660:	0c000471 	jal	800011c4 <set_page_unallocated>
80001664:	00042302 	srl	a0,a0,0xc
C:\Users\lzy05\OneDrive\18-19-Fall\SCD\git\src/mm/vmm.c:346
80001668:	8fbf0014 	lw	ra,20(sp)
8000166c:	03e00008 	jr	ra
80001670:	27bd0018 	addiu	sp,sp,24

80001674 <addr_to_ptr>:
addr_to_ptr():
C:\Users\lzy05\OneDrive\18-19-Fall\SCD\git\src/mm/mm.c:11
80001674:	03e00008 	jr	ra
80001678:	00801025 	move	v0,a0

8000167c <mm_init>:
mm_init():
C:\Users\lzy05\OneDrive\18-19-Fall\SCD\git\src/mm/mm.c:14
8000167c:	3c028000 	lui	v0,0x8000
80001680:	24424198 	addiu	v0,v0,16792
80001684:	3c038000 	lui	v1,0x8000
80001688:	24634158 	addiu	v1,v1,16728
8000168c:	3c048000 	lui	a0,0x8000
80001690:	24844298 	addiu	a0,a0,17048
C:\Users\lzy05\OneDrive\18-19-Fall\SCD\git\src/mm/mm.c:16 (discriminator 3)
80001694:	ac400000 	sw	zero,0(v0)
C:\Users\lzy05\OneDrive\18-19-Fall\SCD\git\src/mm/mm.c:17 (discriminator 3)
80001698:	a0600000 	sb	zero,0(v1)
8000169c:	24420004 	addiu	v0,v0,4
C:\Users\lzy05\OneDrive\18-19-Fall\SCD\git\src/mm/mm.c:15 (discriminator 3)
800016a0:	1444fffc 	bne	v0,a0,80001694 <mm_init+0x18>
800016a4:	24630001 	addiu	v1,v1,1
C:\Users\lzy05\OneDrive\18-19-Fall\SCD\git\src/mm/mm.c:14
800016a8:	27bdffe8 	addiu	sp,sp,-24
800016ac:	afbf0014 	sw	ra,20(sp)
C:\Users\lzy05\OneDrive\18-19-Fall\SCD\git\src/mm/mm.c:21
800016b0:	0c00034b 	jal	80000d2c <pmm_init>
800016b4:	af808040 	sw	zero,-32704(gp)
C:\Users\lzy05\OneDrive\18-19-Fall\SCD\git\src/mm/mm.c:22
800016b8:	0c00036f 	jal	80000dbc <vmm_init>
800016bc:	00000000 	nop
C:\Users\lzy05\OneDrive\18-19-Fall\SCD\git\src/mm/mm.c:23
800016c0:	8fbf0014 	lw	ra,20(sp)
800016c4:	03e00008 	jr	ra
800016c8:	27bd0018 	addiu	sp,sp,24

800016cc <kmalloc>:
kmalloc():
C:\Users\lzy05\OneDrive\18-19-Fall\SCD\git\src/mm/mm.c:25
800016cc:	27bdffd8 	addiu	sp,sp,-40
800016d0:	afbf0024 	sw	ra,36(sp)
800016d4:	afb40020 	sw	s4,32(sp)
800016d8:	afb3001c 	sw	s3,28(sp)
800016dc:	afb20018 	sw	s2,24(sp)
800016e0:	afb10014 	sw	s1,20(sp)
800016e4:	afb00010 	sw	s0,16(sp)
800016e8:	00809025 	move	s2,a0
C:\Users\lzy05\OneDrive\18-19-Fall\SCD\git\src/mm/mm.c:46
800016ec:	2ca20401 	sltiu	v0,a1,1025
800016f0:	14400006 	bnez	v0,8000170c <kmalloc+0x40>
800016f4:	00a08825 	move	s1,a1
C:\Users\lzy05\OneDrive\18-19-Fall\SCD\git\src/mm/mm.c:83
800016f8:	2ca31001 	sltiu	v1,a1,4097
800016fc:	1060001c 	beqz	v1,80001770 <kmalloc+0xa4>
80001700:	00a01025 	move	v0,a1
80001704:	10000041 	b	8000180c <kmalloc+0x140>
80001708:	00000000 	nop
C:\Users\lzy05\OneDrive\18-19-Fall\SCD\git\src/mm/mm.c:48
8000170c:	0c00051e 	jal	80001478 <find_block>
80001710:	00000000 	nop
80001714:	00409825 	move	s3,v0
C:\Users\lzy05\OneDrive\18-19-Fall\SCD\git\src/mm/mm.c:50
80001718:	14400013 	bnez	v0,80001768 <kmalloc+0x9c>
8000171c:	00408025 	move	s0,v0
C:\Users\lzy05\OneDrive\18-19-Fall\SCD\git\src/mm/mm.c:53
80001720:	0c000362 	jal	80000d88 <free_pages_count>
80001724:	00000000 	nop
80001728:	10400041 	beqz	v0,80001830 <kmalloc+0x164>
8000172c:	02001025 	move	v0,s0
C:\Users\lzy05\OneDrive\18-19-Fall\SCD\git\src/mm/mm.c:61
80001730:	0c00032c 	jal	80000cb0 <pmm_alloc_page>
80001734:	00000000 	nop
C:\Users\lzy05\OneDrive\18-19-Fall\SCD\git\src/mm/mm.c:62
80001738:	00402025 	move	a0,v0
8000173c:	02402825 	move	a1,s2
80001740:	0c00055b 	jal	8000156c <vmm_alloc_page>
80001744:	24060001 	li	a2,1
C:\Users\lzy05\OneDrive\18-19-Fall\SCD\git\src/mm/mm.c:67
80001748:	02402025 	move	a0,s2
8000174c:	0c00051e 	jal	80001478 <find_block>
80001750:	02202825 	move	a1,s1
80001754:	00409825 	move	s3,v0
C:\Users\lzy05\OneDrive\18-19-Fall\SCD\git\src/mm/mm.c:71
80001758:	10400034 	beqz	v0,8000182c <kmalloc+0x160>
8000175c:	00408025 	move	s0,v0
C:\Users\lzy05\OneDrive\18-19-Fall\SCD\git\src/mm/mm.c:76
80001760:	0c0004de 	jal	80001378 <alloc_block>
80001764:	00402025 	move	a0,v0
C:\Users\lzy05\OneDrive\18-19-Fall\SCD\git\src/mm/mm.c:79
80001768:	10000030 	b	8000182c <kmalloc+0x160>
8000176c:	02608025 	move	s0,s3
C:\Users\lzy05\OneDrive\18-19-Fall\SCD\git\src/mm/mm.c:85
80001770:	2442f000 	addiu	v0,v0,-4096
C:\Users\lzy05\OneDrive\18-19-Fall\SCD\git\src/mm/mm.c:83
80001774:	2c431001 	sltiu	v1,v0,4097
80001778:	1060fffe 	beqz	v1,80001774 <kmalloc+0xa8>
8000177c:	2442f000 	addiu	v0,v0,-4096
80001780:	2631efff 	addiu	s1,s1,-4097
80001784:	00118b02 	srl	s1,s1,0xc
C:\Users\lzy05\OneDrive\18-19-Fall\SCD\git\src/mm/mm.c:91
80001788:	0c00032c 	jal	80000cb0 <pmm_alloc_page>
8000178c:	26340002 	addiu	s4,s1,2
C:\Users\lzy05\OneDrive\18-19-Fall\SCD\git\src/mm/mm.c:92
80001790:	00402025 	move	a0,v0
80001794:	02402825 	move	a1,s2
80001798:	0c00055b 	jal	8000156c <vmm_alloc_page>
8000179c:	00003025 	move	a2,zero
800017a0:	00409825 	move	s3,v0
C:\Users\lzy05\OneDrive\18-19-Fall\SCD\git\src/mm/mm.c:98
800017a4:	2a820002 	slti	v0,s4,2
800017a8:	1440000a 	bnez	v0,800017d4 <kmalloc+0x108>
800017ac:	02808825 	move	s1,s4
800017b0:	24100001 	li	s0,1
C:\Users\lzy05\OneDrive\18-19-Fall\SCD\git\src/mm/mm.c:99 (discriminator 3)
800017b4:	0c00032c 	jal	80000cb0 <pmm_alloc_page>
800017b8:	26100001 	addiu	s0,s0,1
C:\Users\lzy05\OneDrive\18-19-Fall\SCD\git\src/mm/mm.c:100 (discriminator 3)
800017bc:	00402025 	move	a0,v0
800017c0:	02402825 	move	a1,s2
800017c4:	0c00055b 	jal	8000156c <vmm_alloc_page>
800017c8:	00003025 	move	a2,zero
C:\Users\lzy05\OneDrive\18-19-Fall\SCD\git\src/mm/mm.c:98 (discriminator 3)
800017cc:	1611fff9 	bne	s0,s1,800017b4 <kmalloc+0xe8>
800017d0:	00000000 	nop
C:\Users\lzy05\OneDrive\18-19-Fall\SCD\git\src/mm/mm.c:108
800017d4:	8f828040 	lw	v0,-32704(gp)
800017d8:	00022080 	sll	a0,v0,0x2
800017dc:	3c038000 	lui	v1,0x8000
800017e0:	24634198 	addiu	v1,v1,16792
800017e4:	00831821 	addu	v1,a0,v1
800017e8:	ac730000 	sw	s3,0(v1)
C:\Users\lzy05\OneDrive\18-19-Fall\SCD\git\src/mm/mm.c:109
800017ec:	24430001 	addiu	v1,v0,1
800017f0:	af838040 	sw	v1,-32704(gp)
800017f4:	3c038000 	lui	v1,0x8000
800017f8:	24634158 	addiu	v1,v1,16728
800017fc:	00431021 	addu	v0,v0,v1
80001800:	a0540000 	sb	s4,0(v0)
C:\Users\lzy05\OneDrive\18-19-Fall\SCD\git\src/mm/mm.c:111
80001804:	10000009 	b	8000182c <kmalloc+0x160>
80001808:	02608025 	move	s0,s3
C:\Users\lzy05\OneDrive\18-19-Fall\SCD\git\src/mm/mm.c:91
8000180c:	0c00032c 	jal	80000cb0 <pmm_alloc_page>
80001810:	24140001 	li	s4,1
C:\Users\lzy05\OneDrive\18-19-Fall\SCD\git\src/mm/mm.c:92
80001814:	00402025 	move	a0,v0
80001818:	02402825 	move	a1,s2
8000181c:	0c00055b 	jal	8000156c <vmm_alloc_page>
80001820:	00003025 	move	a2,zero
80001824:	1000ffeb 	b	800017d4 <kmalloc+0x108>
80001828:	00409825 	move	s3,v0
C:\Users\lzy05\OneDrive\18-19-Fall\SCD\git\src/mm/mm.c:114
8000182c:	02001025 	move	v0,s0
80001830:	8fbf0024 	lw	ra,36(sp)
80001834:	8fb40020 	lw	s4,32(sp)
80001838:	8fb3001c 	lw	s3,28(sp)
8000183c:	8fb20018 	lw	s2,24(sp)
80001840:	8fb10014 	lw	s1,20(sp)
80001844:	8fb00010 	lw	s0,16(sp)
80001848:	03e00008 	jr	ra
8000184c:	27bd0028 	addiu	sp,sp,40

80001850 <kfree>:
kfree():
C:\Users\lzy05\OneDrive\18-19-Fall\SCD\git\src/mm/mm.c:116
80001850:	27bdffd8 	addiu	sp,sp,-40
80001854:	afbf0024 	sw	ra,36(sp)
80001858:	afb40020 	sw	s4,32(sp)
8000185c:	afb3001c 	sw	s3,28(sp)
80001860:	afb20018 	sw	s2,24(sp)
80001864:	afb10014 	sw	s1,20(sp)
80001868:	afb00010 	sw	s0,16(sp)
C:\Users\lzy05\OneDrive\18-19-Fall\SCD\git\src/mm/mm.c:122
8000186c:	8f858040 	lw	a1,-32704(gp)
80001870:	18a0003a 	blez	a1,8000195c <kfree+0x10c>
80001874:	3c028000 	lui	v0,0x8000
C:\Users\lzy05\OneDrive\18-19-Fall\SCD\git\src/mm/mm.c:123
80001878:	8c424198 	lw	v0,16792(v0)
8000187c:	14820031 	bne	a0,v0,80001944 <kfree+0xf4>
80001880:	00808825 	move	s1,a0
C:\Users\lzy05\OneDrive\18-19-Fall\SCD\git\src/mm/mm.c:122
80001884:	10000006 	b	800018a0 <kfree+0x50>
80001888:	00008025 	move	s0,zero
C:\Users\lzy05\OneDrive\18-19-Fall\SCD\git\src/mm/mm.c:123
8000188c:	8c43fffc 	lw	v1,-4(v0)
80001890:	56230030 	bnel	s1,v1,80001954 <kfree+0x104>
80001894:	26100001 	addiu	s0,s0,1
C:\Users\lzy05\OneDrive\18-19-Fall\SCD\git\src/mm/mm.c:127
80001898:	10000002 	b	800018a4 <kfree+0x54>
8000189c:	3c028000 	lui	v0,0x8000
800018a0:	3c028000 	lui	v0,0x8000
800018a4:	24424158 	addiu	v0,v0,16728
800018a8:	02021021 	addu	v0,s0,v0
800018ac:	90540000 	lbu	s4,0(v0)
C:\Users\lzy05\OneDrive\18-19-Fall\SCD\git\src/mm/mm.c:129
800018b0:	1a80000d 	blez	s4,800018e8 <kfree+0x98>
800018b4:	26040001 	addiu	a0,s0,1
800018b8:	00009025 	move	s2,zero
C:\Users\lzy05\OneDrive\18-19-Fall\SCD\git\src/mm/mm.c:131 (discriminator 3)
800018bc:	0c000443 	jal	8000110c <get_phy_addr_by_vir_addr>
800018c0:	02202025 	move	a0,s1
800018c4:	00409825 	move	s3,v0
C:\Users\lzy05\OneDrive\18-19-Fall\SCD\git\src/mm/mm.c:132 (discriminator 3)
800018c8:	0c00033c 	jal	80000cf0 <pmm_free_page>
800018cc:	00402025 	move	a0,v0
C:\Users\lzy05\OneDrive\18-19-Fall\SCD\git\src/mm/mm.c:133 (discriminator 3)
800018d0:	0c000596 	jal	80001658 <vmm_free_page>
800018d4:	02602025 	move	a0,s3
C:\Users\lzy05\OneDrive\18-19-Fall\SCD\git\src/mm/mm.c:129 (discriminator 3)
800018d8:	26520001 	addiu	s2,s2,1
800018dc:	1692fff7 	bne	s4,s2,800018bc <kfree+0x6c>
800018e0:	26311000 	addiu	s1,s1,4096
C:\Users\lzy05\OneDrive\18-19-Fall\SCD\git\src/mm/mm.c:137
800018e4:	26040001 	addiu	a0,s0,1
C:\Users\lzy05\OneDrive\18-19-Fall\SCD\git\src/mm/mm.c:138
800018e8:	8f868040 	lw	a2,-32704(gp)
800018ec:	0086102a 	slt	v0,a0,a2
800018f0:	50400012 	beqzl	v0,8000193c <kfree+0xec>
800018f4:	24c6ffff 	addiu	a2,a2,-1
800018f8:	00041080 	sll	v0,a0,0x2
800018fc:	3c038000 	lui	v1,0x8000
80001900:	24634198 	addiu	v1,v1,16792
80001904:	00621821 	addu	v1,v1,v0
80001908:	3c028000 	lui	v0,0x8000
8000190c:	24424158 	addiu	v0,v0,16728
80001910:	00441021 	addu	v0,v0,a0
C:\Users\lzy05\OneDrive\18-19-Fall\SCD\git\src/mm/mm.c:139
80001914:	8c650000 	lw	a1,0(v1)
80001918:	ac65fffc 	sw	a1,-4(v1)
C:\Users\lzy05\OneDrive\18-19-Fall\SCD\git\src/mm/mm.c:140
8000191c:	90450000 	lbu	a1,0(v0)
80001920:	a045ffff 	sb	a1,-1(v0)
C:\Users\lzy05\OneDrive\18-19-Fall\SCD\git\src/mm/mm.c:142
80001924:	24840001 	addiu	a0,a0,1
80001928:	24630004 	addiu	v1,v1,4
C:\Users\lzy05\OneDrive\18-19-Fall\SCD\git\src/mm/mm.c:138
8000192c:	0086282a 	slt	a1,a0,a2
80001930:	14a0fff8 	bnez	a1,80001914 <kfree+0xc4>
80001934:	24420001 	addiu	v0,v0,1
C:\Users\lzy05\OneDrive\18-19-Fall\SCD\git\src/mm/mm.c:144
80001938:	24c6ffff 	addiu	a2,a2,-1
C:\Users\lzy05\OneDrive\18-19-Fall\SCD\git\src/mm/mm.c:146
8000193c:	10000009 	b	80001964 <kfree+0x114>
80001940:	af868040 	sw	a2,-32704(gp)
80001944:	3c028000 	lui	v0,0x8000
80001948:	2442419c 	addiu	v0,v0,16796
C:\Users\lzy05\OneDrive\18-19-Fall\SCD\git\src/mm/mm.c:123
8000194c:	00008025 	move	s0,zero
C:\Users\lzy05\OneDrive\18-19-Fall\SCD\git\src/mm/mm.c:122 (discriminator 2)
80001950:	26100001 	addiu	s0,s0,1
80001954:	1605ffcd 	bne	s0,a1,8000188c <kfree+0x3c>
80001958:	24420004 	addiu	v0,v0,4
C:\Users\lzy05\OneDrive\18-19-Fall\SCD\git\src/mm/mm.c:151
8000195c:	0c0004f9 	jal	800013e4 <free_block>
80001960:	00000000 	nop
C:\Users\lzy05\OneDrive\18-19-Fall\SCD\git\src/mm/mm.c:152
80001964:	8fbf0024 	lw	ra,36(sp)
80001968:	8fb40020 	lw	s4,32(sp)
8000196c:	8fb3001c 	lw	s3,28(sp)
80001970:	8fb20018 	lw	s2,24(sp)
80001974:	8fb10014 	lw	s1,20(sp)
80001978:	8fb00010 	lw	s0,16(sp)
8000197c:	03e00008 	jr	ra
80001980:	27bd0028 	addiu	sp,sp,40

80001984 <test_alloc_memory>:
test_alloc_memory():
C:\Users\lzy05\OneDrive\18-19-Fall\SCD\git\src/mm/mm_test.c:8
80001984:	27bdff80 	addiu	sp,sp,-128
80001988:	afbf007c 	sw	ra,124(sp)
8000198c:	afb60078 	sw	s6,120(sp)
80001990:	afb50074 	sw	s5,116(sp)
80001994:	afb40070 	sw	s4,112(sp)
80001998:	afb3006c 	sw	s3,108(sp)
8000199c:	afb20068 	sw	s2,104(sp)
800019a0:	afb10064 	sw	s1,100(sp)
800019a4:	afb00060 	sw	s0,96(sp)
C:\Users\lzy05\OneDrive\18-19-Fall\SCD\git\src/mm/mm_test.c:10
800019a8:	3c028000 	lui	v0,0x8000
800019ac:	8c4b35d8 	lw	t3,13784(v0)
800019b0:	244235d8 	addiu	v0,v0,13784
800019b4:	8c4a0004 	lw	t2,4(v0)
800019b8:	8c490008 	lw	t1,8(v0)
800019bc:	8c48000c 	lw	t0,12(v0)
800019c0:	8c470010 	lw	a3,16(v0)
800019c4:	8c460014 	lw	a2,20(v0)
800019c8:	8c450018 	lw	a1,24(v0)
800019cc:	8c44001c 	lw	a0,28(v0)
800019d0:	8c430020 	lw	v1,32(v0)
800019d4:	8c420024 	lw	v0,36(v0)
800019d8:	afab0010 	sw	t3,16(sp)
800019dc:	afaa0014 	sw	t2,20(sp)
800019e0:	afa90018 	sw	t1,24(sp)
800019e4:	afa8001c 	sw	t0,28(sp)
800019e8:	afa70020 	sw	a3,32(sp)
800019ec:	afa60024 	sw	a2,36(sp)
800019f0:	afa50028 	sw	a1,40(sp)
800019f4:	afa4002c 	sw	a0,44(sp)
800019f8:	afa30030 	sw	v1,48(sp)
800019fc:	afa20034 	sw	v0,52(sp)
80001a00:	00001025 	move	v0,zero
C:\Users\lzy05\OneDrive\18-19-Fall\SCD\git\src/mm/mm_test.c:15
80001a04:	3c068000 	lui	a2,0x8000
C:\Users\lzy05\OneDrive\18-19-Fall\SCD\git\src/mm/mm_test.c:14
80001a08:	24050028 	li	a1,40
80001a0c:	27a30038 	addiu	v1,sp,56
80001a10:	00622021 	addu	a0,v1,v0
80001a14:	27a30010 	addiu	v1,sp,16
80001a18:	00621821 	addu	v1,v1,v0
C:\Users\lzy05\OneDrive\18-19-Fall\SCD\git\src/mm/mm_test.c:15 (discriminator 3)
80001a1c:	8c630000 	lw	v1,0(v1)
80001a20:	00661821 	addu	v1,v1,a2
80001a24:	24420004 	addiu	v0,v0,4
C:\Users\lzy05\OneDrive\18-19-Fall\SCD\git\src/mm/mm_test.c:14 (discriminator 3)
80001a28:	1445fff8 	bne	v0,a1,80001a0c <test_alloc_memory+0x88>
80001a2c:	ac830000 	sw	v1,0(a0)
80001a30:	3c118000 	lui	s1,0x8000
80001a34:	26313adc 	addiu	s1,s1,15068
80001a38:	27b20038 	addiu	s2,sp,56
C:\Users\lzy05\OneDrive\18-19-Fall\SCD\git\src/mm/mm_test.c:14
80001a3c:	00009825 	move	s3,zero
C:\Users\lzy05\OneDrive\18-19-Fall\SCD\git\src/mm/mm_test.c:20
80001a40:	24140001 	li	s4,1
C:\Users\lzy05\OneDrive\18-19-Fall\SCD\git\src/mm/mm_test.c:17
80001a44:	2415000a 	li	s5,10
C:\Users\lzy05\OneDrive\18-19-Fall\SCD\git\src/mm/mm_test.c:19
80001a48:	8f848030 	lw	a0,-32720(gp)
80001a4c:	0c0005b3 	jal	800016cc <kmalloc>
80001a50:	8e250000 	lw	a1,0(s1)
80001a54:	00408025 	move	s0,v0
C:\Users\lzy05\OneDrive\18-19-Fall\SCD\git\src/mm/mm_test.c:20
80001a58:	0c00048a 	jal	80001228 <get_page_status>
80001a5c:	00402025 	move	a0,v0
80001a60:	50540005 	beql	v0,s4,80001a78 <test_alloc_memory+0xf4>
80001a64:	8e420000 	lw	v0,0(s2)
C:\Users\lzy05\OneDrive\18-19-Fall\SCD\git\src/mm/mm_test.c:23
80001a68:	0c0001f5 	jal	800007d4 <writeValTo7SegsHex>
80001a6c:	2404ffff 	li	a0,-1
C:\Users\lzy05\OneDrive\18-19-Fall\SCD\git\src/mm/mm_test.c:24
80001a70:	10000011 	b	80001ab8 <test_alloc_memory+0x134>
80001a74:	24020001 	li	v0,1
C:\Users\lzy05\OneDrive\18-19-Fall\SCD\git\src/mm/mm_test.c:27
80001a78:	52020009 	beql	s0,v0,80001aa0 <test_alloc_memory+0x11c>
80001a7c:	26730001 	addiu	s3,s3,1
C:\Users\lzy05\OneDrive\18-19-Fall\SCD\git\src/mm/mm_test.c:34
80001a80:	0c0001f5 	jal	800007d4 <writeValTo7SegsHex>
80001a84:	2404fff0 	li	a0,-16
C:\Users\lzy05\OneDrive\18-19-Fall\SCD\git\src/mm/mm_test.c:35
80001a88:	0c0001c7 	jal	8000071c <writeValTo7SegsDec>
80001a8c:	02602025 	move	a0,s3
C:\Users\lzy05\OneDrive\18-19-Fall\SCD\git\src/mm/mm_test.c:36
80001a90:	0c0001f5 	jal	800007d4 <writeValTo7SegsHex>
80001a94:	02002025 	move	a0,s0
C:\Users\lzy05\OneDrive\18-19-Fall\SCD\git\src/mm/mm_test.c:37
80001a98:	10000007 	b	80001ab8 <test_alloc_memory+0x134>
80001a9c:	24020002 	li	v0,2
80001aa0:	26310004 	addiu	s1,s1,4
C:\Users\lzy05\OneDrive\18-19-Fall\SCD\git\src/mm/mm_test.c:17 (discriminator 2)
80001aa4:	1675ffe8 	bne	s3,s5,80001a48 <test_alloc_memory+0xc4>
80001aa8:	26520004 	addiu	s2,s2,4
C:\Users\lzy05\OneDrive\18-19-Fall\SCD\git\src/mm/mm_test.c:41
80001aac:	0c0001f5 	jal	800007d4 <writeValTo7SegsHex>
80001ab0:	00002025 	move	a0,zero
C:\Users\lzy05\OneDrive\18-19-Fall\SCD\git\src/mm/mm_test.c:42
80001ab4:	24020003 	li	v0,3
C:\Users\lzy05\OneDrive\18-19-Fall\SCD\git\src/mm/mm_test.c:43
80001ab8:	8fbf007c 	lw	ra,124(sp)
80001abc:	8fb60078 	lw	s6,120(sp)
80001ac0:	8fb50074 	lw	s5,116(sp)
80001ac4:	8fb40070 	lw	s4,112(sp)
80001ac8:	8fb3006c 	lw	s3,108(sp)
80001acc:	8fb20068 	lw	s2,104(sp)
80001ad0:	8fb10064 	lw	s1,100(sp)
80001ad4:	8fb00060 	lw	s0,96(sp)
80001ad8:	03e00008 	jr	ra
80001adc:	27bd0080 	addiu	sp,sp,128

80001ae0 <test_rw_memory>:
test_rw_memory():
C:\Users\lzy05\OneDrive\18-19-Fall\SCD\git\src/mm/mm_test.c:45
80001ae0:	27bdffe0 	addiu	sp,sp,-32
80001ae4:	afbf001c 	sw	ra,28(sp)
80001ae8:	afb10018 	sw	s1,24(sp)
80001aec:	afb00014 	sw	s0,20(sp)
C:\Users\lzy05\OneDrive\18-19-Fall\SCD\git\src/mm/mm_test.c:48
80001af0:	00002025 	move	a0,zero
80001af4:	0c0005b3 	jal	800016cc <kmalloc>
80001af8:	24050080 	li	a1,128
80001afc:	00408025 	move	s0,v0
C:\Users\lzy05\OneDrive\18-19-Fall\SCD\git\src/mm/mm_test.c:49
80001b00:	00002025 	move	a0,zero
80001b04:	0c0005b3 	jal	800016cc <kmalloc>
80001b08:	24051000 	li	a1,4096
80001b0c:	00408825 	move	s1,v0
C:\Users\lzy05\OneDrive\18-19-Fall\SCD\git\src/mm/mm_test.c:50
80001b10:	0c0001f5 	jal	800007d4 <writeValTo7SegsHex>
80001b14:	02002025 	move	a0,s0
C:\Users\lzy05\OneDrive\18-19-Fall\SCD\git\src/mm/mm_test.c:51
80001b18:	0c0001f5 	jal	800007d4 <writeValTo7SegsHex>
80001b1c:	02202025 	move	a0,s1
C:\Users\lzy05\OneDrive\18-19-Fall\SCD\git\src/mm/mm_test.c:52
80001b20:	240201c8 	li	v0,456
80001b24:	ae220000 	sw	v0,0(s1)
C:\Users\lzy05\OneDrive\18-19-Fall\SCD\git\src/mm/mm_test.c:53
80001b28:	0c0001c7 	jal	8000071c <writeValTo7SegsDec>
80001b2c:	240401c8 	li	a0,456
C:\Users\lzy05\OneDrive\18-19-Fall\SCD\git\src/mm/mm_test.c:54
80001b30:	2402007b 	li	v0,123
80001b34:	ae020000 	sw	v0,0(s0)
C:\Users\lzy05\OneDrive\18-19-Fall\SCD\git\src/mm/mm_test.c:55
80001b38:	0c0001c7 	jal	8000071c <writeValTo7SegsDec>
80001b3c:	2404007b 	li	a0,123
C:\Users\lzy05\OneDrive\18-19-Fall\SCD\git\src/mm/mm_test.c:58
80001b40:	24020001 	li	v0,1
80001b44:	8fbf001c 	lw	ra,28(sp)
80001b48:	8fb10018 	lw	s1,24(sp)
80001b4c:	8fb00014 	lw	s0,20(sp)
80001b50:	03e00008 	jr	ra
80001b54:	27bd0020 	addiu	sp,sp,32

80001b58 <test_free_memory>:
test_free_memory():
C:\Users\lzy05\OneDrive\18-19-Fall\SCD\git\src/mm/mm_test.c:62
80001b58:	03e00008 	jr	ra
80001b5c:	24020001 	li	v0,1

80001b60 <test_global_variable>:
test_global_variable():
C:\Users\lzy05\OneDrive\18-19-Fall\SCD\git\src/mm/mm_test.c:66
80001b60:	24020002 	li	v0,2
80001b64:	03e00008 	jr	ra
80001b68:	af82802c 	sw	v0,-32724(gp)

80001b6c <test_pmm>:
test_pmm():
C:\Users\lzy05\OneDrive\18-19-Fall\SCD\git\src/main.c:16
80001b6c:	27bdffe8 	addiu	sp,sp,-24
80001b70:	afbf0014 	sw	ra,20(sp)
C:\Users\lzy05\OneDrive\18-19-Fall\SCD\git\src/main.c:22
80001b74:	0c00034b 	jal	80000d2c <pmm_init>
80001b78:	afb00010 	sw	s0,16(sp)
80001b7c:	24100023 	li	s0,35
C:\Users\lzy05\OneDrive\18-19-Fall\SCD\git\src/main.c:25 (discriminator 3)
80001b80:	0c00032c 	jal	80000cb0 <pmm_alloc_page>
80001b84:	2610ffff 	addiu	s0,s0,-1
C:\Users\lzy05\OneDrive\18-19-Fall\SCD\git\src/main.c:26 (discriminator 3)
80001b88:	0c0001f5 	jal	800007d4 <writeValTo7SegsHex>
80001b8c:	00402025 	move	a0,v0
C:\Users\lzy05\OneDrive\18-19-Fall\SCD\git\src/main.c:27 (discriminator 3)
80001b90:	0c0001b4 	jal	800006d0 <delay>
80001b94:	00000000 	nop
C:\Users\lzy05\OneDrive\18-19-Fall\SCD\git\src/main.c:24 (discriminator 3)
80001b98:	1600fff9 	bnez	s0,80001b80 <test_pmm+0x14>
80001b9c:	8fbf0014 	lw	ra,20(sp)
C:\Users\lzy05\OneDrive\18-19-Fall\SCD\git\src/main.c:34
80001ba0:	8fb00010 	lw	s0,16(sp)
80001ba4:	03e00008 	jr	ra
80001ba8:	27bd0018 	addiu	sp,sp,24

80001bac <test_vmm>:
test_vmm():
C:\Users\lzy05\OneDrive\18-19-Fall\SCD\git\src/main.c:36
80001bac:	27bdffe8 	addiu	sp,sp,-24
80001bb0:	afbf0014 	sw	ra,20(sp)
C:\Users\lzy05\OneDrive\18-19-Fall\SCD\git\src/main.c:41
80001bb4:	0c00034b 	jal	80000d2c <pmm_init>
80001bb8:	00000000 	nop
C:\Users\lzy05\OneDrive\18-19-Fall\SCD\git\src/main.c:43
80001bbc:	0c00036f 	jal	80000dbc <vmm_init>
80001bc0:	00000000 	nop
C:\Users\lzy05\OneDrive\18-19-Fall\SCD\git\src/main.c:44
80001bc4:	00002025 	move	a0,zero
80001bc8:	0c0005b3 	jal	800016cc <kmalloc>
80001bcc:	24050020 	li	a1,32
C:\Users\lzy05\OneDrive\18-19-Fall\SCD\git\src/main.c:57
80001bd0:	8fbf0014 	lw	ra,20(sp)
80001bd4:	03e00008 	jr	ra
80001bd8:	27bd0018 	addiu	sp,sp,24

80001bdc <main>:
main():
C:\Users\lzy05\OneDrive\18-19-Fall\SCD\git\src/main.c:59
80001bdc:	27bdffe8 	addiu	sp,sp,-24
80001be0:	afbf0014 	sw	ra,20(sp)
C:\Users\lzy05\OneDrive\18-19-Fall\SCD\git\src/main.c:60
80001be4:	0c00059f 	jal	8000167c <mm_init>
80001be8:	afb00010 	sw	s0,16(sp)
C:\Users\lzy05\OneDrive\18-19-Fall\SCD\git\src/main.c:64
80001bec:	0c0002b5 	jal	80000ad4 <proc_init>
80001bf0:	3c106666 	lui	s0,0x6666
C:\Users\lzy05\OneDrive\18-19-Fall\SCD\git\src/main.c:65
80001bf4:	0c0002e8 	jal	80000ba0 <cpu_idle>
80001bf8:	26106666 	addiu	s0,s0,26214
C:\Users\lzy05\OneDrive\18-19-Fall\SCD\git\src/main.c:66 (discriminator 1)
80001bfc:	0c0001f5 	jal	800007d4 <writeValTo7SegsHex>
80001c00:	02002025 	move	a0,s0
80001c04:	1000fffd 	b	80001bfc <main+0x20>
80001c08:	00000000 	nop

80001c0c <_mips_handle_exception>:
_mips_handle_exception():
C:\Users\lzy05\OneDrive\18-19-Fall\SCD\git\src/main.c:73
80001c0c:	27bdffe0 	addiu	sp,sp,-32
80001c10:	afbf001c 	sw	ra,28(sp)
80001c14:	afb00018 	sw	s0,24(sp)
C:\Users\lzy05\OneDrive\18-19-Fall\SCD\git\src/main.c:75
80001c18:	2ca20009 	sltiu	v0,a1,9
80001c1c:	10400049 	beqz	v0,80001d44 <_mips_handle_exception+0x138>
80001c20:	00808025 	move	s0,a0
80001c24:	00051880 	sll	v1,a1,0x2
80001c28:	3c028000 	lui	v0,0x8000
80001c2c:	24423600 	addiu	v0,v0,13824
80001c30:	00431021 	addu	v0,v0,v1
80001c34:	8c420000 	lw	v0,0(v0)
80001c38:	00400008 	jr	v0
80001c3c:	00000000 	nop
C:\Users\lzy05\OneDrive\18-19-Fall\SCD\git\src/main.c:77
80001c40:	3c041111 	lui	a0,0x1111
80001c44:	0c0001f5 	jal	800007d4 <writeValTo7SegsHex>
80001c48:	24841111 	addiu	a0,a0,4369
C:\Users\lzy05\OneDrive\18-19-Fall\SCD\git\src/main.c:78
80001c4c:	10000040 	b	80001d50 <_mips_handle_exception+0x144>
80001c50:	8fbf001c 	lw	ra,28(sp)
C:\Users\lzy05\OneDrive\18-19-Fall\SCD\git\src/main.c:80
80001c54:	3c040202 	lui	a0,0x202
80001c58:	0c0001f5 	jal	800007d4 <writeValTo7SegsHex>
80001c5c:	24840202 	addiu	a0,a0,514
C:\Users\lzy05\OneDrive\18-19-Fall\SCD\git\src/main.c:81
80001c60:	1000003b 	b	80001d50 <_mips_handle_exception+0x144>
80001c64:	8fbf001c 	lw	ra,28(sp)
C:\Users\lzy05\OneDrive\18-19-Fall\SCD\git\src/main.c:84
80001c68:	3c040404 	lui	a0,0x404
80001c6c:	0c0001f5 	jal	800007d4 <writeValTo7SegsHex>
80001c70:	24840404 	addiu	a0,a0,1028
C:\Users\lzy05\OneDrive\18-19-Fall\SCD\git\src/main.c:85
80001c74:	10000036 	b	80001d50 <_mips_handle_exception+0x144>
80001c78:	8fbf001c 	lw	ra,28(sp)
C:\Users\lzy05\OneDrive\18-19-Fall\SCD\git\src/main.c:90
80001c7c:	3c040101 	lui	a0,0x101
80001c80:	0c0001f5 	jal	800007d4 <writeValTo7SegsHex>
80001c84:	24840101 	addiu	a0,a0,257
C:\Users\lzy05\OneDrive\18-19-Fall\SCD\git\src/main.c:94
80001c88:	24020fff 	li	v0,4095
80001c8c:	40822800 	mtc0	v0,c0_pagemask
80001c90:	000000c0 	ehb
C:\Users\lzy05\OneDrive\18-19-Fall\SCD\git\src/main.c:96
80001c94:	8e040080 	lw	a0,128(s0)
C:\Users\lzy05\OneDrive\18-19-Fall\SCD\git\src/main.c:98
80001c98:	0c0001f5 	jal	800007d4 <writeValTo7SegsHex>
80001c9c:	00048302 	srl	s0,a0,0xc
C:\Users\lzy05\OneDrive\18-19-Fall\SCD\git\src/main.c:102
80001ca0:	32020001 	andi	v0,s0,0x1
80001ca4:	1440000f 	bnez	v0,80001ce4 <_mips_handle_exception+0xd8>
80001ca8:	00000000 	nop
C:\Users\lzy05\OneDrive\18-19-Fall\SCD\git\src/main.c:103
80001cac:	0c000425 	jal	80001094 <get_ppn_by_vpn>
80001cb0:	02002025 	move	a0,s0
C:\Users\lzy05\OneDrive\18-19-Fall\SCD\git\src/main.c:104
80001cb4:	00021180 	sll	v0,v0,0x6
80001cb8:	34420007 	ori	v0,v0,0x7
80001cbc:	40821000 	mtc0	v0,c0_entrylo0
80001cc0:	000000c0 	ehb
C:\Users\lzy05\OneDrive\18-19-Fall\SCD\git\src/main.c:105
80001cc4:	0c000425 	jal	80001094 <get_ppn_by_vpn>
80001cc8:	26040001 	addiu	a0,s0,1
C:\Users\lzy05\OneDrive\18-19-Fall\SCD\git\src/main.c:106
80001ccc:	00021180 	sll	v0,v0,0x6
80001cd0:	34420007 	ori	v0,v0,0x7
80001cd4:	40821800 	mtc0	v0,c0_entrylo1
80001cd8:	000000c0 	ehb
80001cdc:	1000000e 	b	80001d18 <_mips_handle_exception+0x10c>
80001ce0:	00108300 	sll	s0,s0,0xc
C:\Users\lzy05\OneDrive\18-19-Fall\SCD\git\src/main.c:109
80001ce4:	0c000425 	jal	80001094 <get_ppn_by_vpn>
80001ce8:	2604ffff 	addiu	a0,s0,-1
C:\Users\lzy05\OneDrive\18-19-Fall\SCD\git\src/main.c:110
80001cec:	00021180 	sll	v0,v0,0x6
80001cf0:	34420007 	ori	v0,v0,0x7
80001cf4:	40821000 	mtc0	v0,c0_entrylo0
80001cf8:	000000c0 	ehb
C:\Users\lzy05\OneDrive\18-19-Fall\SCD\git\src/main.c:111
80001cfc:	0c000425 	jal	80001094 <get_ppn_by_vpn>
80001d00:	02002025 	move	a0,s0
C:\Users\lzy05\OneDrive\18-19-Fall\SCD\git\src/main.c:112
80001d04:	00021180 	sll	v0,v0,0x6
80001d08:	34420007 	ori	v0,v0,0x7
80001d0c:	40821800 	mtc0	v0,c0_entrylo1
80001d10:	000000c0 	ehb
C:\Users\lzy05\OneDrive\18-19-Fall\SCD\git\src/main.c:116
80001d14:	00108300 	sll	s0,s0,0xc
80001d18:	40905000 	mtc0	s0,c0_entryhi
80001d1c:	000000c0 	ehb
C:\Users\lzy05\OneDrive\18-19-Fall\SCD\git\src/main.c:120
80001d20:	40045000 	mfc0	a0,c0_entryhi
C:\Users\lzy05\OneDrive\18-19-Fall\SCD\git\src/main.c:121
80001d24:	40051000 	mfc0	a1,c0_entrylo0
C:\Users\lzy05\OneDrive\18-19-Fall\SCD\git\src/main.c:122
80001d28:	40061800 	mfc0	a2,c0_entrylo1
C:\Users\lzy05\OneDrive\18-19-Fall\SCD\git\src/main.c:123
80001d2c:	40072800 	mfc0	a3,c0_pagemask
C:\Users\lzy05\OneDrive\18-19-Fall\SCD\git\src/main.c:119
80001d30:	24020001 	li	v0,1
80001d34:	0c00098d 	jal	80002634 <mips_tlbwi2>
80001d38:	afa20010 	sw	v0,16(sp)
C:\Users\lzy05\OneDrive\18-19-Fall\SCD\git\src/main.c:138
80001d3c:	10000004 	b	80001d50 <_mips_handle_exception+0x144>
80001d40:	8fbf001c 	lw	ra,28(sp)
C:\Users\lzy05\OneDrive\18-19-Fall\SCD\git\src/main.c:140
80001d44:	0c000a2f 	jal	800028bc <__exception_handle>
80001d48:	02002025 	move	a0,s0
C:\Users\lzy05\OneDrive\18-19-Fall\SCD\git\src/main.c:143
80001d4c:	8fbf001c 	lw	ra,28(sp)
80001d50:	8fb00018 	lw	s0,24(sp)
80001d54:	03e00008 	jr	ra
80001d58:	27bd0020 	addiu	sp,sp,32

80001d5c <__do_global_ctors_aux>:
__do_global_ctors_aux():
80001d5c:	27bdffe0 	addiu	sp,sp,-32
80001d60:	afb00014 	sw	s0,20(sp)
80001d64:	3c108000 	lui	s0,0x8000
80001d68:	afb10018 	sw	s1,24(sp)
80001d6c:	2411ffff 	li	s1,-1
80001d70:	261035ac 	addiu	s0,s0,13740
80001d74:	afbf001c 	sw	ra,28(sp)
80001d78:	8e020000 	lw	v0,0(s0)
80001d7c:	10510005 	beq	v0,s1,80001d94 <__do_global_ctors_aux+0x38>
80001d80:	8fbf001c 	lw	ra,28(sp)
80001d84:	0040f809 	jalr	v0
80001d88:	2610fffc 	addiu	s0,s0,-4
80001d8c:	1000fffb 	b	80001d7c <__do_global_ctors_aux+0x20>
80001d90:	8e020000 	lw	v0,0(s0)
80001d94:	8fb10018 	lw	s1,24(sp)
80001d98:	8fb00014 	lw	s0,20(sp)
80001d9c:	03e00008 	jr	ra
80001da0:	27bd0020 	addiu	sp,sp,32

80001da4 <atexit>:
atexit():
/scratch/mpf/jobs/54395/48094/240198/shared/gcc/newlib/libc/stdlib/atexit.c:64
80001da4:	27bdffe8 	addiu	sp,sp,-24
80001da8:	00802825 	move	a1,a0
/scratch/mpf/jobs/54395/48094/240198/shared/gcc/newlib/libc/stdlib/atexit.c:65
80001dac:	00003025 	move	a2,zero
80001db0:	00002025 	move	a0,zero
/scratch/mpf/jobs/54395/48094/240198/shared/gcc/newlib/libc/stdlib/atexit.c:64
80001db4:	afbf0014 	sw	ra,20(sp)
/scratch/mpf/jobs/54395/48094/240198/shared/gcc/newlib/libc/stdlib/atexit.c:65
80001db8:	0c0008b4 	jal	800022d0 <__register_exitproc>
80001dbc:	00003825 	move	a3,zero
/scratch/mpf/jobs/54395/48094/240198/shared/gcc/newlib/libc/stdlib/atexit.c:66
80001dc0:	8fbf0014 	lw	ra,20(sp)
80001dc4:	03e00008 	jr	ra
80001dc8:	27bd0018 	addiu	sp,sp,24

80001dcc <exit>:
exit():
/scratch/mpf/jobs/54395/48094/240198/shared/gcc/newlib/libc/stdlib/exit.c:60
80001dcc:	27bdffe8 	addiu	sp,sp,-24
/scratch/mpf/jobs/54395/48094/240198/shared/gcc/newlib/libc/stdlib/exit.c:66
80001dd0:	00002825 	move	a1,zero
/scratch/mpf/jobs/54395/48094/240198/shared/gcc/newlib/libc/stdlib/exit.c:60
80001dd4:	afb00010 	sw	s0,16(sp)
80001dd8:	afbf0014 	sw	ra,20(sp)
/scratch/mpf/jobs/54395/48094/240198/shared/gcc/newlib/libc/stdlib/exit.c:66
80001ddc:	0c0008f8 	jal	800023e0 <__call_exitprocs>
80001de0:	00808025 	move	s0,a0
/scratch/mpf/jobs/54395/48094/240198/shared/gcc/newlib/libc/stdlib/exit.c:68
80001de4:	3c028000 	lui	v0,0x8000
80001de8:	8c443fa0 	lw	a0,16288(v0)
80001dec:	8c82003c 	lw	v0,60(a0)
80001df0:	10400003 	beqz	v0,80001e00 <exit+0x34>
80001df4:	00000000 	nop
/scratch/mpf/jobs/54395/48094/240198/shared/gcc/newlib/libc/stdlib/exit.c:69
80001df8:	0040f809 	jalr	v0
80001dfc:	00000000 	nop
/scratch/mpf/jobs/54395/48094/240198/shared/gcc/newlib/libc/stdlib/exit.c:70
80001e00:	0c000116 	jal	80000458 <_exit>
80001e04:	02002025 	move	a0,s0

80001e08 <memcpy>:
/scratch/mpf/jobs/54395/48094/240198/shared/gcc/newlib/libc/machine/mips/memcpy.S:317
80001e08:	28ca0008 	slti	t2,a2,8
/scratch/mpf/jobs/54395/48094/240198/shared/gcc/newlib/libc/machine/mips/memcpy.S:323
80001e0c:	1540005f 	bnez	t2,80001f8c <memcpy+0x184>
80001e10:	00801025 	move	v0,a0
/scratch/mpf/jobs/54395/48094/240198/shared/gcc/newlib/libc/machine/mips/memcpy.S:333
80001e14:	00a4c026 	xor	t8,a1,a0
/scratch/mpf/jobs/54395/48094/240198/shared/gcc/newlib/libc/machine/mips/memcpy.S:334
80001e18:	33180003 	andi	t8,t8,0x3
/scratch/mpf/jobs/54395/48094/240198/shared/gcc/newlib/libc/machine/mips/memcpy.S:336
80001e1c:	17000064 	bnez	t8,80001fb0 <memcpy+0x1a8>
80001e20:	00043823 	negu	a3,a0
/scratch/mpf/jobs/54395/48094/240198/shared/gcc/newlib/libc/machine/mips/memcpy.S:338
80001e24:	30e70003 	andi	a3,a3,0x3
/scratch/mpf/jobs/54395/48094/240198/shared/gcc/newlib/libc/machine/mips/memcpy.S:340
80001e28:	10e00005 	beqz	a3,80001e40 <memcpy+0x38>
80001e2c:	00c73023 	subu	a2,a2,a3
/scratch/mpf/jobs/54395/48094/240198/shared/gcc/newlib/libc/machine/mips/memcpy.S:342
80001e30:	98b80000 	lwr	t8,0(a1)
/scratch/mpf/jobs/54395/48094/240198/shared/gcc/newlib/libc/machine/mips/memcpy.S:343
80001e34:	00a72821 	addu	a1,a1,a3
/scratch/mpf/jobs/54395/48094/240198/shared/gcc/newlib/libc/machine/mips/memcpy.S:344
80001e38:	b8980000 	swr	t8,0(a0)
/scratch/mpf/jobs/54395/48094/240198/shared/gcc/newlib/libc/machine/mips/memcpy.S:345
80001e3c:	00872021 	addu	a0,a0,a3
/scratch/mpf/jobs/54395/48094/240198/shared/gcc/newlib/libc/machine/mips/memcpy.S:435
80001e40:	30d8003f 	andi	t8,a2,0x3f
/scratch/mpf/jobs/54395/48094/240198/shared/gcc/newlib/libc/machine/mips/memcpy.S:437
80001e44:	10d80032 	beq	a2,t8,80001f10 <memcpy+0x108>
80001e48:	00d83823 	subu	a3,a2,t8
/scratch/mpf/jobs/54395/48094/240198/shared/gcc/newlib/libc/machine/mips/memcpy.S:438
80001e4c:	00873821 	addu	a3,a0,a3
/scratch/mpf/jobs/54395/48094/240198/shared/gcc/newlib/libc/machine/mips/memcpy.S:447
80001e50:	00864021 	addu	t0,a0,a2
/scratch/mpf/jobs/54395/48094/240198/shared/gcc/newlib/libc/machine/mips/memcpy.S:448
80001e54:	2519fee0 	addiu	t9,t0,-288
/scratch/mpf/jobs/54395/48094/240198/shared/gcc/newlib/libc/machine/mips/memcpy.S:450
80001e58:	cca40000 	pref	0x4,0(a1)
/scratch/mpf/jobs/54395/48094/240198/shared/gcc/newlib/libc/machine/mips/memcpy.S:451
80001e5c:	cca40020 	pref	0x4,32(a1)
/scratch/mpf/jobs/54395/48094/240198/shared/gcc/newlib/libc/machine/mips/memcpy.S:452
80001e60:	cca40040 	pref	0x4,64(a1)
/scratch/mpf/jobs/54395/48094/240198/shared/gcc/newlib/libc/machine/mips/memcpy.S:453
80001e64:	cca40060 	pref	0x4,96(a1)
/scratch/mpf/jobs/54395/48094/240198/shared/gcc/newlib/libc/machine/mips/memcpy.S:477
80001e68:	8ca80000 	lw	t0,0(a1)
/scratch/mpf/jobs/54395/48094/240198/shared/gcc/newlib/libc/machine/mips/memcpy.S:482
80001e6c:	0324182b 	sltu	v1,t9,a0
/scratch/mpf/jobs/54395/48094/240198/shared/gcc/newlib/libc/machine/mips/memcpy.S:484
80001e70:	1c600003 	bgtz	v1,80001e80 <memcpy+0x78>
80001e74:	8ca90004 	lw	t1,4(a1)
/scratch/mpf/jobs/54395/48094/240198/shared/gcc/newlib/libc/machine/mips/memcpy.S:491
80001e78:	cc9e0080 	pref	0x1e,128(a0)
/scratch/mpf/jobs/54395/48094/240198/shared/gcc/newlib/libc/machine/mips/memcpy.S:492
80001e7c:	cc9e00a0 	pref	0x1e,160(a0)
/scratch/mpf/jobs/54395/48094/240198/shared/gcc/newlib/libc/machine/mips/memcpy.S:501
80001e80:	8caa0008 	lw	t2,8(a1)
/scratch/mpf/jobs/54395/48094/240198/shared/gcc/newlib/libc/machine/mips/memcpy.S:502
80001e84:	8cab000c 	lw	t3,12(a1)
/scratch/mpf/jobs/54395/48094/240198/shared/gcc/newlib/libc/machine/mips/memcpy.S:503
80001e88:	8cac0010 	lw	t4,16(a1)
/scratch/mpf/jobs/54395/48094/240198/shared/gcc/newlib/libc/machine/mips/memcpy.S:504
80001e8c:	8cad0014 	lw	t5,20(a1)
/scratch/mpf/jobs/54395/48094/240198/shared/gcc/newlib/libc/machine/mips/memcpy.S:505
80001e90:	8cae0018 	lw	t6,24(a1)
/scratch/mpf/jobs/54395/48094/240198/shared/gcc/newlib/libc/machine/mips/memcpy.S:506
80001e94:	8caf001c 	lw	t7,28(a1)
/scratch/mpf/jobs/54395/48094/240198/shared/gcc/newlib/libc/machine/mips/memcpy.S:510
80001e98:	cca40080 	pref	0x4,128(a1)
/scratch/mpf/jobs/54395/48094/240198/shared/gcc/newlib/libc/machine/mips/memcpy.S:513
80001e9c:	ac880000 	sw	t0,0(a0)
/scratch/mpf/jobs/54395/48094/240198/shared/gcc/newlib/libc/machine/mips/memcpy.S:514
80001ea0:	ac890004 	sw	t1,4(a0)
/scratch/mpf/jobs/54395/48094/240198/shared/gcc/newlib/libc/machine/mips/memcpy.S:515
80001ea4:	ac8a0008 	sw	t2,8(a0)
/scratch/mpf/jobs/54395/48094/240198/shared/gcc/newlib/libc/machine/mips/memcpy.S:516
80001ea8:	ac8b000c 	sw	t3,12(a0)
/scratch/mpf/jobs/54395/48094/240198/shared/gcc/newlib/libc/machine/mips/memcpy.S:517
80001eac:	ac8c0010 	sw	t4,16(a0)
/scratch/mpf/jobs/54395/48094/240198/shared/gcc/newlib/libc/machine/mips/memcpy.S:518
80001eb0:	ac8d0014 	sw	t5,20(a0)
/scratch/mpf/jobs/54395/48094/240198/shared/gcc/newlib/libc/machine/mips/memcpy.S:519
80001eb4:	ac8e0018 	sw	t6,24(a0)
/scratch/mpf/jobs/54395/48094/240198/shared/gcc/newlib/libc/machine/mips/memcpy.S:520
80001eb8:	ac8f001c 	sw	t7,28(a0)
/scratch/mpf/jobs/54395/48094/240198/shared/gcc/newlib/libc/machine/mips/memcpy.S:522
80001ebc:	8ca80020 	lw	t0,32(a1)
/scratch/mpf/jobs/54395/48094/240198/shared/gcc/newlib/libc/machine/mips/memcpy.S:523
80001ec0:	8ca90024 	lw	t1,36(a1)
/scratch/mpf/jobs/54395/48094/240198/shared/gcc/newlib/libc/machine/mips/memcpy.S:524
80001ec4:	8caa0028 	lw	t2,40(a1)
/scratch/mpf/jobs/54395/48094/240198/shared/gcc/newlib/libc/machine/mips/memcpy.S:525
80001ec8:	8cab002c 	lw	t3,44(a1)
/scratch/mpf/jobs/54395/48094/240198/shared/gcc/newlib/libc/machine/mips/memcpy.S:526
80001ecc:	8cac0030 	lw	t4,48(a1)
/scratch/mpf/jobs/54395/48094/240198/shared/gcc/newlib/libc/machine/mips/memcpy.S:527
80001ed0:	8cad0034 	lw	t5,52(a1)
/scratch/mpf/jobs/54395/48094/240198/shared/gcc/newlib/libc/machine/mips/memcpy.S:528
80001ed4:	8cae0038 	lw	t6,56(a1)
/scratch/mpf/jobs/54395/48094/240198/shared/gcc/newlib/libc/machine/mips/memcpy.S:529
80001ed8:	8caf003c 	lw	t7,60(a1)
/scratch/mpf/jobs/54395/48094/240198/shared/gcc/newlib/libc/machine/mips/memcpy.S:531
80001edc:	cca400a0 	pref	0x4,160(a1)
/scratch/mpf/jobs/54395/48094/240198/shared/gcc/newlib/libc/machine/mips/memcpy.S:533
80001ee0:	ac880020 	sw	t0,32(a0)
/scratch/mpf/jobs/54395/48094/240198/shared/gcc/newlib/libc/machine/mips/memcpy.S:534
80001ee4:	ac890024 	sw	t1,36(a0)
/scratch/mpf/jobs/54395/48094/240198/shared/gcc/newlib/libc/machine/mips/memcpy.S:535
80001ee8:	ac8a0028 	sw	t2,40(a0)
/scratch/mpf/jobs/54395/48094/240198/shared/gcc/newlib/libc/machine/mips/memcpy.S:536
80001eec:	ac8b002c 	sw	t3,44(a0)
/scratch/mpf/jobs/54395/48094/240198/shared/gcc/newlib/libc/machine/mips/memcpy.S:537
80001ef0:	ac8c0030 	sw	t4,48(a0)
/scratch/mpf/jobs/54395/48094/240198/shared/gcc/newlib/libc/machine/mips/memcpy.S:538
80001ef4:	ac8d0034 	sw	t5,52(a0)
/scratch/mpf/jobs/54395/48094/240198/shared/gcc/newlib/libc/machine/mips/memcpy.S:539
80001ef8:	ac8e0038 	sw	t6,56(a0)
/scratch/mpf/jobs/54395/48094/240198/shared/gcc/newlib/libc/machine/mips/memcpy.S:540
80001efc:	ac8f003c 	sw	t7,60(a0)
/scratch/mpf/jobs/54395/48094/240198/shared/gcc/newlib/libc/machine/mips/memcpy.S:541
80001f00:	24840040 	addiu	a0,a0,64
/scratch/mpf/jobs/54395/48094/240198/shared/gcc/newlib/libc/machine/mips/memcpy.S:543
80001f04:	1487ffd8 	bne	a0,a3,80001e68 <memcpy+0x60>
80001f08:	24a50040 	addiu	a1,a1,64
/scratch/mpf/jobs/54395/48094/240198/shared/gcc/newlib/libc/machine/mips/memcpy.S:544
80001f0c:	03003025 	move	a2,t8
/scratch/mpf/jobs/54395/48094/240198/shared/gcc/newlib/libc/machine/mips/memcpy.S:553
80001f10:	cca40000 	pref	0x4,0(a1)
/scratch/mpf/jobs/54395/48094/240198/shared/gcc/newlib/libc/machine/mips/memcpy.S:554
80001f14:	30d8001f 	andi	t8,a2,0x1f
/scratch/mpf/jobs/54395/48094/240198/shared/gcc/newlib/libc/machine/mips/memcpy.S:556
80001f18:	10d80013 	beq	a2,t8,80001f68 <memcpy+0x160>
80001f1c:	00000000 	nop
/scratch/mpf/jobs/54395/48094/240198/shared/gcc/newlib/libc/machine/mips/memcpy.S:557
80001f20:	8ca80000 	lw	t0,0(a1)
/scratch/mpf/jobs/54395/48094/240198/shared/gcc/newlib/libc/machine/mips/memcpy.S:558
80001f24:	8ca90004 	lw	t1,4(a1)
/scratch/mpf/jobs/54395/48094/240198/shared/gcc/newlib/libc/machine/mips/memcpy.S:559
80001f28:	8caa0008 	lw	t2,8(a1)
/scratch/mpf/jobs/54395/48094/240198/shared/gcc/newlib/libc/machine/mips/memcpy.S:560
80001f2c:	8cab000c 	lw	t3,12(a1)
/scratch/mpf/jobs/54395/48094/240198/shared/gcc/newlib/libc/machine/mips/memcpy.S:561
80001f30:	8cac0010 	lw	t4,16(a1)
/scratch/mpf/jobs/54395/48094/240198/shared/gcc/newlib/libc/machine/mips/memcpy.S:562
80001f34:	8cad0014 	lw	t5,20(a1)
/scratch/mpf/jobs/54395/48094/240198/shared/gcc/newlib/libc/machine/mips/memcpy.S:563
80001f38:	8cae0018 	lw	t6,24(a1)
/scratch/mpf/jobs/54395/48094/240198/shared/gcc/newlib/libc/machine/mips/memcpy.S:564
80001f3c:	8caf001c 	lw	t7,28(a1)
/scratch/mpf/jobs/54395/48094/240198/shared/gcc/newlib/libc/machine/mips/memcpy.S:565
80001f40:	24a50020 	addiu	a1,a1,32
/scratch/mpf/jobs/54395/48094/240198/shared/gcc/newlib/libc/machine/mips/memcpy.S:566
80001f44:	ac880000 	sw	t0,0(a0)
/scratch/mpf/jobs/54395/48094/240198/shared/gcc/newlib/libc/machine/mips/memcpy.S:567
80001f48:	ac890004 	sw	t1,4(a0)
/scratch/mpf/jobs/54395/48094/240198/shared/gcc/newlib/libc/machine/mips/memcpy.S:568
80001f4c:	ac8a0008 	sw	t2,8(a0)
/scratch/mpf/jobs/54395/48094/240198/shared/gcc/newlib/libc/machine/mips/memcpy.S:569
80001f50:	ac8b000c 	sw	t3,12(a0)
/scratch/mpf/jobs/54395/48094/240198/shared/gcc/newlib/libc/machine/mips/memcpy.S:570
80001f54:	ac8c0010 	sw	t4,16(a0)
/scratch/mpf/jobs/54395/48094/240198/shared/gcc/newlib/libc/machine/mips/memcpy.S:571
80001f58:	ac8d0014 	sw	t5,20(a0)
/scratch/mpf/jobs/54395/48094/240198/shared/gcc/newlib/libc/machine/mips/memcpy.S:572
80001f5c:	ac8e0018 	sw	t6,24(a0)
/scratch/mpf/jobs/54395/48094/240198/shared/gcc/newlib/libc/machine/mips/memcpy.S:573
80001f60:	ac8f001c 	sw	t7,28(a0)
/scratch/mpf/jobs/54395/48094/240198/shared/gcc/newlib/libc/machine/mips/memcpy.S:574
80001f64:	24840020 	addiu	a0,a0,32
/scratch/mpf/jobs/54395/48094/240198/shared/gcc/newlib/libc/machine/mips/memcpy.S:584
80001f68:	33060003 	andi	a2,t8,0x3
/scratch/mpf/jobs/54395/48094/240198/shared/gcc/newlib/libc/machine/mips/memcpy.S:586
80001f6c:	10d80007 	beq	a2,t8,80001f8c <memcpy+0x184>
80001f70:	03063823 	subu	a3,t8,a2
/scratch/mpf/jobs/54395/48094/240198/shared/gcc/newlib/libc/machine/mips/memcpy.S:587
80001f74:	00873821 	addu	a3,a0,a3
/scratch/mpf/jobs/54395/48094/240198/shared/gcc/newlib/libc/machine/mips/memcpy.S:591
80001f78:	8cab0000 	lw	t3,0(a1)
/scratch/mpf/jobs/54395/48094/240198/shared/gcc/newlib/libc/machine/mips/memcpy.S:592
80001f7c:	24840004 	addiu	a0,a0,4
/scratch/mpf/jobs/54395/48094/240198/shared/gcc/newlib/libc/machine/mips/memcpy.S:593
80001f80:	24a50004 	addiu	a1,a1,4
/scratch/mpf/jobs/54395/48094/240198/shared/gcc/newlib/libc/machine/mips/memcpy.S:595
80001f84:	1487fffc 	bne	a0,a3,80001f78 <memcpy+0x170>
80001f88:	ac8bfffc 	sw	t3,-4(a0)
/scratch/mpf/jobs/54395/48094/240198/shared/gcc/newlib/libc/machine/mips/memcpy.S:600
80001f8c:	18c00006 	blez	a2,80001fa8 <memcpy+0x1a0>
80001f90:	00863821 	addu	a3,a0,a2
/scratch/mpf/jobs/54395/48094/240198/shared/gcc/newlib/libc/machine/mips/memcpy.S:602
80001f94:	80a30000 	lb	v1,0(a1)
/scratch/mpf/jobs/54395/48094/240198/shared/gcc/newlib/libc/machine/mips/memcpy.S:603
80001f98:	24840001 	addiu	a0,a0,1
/scratch/mpf/jobs/54395/48094/240198/shared/gcc/newlib/libc/machine/mips/memcpy.S:604
80001f9c:	24a50001 	addiu	a1,a1,1
/scratch/mpf/jobs/54395/48094/240198/shared/gcc/newlib/libc/machine/mips/memcpy.S:606
80001fa0:	1487fffc 	bne	a0,a3,80001f94 <memcpy+0x18c>
80001fa4:	a083ffff 	sb	v1,-1(a0)
/scratch/mpf/jobs/54395/48094/240198/shared/gcc/newlib/libc/machine/mips/memcpy.S:608
80001fa8:	03e00008 	jr	ra
80001fac:	00000000 	nop
/scratch/mpf/jobs/54395/48094/240198/shared/gcc/newlib/libc/machine/mips/memcpy.S:621
80001fb0:	30e70003 	andi	a3,a3,0x3
/scratch/mpf/jobs/54395/48094/240198/shared/gcc/newlib/libc/machine/mips/memcpy.S:623
80001fb4:	10e00006 	beqz	a3,80001fd0 <memcpy+0x1c8>
80001fb8:	00c73023 	subu	a2,a2,a3
/scratch/mpf/jobs/54395/48094/240198/shared/gcc/newlib/libc/machine/mips/memcpy.S:625
80001fbc:	98a30000 	lwr	v1,0(a1)
/scratch/mpf/jobs/54395/48094/240198/shared/gcc/newlib/libc/machine/mips/memcpy.S:626
80001fc0:	88a30003 	lwl	v1,3(a1)
/scratch/mpf/jobs/54395/48094/240198/shared/gcc/newlib/libc/machine/mips/memcpy.S:627
80001fc4:	00a72821 	addu	a1,a1,a3
/scratch/mpf/jobs/54395/48094/240198/shared/gcc/newlib/libc/machine/mips/memcpy.S:628
80001fc8:	b8830000 	swr	v1,0(a0)
/scratch/mpf/jobs/54395/48094/240198/shared/gcc/newlib/libc/machine/mips/memcpy.S:629
80001fcc:	00872021 	addu	a0,a0,a3
/scratch/mpf/jobs/54395/48094/240198/shared/gcc/newlib/libc/machine/mips/memcpy.S:640
80001fd0:	30d8003f 	andi	t8,a2,0x3f
/scratch/mpf/jobs/54395/48094/240198/shared/gcc/newlib/libc/machine/mips/memcpy.S:642
80001fd4:	10d80042 	beq	a2,t8,800020e0 <memcpy+0x2d8>
80001fd8:	00d83823 	subu	a3,a2,t8
/scratch/mpf/jobs/54395/48094/240198/shared/gcc/newlib/libc/machine/mips/memcpy.S:643
80001fdc:	00873821 	addu	a3,a0,a3
/scratch/mpf/jobs/54395/48094/240198/shared/gcc/newlib/libc/machine/mips/memcpy.S:646
80001fe0:	00864021 	addu	t0,a0,a2
/scratch/mpf/jobs/54395/48094/240198/shared/gcc/newlib/libc/machine/mips/memcpy.S:647
80001fe4:	2519fee0 	addiu	t9,t0,-288
/scratch/mpf/jobs/54395/48094/240198/shared/gcc/newlib/libc/machine/mips/memcpy.S:649
80001fe8:	cca40000 	pref	0x4,0(a1)
/scratch/mpf/jobs/54395/48094/240198/shared/gcc/newlib/libc/machine/mips/memcpy.S:650
80001fec:	cca40020 	pref	0x4,32(a1)
/scratch/mpf/jobs/54395/48094/240198/shared/gcc/newlib/libc/machine/mips/memcpy.S:651
80001ff0:	cca40040 	pref	0x4,64(a1)
/scratch/mpf/jobs/54395/48094/240198/shared/gcc/newlib/libc/machine/mips/memcpy.S:668
80001ff4:	cca40060 	pref	0x4,96(a1)
/scratch/mpf/jobs/54395/48094/240198/shared/gcc/newlib/libc/machine/mips/memcpy.S:669
80001ff8:	98a80000 	lwr	t0,0(a1)
/scratch/mpf/jobs/54395/48094/240198/shared/gcc/newlib/libc/machine/mips/memcpy.S:670
80001ffc:	98a90004 	lwr	t1,4(a1)
/scratch/mpf/jobs/54395/48094/240198/shared/gcc/newlib/libc/machine/mips/memcpy.S:671
80002000:	98aa0008 	lwr	t2,8(a1)
/scratch/mpf/jobs/54395/48094/240198/shared/gcc/newlib/libc/machine/mips/memcpy.S:676
80002004:	0324182b 	sltu	v1,t9,a0
/scratch/mpf/jobs/54395/48094/240198/shared/gcc/newlib/libc/machine/mips/memcpy.S:678
80002008:	1c600003 	bgtz	v1,80002018 <memcpy+0x210>
8000200c:	98ab000c 	lwr	t3,12(a1)
/scratch/mpf/jobs/54395/48094/240198/shared/gcc/newlib/libc/machine/mips/memcpy.S:682
80002010:	cc9e0080 	pref	0x1e,128(a0)
/scratch/mpf/jobs/54395/48094/240198/shared/gcc/newlib/libc/machine/mips/memcpy.S:683
80002014:	cc9e00a0 	pref	0x1e,160(a0)
/scratch/mpf/jobs/54395/48094/240198/shared/gcc/newlib/libc/machine/mips/memcpy.S:685
80002018:	98ac0010 	lwr	t4,16(a1)
/scratch/mpf/jobs/54395/48094/240198/shared/gcc/newlib/libc/machine/mips/memcpy.S:686
8000201c:	98ad0014 	lwr	t5,20(a1)
/scratch/mpf/jobs/54395/48094/240198/shared/gcc/newlib/libc/machine/mips/memcpy.S:687
80002020:	98ae0018 	lwr	t6,24(a1)
/scratch/mpf/jobs/54395/48094/240198/shared/gcc/newlib/libc/machine/mips/memcpy.S:688
80002024:	98af001c 	lwr	t7,28(a1)
/scratch/mpf/jobs/54395/48094/240198/shared/gcc/newlib/libc/machine/mips/memcpy.S:689
80002028:	88a80003 	lwl	t0,3(a1)
/scratch/mpf/jobs/54395/48094/240198/shared/gcc/newlib/libc/machine/mips/memcpy.S:690
8000202c:	88a90007 	lwl	t1,7(a1)
/scratch/mpf/jobs/54395/48094/240198/shared/gcc/newlib/libc/machine/mips/memcpy.S:691
80002030:	88aa000b 	lwl	t2,11(a1)
/scratch/mpf/jobs/54395/48094/240198/shared/gcc/newlib/libc/machine/mips/memcpy.S:692
80002034:	88ab000f 	lwl	t3,15(a1)
/scratch/mpf/jobs/54395/48094/240198/shared/gcc/newlib/libc/machine/mips/memcpy.S:693
80002038:	88ac0013 	lwl	t4,19(a1)
/scratch/mpf/jobs/54395/48094/240198/shared/gcc/newlib/libc/machine/mips/memcpy.S:694
8000203c:	88ad0017 	lwl	t5,23(a1)
/scratch/mpf/jobs/54395/48094/240198/shared/gcc/newlib/libc/machine/mips/memcpy.S:695
80002040:	88ae001b 	lwl	t6,27(a1)
/scratch/mpf/jobs/54395/48094/240198/shared/gcc/newlib/libc/machine/mips/memcpy.S:696
80002044:	88af001f 	lwl	t7,31(a1)
/scratch/mpf/jobs/54395/48094/240198/shared/gcc/newlib/libc/machine/mips/memcpy.S:697
80002048:	cca40080 	pref	0x4,128(a1)
/scratch/mpf/jobs/54395/48094/240198/shared/gcc/newlib/libc/machine/mips/memcpy.S:698
8000204c:	ac880000 	sw	t0,0(a0)
/scratch/mpf/jobs/54395/48094/240198/shared/gcc/newlib/libc/machine/mips/memcpy.S:699
80002050:	ac890004 	sw	t1,4(a0)
/scratch/mpf/jobs/54395/48094/240198/shared/gcc/newlib/libc/machine/mips/memcpy.S:700
80002054:	ac8a0008 	sw	t2,8(a0)
/scratch/mpf/jobs/54395/48094/240198/shared/gcc/newlib/libc/machine/mips/memcpy.S:701
80002058:	ac8b000c 	sw	t3,12(a0)
/scratch/mpf/jobs/54395/48094/240198/shared/gcc/newlib/libc/machine/mips/memcpy.S:702
8000205c:	ac8c0010 	sw	t4,16(a0)
/scratch/mpf/jobs/54395/48094/240198/shared/gcc/newlib/libc/machine/mips/memcpy.S:703
80002060:	ac8d0014 	sw	t5,20(a0)
/scratch/mpf/jobs/54395/48094/240198/shared/gcc/newlib/libc/machine/mips/memcpy.S:704
80002064:	ac8e0018 	sw	t6,24(a0)
/scratch/mpf/jobs/54395/48094/240198/shared/gcc/newlib/libc/machine/mips/memcpy.S:705
80002068:	ac8f001c 	sw	t7,28(a0)
/scratch/mpf/jobs/54395/48094/240198/shared/gcc/newlib/libc/machine/mips/memcpy.S:706
8000206c:	98a80020 	lwr	t0,32(a1)
/scratch/mpf/jobs/54395/48094/240198/shared/gcc/newlib/libc/machine/mips/memcpy.S:707
80002070:	98a90024 	lwr	t1,36(a1)
/scratch/mpf/jobs/54395/48094/240198/shared/gcc/newlib/libc/machine/mips/memcpy.S:708
80002074:	98aa0028 	lwr	t2,40(a1)
/scratch/mpf/jobs/54395/48094/240198/shared/gcc/newlib/libc/machine/mips/memcpy.S:709
80002078:	98ab002c 	lwr	t3,44(a1)
/scratch/mpf/jobs/54395/48094/240198/shared/gcc/newlib/libc/machine/mips/memcpy.S:710
8000207c:	98ac0030 	lwr	t4,48(a1)
/scratch/mpf/jobs/54395/48094/240198/shared/gcc/newlib/libc/machine/mips/memcpy.S:711
80002080:	98ad0034 	lwr	t5,52(a1)
/scratch/mpf/jobs/54395/48094/240198/shared/gcc/newlib/libc/machine/mips/memcpy.S:712
80002084:	98ae0038 	lwr	t6,56(a1)
/scratch/mpf/jobs/54395/48094/240198/shared/gcc/newlib/libc/machine/mips/memcpy.S:713
80002088:	98af003c 	lwr	t7,60(a1)
/scratch/mpf/jobs/54395/48094/240198/shared/gcc/newlib/libc/machine/mips/memcpy.S:714
8000208c:	88a80023 	lwl	t0,35(a1)
/scratch/mpf/jobs/54395/48094/240198/shared/gcc/newlib/libc/machine/mips/memcpy.S:715
80002090:	88a90027 	lwl	t1,39(a1)
/scratch/mpf/jobs/54395/48094/240198/shared/gcc/newlib/libc/machine/mips/memcpy.S:716
80002094:	88aa002b 	lwl	t2,43(a1)
/scratch/mpf/jobs/54395/48094/240198/shared/gcc/newlib/libc/machine/mips/memcpy.S:717
80002098:	88ab002f 	lwl	t3,47(a1)
/scratch/mpf/jobs/54395/48094/240198/shared/gcc/newlib/libc/machine/mips/memcpy.S:718
8000209c:	88ac0033 	lwl	t4,51(a1)
/scratch/mpf/jobs/54395/48094/240198/shared/gcc/newlib/libc/machine/mips/memcpy.S:719
800020a0:	88ad0037 	lwl	t5,55(a1)
/scratch/mpf/jobs/54395/48094/240198/shared/gcc/newlib/libc/machine/mips/memcpy.S:720
800020a4:	88ae003b 	lwl	t6,59(a1)
/scratch/mpf/jobs/54395/48094/240198/shared/gcc/newlib/libc/machine/mips/memcpy.S:721
800020a8:	88af003f 	lwl	t7,63(a1)
/scratch/mpf/jobs/54395/48094/240198/shared/gcc/newlib/libc/machine/mips/memcpy.S:722
800020ac:	cca400a0 	pref	0x4,160(a1)
/scratch/mpf/jobs/54395/48094/240198/shared/gcc/newlib/libc/machine/mips/memcpy.S:723
800020b0:	ac880020 	sw	t0,32(a0)
/scratch/mpf/jobs/54395/48094/240198/shared/gcc/newlib/libc/machine/mips/memcpy.S:724
800020b4:	ac890024 	sw	t1,36(a0)
/scratch/mpf/jobs/54395/48094/240198/shared/gcc/newlib/libc/machine/mips/memcpy.S:725
800020b8:	ac8a0028 	sw	t2,40(a0)
/scratch/mpf/jobs/54395/48094/240198/shared/gcc/newlib/libc/machine/mips/memcpy.S:726
800020bc:	ac8b002c 	sw	t3,44(a0)
/scratch/mpf/jobs/54395/48094/240198/shared/gcc/newlib/libc/machine/mips/memcpy.S:727
800020c0:	ac8c0030 	sw	t4,48(a0)
/scratch/mpf/jobs/54395/48094/240198/shared/gcc/newlib/libc/machine/mips/memcpy.S:728
800020c4:	ac8d0034 	sw	t5,52(a0)
/scratch/mpf/jobs/54395/48094/240198/shared/gcc/newlib/libc/machine/mips/memcpy.S:729
800020c8:	ac8e0038 	sw	t6,56(a0)
/scratch/mpf/jobs/54395/48094/240198/shared/gcc/newlib/libc/machine/mips/memcpy.S:730
800020cc:	ac8f003c 	sw	t7,60(a0)
/scratch/mpf/jobs/54395/48094/240198/shared/gcc/newlib/libc/machine/mips/memcpy.S:731
800020d0:	24840040 	addiu	a0,a0,64
/scratch/mpf/jobs/54395/48094/240198/shared/gcc/newlib/libc/machine/mips/memcpy.S:733
800020d4:	1487ffc7 	bne	a0,a3,80001ff4 <memcpy+0x1ec>
800020d8:	24a50040 	addiu	a1,a1,64
/scratch/mpf/jobs/54395/48094/240198/shared/gcc/newlib/libc/machine/mips/memcpy.S:734
800020dc:	03003025 	move	a2,t8
/scratch/mpf/jobs/54395/48094/240198/shared/gcc/newlib/libc/machine/mips/memcpy.S:742
800020e0:	cca40000 	pref	0x4,0(a1)
/scratch/mpf/jobs/54395/48094/240198/shared/gcc/newlib/libc/machine/mips/memcpy.S:743
800020e4:	30d8001f 	andi	t8,a2,0x1f
/scratch/mpf/jobs/54395/48094/240198/shared/gcc/newlib/libc/machine/mips/memcpy.S:745
800020e8:	10d8001b 	beq	a2,t8,80002158 <memcpy+0x350>
800020ec:	00000000 	nop
/scratch/mpf/jobs/54395/48094/240198/shared/gcc/newlib/libc/machine/mips/memcpy.S:746
800020f0:	98a80000 	lwr	t0,0(a1)
/scratch/mpf/jobs/54395/48094/240198/shared/gcc/newlib/libc/machine/mips/memcpy.S:747
800020f4:	98a90004 	lwr	t1,4(a1)
/scratch/mpf/jobs/54395/48094/240198/shared/gcc/newlib/libc/machine/mips/memcpy.S:748
800020f8:	98aa0008 	lwr	t2,8(a1)
/scratch/mpf/jobs/54395/48094/240198/shared/gcc/newlib/libc/machine/mips/memcpy.S:749
800020fc:	98ab000c 	lwr	t3,12(a1)
/scratch/mpf/jobs/54395/48094/240198/shared/gcc/newlib/libc/machine/mips/memcpy.S:750
80002100:	98ac0010 	lwr	t4,16(a1)
/scratch/mpf/jobs/54395/48094/240198/shared/gcc/newlib/libc/machine/mips/memcpy.S:751
80002104:	98ad0014 	lwr	t5,20(a1)
/scratch/mpf/jobs/54395/48094/240198/shared/gcc/newlib/libc/machine/mips/memcpy.S:752
80002108:	98ae0018 	lwr	t6,24(a1)
/scratch/mpf/jobs/54395/48094/240198/shared/gcc/newlib/libc/machine/mips/memcpy.S:753
8000210c:	98af001c 	lwr	t7,28(a1)
/scratch/mpf/jobs/54395/48094/240198/shared/gcc/newlib/libc/machine/mips/memcpy.S:754
80002110:	88a80003 	lwl	t0,3(a1)
/scratch/mpf/jobs/54395/48094/240198/shared/gcc/newlib/libc/machine/mips/memcpy.S:755
80002114:	88a90007 	lwl	t1,7(a1)
/scratch/mpf/jobs/54395/48094/240198/shared/gcc/newlib/libc/machine/mips/memcpy.S:756
80002118:	88aa000b 	lwl	t2,11(a1)
/scratch/mpf/jobs/54395/48094/240198/shared/gcc/newlib/libc/machine/mips/memcpy.S:757
8000211c:	88ab000f 	lwl	t3,15(a1)
/scratch/mpf/jobs/54395/48094/240198/shared/gcc/newlib/libc/machine/mips/memcpy.S:758
80002120:	88ac0013 	lwl	t4,19(a1)
/scratch/mpf/jobs/54395/48094/240198/shared/gcc/newlib/libc/machine/mips/memcpy.S:759
80002124:	88ad0017 	lwl	t5,23(a1)
/scratch/mpf/jobs/54395/48094/240198/shared/gcc/newlib/libc/machine/mips/memcpy.S:760
80002128:	88ae001b 	lwl	t6,27(a1)
/scratch/mpf/jobs/54395/48094/240198/shared/gcc/newlib/libc/machine/mips/memcpy.S:761
8000212c:	88af001f 	lwl	t7,31(a1)
/scratch/mpf/jobs/54395/48094/240198/shared/gcc/newlib/libc/machine/mips/memcpy.S:762
80002130:	24a50020 	addiu	a1,a1,32
/scratch/mpf/jobs/54395/48094/240198/shared/gcc/newlib/libc/machine/mips/memcpy.S:763
80002134:	ac880000 	sw	t0,0(a0)
/scratch/mpf/jobs/54395/48094/240198/shared/gcc/newlib/libc/machine/mips/memcpy.S:764
80002138:	ac890004 	sw	t1,4(a0)
/scratch/mpf/jobs/54395/48094/240198/shared/gcc/newlib/libc/machine/mips/memcpy.S:765
8000213c:	ac8a0008 	sw	t2,8(a0)
/scratch/mpf/jobs/54395/48094/240198/shared/gcc/newlib/libc/machine/mips/memcpy.S:766
80002140:	ac8b000c 	sw	t3,12(a0)
/scratch/mpf/jobs/54395/48094/240198/shared/gcc/newlib/libc/machine/mips/memcpy.S:767
80002144:	ac8c0010 	sw	t4,16(a0)
/scratch/mpf/jobs/54395/48094/240198/shared/gcc/newlib/libc/machine/mips/memcpy.S:768
80002148:	ac8d0014 	sw	t5,20(a0)
/scratch/mpf/jobs/54395/48094/240198/shared/gcc/newlib/libc/machine/mips/memcpy.S:769
8000214c:	ac8e0018 	sw	t6,24(a0)
/scratch/mpf/jobs/54395/48094/240198/shared/gcc/newlib/libc/machine/mips/memcpy.S:770
80002150:	ac8f001c 	sw	t7,28(a0)
/scratch/mpf/jobs/54395/48094/240198/shared/gcc/newlib/libc/machine/mips/memcpy.S:771
80002154:	24840020 	addiu	a0,a0,32
/scratch/mpf/jobs/54395/48094/240198/shared/gcc/newlib/libc/machine/mips/memcpy.S:777
80002158:	33060003 	andi	a2,t8,0x3
/scratch/mpf/jobs/54395/48094/240198/shared/gcc/newlib/libc/machine/mips/memcpy.S:779
8000215c:	10d80008 	beq	a2,t8,80002180 <memcpy+0x378>
80002160:	03063823 	subu	a3,t8,a2
/scratch/mpf/jobs/54395/48094/240198/shared/gcc/newlib/libc/machine/mips/memcpy.S:780
80002164:	00873821 	addu	a3,a0,a3
/scratch/mpf/jobs/54395/48094/240198/shared/gcc/newlib/libc/machine/mips/memcpy.S:784
80002168:	98a30000 	lwr	v1,0(a1)
/scratch/mpf/jobs/54395/48094/240198/shared/gcc/newlib/libc/machine/mips/memcpy.S:785
8000216c:	88a30003 	lwl	v1,3(a1)
/scratch/mpf/jobs/54395/48094/240198/shared/gcc/newlib/libc/machine/mips/memcpy.S:786
80002170:	24840004 	addiu	a0,a0,4
/scratch/mpf/jobs/54395/48094/240198/shared/gcc/newlib/libc/machine/mips/memcpy.S:787
80002174:	24a50004 	addiu	a1,a1,4
/scratch/mpf/jobs/54395/48094/240198/shared/gcc/newlib/libc/machine/mips/memcpy.S:789
80002178:	1487fffb 	bne	a0,a3,80002168 <memcpy+0x360>
8000217c:	ac83fffc 	sw	v1,-4(a0)
/scratch/mpf/jobs/54395/48094/240198/shared/gcc/newlib/libc/machine/mips/memcpy.S:794
80002180:	10c0ff89 	beqz	a2,80001fa8 <memcpy+0x1a0>
80002184:	00863821 	addu	a3,a0,a2
/scratch/mpf/jobs/54395/48094/240198/shared/gcc/newlib/libc/machine/mips/memcpy.S:796
80002188:	80a30000 	lb	v1,0(a1)
/scratch/mpf/jobs/54395/48094/240198/shared/gcc/newlib/libc/machine/mips/memcpy.S:797
8000218c:	24840001 	addiu	a0,a0,1
/scratch/mpf/jobs/54395/48094/240198/shared/gcc/newlib/libc/machine/mips/memcpy.S:798
80002190:	24a50001 	addiu	a1,a1,1
/scratch/mpf/jobs/54395/48094/240198/shared/gcc/newlib/libc/machine/mips/memcpy.S:800
80002194:	1487fffc 	bne	a0,a3,80002188 <memcpy+0x380>
80002198:	a083ffff 	sb	v1,-1(a0)
/scratch/mpf/jobs/54395/48094/240198/shared/gcc/newlib/libc/machine/mips/memcpy.S:802
8000219c:	03e00008 	jr	ra
800021a0:	00000000 	nop

800021a4 <memset>:
/scratch/mpf/jobs/54395/48094/240198/shared/gcc/newlib/libc/machine/mips/memset.S:227
800021a4:	28ca0010 	slti	t2,a2,16
/scratch/mpf/jobs/54395/48094/240198/shared/gcc/newlib/libc/machine/mips/memset.S:229
800021a8:	15400042 	bnez	t2,800022b4 <memset+0x110>
800021ac:	00801025 	move	v0,a0
/scratch/mpf/jobs/54395/48094/240198/shared/gcc/newlib/libc/machine/mips/memset.S:234
800021b0:	10a00004 	beqz	a1,800021c4 <memset+0x20>
800021b4:	00043823 	negu	a3,a0
/scratch/mpf/jobs/54395/48094/240198/shared/gcc/newlib/libc/machine/mips/memset.S:235
800021b8:	00000000 	nop
/scratch/mpf/jobs/54395/48094/240198/shared/gcc/newlib/libc/machine/mips/memset.S:244
800021bc:	7ca57a04 	ins	a1,a1,0x8,0x8
/scratch/mpf/jobs/54395/48094/240198/shared/gcc/newlib/libc/machine/mips/memset.S:245
800021c0:	7ca5fc04 	ins	a1,a1,0x10,0x10
/scratch/mpf/jobs/54395/48094/240198/shared/gcc/newlib/libc/machine/mips/memset.S:269
800021c4:	30ea0003 	andi	t2,a3,0x3
/scratch/mpf/jobs/54395/48094/240198/shared/gcc/newlib/libc/machine/mips/memset.S:271
800021c8:	11400003 	beqz	t2,800021d8 <memset+0x34>
800021cc:	00ca3023 	subu	a2,a2,t2
/scratch/mpf/jobs/54395/48094/240198/shared/gcc/newlib/libc/machine/mips/memset.S:272
800021d0:	b8850000 	swr	a1,0(a0)
/scratch/mpf/jobs/54395/48094/240198/shared/gcc/newlib/libc/machine/mips/memset.S:273
800021d4:	008a2021 	addu	a0,a0,t2
/scratch/mpf/jobs/54395/48094/240198/shared/gcc/newlib/libc/machine/mips/memset.S:322
800021d8:	30ea0004 	andi	t2,a3,0x4
/scratch/mpf/jobs/54395/48094/240198/shared/gcc/newlib/libc/machine/mips/memset.S:324
800021dc:	11400003 	beqz	t2,800021ec <memset+0x48>
800021e0:	00ca3023 	subu	a2,a2,t2
/scratch/mpf/jobs/54395/48094/240198/shared/gcc/newlib/libc/machine/mips/memset.S:325
800021e4:	ac850000 	sw	a1,0(a0)
/scratch/mpf/jobs/54395/48094/240198/shared/gcc/newlib/libc/machine/mips/memset.S:326
800021e8:	008a2021 	addu	a0,a0,t2
/scratch/mpf/jobs/54395/48094/240198/shared/gcc/newlib/libc/machine/mips/memset.S:335
800021ec:	30d8003f 	andi	t8,a2,0x3f
/scratch/mpf/jobs/54395/48094/240198/shared/gcc/newlib/libc/machine/mips/memset.S:337
800021f0:	10d8001d 	beq	a2,t8,80002268 <memset+0xc4>
800021f4:	00d83823 	subu	a3,a2,t8
/scratch/mpf/jobs/54395/48094/240198/shared/gcc/newlib/libc/machine/mips/memset.S:338
800021f8:	00873821 	addu	a3,a0,a3
/scratch/mpf/jobs/54395/48094/240198/shared/gcc/newlib/libc/machine/mips/memset.S:347
800021fc:	00864021 	addu	t0,a0,a2
/scratch/mpf/jobs/54395/48094/240198/shared/gcc/newlib/libc/machine/mips/memset.S:348
80002200:	2519fee0 	addiu	t9,t0,-288
/scratch/mpf/jobs/54395/48094/240198/shared/gcc/newlib/libc/machine/mips/memset.S:360
80002204:	0324182b 	sltu	v1,t9,a0
/scratch/mpf/jobs/54395/48094/240198/shared/gcc/newlib/libc/machine/mips/memset.S:361
80002208:	1c600003 	bgtz	v1,80002218 <memset+0x74>
8000220c:	00000000 	nop
/scratch/mpf/jobs/54395/48094/240198/shared/gcc/newlib/libc/machine/mips/memset.S:366
80002210:	cc9e0080 	pref	0x1e,128(a0)
/scratch/mpf/jobs/54395/48094/240198/shared/gcc/newlib/libc/machine/mips/memset.S:367
80002214:	cc9e00a0 	pref	0x1e,160(a0)
/scratch/mpf/jobs/54395/48094/240198/shared/gcc/newlib/libc/machine/mips/memset.S:370
80002218:	ac850000 	sw	a1,0(a0)
/scratch/mpf/jobs/54395/48094/240198/shared/gcc/newlib/libc/machine/mips/memset.S:371
8000221c:	ac850004 	sw	a1,4(a0)
/scratch/mpf/jobs/54395/48094/240198/shared/gcc/newlib/libc/machine/mips/memset.S:372
80002220:	ac850008 	sw	a1,8(a0)
/scratch/mpf/jobs/54395/48094/240198/shared/gcc/newlib/libc/machine/mips/memset.S:373
80002224:	ac85000c 	sw	a1,12(a0)
/scratch/mpf/jobs/54395/48094/240198/shared/gcc/newlib/libc/machine/mips/memset.S:374
80002228:	ac850010 	sw	a1,16(a0)
/scratch/mpf/jobs/54395/48094/240198/shared/gcc/newlib/libc/machine/mips/memset.S:375
8000222c:	ac850014 	sw	a1,20(a0)
/scratch/mpf/jobs/54395/48094/240198/shared/gcc/newlib/libc/machine/mips/memset.S:376
80002230:	ac850018 	sw	a1,24(a0)
/scratch/mpf/jobs/54395/48094/240198/shared/gcc/newlib/libc/machine/mips/memset.S:377
80002234:	ac85001c 	sw	a1,28(a0)
/scratch/mpf/jobs/54395/48094/240198/shared/gcc/newlib/libc/machine/mips/memset.S:378
80002238:	ac850020 	sw	a1,32(a0)
/scratch/mpf/jobs/54395/48094/240198/shared/gcc/newlib/libc/machine/mips/memset.S:379
8000223c:	ac850024 	sw	a1,36(a0)
/scratch/mpf/jobs/54395/48094/240198/shared/gcc/newlib/libc/machine/mips/memset.S:380
80002240:	ac850028 	sw	a1,40(a0)
/scratch/mpf/jobs/54395/48094/240198/shared/gcc/newlib/libc/machine/mips/memset.S:381
80002244:	ac85002c 	sw	a1,44(a0)
/scratch/mpf/jobs/54395/48094/240198/shared/gcc/newlib/libc/machine/mips/memset.S:382
80002248:	ac850030 	sw	a1,48(a0)
/scratch/mpf/jobs/54395/48094/240198/shared/gcc/newlib/libc/machine/mips/memset.S:383
8000224c:	ac850034 	sw	a1,52(a0)
/scratch/mpf/jobs/54395/48094/240198/shared/gcc/newlib/libc/machine/mips/memset.S:384
80002250:	ac850038 	sw	a1,56(a0)
/scratch/mpf/jobs/54395/48094/240198/shared/gcc/newlib/libc/machine/mips/memset.S:385
80002254:	ac85003c 	sw	a1,60(a0)
/scratch/mpf/jobs/54395/48094/240198/shared/gcc/newlib/libc/machine/mips/memset.S:386
80002258:	24840040 	addiu	a0,a0,64
/scratch/mpf/jobs/54395/48094/240198/shared/gcc/newlib/libc/machine/mips/memset.S:387
8000225c:	1487ffe9 	bne	a0,a3,80002204 <memset+0x60>
80002260:	00000000 	nop
/scratch/mpf/jobs/54395/48094/240198/shared/gcc/newlib/libc/machine/mips/memset.S:388
80002264:	03003025 	move	a2,t8
/scratch/mpf/jobs/54395/48094/240198/shared/gcc/newlib/libc/machine/mips/memset.S:394
80002268:	30d8001f 	andi	t8,a2,0x1f
/scratch/mpf/jobs/54395/48094/240198/shared/gcc/newlib/libc/machine/mips/memset.S:396
8000226c:	10d8000a 	beq	a2,t8,80002298 <memset+0xf4>
80002270:	00000000 	nop
/scratch/mpf/jobs/54395/48094/240198/shared/gcc/newlib/libc/machine/mips/memset.S:397
80002274:	ac850000 	sw	a1,0(a0)
/scratch/mpf/jobs/54395/48094/240198/shared/gcc/newlib/libc/machine/mips/memset.S:398
80002278:	ac850004 	sw	a1,4(a0)
/scratch/mpf/jobs/54395/48094/240198/shared/gcc/newlib/libc/machine/mips/memset.S:399
8000227c:	ac850008 	sw	a1,8(a0)
/scratch/mpf/jobs/54395/48094/240198/shared/gcc/newlib/libc/machine/mips/memset.S:400
80002280:	ac85000c 	sw	a1,12(a0)
/scratch/mpf/jobs/54395/48094/240198/shared/gcc/newlib/libc/machine/mips/memset.S:401
80002284:	ac850010 	sw	a1,16(a0)
/scratch/mpf/jobs/54395/48094/240198/shared/gcc/newlib/libc/machine/mips/memset.S:402
80002288:	ac850014 	sw	a1,20(a0)
/scratch/mpf/jobs/54395/48094/240198/shared/gcc/newlib/libc/machine/mips/memset.S:403
8000228c:	ac850018 	sw	a1,24(a0)
/scratch/mpf/jobs/54395/48094/240198/shared/gcc/newlib/libc/machine/mips/memset.S:404
80002290:	ac85001c 	sw	a1,28(a0)
/scratch/mpf/jobs/54395/48094/240198/shared/gcc/newlib/libc/machine/mips/memset.S:405
80002294:	24840020 	addiu	a0,a0,32
/scratch/mpf/jobs/54395/48094/240198/shared/gcc/newlib/libc/machine/mips/memset.S:413
80002298:	33060003 	andi	a2,t8,0x3
/scratch/mpf/jobs/54395/48094/240198/shared/gcc/newlib/libc/machine/mips/memset.S:415
8000229c:	10d80005 	beq	a2,t8,800022b4 <memset+0x110>
800022a0:	03063823 	subu	a3,t8,a2
/scratch/mpf/jobs/54395/48094/240198/shared/gcc/newlib/libc/machine/mips/memset.S:416
800022a4:	00873821 	addu	a3,a0,a3
/scratch/mpf/jobs/54395/48094/240198/shared/gcc/newlib/libc/machine/mips/memset.S:420
800022a8:	24840004 	addiu	a0,a0,4
/scratch/mpf/jobs/54395/48094/240198/shared/gcc/newlib/libc/machine/mips/memset.S:422
800022ac:	1487fffe 	bne	a0,a3,800022a8 <memset+0x104>
800022b0:	ac85fffc 	sw	a1,-4(a0)
/scratch/mpf/jobs/54395/48094/240198/shared/gcc/newlib/libc/machine/mips/memset.S:427
800022b4:	18c00004 	blez	a2,800022c8 <memset+0x124>
800022b8:	00863821 	addu	a3,a0,a2
/scratch/mpf/jobs/54395/48094/240198/shared/gcc/newlib/libc/machine/mips/memset.S:429
800022bc:	24840001 	addiu	a0,a0,1
/scratch/mpf/jobs/54395/48094/240198/shared/gcc/newlib/libc/machine/mips/memset.S:431
800022c0:	1487fffe 	bne	a0,a3,800022bc <memset+0x118>
800022c4:	a085ffff 	sb	a1,-1(a0)
/scratch/mpf/jobs/54395/48094/240198/shared/gcc/newlib/libc/machine/mips/memset.S:433
800022c8:	03e00008 	jr	ra
800022cc:	00000000 	nop

800022d0 <__register_exitproc>:
__register_exitproc():
/scratch/mpf/jobs/54395/48094/240198/shared/gcc/newlib/libc/stdlib/__atexit.c:72
800022d0:	27bdffd8 	addiu	sp,sp,-40
/scratch/mpf/jobs/54395/48094/240198/shared/gcc/newlib/libc/stdlib/__atexit.c:80
800022d4:	3c028000 	lui	v0,0x8000
/scratch/mpf/jobs/54395/48094/240198/shared/gcc/newlib/libc/stdlib/__atexit.c:72
800022d8:	afb00010 	sw	s0,16(sp)
/scratch/mpf/jobs/54395/48094/240198/shared/gcc/newlib/libc/stdlib/__atexit.c:80
800022dc:	8c503fa0 	lw	s0,16288(v0)
/scratch/mpf/jobs/54395/48094/240198/shared/gcc/newlib/libc/stdlib/__atexit.c:72
800022e0:	afb40020 	sw	s4,32(sp)
800022e4:	00c0a025 	move	s4,a2
800022e8:	afb3001c 	sw	s3,28(sp)
800022ec:	00e09825 	move	s3,a3
800022f0:	afb20018 	sw	s2,24(sp)
800022f4:	00a09025 	move	s2,a1
800022f8:	afb10014 	sw	s1,20(sp)
800022fc:	afbf0024 	sw	ra,36(sp)
/scratch/mpf/jobs/54395/48094/240198/shared/gcc/newlib/libc/stdlib/__atexit.c:80
80002300:	8e020148 	lw	v0,328(s0)
/scratch/mpf/jobs/54395/48094/240198/shared/gcc/newlib/libc/stdlib/__atexit.c:81
80002304:	14400003 	bnez	v0,80002314 <__register_exitproc+0x44>
80002308:	00808825 	move	s1,a0
/scratch/mpf/jobs/54395/48094/240198/shared/gcc/newlib/libc/stdlib/__atexit.c:82
8000230c:	2602014c 	addiu	v0,s0,332
80002310:	ae020148 	sw	v0,328(s0)
/scratch/mpf/jobs/54395/48094/240198/shared/gcc/newlib/libc/stdlib/__atexit.c:83
80002314:	8c430004 	lw	v1,4(v0)
80002318:	28630020 	slti	v1,v1,32
8000231c:	14600011 	bnez	v1,80002364 <__register_exitproc+0x94>
80002320:	00000000 	nop
/scratch/mpf/jobs/54395/48094/240198/shared/gcc/newlib/libc/stdlib/__atexit.c:90
80002324:	3c020000 	lui	v0,0x0
80002328:	24420000 	addiu	v0,v0,0
8000232c:	14400003 	bnez	v0,8000233c <__register_exitproc+0x6c>
80002330:	00000000 	nop
/scratch/mpf/jobs/54395/48094/240198/shared/gcc/newlib/libc/stdlib/__atexit.c:91
80002334:	10000022 	b	800023c0 <__register_exitproc+0xf0>
80002338:	2402ffff 	li	v0,-1
/scratch/mpf/jobs/54395/48094/240198/shared/gcc/newlib/libc/stdlib/__atexit.c:93
8000233c:	0c000000 	jal	80000000 <__app_start>
80002340:	24040190 	li	a0,400
/scratch/mpf/jobs/54395/48094/240198/shared/gcc/newlib/libc/stdlib/__atexit.c:94
80002344:	1040fffb 	beqz	v0,80002334 <__register_exitproc+0x64>
80002348:	00000000 	nop
/scratch/mpf/jobs/54395/48094/240198/shared/gcc/newlib/libc/stdlib/__atexit.c:102
8000234c:	8e030148 	lw	v1,328(s0)
/scratch/mpf/jobs/54395/48094/240198/shared/gcc/newlib/libc/stdlib/__atexit.c:101
80002350:	ac400004 	sw	zero,4(v0)
/scratch/mpf/jobs/54395/48094/240198/shared/gcc/newlib/libc/stdlib/__atexit.c:102
80002354:	ac430000 	sw	v1,0(v0)
/scratch/mpf/jobs/54395/48094/240198/shared/gcc/newlib/libc/stdlib/__atexit.c:103
80002358:	ae020148 	sw	v0,328(s0)
/scratch/mpf/jobs/54395/48094/240198/shared/gcc/newlib/libc/stdlib/__atexit.c:105
8000235c:	ac400188 	sw	zero,392(v0)
/scratch/mpf/jobs/54395/48094/240198/shared/gcc/newlib/libc/stdlib/__atexit.c:106
80002360:	ac40018c 	sw	zero,396(v0)
/scratch/mpf/jobs/54395/48094/240198/shared/gcc/newlib/libc/stdlib/__atexit.c:113
80002364:	1220000f 	beqz	s1,800023a4 <__register_exitproc+0xd4>
80002368:	8c430004 	lw	v1,4(v0)
8000236c:	00034080 	sll	t0,v1,0x2
/scratch/mpf/jobs/54395/48094/240198/shared/gcc/newlib/libc/stdlib/__atexit.c:137
80002370:	24060001 	li	a2,1
80002374:	00484021 	addu	t0,v0,t0
80002378:	00663004 	sllv	a2,a2,v1
/scratch/mpf/jobs/54395/48094/240198/shared/gcc/newlib/libc/stdlib/__atexit.c:139
8000237c:	24040002 	li	a0,2
/scratch/mpf/jobs/54395/48094/240198/shared/gcc/newlib/libc/stdlib/__atexit.c:136
80002380:	ad140088 	sw	s4,136(t0)
/scratch/mpf/jobs/54395/48094/240198/shared/gcc/newlib/libc/stdlib/__atexit.c:137
80002384:	8c490188 	lw	t1,392(v0)
80002388:	01264825 	or	t1,t1,a2
8000238c:	ac490188 	sw	t1,392(v0)
/scratch/mpf/jobs/54395/48094/240198/shared/gcc/newlib/libc/stdlib/__atexit.c:139
80002390:	16240004 	bne	s1,a0,800023a4 <__register_exitproc+0xd4>
80002394:	ad130108 	sw	s3,264(t0)
/scratch/mpf/jobs/54395/48094/240198/shared/gcc/newlib/libc/stdlib/__atexit.c:140
80002398:	8c44018c 	lw	a0,396(v0)
8000239c:	00863025 	or	a2,a0,a2
800023a0:	ac46018c 	sw	a2,396(v0)
/scratch/mpf/jobs/54395/48094/240198/shared/gcc/newlib/libc/stdlib/__atexit.c:142
800023a4:	24640001 	addiu	a0,v1,1
800023a8:	24630002 	addiu	v1,v1,2
800023ac:	ac440004 	sw	a0,4(v0)
800023b0:	00031880 	sll	v1,v1,0x2
800023b4:	00431021 	addu	v0,v0,v1
800023b8:	ac520000 	sw	s2,0(v0)
/scratch/mpf/jobs/54395/48094/240198/shared/gcc/newlib/libc/stdlib/__atexit.c:146
800023bc:	00001025 	move	v0,zero
/scratch/mpf/jobs/54395/48094/240198/shared/gcc/newlib/libc/stdlib/__atexit.c:147
800023c0:	8fbf0024 	lw	ra,36(sp)
800023c4:	8fb40020 	lw	s4,32(sp)
800023c8:	8fb3001c 	lw	s3,28(sp)
800023cc:	8fb20018 	lw	s2,24(sp)
800023d0:	8fb10014 	lw	s1,20(sp)
800023d4:	8fb00010 	lw	s0,16(sp)
800023d8:	03e00008 	jr	ra
800023dc:	27bd0028 	addiu	sp,sp,40

800023e0 <__call_exitprocs>:
__call_exitprocs():
/scratch/mpf/jobs/54395/48094/240198/shared/gcc/newlib/libc/stdlib/__call_atexit.c:68
800023e0:	27bdffc0 	addiu	sp,sp,-64
/scratch/mpf/jobs/54395/48094/240198/shared/gcc/newlib/libc/stdlib/__call_atexit.c:83
800023e4:	3c028000 	lui	v0,0x8000
/scratch/mpf/jobs/54395/48094/240198/shared/gcc/newlib/libc/stdlib/__call_atexit.c:68
800023e8:	afb30024 	sw	s3,36(sp)
/scratch/mpf/jobs/54395/48094/240198/shared/gcc/newlib/libc/stdlib/__call_atexit.c:136
800023ec:	3c130000 	lui	s3,0x0
/scratch/mpf/jobs/54395/48094/240198/shared/gcc/newlib/libc/stdlib/__call_atexit.c:68
800023f0:	afb70034 	sw	s7,52(sp)
/scratch/mpf/jobs/54395/48094/240198/shared/gcc/newlib/libc/stdlib/__call_atexit.c:96
800023f4:	24170001 	li	s7,1
/scratch/mpf/jobs/54395/48094/240198/shared/gcc/newlib/libc/stdlib/__call_atexit.c:68
800023f8:	afb60030 	sw	s6,48(sp)
/scratch/mpf/jobs/54395/48094/240198/shared/gcc/newlib/libc/stdlib/__call_atexit.c:136
800023fc:	26730000 	addiu	s3,s3,0
/scratch/mpf/jobs/54395/48094/240198/shared/gcc/newlib/libc/stdlib/__call_atexit.c:68
80002400:	afb40028 	sw	s4,40(sp)
80002404:	0080b025 	move	s6,a0
80002408:	afbf003c 	sw	ra,60(sp)
8000240c:	00a0a025 	move	s4,a1
80002410:	afbe0038 	sw	s8,56(sp)
80002414:	afb5002c 	sw	s5,44(sp)
80002418:	afb20020 	sw	s2,32(sp)
8000241c:	afb1001c 	sw	s1,28(sp)
80002420:	afb00018 	sw	s0,24(sp)
/scratch/mpf/jobs/54395/48094/240198/shared/gcc/newlib/libc/stdlib/__call_atexit.c:83
80002424:	8c423fa0 	lw	v0,16288(v0)
80002428:	afa20010 	sw	v0,16(sp)
8000242c:	8fa20010 	lw	v0,16(sp)
/scratch/mpf/jobs/54395/48094/240198/shared/gcc/newlib/libc/stdlib/__call_atexit.c:84
80002430:	24520148 	addiu	s2,v0,328
/scratch/mpf/jobs/54395/48094/240198/shared/gcc/newlib/libc/stdlib/__call_atexit.c:83
80002434:	8c500148 	lw	s0,328(v0)
/scratch/mpf/jobs/54395/48094/240198/shared/gcc/newlib/libc/stdlib/__call_atexit.c:85
80002438:	1200003e 	beqz	s0,80002534 <__call_exitprocs+0x154>
8000243c:	8fbf003c 	lw	ra,60(sp)
/scratch/mpf/jobs/54395/48094/240198/shared/gcc/newlib/libc/stdlib/__call_atexit.c:92
80002440:	8e110004 	lw	s1,4(s0)
80002444:	2635ffff 	addiu	s5,s1,-1
80002448:	00118880 	sll	s1,s1,0x2
8000244c:	02118821 	addu	s1,s0,s1
/scratch/mpf/jobs/54395/48094/240198/shared/gcc/newlib/libc/stdlib/__call_atexit.c:92 (discriminator 1)
80002450:	06a0001e 	bltz	s5,800024cc <__call_exitprocs+0xec>
80002454:	00000000 	nop
/scratch/mpf/jobs/54395/48094/240198/shared/gcc/newlib/libc/stdlib/__call_atexit.c:99
80002458:	12800004 	beqz	s4,8000246c <__call_exitprocs+0x8c>
8000245c:	00000000 	nop
/scratch/mpf/jobs/54395/48094/240198/shared/gcc/newlib/libc/stdlib/__call_atexit.c:99 (discriminator 2)
80002460:	8e230104 	lw	v1,260(s1)
80002464:	14740016 	bne	v1,s4,800024c0 <__call_exitprocs+0xe0>
80002468:	00000000 	nop
/scratch/mpf/jobs/54395/48094/240198/shared/gcc/newlib/libc/stdlib/__call_atexit.c:105
8000246c:	8e040004 	lw	a0,4(s0)
80002470:	2484ffff 	addiu	a0,a0,-1
80002474:	16a40003 	bne	s5,a0,80002484 <__call_exitprocs+0xa4>
80002478:	8e230004 	lw	v1,4(s1)
8000247c:	10000002 	b	80002488 <__call_exitprocs+0xa8>
80002480:	ae150004 	sw	s5,4(s0)
/scratch/mpf/jobs/54395/48094/240198/shared/gcc/newlib/libc/stdlib/__call_atexit.c:108
80002484:	ae200004 	sw	zero,4(s1)
/scratch/mpf/jobs/54395/48094/240198/shared/gcc/newlib/libc/stdlib/__call_atexit.c:111
80002488:	1060000d 	beqz	v1,800024c0 <__call_exitprocs+0xe0>
8000248c:	02b72004 	sllv	a0,s7,s5
/scratch/mpf/jobs/54395/48094/240198/shared/gcc/newlib/libc/stdlib/__call_atexit.c:117
80002490:	8e050188 	lw	a1,392(s0)
80002494:	00852824 	and	a1,a0,a1
80002498:	14a0001a 	bnez	a1,80002504 <__call_exitprocs+0x124>
8000249c:	8e1e0004 	lw	s8,4(s0)
/scratch/mpf/jobs/54395/48094/240198/shared/gcc/newlib/libc/stdlib/__call_atexit.c:118
800024a0:	0060f809 	jalr	v1
800024a4:	00000000 	nop
/scratch/mpf/jobs/54395/48094/240198/shared/gcc/newlib/libc/stdlib/__call_atexit.c:127
800024a8:	8e030004 	lw	v1,4(s0)
800024ac:	17c3ffe0 	bne	s8,v1,80002430 <__call_exitprocs+0x50>
800024b0:	8fa20010 	lw	v0,16(sp)
/scratch/mpf/jobs/54395/48094/240198/shared/gcc/newlib/libc/stdlib/__call_atexit.c:127 (discriminator 1)
800024b4:	8e430000 	lw	v1,0(s2)
800024b8:	1470ffdd 	bne	v1,s0,80002430 <__call_exitprocs+0x50>
800024bc:	00000000 	nop
/scratch/mpf/jobs/54395/48094/240198/shared/gcc/newlib/libc/stdlib/__call_atexit.c:92 (discriminator 2)
800024c0:	26b5ffff 	addiu	s5,s5,-1
800024c4:	1000ffe2 	b	80002450 <__call_exitprocs+0x70>
800024c8:	2631fffc 	addiu	s1,s1,-4
/scratch/mpf/jobs/54395/48094/240198/shared/gcc/newlib/libc/stdlib/__call_atexit.c:136
800024cc:	12600019 	beqz	s3,80002534 <__call_exitprocs+0x154>
800024d0:	8fbf003c 	lw	ra,60(sp)
/scratch/mpf/jobs/54395/48094/240198/shared/gcc/newlib/libc/stdlib/__call_atexit.c:141
800024d4:	8e030004 	lw	v1,4(s0)
800024d8:	14600007 	bnez	v1,800024f8 <__call_exitprocs+0x118>
800024dc:	8e020000 	lw	v0,0(s0)
/scratch/mpf/jobs/54395/48094/240198/shared/gcc/newlib/libc/stdlib/__call_atexit.c:141 (discriminator 1)
800024e0:	10400005 	beqz	v0,800024f8 <__call_exitprocs+0x118>
800024e4:	02002025 	move	a0,s0
/scratch/mpf/jobs/54395/48094/240198/shared/gcc/newlib/libc/stdlib/__call_atexit.c:149
800024e8:	0c000000 	jal	80000000 <__app_start>
800024ec:	ae420000 	sw	v0,0(s2)
/scratch/mpf/jobs/54395/48094/240198/shared/gcc/newlib/libc/stdlib/__call_atexit.c:150
800024f0:	1000ffd1 	b	80002438 <__call_exitprocs+0x58>
800024f4:	8e500000 	lw	s0,0(s2)
/scratch/mpf/jobs/54395/48094/240198/shared/gcc/newlib/libc/stdlib/__call_atexit.c:154
800024f8:	02009025 	move	s2,s0
/scratch/mpf/jobs/54395/48094/240198/shared/gcc/newlib/libc/stdlib/__call_atexit.c:155
800024fc:	1000ffce 	b	80002438 <__call_exitprocs+0x58>
80002500:	00408025 	move	s0,v0
/scratch/mpf/jobs/54395/48094/240198/shared/gcc/newlib/libc/stdlib/__call_atexit.c:119
80002504:	8e06018c 	lw	a2,396(s0)
80002508:	00863024 	and	a2,a0,a2
8000250c:	14c00005 	bnez	a2,80002524 <__call_exitprocs+0x144>
80002510:	8e250084 	lw	a1,132(s1)
/scratch/mpf/jobs/54395/48094/240198/shared/gcc/newlib/libc/stdlib/__call_atexit.c:120
80002514:	0060f809 	jalr	v1
80002518:	02c02025 	move	a0,s6
8000251c:	1000ffe3 	b	800024ac <__call_exitprocs+0xcc>
80002520:	8e030004 	lw	v1,4(s0)
/scratch/mpf/jobs/54395/48094/240198/shared/gcc/newlib/libc/stdlib/__call_atexit.c:122
80002524:	0060f809 	jalr	v1
80002528:	00a02025 	move	a0,a1
/scratch/mpf/jobs/54395/48094/240198/shared/gcc/newlib/libc/stdlib/__call_atexit.c:127
8000252c:	1000ffdf 	b	800024ac <__call_exitprocs+0xcc>
80002530:	8e030004 	lw	v1,4(s0)
/scratch/mpf/jobs/54395/48094/240198/shared/gcc/newlib/libc/stdlib/__call_atexit.c:163
80002534:	8fbe0038 	lw	s8,56(sp)
80002538:	8fb70034 	lw	s7,52(sp)
8000253c:	8fb60030 	lw	s6,48(sp)
80002540:	8fb5002c 	lw	s5,44(sp)
80002544:	8fb40028 	lw	s4,40(sp)
80002548:	8fb30024 	lw	s3,36(sp)
8000254c:	8fb20020 	lw	s2,32(sp)
80002550:	8fb1001c 	lw	s1,28(sp)
80002554:	8fb00018 	lw	s0,24(sp)
80002558:	03e00008 	jr	ra
8000255c:	27bd0040 	addiu	sp,sp,64

80002560 <__exit>:
__exit():
/scratch/mpf/jobs/54395/48094/240198/shared/gcc/libgloss/mips/uhi/uhi_exit.c:61
80002560:	27bdffd8 	addiu	sp,sp,-40
80002564:	afb2001c 	sw	s2,28(sp)
/scratch/mpf/jobs/54395/48094/240198/shared/gcc/libgloss/mips/uhi/uhi_exit.c:83
80002568:	3c128000 	lui	s2,0x8000
/scratch/mpf/jobs/54395/48094/240198/shared/gcc/libgloss/mips/uhi/uhi_exit.c:61
8000256c:	afb10018 	sw	s1,24(sp)
/scratch/mpf/jobs/54395/48094/240198/shared/gcc/libgloss/mips/uhi/uhi_exit.c:81
80002570:	3c118000 	lui	s1,0x8000
/scratch/mpf/jobs/54395/48094/240198/shared/gcc/libgloss/mips/uhi/uhi_exit.c:61
80002574:	afb00014 	sw	s0,20(sp)
/scratch/mpf/jobs/54395/48094/240198/shared/gcc/libgloss/mips/uhi/uhi_exit.c:79
80002578:	3c100000 	lui	s0,0x0
/scratch/mpf/jobs/54395/48094/240198/shared/gcc/libgloss/mips/uhi/uhi_exit.c:81
8000257c:	26313224 	addiu	s1,s1,12836
/scratch/mpf/jobs/54395/48094/240198/shared/gcc/libgloss/mips/uhi/uhi_exit.c:61
80002580:	afb30020 	sw	s3,32(sp)
/scratch/mpf/jobs/54395/48094/240198/shared/gcc/libgloss/mips/uhi/uhi_exit.c:79
80002584:	26100001 	addiu	s0,s0,1
/scratch/mpf/jobs/54395/48094/240198/shared/gcc/libgloss/mips/uhi/uhi_exit.c:61
80002588:	afbf0024 	sw	ra,36(sp)
/scratch/mpf/jobs/54395/48094/240198/shared/gcc/libgloss/mips/uhi/uhi_exit.c:83
8000258c:	265230cc 	addiu	s2,s2,12492
/scratch/mpf/jobs/54395/48094/240198/shared/gcc/libgloss/mips/uhi/uhi_exit.c:61
80002590:	00809825 	move	s3,a0
/scratch/mpf/jobs/54395/48094/240198/shared/gcc/libgloss/mips/uhi/uhi_exit.c:62
80002594:	02602025 	move	a0,s3
/scratch/mpf/jobs/54395/48094/240198/shared/gcc/libgloss/mips/uhi/uhi_exit.c:63
80002598:	24190001 	li	t9,1
/scratch/mpf/jobs/54395/48094/240198/shared/gcc/libgloss/mips/uhi/uhi_exit.c:64
8000259c:	24020001 	li	v0,1
/scratch/mpf/jobs/54395/48094/240198/shared/gcc/libgloss/mips/uhi/uhi_exit.c:66
800025a0:	0000004c 	syscall	0x1
/scratch/mpf/jobs/54395/48094/240198/shared/gcc/libgloss/mips/uhi/uhi_exit.c:79
800025a4:	24020002 	li	v0,2
800025a8:	16020005 	bne	s0,v0,800025c0 <__exit+0x60>
800025ac:	24020001 	li	v0,1
/scratch/mpf/jobs/54395/48094/240198/shared/gcc/libgloss/mips/uhi/uhi_exit.c:83
800025b0:	1240fff9 	beqz	s2,80002598 <__exit+0x38>
800025b4:	02602025 	move	a0,s3
/scratch/mpf/jobs/54395/48094/240198/shared/gcc/libgloss/mips/uhi/uhi_exit.c:84
800025b8:	0c000c33 	jal	800030cc <__return_to_boot>
800025bc:	02602025 	move	a0,s3
/scratch/mpf/jobs/54395/48094/240198/shared/gcc/libgloss/mips/uhi/uhi_exit.c:80
800025c0:	1602fff5 	bne	s0,v0,80002598 <__exit+0x38>
800025c4:	02602025 	move	a0,s3
/scratch/mpf/jobs/54395/48094/240198/shared/gcc/libgloss/mips/uhi/uhi_exit.c:81
800025c8:	1220fff4 	beqz	s1,8000259c <__exit+0x3c>
800025cc:	24190001 	li	t9,1
/scratch/mpf/jobs/54395/48094/240198/shared/gcc/libgloss/mips/uhi/uhi_exit.c:82
800025d0:	0c000c89 	jal	80003224 <__get_startup_BEV>
800025d4:	00000000 	nop
800025d8:	1040fff5 	beqz	v0,800025b0 <__exit+0x50>
800025dc:	02602025 	move	a0,s3
/scratch/mpf/jobs/54395/48094/240198/shared/gcc/libgloss/mips/uhi/uhi_exit.c:63
800025e0:	1000ffee 	b	8000259c <__exit+0x3c>
800025e4:	24190001 	li	t9,1

800025e8 <_get_ram_range>:
_get_ram_range():
/scratch/mpf/jobs/54395/48094/240198/shared/gcc/libgloss/mips/uhi/uhi_get_ram_range.c:45
800025e8:	3c030002 	lui	v1,0x2
/scratch/mpf/jobs/54395/48094/240198/shared/gcc/libgloss/mips/uhi/uhi_get_ram_range.c:40
800025ec:	00803025 	move	a2,a0
/scratch/mpf/jobs/54395/48094/240198/shared/gcc/libgloss/mips/uhi/uhi_get_ram_range.c:45
800025f0:	2463f800 	addiu	v1,v1,-2048
/scratch/mpf/jobs/54395/48094/240198/shared/gcc/libgloss/mips/uhi/uhi_get_ram_range.c:40
800025f4:	00a03825 	move	a3,a1
/scratch/mpf/jobs/54395/48094/240198/shared/gcc/libgloss/mips/uhi/uhi_get_ram_range.c:41
800025f8:	2419000c 	li	t9,12
/scratch/mpf/jobs/54395/48094/240198/shared/gcc/libgloss/mips/uhi/uhi_get_ram_range.c:45
800025fc:	10600007 	beqz	v1,8000261c <_get_ram_range+0x34>
80002600:	24020001 	li	v0,1
80002604:	3c028000 	lui	v0,0x8000
/scratch/mpf/jobs/54395/48094/240198/shared/gcc/libgloss/mips/uhi/uhi_get_ram_range.c:47
80002608:	10800002 	beqz	a0,80002614 <_get_ram_range+0x2c>
8000260c:	24420000 	addiu	v0,v0,0
/scratch/mpf/jobs/54395/48094/240198/shared/gcc/libgloss/mips/uhi/uhi_get_ram_range.c:48
80002610:	ac820000 	sw	v0,0(a0)
/scratch/mpf/jobs/54395/48094/240198/shared/gcc/libgloss/mips/uhi/uhi_get_ram_range.c:50
80002614:	10000005 	b	8000262c <_get_ram_range+0x44>
80002618:	00621821 	addu	v1,v1,v0
/scratch/mpf/jobs/54395/48094/240198/shared/gcc/libgloss/mips/uhi/uhi_get_ram_range.c:54
8000261c:	0000004c 	syscall	0x1
/scratch/mpf/jobs/54395/48094/240198/shared/gcc/libgloss/mips/uhi/uhi_get_ram_range.c:60
80002620:	10c00002 	beqz	a2,8000262c <_get_ram_range+0x44>
80002624:	00000000 	nop
/scratch/mpf/jobs/54395/48094/240198/shared/gcc/libgloss/mips/uhi/uhi_get_ram_range.c:61
80002628:	acc20000 	sw	v0,0(a2)
/scratch/mpf/jobs/54395/48094/240198/shared/gcc/libgloss/mips/uhi/uhi_get_ram_range.c:62
8000262c:	03e00008 	jr	ra
80002630:	ace30000 	sw	v1,0(a3)

80002634 <mips_tlbwi2>:
/scratch/mpf/jobs/54395/48094/240198/shared/gcc/libgloss/mips/hal/m32tlb_ops.S:47
80002634:	8fac0010 	lw	t4,16(sp)
/scratch/mpf/jobs/54395/48094/240198/shared/gcc/libgloss/mips/hal/m32tlb_ops.S:49
80002638:	40845000 	mtc0	a0,c0_entryhi
/scratch/mpf/jobs/54395/48094/240198/shared/gcc/libgloss/mips/hal/m32tlb_ops.S:50
8000263c:	40851000 	mtc0	a1,c0_entrylo0
/scratch/mpf/jobs/54395/48094/240198/shared/gcc/libgloss/mips/hal/m32tlb_ops.S:51
80002640:	40861800 	mtc0	a2,c0_entrylo1
/scratch/mpf/jobs/54395/48094/240198/shared/gcc/libgloss/mips/hal/m32tlb_ops.S:52
80002644:	40872800 	mtc0	a3,c0_pagemask
/scratch/mpf/jobs/54395/48094/240198/shared/gcc/libgloss/mips/hal/m32tlb_ops.S:53
80002648:	408c0000 	mtc0	t4,c0_index
/scratch/mpf/jobs/54395/48094/240198/shared/gcc/libgloss/mips/hal/m32tlb_ops.S:54
8000264c:	000000c0 	ehb
/scratch/mpf/jobs/54395/48094/240198/shared/gcc/libgloss/mips/hal/m32tlb_ops.S:56
80002650:	42000002 	tlbwi
/scratch/mpf/jobs/54395/48094/240198/shared/gcc/libgloss/mips/hal/m32tlb_ops.S:59
80002654:	03e00408 	jr.hb	ra
/scratch/mpf/jobs/54395/48094/240198/shared/gcc/libgloss/mips/hal/m32tlb_ops.S:60
80002658:	00000000 	nop

8000265c <mips_tlbwr2>:
/scratch/mpf/jobs/54395/48094/240198/shared/gcc/libgloss/mips/hal/m32tlb_ops.S:73
8000265c:	40845000 	mtc0	a0,c0_entryhi
/scratch/mpf/jobs/54395/48094/240198/shared/gcc/libgloss/mips/hal/m32tlb_ops.S:74
80002660:	40851000 	mtc0	a1,c0_entrylo0
/scratch/mpf/jobs/54395/48094/240198/shared/gcc/libgloss/mips/hal/m32tlb_ops.S:75
80002664:	40861800 	mtc0	a2,c0_entrylo1
/scratch/mpf/jobs/54395/48094/240198/shared/gcc/libgloss/mips/hal/m32tlb_ops.S:76
80002668:	40872800 	mtc0	a3,c0_pagemask
/scratch/mpf/jobs/54395/48094/240198/shared/gcc/libgloss/mips/hal/m32tlb_ops.S:78
8000266c:	000000c0 	ehb
/scratch/mpf/jobs/54395/48094/240198/shared/gcc/libgloss/mips/hal/m32tlb_ops.S:79
80002670:	42000006 	tlbwr
/scratch/mpf/jobs/54395/48094/240198/shared/gcc/libgloss/mips/hal/m32tlb_ops.S:82
80002674:	03e00408 	jr.hb	ra
/scratch/mpf/jobs/54395/48094/240198/shared/gcc/libgloss/mips/hal/m32tlb_ops.S:83
80002678:	00000000 	nop

8000267c <mips_tlbrwr2>:
/scratch/mpf/jobs/54395/48094/240198/shared/gcc/libgloss/mips/hal/m32tlb_ops.S:95
8000267c:	40085000 	mfc0	t0,c0_entryhi
/scratch/mpf/jobs/54395/48094/240198/shared/gcc/libgloss/mips/hal/m32tlb_ops.S:96
80002680:	40845000 	mtc0	a0,c0_entryhi
/scratch/mpf/jobs/54395/48094/240198/shared/gcc/libgloss/mips/hal/m32tlb_ops.S:97
80002684:	000000c0 	ehb
/scratch/mpf/jobs/54395/48094/240198/shared/gcc/libgloss/mips/hal/m32tlb_ops.S:99
80002688:	42000008 	tlbp
/scratch/mpf/jobs/54395/48094/240198/shared/gcc/libgloss/mips/hal/m32tlb_ops.S:100
8000268c:	000000c0 	ehb
/scratch/mpf/jobs/54395/48094/240198/shared/gcc/libgloss/mips/hal/m32tlb_ops.S:102
80002690:	40020000 	mfc0	v0,c0_index
/scratch/mpf/jobs/54395/48094/240198/shared/gcc/libgloss/mips/hal/m32tlb_ops.S:103
80002694:	40851000 	mtc0	a1,c0_entrylo0
/scratch/mpf/jobs/54395/48094/240198/shared/gcc/libgloss/mips/hal/m32tlb_ops.S:104
80002698:	40861800 	mtc0	a2,c0_entrylo1
/scratch/mpf/jobs/54395/48094/240198/shared/gcc/libgloss/mips/hal/m32tlb_ops.S:105
8000269c:	40872800 	mtc0	a3,c0_pagemask
/scratch/mpf/jobs/54395/48094/240198/shared/gcc/libgloss/mips/hal/m32tlb_ops.S:108
800026a0:	04400005 	bltz	v0,800026b8 <mips_tlbrwr2+0x3c>
800026a4:	000000c0 	ehb
/scratch/mpf/jobs/54395/48094/240198/shared/gcc/libgloss/mips/hal/m32tlb_ops.S:110
800026a8:	42000002 	tlbwi
/scratch/mpf/jobs/54395/48094/240198/shared/gcc/libgloss/mips/hal/m32tlb_ops.S:114
800026ac:	40885000 	mtc0	t0,c0_entryhi
800026b0:	03e00408 	jr.hb	ra
/scratch/mpf/jobs/54395/48094/240198/shared/gcc/libgloss/mips/hal/m32tlb_ops.S:115
800026b4:	00000000 	nop
/scratch/mpf/jobs/54395/48094/240198/shared/gcc/libgloss/mips/hal/m32tlb_ops.S:118
800026b8:	42000006 	tlbwr
/scratch/mpf/jobs/54395/48094/240198/shared/gcc/libgloss/mips/hal/m32tlb_ops.S:119
800026bc:	40885000 	mtc0	t0,c0_entryhi
/scratch/mpf/jobs/54395/48094/240198/shared/gcc/libgloss/mips/hal/m32tlb_ops.S:122
800026c0:	03e00408 	jr.hb	ra
/scratch/mpf/jobs/54395/48094/240198/shared/gcc/libgloss/mips/hal/m32tlb_ops.S:123
800026c4:	00000000 	nop

800026c8 <mips_tlbri2>:
/scratch/mpf/jobs/54395/48094/240198/shared/gcc/libgloss/mips/hal/m32tlb_ops.S:138
800026c8:	8fac0010 	lw	t4,16(sp)
/scratch/mpf/jobs/54395/48094/240198/shared/gcc/libgloss/mips/hal/m32tlb_ops.S:140
800026cc:	408c0000 	mtc0	t4,c0_index
/scratch/mpf/jobs/54395/48094/240198/shared/gcc/libgloss/mips/hal/m32tlb_ops.S:141
800026d0:	000000c0 	ehb
/scratch/mpf/jobs/54395/48094/240198/shared/gcc/libgloss/mips/hal/m32tlb_ops.S:143
800026d4:	42000001 	tlbr
/scratch/mpf/jobs/54395/48094/240198/shared/gcc/libgloss/mips/hal/m32tlb_ops.S:144
800026d8:	000000c0 	ehb
/scratch/mpf/jobs/54395/48094/240198/shared/gcc/libgloss/mips/hal/m32tlb_ops.S:146
800026dc:	40085000 	mfc0	t0,c0_entryhi
/scratch/mpf/jobs/54395/48094/240198/shared/gcc/libgloss/mips/hal/m32tlb_ops.S:147
800026e0:	40091000 	mfc0	t1,c0_entrylo0
/scratch/mpf/jobs/54395/48094/240198/shared/gcc/libgloss/mips/hal/m32tlb_ops.S:148
800026e4:	400a1800 	mfc0	t2,c0_entrylo1
/scratch/mpf/jobs/54395/48094/240198/shared/gcc/libgloss/mips/hal/m32tlb_ops.S:149
800026e8:	400b2800 	mfc0	t3,c0_pagemask
/scratch/mpf/jobs/54395/48094/240198/shared/gcc/libgloss/mips/hal/m32tlb_ops.S:150
800026ec:	ac880000 	sw	t0,0(a0)
/scratch/mpf/jobs/54395/48094/240198/shared/gcc/libgloss/mips/hal/m32tlb_ops.S:151
800026f0:	aca90000 	sw	t1,0(a1)
/scratch/mpf/jobs/54395/48094/240198/shared/gcc/libgloss/mips/hal/m32tlb_ops.S:152
800026f4:	acca0000 	sw	t2,0(a2)
/scratch/mpf/jobs/54395/48094/240198/shared/gcc/libgloss/mips/hal/m32tlb_ops.S:154
800026f8:	03e00008 	jr	ra
800026fc:	aceb0000 	sw	t3,0(a3)

80002700 <mips_tlbprobe2>:
/scratch/mpf/jobs/54395/48094/240198/shared/gcc/libgloss/mips/hal/m32tlb_ops.S:168
80002700:	40085000 	mfc0	t0,c0_entryhi
/scratch/mpf/jobs/54395/48094/240198/shared/gcc/libgloss/mips/hal/m32tlb_ops.S:169
80002704:	40845000 	mtc0	a0,c0_entryhi
/scratch/mpf/jobs/54395/48094/240198/shared/gcc/libgloss/mips/hal/m32tlb_ops.S:170
80002708:	000000c0 	ehb
/scratch/mpf/jobs/54395/48094/240198/shared/gcc/libgloss/mips/hal/m32tlb_ops.S:172
8000270c:	42000008 	tlbp
/scratch/mpf/jobs/54395/48094/240198/shared/gcc/libgloss/mips/hal/m32tlb_ops.S:173
80002710:	000000c0 	ehb
/scratch/mpf/jobs/54395/48094/240198/shared/gcc/libgloss/mips/hal/m32tlb_ops.S:175
80002714:	40020000 	mfc0	v0,c0_index
/scratch/mpf/jobs/54395/48094/240198/shared/gcc/libgloss/mips/hal/m32tlb_ops.S:176
80002718:	0440000c 	bltz	v0,8000274c <mips_tlbprobe2+0x4c>
8000271c:	00000000 	nop
/scratch/mpf/jobs/54395/48094/240198/shared/gcc/libgloss/mips/hal/m32tlb_ops.S:178
80002720:	42000001 	tlbr
/scratch/mpf/jobs/54395/48094/240198/shared/gcc/libgloss/mips/hal/m32tlb_ops.S:179
80002724:	000000c0 	ehb
/scratch/mpf/jobs/54395/48094/240198/shared/gcc/libgloss/mips/hal/m32tlb_ops.S:181
80002728:	40031000 	mfc0	v1,c0_entrylo0
/scratch/mpf/jobs/54395/48094/240198/shared/gcc/libgloss/mips/hal/m32tlb_ops.S:182
8000272c:	40091800 	mfc0	t1,c0_entrylo1
/scratch/mpf/jobs/54395/48094/240198/shared/gcc/libgloss/mips/hal/m32tlb_ops.S:183
80002730:	400a2800 	mfc0	t2,c0_pagemask
/scratch/mpf/jobs/54395/48094/240198/shared/gcc/libgloss/mips/hal/m32tlb_ops.S:185
80002734:	40885000 	mtc0	t0,c0_entryhi
/scratch/mpf/jobs/54395/48094/240198/shared/gcc/libgloss/mips/hal/m32tlb_ops.S:187
80002738:	aca30000 	sw	v1,0(a1)
/scratch/mpf/jobs/54395/48094/240198/shared/gcc/libgloss/mips/hal/m32tlb_ops.S:188
8000273c:	acc90000 	sw	t1,0(a2)
/scratch/mpf/jobs/54395/48094/240198/shared/gcc/libgloss/mips/hal/m32tlb_ops.S:189
80002740:	acea0000 	sw	t2,0(a3)
/scratch/mpf/jobs/54395/48094/240198/shared/gcc/libgloss/mips/hal/m32tlb_ops.S:192
80002744:	03e00408 	jr.hb	ra
/scratch/mpf/jobs/54395/48094/240198/shared/gcc/libgloss/mips/hal/m32tlb_ops.S:196
80002748:	00000000 	nop
8000274c:	40885000 	mtc0	t0,c0_entryhi
/scratch/mpf/jobs/54395/48094/240198/shared/gcc/libgloss/mips/hal/m32tlb_ops.S:197
80002750:	2402ffff 	li	v0,-1
/scratch/mpf/jobs/54395/48094/240198/shared/gcc/libgloss/mips/hal/m32tlb_ops.S:200
80002754:	03e00408 	jr.hb	ra
/scratch/mpf/jobs/54395/48094/240198/shared/gcc/libgloss/mips/hal/m32tlb_ops.S:201
80002758:	00000000 	nop

8000275c <mips_tlbinval>:
/scratch/mpf/jobs/54395/48094/240198/shared/gcc/libgloss/mips/hal/m32tlb_ops.S:213
8000275c:	40085000 	mfc0	t0,c0_entryhi
/scratch/mpf/jobs/54395/48094/240198/shared/gcc/libgloss/mips/hal/m32tlb_ops.S:214
80002760:	40845000 	mtc0	a0,c0_entryhi
/scratch/mpf/jobs/54395/48094/240198/shared/gcc/libgloss/mips/hal/m32tlb_ops.S:215
80002764:	000000c0 	ehb
/scratch/mpf/jobs/54395/48094/240198/shared/gcc/libgloss/mips/hal/m32tlb_ops.S:217
80002768:	42000008 	tlbp
/scratch/mpf/jobs/54395/48094/240198/shared/gcc/libgloss/mips/hal/m32tlb_ops.S:218
8000276c:	000000c0 	ehb
/scratch/mpf/jobs/54395/48094/240198/shared/gcc/libgloss/mips/hal/m32tlb_ops.S:220
80002770:	40020000 	mfc0	v0,c0_index
/scratch/mpf/jobs/54395/48094/240198/shared/gcc/libgloss/mips/hal/m32tlb_ops.S:221
80002774:	0440001c 	bltz	v0,800027e8 <mips_tlbinval+0x8c>
80002778:	00000000 	nop
/scratch/mpf/jobs/54395/48094/240198/shared/gcc/libgloss/mips/hal/m32tlb_ops.S:223
8000277c:	40801000 	mtc0	zero,c0_entrylo0
/scratch/mpf/jobs/54395/48094/240198/shared/gcc/libgloss/mips/hal/m32tlb_ops.S:224
80002780:	40801800 	mtc0	zero,c0_entrylo1
/scratch/mpf/jobs/54395/48094/240198/shared/gcc/libgloss/mips/hal/m32tlb_ops.S:226
80002784:	40098003 	mfc0	t1,c0_config3
/scratch/mpf/jobs/54395/48094/240198/shared/gcc/libgloss/mips/hal/m32tlb_ops.S:227
80002788:	7d2907c0 	ext	t1,t1,0x1f,0x1
/scratch/mpf/jobs/54395/48094/240198/shared/gcc/libgloss/mips/hal/m32tlb_ops.S:228
8000278c:	11200007 	beqz	t1,800027ac <mips_tlbinval+0x50>
80002790:	00000000 	nop
/scratch/mpf/jobs/54395/48094/240198/shared/gcc/libgloss/mips/hal/m32tlb_ops.S:230
80002794:	40098004 	mfc0	t1,$16,4
/scratch/mpf/jobs/54395/48094/240198/shared/gcc/libgloss/mips/hal/m32tlb_ops.S:231
80002798:	7d290f40 	ext	t1,t1,0x1d,0x2
/scratch/mpf/jobs/54395/48094/240198/shared/gcc/libgloss/mips/hal/m32tlb_ops.S:232
8000279c:	11200003 	beqz	t1,800027ac <mips_tlbinval+0x50>
800027a0:	00000000 	nop
/scratch/mpf/jobs/54395/48094/240198/shared/gcc/libgloss/mips/hal/m32tlb_ops.S:235
800027a4:	1000000c 	b	800027d8 <mips_tlbinval+0x7c>
800027a8:	24090400 	li	t1,1024
/scratch/mpf/jobs/54395/48094/240198/shared/gcc/libgloss/mips/hal/m32tlb_ops.S:237
800027ac:	3c097fff 	lui	t1,0x7fff
800027b0:	3529c000 	ori	t1,t1,0xc000
/scratch/mpf/jobs/54395/48094/240198/shared/gcc/libgloss/mips/hal/m32tlb_ops.S:238
800027b4:	25294000 	addiu	t1,t1,16384
/scratch/mpf/jobs/54395/48094/240198/shared/gcc/libgloss/mips/hal/m32tlb_ops.S:239
800027b8:	40895000 	mtc0	t1,c0_entryhi
/scratch/mpf/jobs/54395/48094/240198/shared/gcc/libgloss/mips/hal/m32tlb_ops.S:240
800027bc:	000000c0 	ehb
/scratch/mpf/jobs/54395/48094/240198/shared/gcc/libgloss/mips/hal/m32tlb_ops.S:242
800027c0:	42000008 	tlbp
/scratch/mpf/jobs/54395/48094/240198/shared/gcc/libgloss/mips/hal/m32tlb_ops.S:243
800027c4:	000000c0 	ehb
/scratch/mpf/jobs/54395/48094/240198/shared/gcc/libgloss/mips/hal/m32tlb_ops.S:245
800027c8:	400a0000 	mfc0	t2,c0_index
/scratch/mpf/jobs/54395/48094/240198/shared/gcc/libgloss/mips/hal/m32tlb_ops.S:246
800027cc:	0541fff9 	bgez	t2,800027b4 <mips_tlbinval+0x58>
800027d0:	00000000 	nop
/scratch/mpf/jobs/54395/48094/240198/shared/gcc/libgloss/mips/hal/m32tlb_ops.S:248
800027d4:	40820000 	mtc0	v0,c0_index
/scratch/mpf/jobs/54395/48094/240198/shared/gcc/libgloss/mips/hal/m32tlb_ops.S:250
800027d8:	40895000 	mtc0	t1,c0_entryhi
/scratch/mpf/jobs/54395/48094/240198/shared/gcc/libgloss/mips/hal/m32tlb_ops.S:251
800027dc:	000000c0 	ehb
/scratch/mpf/jobs/54395/48094/240198/shared/gcc/libgloss/mips/hal/m32tlb_ops.S:253
800027e0:	42000002 	tlbwi
/scratch/mpf/jobs/54395/48094/240198/shared/gcc/libgloss/mips/hal/m32tlb_ops.S:254
800027e4:	000000c0 	ehb
/scratch/mpf/jobs/54395/48094/240198/shared/gcc/libgloss/mips/hal/m32tlb_ops.S:256
800027e8:	40885000 	mtc0	t0,c0_entryhi
/scratch/mpf/jobs/54395/48094/240198/shared/gcc/libgloss/mips/hal/m32tlb_ops.S:259
800027ec:	03e00408 	jr.hb	ra
/scratch/mpf/jobs/54395/48094/240198/shared/gcc/libgloss/mips/hal/m32tlb_ops.S:260
800027f0:	00000000 	nop

800027f4 <putsnds.constprop.0>:
putsnds():
/scratch/mpf/jobs/54395/48094/240198/shared/gcc/libgloss/mips/hal/mips_excpt_handler.c:49
800027f4:	27bdffd8 	addiu	sp,sp,-40
800027f8:	afb20020 	sw	s2,32(sp)
800027fc:	00a09025 	move	s2,a1
80002800:	afb1001c 	sw	s1,28(sp)
80002804:	00808825 	move	s1,a0
80002808:	afb00018 	sw	s0,24(sp)
8000280c:	00c08025 	move	s0,a2
/scratch/mpf/jobs/54395/48094/240198/shared/gcc/libgloss/mips/hal/mips_excpt_handler.c:55
80002810:	10800007 	beqz	a0,80002830 <putsnds.constprop.0+0x3c>
80002814:	afbf0024 	sw	ra,36(sp)
/scratch/mpf/jobs/54395/48094/240198/shared/gcc/libgloss/mips/hal/mips_excpt_handler.c:56
80002818:	0c000cb3 	jal	800032cc <strlen>
8000281c:	00000000 	nop
80002820:	24040001 	li	a0,1
80002824:	02202825 	move	a1,s1
80002828:	0c000cba 	jal	800032e8 <write>
8000282c:	00403025 	move	a2,v0
/scratch/mpf/jobs/54395/48094/240198/shared/gcc/libgloss/mips/hal/mips_excpt_handler.c:59
80002830:	3c048000 	lui	a0,0x8000
/scratch/mpf/jobs/54395/48094/240198/shared/gcc/libgloss/mips/hal/mips_excpt_handler.c:49
80002834:	00001825 	move	v1,zero
/scratch/mpf/jobs/54395/48094/240198/shared/gcc/libgloss/mips/hal/mips_excpt_handler.c:59
80002838:	248436a8 	addiu	a0,a0,13992
/scratch/mpf/jobs/54395/48094/240198/shared/gcc/libgloss/mips/hal/mips_excpt_handler.c:58
8000283c:	24060008 	li	a2,8
80002840:	00031023 	negu	v0,v1
80002844:	27a50010 	addiu	a1,sp,16
80002848:	00021080 	sll	v0,v0,0x2
/scratch/mpf/jobs/54395/48094/240198/shared/gcc/libgloss/mips/hal/mips_excpt_handler.c:59
8000284c:	24630001 	addiu	v1,v1,1
80002850:	2442001c 	addiu	v0,v0,28
80002854:	00a33821 	addu	a3,a1,v1
80002858:	00521006 	srlv	v0,s2,v0
8000285c:	3042000f 	andi	v0,v0,0xf
80002860:	00441021 	addu	v0,v0,a0
80002864:	90420000 	lbu	v0,0(v0)
/scratch/mpf/jobs/54395/48094/240198/shared/gcc/libgloss/mips/hal/mips_excpt_handler.c:58
80002868:	1466fff5 	bne	v1,a2,80002840 <putsnds.constprop.0+0x4c>
8000286c:	a0e2ffff 	sb	v0,-1(a3)
/scratch/mpf/jobs/54395/48094/240198/shared/gcc/libgloss/mips/hal/mips_excpt_handler.c:60
80002870:	24040001 	li	a0,1
80002874:	0c000cba 	jal	800032e8 <write>
80002878:	24060008 	li	a2,8
/scratch/mpf/jobs/54395/48094/240198/shared/gcc/libgloss/mips/hal/mips_excpt_handler.c:62
8000287c:	12000008 	beqz	s0,800028a0 <putsnds.constprop.0+0xac>
80002880:	8fbf0024 	lw	ra,36(sp)
/scratch/mpf/jobs/54395/48094/240198/shared/gcc/libgloss/mips/hal/mips_excpt_handler.c:63
80002884:	0c000cb3 	jal	800032cc <strlen>
80002888:	02002025 	move	a0,s0
8000288c:	24040001 	li	a0,1
80002890:	02002825 	move	a1,s0
80002894:	0c000cba 	jal	800032e8 <write>
80002898:	00403025 	move	a2,v0
/scratch/mpf/jobs/54395/48094/240198/shared/gcc/libgloss/mips/hal/mips_excpt_handler.c:64
8000289c:	8fbf0024 	lw	ra,36(sp)
800028a0:	8fb20020 	lw	s2,32(sp)
800028a4:	8fb1001c 	lw	s1,28(sp)
800028a8:	8fb00018 	lw	s0,24(sp)
800028ac:	03e00008 	jr	ra
800028b0:	27bd0028 	addiu	sp,sp,40

800028b4 <putsns>:
putsns():
/scratch/mpf/jobs/54395/48094/240198/shared/gcc/libgloss/mips/hal/mips_excpt_handler.c:69
800028b4:	080009fd 	j	800027f4 <putsnds.constprop.0>
800028b8:	00000000 	nop

800028bc <__exception_handle>:
__exception_handle_verbose():
/scratch/mpf/jobs/54395/48094/240198/shared/gcc/libgloss/mips/hal/mips_excpt_handler.c:94
800028bc:	27bdffe0 	addiu	sp,sp,-32
/scratch/mpf/jobs/54395/48094/240198/shared/gcc/libgloss/mips/hal/mips_excpt_handler.c:95
800028c0:	24a2ffff 	addiu	v0,a1,-1
800028c4:	2c43001e 	sltiu	v1,v0,30
/scratch/mpf/jobs/54395/48094/240198/shared/gcc/libgloss/mips/hal/mips_excpt_handler.c:94
800028c8:	afb00010 	sw	s0,16(sp)
800028cc:	afbf001c 	sw	ra,28(sp)
800028d0:	00808025 	move	s0,a0
800028d4:	afb20018 	sw	s2,24(sp)
/scratch/mpf/jobs/54395/48094/240198/shared/gcc/libgloss/mips/hal/mips_excpt_handler.c:95
800028d8:	106000d7 	beqz	v1,80002c38 <__exception_handle+0x37c>
800028dc:	afb10014 	sw	s1,20(sp)
800028e0:	00021880 	sll	v1,v0,0x2
800028e4:	3c028000 	lui	v0,0x8000
800028e8:	24423624 	addiu	v0,v0,13860
800028ec:	00431021 	addu	v0,v0,v1
800028f0:	8c420000 	lw	v0,0(v0)
800028f4:	00400008 	jr	v0
800028f8:	00000000 	nop
/scratch/mpf/jobs/54395/48094/240198/shared/gcc/libgloss/mips/hal/mips_excpt_handler.c:98
800028fc:	3c058000 	lui	a1,0x8000
80002900:	24040001 	li	a0,1
80002904:	100000a7 	b	80002ba4 <__exception_handle+0x2e8>
80002908:	24a536bc 	addiu	a1,a1,14012
/scratch/mpf/jobs/54395/48094/240198/shared/gcc/libgloss/mips/hal/mips_excpt_handler.c:101
8000290c:	3c048000 	lui	a0,0x8000
80002910:	10000006 	b	8000292c <__exception_handle+0x70>
80002914:	248436d8 	addiu	a0,a0,14040
/scratch/mpf/jobs/54395/48094/240198/shared/gcc/libgloss/mips/hal/mips_excpt_handler.c:105
80002918:	3c048000 	lui	a0,0x8000
8000291c:	10000003 	b	8000292c <__exception_handle+0x70>
80002920:	248436f4 	addiu	a0,a0,14068
/scratch/mpf/jobs/54395/48094/240198/shared/gcc/libgloss/mips/hal/mips_excpt_handler.c:109
80002924:	3c048000 	lui	a0,0x8000
80002928:	24843710 	addiu	a0,a0,14096
8000292c:	8e050080 	lw	a1,128(s0)
80002930:	0c000a2d 	jal	800028b4 <putsns>
80002934:	00003025 	move	a2,zero
/scratch/mpf/jobs/54395/48094/240198/shared/gcc/libgloss/mips/hal/mips_excpt_handler.c:110
80002938:	3c048000 	lui	a0,0x8000
8000293c:	100000a8 	b	80002be0 <__exception_handle+0x324>
80002940:	248438e4 	addiu	a0,a0,14564
/scratch/mpf/jobs/54395/48094/240198/shared/gcc/libgloss/mips/hal/mips_excpt_handler.c:113
80002944:	3c048000 	lui	a0,0x8000
80002948:	1000fff8 	b	8000292c <__exception_handle+0x70>
8000294c:	24843730 	addiu	a0,a0,14128
/scratch/mpf/jobs/54395/48094/240198/shared/gcc/libgloss/mips/hal/mips_excpt_handler.c:117
80002950:	3c058000 	lui	a1,0x8000
80002954:	24040001 	li	a0,1
80002958:	24a53750 	addiu	a1,a1,14160
8000295c:	24060016 	li	a2,22
80002960:	0c000cba 	jal	800032e8 <write>
80002964:	3c118000 	lui	s1,0x8000
/scratch/mpf/jobs/54395/48094/240198/shared/gcc/libgloss/mips/hal/mips_excpt_handler.c:118
80002968:	100000ba 	b	80002c54 <__exception_handle+0x398>
8000296c:	3c048000 	lui	a0,0x8000
/scratch/mpf/jobs/54395/48094/240198/shared/gcc/libgloss/mips/hal/mips_excpt_handler.c:120
80002970:	3c058000 	lui	a1,0x8000
80002974:	24040001 	li	a0,1
80002978:	24a53768 	addiu	a1,a1,14184
8000297c:	1000fff8 	b	80002960 <__exception_handle+0xa4>
80002980:	2406000f 	li	a2,15
/scratch/mpf/jobs/54395/48094/240198/shared/gcc/libgloss/mips/hal/mips_excpt_handler.c:131
80002984:	8c830060 	lw	v1,96(a0)
80002988:	24020017 	li	v0,23
8000298c:	14620014 	bne	v1,v0,800029e0 <__exception_handle+0x124>
80002990:	3c020000 	lui	v0,0x0
/scratch/mpf/jobs/54395/48094/240198/shared/gcc/libgloss/mips/hal/mips_excpt_handler.c:133
80002994:	8c83000c 	lw	v1,12(a0)
80002998:	24020001 	li	v0,1
8000299c:	14620005 	bne	v1,v0,800029b4 <__exception_handle+0xf8>
800029a0:	24040001 	li	a0,1
/scratch/mpf/jobs/54395/48094/240198/shared/gcc/libgloss/mips/hal/mips_excpt_handler.c:136
800029a4:	3c058000 	lui	a1,0x8000
800029a8:	2406001d 	li	a2,29
800029ac:	10000004 	b	800029c0 <__exception_handle+0x104>
800029b0:	24a53778 	addiu	a1,a1,14200
/scratch/mpf/jobs/54395/48094/240198/shared/gcc/libgloss/mips/hal/mips_excpt_handler.c:139
800029b4:	3c058000 	lui	a1,0x8000
800029b8:	2406001b 	li	a2,27
800029bc:	24a53798 	addiu	a1,a1,14232
800029c0:	0c000cba 	jal	800032e8 <write>
800029c4:	00000000 	nop
/scratch/mpf/jobs/54395/48094/240198/shared/gcc/libgloss/mips/hal/mips_excpt_handler.c:144
800029c8:	3c028000 	lui	v0,0x8000
800029cc:	24422560 	addiu	v0,v0,9568
800029d0:	ae02007c 	sw	v0,124(s0)
/scratch/mpf/jobs/54395/48094/240198/shared/gcc/libgloss/mips/hal/mips_excpt_handler.c:146
800029d4:	240200ff 	li	v0,255
/scratch/mpf/jobs/54395/48094/240198/shared/gcc/libgloss/mips/hal/mips_excpt_handler.c:147
800029d8:	1000016b 	b	80002f88 <__exception_handle+0x6cc>
800029dc:	ae02000c 	sw	v0,12(s0)
/scratch/mpf/jobs/54395/48094/240198/shared/gcc/libgloss/mips/hal/mips_excpt_handler.c:150
800029e0:	24030002 	li	v1,2
800029e4:	24420001 	addiu	v0,v0,1
800029e8:	1443000b 	bne	v0,v1,80002a18 <__exception_handle+0x15c>
800029ec:	24030001 	li	v1,1
/scratch/mpf/jobs/54395/48094/240198/shared/gcc/libgloss/mips/hal/mips_excpt_handler.c:154
800029f0:	3c028000 	lui	v0,0x8000
800029f4:	2442316c 	addiu	v0,v0,12652
800029f8:	10400011 	beqz	v0,80002a40 <__exception_handle+0x184>
800029fc:	8fbf001c 	lw	ra,28(sp)
/scratch/mpf/jobs/54395/48094/240198/shared/gcc/libgloss/mips/hal/mips_excpt_handler.c:156
80002a00:	02002025 	move	a0,s0
/scratch/mpf/jobs/54395/48094/240198/shared/gcc/libgloss/mips/hal/mips_excpt_handler.c:308
80002a04:	8fb20018 	lw	s2,24(sp)
80002a08:	8fb10014 	lw	s1,20(sp)
80002a0c:	8fb00010 	lw	s0,16(sp)
/scratch/mpf/jobs/54395/48094/240198/shared/gcc/libgloss/mips/hal/mips_excpt_handler.c:156
80002a10:	08000c5b 	j	8000316c <__chain_uhi_excpt>
80002a14:	27bd0020 	addiu	sp,sp,32
/scratch/mpf/jobs/54395/48094/240198/shared/gcc/libgloss/mips/hal/mips_excpt_handler.c:151
80002a18:	1443000a 	bne	v0,v1,80002a44 <__exception_handle+0x188>
80002a1c:	8fbf001c 	lw	ra,28(sp)
/scratch/mpf/jobs/54395/48094/240198/shared/gcc/libgloss/mips/hal/mips_excpt_handler.c:152
80002a20:	3c028000 	lui	v0,0x8000
80002a24:	24423224 	addiu	v0,v0,12836
80002a28:	10400007 	beqz	v0,80002a48 <__exception_handle+0x18c>
80002a2c:	02002025 	move	a0,s0
/scratch/mpf/jobs/54395/48094/240198/shared/gcc/libgloss/mips/hal/mips_excpt_handler.c:153
80002a30:	0c000c89 	jal	80003224 <__get_startup_BEV>
80002a34:	00000000 	nop
80002a38:	1040ffee 	beqz	v0,800029f4 <__exception_handle+0x138>
80002a3c:	3c028000 	lui	v0,0x8000
/scratch/mpf/jobs/54395/48094/240198/shared/gcc/libgloss/mips/hal/mips_excpt_handler.c:308
80002a40:	8fbf001c 	lw	ra,28(sp)
/scratch/mpf/jobs/54395/48094/240198/shared/gcc/libgloss/mips/hal/mips_excpt_handler.c:158
80002a44:	02002025 	move	a0,s0
/scratch/mpf/jobs/54395/48094/240198/shared/gcc/libgloss/mips/hal/mips_excpt_handler.c:308
80002a48:	8fb20018 	lw	s2,24(sp)
80002a4c:	8fb10014 	lw	s1,20(sp)
80002a50:	8fb00010 	lw	s0,16(sp)
/scratch/mpf/jobs/54395/48094/240198/shared/gcc/libgloss/mips/hal/mips_excpt_handler.c:158
80002a54:	08000cd3 	j	8000334c <__uhi_indirect>
80002a58:	27bd0020 	addiu	sp,sp,32
/scratch/mpf/jobs/54395/48094/240198/shared/gcc/libgloss/mips/hal/mips_excpt_handler.c:161
80002a5c:	3c048000 	lui	a0,0x8000
80002a60:	1000005f 	b	80002be0 <__exception_handle+0x324>
80002a64:	248437b4 	addiu	a0,a0,14260
/scratch/mpf/jobs/54395/48094/240198/shared/gcc/libgloss/mips/hal/mips_excpt_handler.c:164
80002a68:	3c048000 	lui	a0,0x8000
80002a6c:	1000005c 	b	80002be0 <__exception_handle+0x324>
80002a70:	248437c4 	addiu	a0,a0,14276
/scratch/mpf/jobs/54395/48094/240198/shared/gcc/libgloss/mips/hal/mips_excpt_handler.c:167
80002a74:	3c048000 	lui	a0,0x8000
80002a78:	10000059 	b	80002be0 <__exception_handle+0x324>
80002a7c:	248437dc 	addiu	a0,a0,14300
/scratch/mpf/jobs/54395/48094/240198/shared/gcc/libgloss/mips/hal/mips_excpt_handler.c:170
80002a80:	3c058000 	lui	a1,0x8000
80002a84:	24040001 	li	a0,1
80002a88:	24a537f8 	addiu	a1,a1,14328
80002a8c:	1000ffb4 	b	80002960 <__exception_handle+0xa4>
80002a90:	24060009 	li	a2,9
/scratch/mpf/jobs/54395/48094/240198/shared/gcc/libgloss/mips/hal/mips_excpt_handler.c:173
80002a94:	3c058000 	lui	a1,0x8000
80002a98:	24040001 	li	a0,1
80002a9c:	24a53804 	addiu	a1,a1,14340
80002aa0:	1000ffaf 	b	80002960 <__exception_handle+0xa4>
80002aa4:	24060005 	li	a2,5
/scratch/mpf/jobs/54395/48094/240198/shared/gcc/libgloss/mips/hal/mips_excpt_handler.c:177
80002aa8:	3c020000 	lui	v0,0x0
80002aac:	24420001 	addiu	v0,v0,1
80002ab0:	10400010 	beqz	v0,80002af4 <__exception_handle+0x238>
80002ab4:	3c058000 	lui	a1,0x8000
/scratch/mpf/jobs/54395/48094/240198/shared/gcc/libgloss/mips/hal/mips_excpt_handler.c:178
80002ab8:	787e0899 	cfcmsa	v0,msa_csr
80002abc:	7c420440 	ext	v0,v0,0x11,0x1
80002ac0:	1040000c 	beqz	v0,80002af4 <__exception_handle+0x238>
80002ac4:	3c058000 	lui	a1,0x8000
/scratch/mpf/jobs/54395/48094/240198/shared/gcc/libgloss/mips/hal/mips_excpt_handler.c:179
80002ac8:	787e08d9 	cfcmsa	v1,msa_csr
80002acc:	3c040100 	lui	a0,0x100
80002ad0:	00641824 	and	v1,v1,a0
80002ad4:	14600007 	bnez	v1,80002af4 <__exception_handle+0x238>
80002ad8:	3c058000 	lui	a1,0x8000
/scratch/mpf/jobs/54395/48094/240198/shared/gcc/libgloss/mips/hal/mips_excpt_handler.c:181
80002adc:	787e0899 	cfcmsa	v0,msa_csr
/scratch/mpf/jobs/54395/48094/240198/shared/gcc/libgloss/mips/hal/mips_excpt_handler.c:182
80002ae0:	7c028c44 	ins	v0,zero,0x11,0x1
/scratch/mpf/jobs/54395/48094/240198/shared/gcc/libgloss/mips/hal/mips_excpt_handler.c:183
80002ae4:	00441025 	or	v0,v0,a0
/scratch/mpf/jobs/54395/48094/240198/shared/gcc/libgloss/mips/hal/mips_excpt_handler.c:184
80002ae8:	783e1059 	ctcmsa	msa_csr,v0
/scratch/mpf/jobs/54395/48094/240198/shared/gcc/libgloss/mips/hal/mips_excpt_handler.c:185
80002aec:	10000127 	b	80002f8c <__exception_handle+0x6d0>
80002af0:	8fbf001c 	lw	ra,28(sp)
/scratch/mpf/jobs/54395/48094/240198/shared/gcc/libgloss/mips/hal/mips_excpt_handler.c:188
80002af4:	24040001 	li	a0,1
80002af8:	24a5380c 	addiu	a1,a1,14348
80002afc:	1000ff98 	b	80002960 <__exception_handle+0xa4>
80002b00:	24060019 	li	a2,25
/scratch/mpf/jobs/54395/48094/240198/shared/gcc/libgloss/mips/hal/mips_excpt_handler.c:193
80002b04:	3c020000 	lui	v0,0x0
80002b08:	24420001 	addiu	v0,v0,1
80002b0c:	10400010 	beqz	v0,80002b50 <__exception_handle+0x294>
80002b10:	3c058000 	lui	a1,0x8000
/scratch/mpf/jobs/54395/48094/240198/shared/gcc/libgloss/mips/hal/mips_excpt_handler.c:194
80002b14:	4442f800 	cfc1	v0,c1_fcsr
80002b18:	7c420440 	ext	v0,v0,0x11,0x1
80002b1c:	1040000c 	beqz	v0,80002b50 <__exception_handle+0x294>
80002b20:	3c058000 	lui	a1,0x8000
/scratch/mpf/jobs/54395/48094/240198/shared/gcc/libgloss/mips/hal/mips_excpt_handler.c:195
80002b24:	4443f800 	cfc1	v1,c1_fcsr
80002b28:	3c040100 	lui	a0,0x100
80002b2c:	00641824 	and	v1,v1,a0
80002b30:	14600007 	bnez	v1,80002b50 <__exception_handle+0x294>
80002b34:	3c058000 	lui	a1,0x8000
/scratch/mpf/jobs/54395/48094/240198/shared/gcc/libgloss/mips/hal/mips_excpt_handler.c:197
80002b38:	4442f800 	cfc1	v0,c1_fcsr
/scratch/mpf/jobs/54395/48094/240198/shared/gcc/libgloss/mips/hal/mips_excpt_handler.c:198
80002b3c:	7c028c44 	ins	v0,zero,0x11,0x1
/scratch/mpf/jobs/54395/48094/240198/shared/gcc/libgloss/mips/hal/mips_excpt_handler.c:199
80002b40:	00441025 	or	v0,v0,a0
/scratch/mpf/jobs/54395/48094/240198/shared/gcc/libgloss/mips/hal/mips_excpt_handler.c:200
80002b44:	44c2f800 	ctc1	v0,c1_fcsr
/scratch/mpf/jobs/54395/48094/240198/shared/gcc/libgloss/mips/hal/mips_excpt_handler.c:202
80002b48:	10000110 	b	80002f8c <__exception_handle+0x6d0>
80002b4c:	8fbf001c 	lw	ra,28(sp)
/scratch/mpf/jobs/54395/48094/240198/shared/gcc/libgloss/mips/hal/mips_excpt_handler.c:204
80002b50:	24040001 	li	a0,1
80002b54:	24a53810 	addiu	a1,a1,14352
80002b58:	1000ff81 	b	80002960 <__exception_handle+0xa4>
80002b5c:	24060015 	li	a2,21
/scratch/mpf/jobs/54395/48094/240198/shared/gcc/libgloss/mips/hal/mips_excpt_handler.c:207
80002b60:	3c058000 	lui	a1,0x8000
80002b64:	24040001 	li	a0,1
80002b68:	10000004 	b	80002b7c <__exception_handle+0x2c0>
80002b6c:	24a53828 	addiu	a1,a1,14376
/scratch/mpf/jobs/54395/48094/240198/shared/gcc/libgloss/mips/hal/mips_excpt_handler.c:210
80002b70:	3c058000 	lui	a1,0x8000
80002b74:	24040001 	li	a0,1
80002b78:	24a53850 	addiu	a1,a1,14416
80002b7c:	1000ff78 	b	80002960 <__exception_handle+0xa4>
80002b80:	24060027 	li	a2,39
/scratch/mpf/jobs/54395/48094/240198/shared/gcc/libgloss/mips/hal/mips_excpt_handler.c:213
80002b84:	3c058000 	lui	a1,0x8000
80002b88:	24040001 	li	a0,1
80002b8c:	24a53878 	addiu	a1,a1,14456
80002b90:	1000ff73 	b	80002960 <__exception_handle+0xa4>
80002b94:	24060020 	li	a2,32
/scratch/mpf/jobs/54395/48094/240198/shared/gcc/libgloss/mips/hal/mips_excpt_handler.c:216
80002b98:	3c058000 	lui	a1,0x8000
80002b9c:	24040001 	li	a0,1
80002ba0:	24a5389c 	addiu	a1,a1,14492
80002ba4:	1000ff6e 	b	80002960 <__exception_handle+0xa4>
80002ba8:	2406001b 	li	a2,27
/scratch/mpf/jobs/54395/48094/240198/shared/gcc/libgloss/mips/hal/mips_excpt_handler.c:219
80002bac:	3c058000 	lui	a1,0x8000
80002bb0:	24040001 	li	a0,1
80002bb4:	24a538b8 	addiu	a1,a1,14520
80002bb8:	1000ff69 	b	80002960 <__exception_handle+0xa4>
80002bbc:	2406001e 	li	a2,30
/scratch/mpf/jobs/54395/48094/240198/shared/gcc/libgloss/mips/hal/mips_excpt_handler.c:222
80002bc0:	3c048000 	lui	a0,0x8000
80002bc4:	10000006 	b	80002be0 <__exception_handle+0x324>
80002bc8:	248438d8 	addiu	a0,a0,14552
/scratch/mpf/jobs/54395/48094/240198/shared/gcc/libgloss/mips/hal/mips_excpt_handler.c:225
80002bcc:	3c048000 	lui	a0,0x8000
80002bd0:	10000003 	b	80002be0 <__exception_handle+0x324>
80002bd4:	248438ec 	addiu	a0,a0,14572
/scratch/mpf/jobs/54395/48094/240198/shared/gcc/libgloss/mips/hal/mips_excpt_handler.c:228
80002bd8:	3c048000 	lui	a0,0x8000
80002bdc:	24843900 	addiu	a0,a0,14592
80002be0:	10000017 	b	80002c40 <__exception_handle+0x384>
80002be4:	8e05007c 	lw	a1,124(s0)
/scratch/mpf/jobs/54395/48094/240198/shared/gcc/libgloss/mips/hal/mips_excpt_handler.c:231
80002be8:	3c058000 	lui	a1,0x8000
80002bec:	24040001 	li	a0,1
80002bf0:	24a53910 	addiu	a1,a1,14608
80002bf4:	1000ff5a 	b	80002960 <__exception_handle+0xa4>
80002bf8:	24060014 	li	a2,20
/scratch/mpf/jobs/54395/48094/240198/shared/gcc/libgloss/mips/hal/mips_excpt_handler.c:234
80002bfc:	3c058000 	lui	a1,0x8000
80002c00:	24040001 	li	a0,1
80002c04:	24a53928 	addiu	a1,a1,14632
80002c08:	1000ff55 	b	80002960 <__exception_handle+0xa4>
80002c0c:	24060011 	li	a2,17
/scratch/mpf/jobs/54395/48094/240198/shared/gcc/libgloss/mips/hal/mips_excpt_handler.c:237
80002c10:	3c058000 	lui	a1,0x8000
80002c14:	24040001 	li	a0,1
80002c18:	24a5393c 	addiu	a1,a1,14652
80002c1c:	1000ff50 	b	80002960 <__exception_handle+0xa4>
80002c20:	2406000d 	li	a2,13
/scratch/mpf/jobs/54395/48094/240198/shared/gcc/libgloss/mips/hal/mips_excpt_handler.c:240
80002c24:	3c058000 	lui	a1,0x8000
80002c28:	24040001 	li	a0,1
80002c2c:	24a5394c 	addiu	a1,a1,14668
80002c30:	1000ff4b 	b	80002960 <__exception_handle+0xa4>
80002c34:	2406000c 	li	a2,12
/scratch/mpf/jobs/54395/48094/240198/shared/gcc/libgloss/mips/hal/mips_excpt_handler.c:243
80002c38:	3c048000 	lui	a0,0x8000
80002c3c:	2484395c 	addiu	a0,a0,14684
80002c40:	3c068000 	lui	a2,0x8000
80002c44:	0c000a2d 	jal	800028b4 <putsns>
80002c48:	24c63948 	addiu	a2,a2,14664
/scratch/mpf/jobs/54395/48094/240198/shared/gcc/libgloss/mips/hal/mips_excpt_handler.c:247
80002c4c:	3c118000 	lui	s1,0x8000
80002c50:	3c048000 	lui	a0,0x8000
80002c54:	00002825 	move	a1,zero
80002c58:	24843974 	addiu	a0,a0,14708
80002c5c:	2626397c 	addiu	a2,s1,14716
80002c60:	0c000a2d 	jal	800028b4 <putsns>
80002c64:	3c128000 	lui	s2,0x8000
/scratch/mpf/jobs/54395/48094/240198/shared/gcc/libgloss/mips/hal/mips_excpt_handler.c:248
80002c68:	3c048000 	lui	a0,0x8000
80002c6c:	8e050000 	lw	a1,0(s0)
80002c70:	2626397c 	addiu	a2,s1,14716
80002c74:	0c000a2d 	jal	800028b4 <putsns>
80002c78:	24843980 	addiu	a0,a0,14720
/scratch/mpf/jobs/54395/48094/240198/shared/gcc/libgloss/mips/hal/mips_excpt_handler.c:249
80002c7c:	3c048000 	lui	a0,0x8000
80002c80:	8e050004 	lw	a1,4(s0)
80002c84:	2626397c 	addiu	a2,s1,14716
80002c88:	0c000a2d 	jal	800028b4 <putsns>
80002c8c:	24843988 	addiu	a0,a0,14728
/scratch/mpf/jobs/54395/48094/240198/shared/gcc/libgloss/mips/hal/mips_excpt_handler.c:250
80002c90:	3c048000 	lui	a0,0x8000
80002c94:	8e050008 	lw	a1,8(s0)
80002c98:	26463948 	addiu	a2,s2,14664
80002c9c:	0c000a2d 	jal	800028b4 <putsns>
80002ca0:	24843990 	addiu	a0,a0,14736
/scratch/mpf/jobs/54395/48094/240198/shared/gcc/libgloss/mips/hal/mips_excpt_handler.c:252
80002ca4:	3c048000 	lui	a0,0x8000
80002ca8:	8e05000c 	lw	a1,12(s0)
80002cac:	2626397c 	addiu	a2,s1,14716
80002cb0:	0c000a2d 	jal	800028b4 <putsns>
80002cb4:	24843998 	addiu	a0,a0,14744
/scratch/mpf/jobs/54395/48094/240198/shared/gcc/libgloss/mips/hal/mips_excpt_handler.c:253
80002cb8:	3c048000 	lui	a0,0x8000
80002cbc:	8e050010 	lw	a1,16(s0)
80002cc0:	2626397c 	addiu	a2,s1,14716
80002cc4:	0c000a2d 	jal	800028b4 <putsns>
80002cc8:	248439a0 	addiu	a0,a0,14752
/scratch/mpf/jobs/54395/48094/240198/shared/gcc/libgloss/mips/hal/mips_excpt_handler.c:254
80002ccc:	3c048000 	lui	a0,0x8000
80002cd0:	8e050014 	lw	a1,20(s0)
80002cd4:	2626397c 	addiu	a2,s1,14716
80002cd8:	0c000a2d 	jal	800028b4 <putsns>
80002cdc:	248439a8 	addiu	a0,a0,14760
/scratch/mpf/jobs/54395/48094/240198/shared/gcc/libgloss/mips/hal/mips_excpt_handler.c:255
80002ce0:	3c048000 	lui	a0,0x8000
80002ce4:	8e050018 	lw	a1,24(s0)
80002ce8:	26463948 	addiu	a2,s2,14664
80002cec:	0c000a2d 	jal	800028b4 <putsns>
80002cf0:	248439b0 	addiu	a0,a0,14768
/scratch/mpf/jobs/54395/48094/240198/shared/gcc/libgloss/mips/hal/mips_excpt_handler.c:257
80002cf4:	3c048000 	lui	a0,0x8000
80002cf8:	8e05001c 	lw	a1,28(s0)
80002cfc:	2626397c 	addiu	a2,s1,14716
80002d00:	0c000a2d 	jal	800028b4 <putsns>
80002d04:	248439b8 	addiu	a0,a0,14776
/scratch/mpf/jobs/54395/48094/240198/shared/gcc/libgloss/mips/hal/mips_excpt_handler.c:258
80002d08:	3c048000 	lui	a0,0x8000
80002d0c:	8e050020 	lw	a1,32(s0)
80002d10:	2626397c 	addiu	a2,s1,14716
80002d14:	0c000a2d 	jal	800028b4 <putsns>
80002d18:	248439c0 	addiu	a0,a0,14784
/scratch/mpf/jobs/54395/48094/240198/shared/gcc/libgloss/mips/hal/mips_excpt_handler.c:259
80002d1c:	3c048000 	lui	a0,0x8000
80002d20:	8e050024 	lw	a1,36(s0)
80002d24:	2626397c 	addiu	a2,s1,14716
80002d28:	0c000a2d 	jal	800028b4 <putsns>
80002d2c:	248439c8 	addiu	a0,a0,14792
/scratch/mpf/jobs/54395/48094/240198/shared/gcc/libgloss/mips/hal/mips_excpt_handler.c:260
80002d30:	3c048000 	lui	a0,0x8000
80002d34:	8e050028 	lw	a1,40(s0)
80002d38:	26463948 	addiu	a2,s2,14664
80002d3c:	0c000a2d 	jal	800028b4 <putsns>
80002d40:	248439d0 	addiu	a0,a0,14800
/scratch/mpf/jobs/54395/48094/240198/shared/gcc/libgloss/mips/hal/mips_excpt_handler.c:262
80002d44:	3c048000 	lui	a0,0x8000
80002d48:	8e05002c 	lw	a1,44(s0)
80002d4c:	2626397c 	addiu	a2,s1,14716
80002d50:	0c000a2d 	jal	800028b4 <putsns>
80002d54:	248439d8 	addiu	a0,a0,14808
/scratch/mpf/jobs/54395/48094/240198/shared/gcc/libgloss/mips/hal/mips_excpt_handler.c:263
80002d58:	3c048000 	lui	a0,0x8000
80002d5c:	8e050030 	lw	a1,48(s0)
80002d60:	2626397c 	addiu	a2,s1,14716
80002d64:	0c000a2d 	jal	800028b4 <putsns>
80002d68:	248439e0 	addiu	a0,a0,14816
/scratch/mpf/jobs/54395/48094/240198/shared/gcc/libgloss/mips/hal/mips_excpt_handler.c:264
80002d6c:	3c048000 	lui	a0,0x8000
80002d70:	8e050034 	lw	a1,52(s0)
80002d74:	2626397c 	addiu	a2,s1,14716
80002d78:	0c000a2d 	jal	800028b4 <putsns>
80002d7c:	248439e8 	addiu	a0,a0,14824
/scratch/mpf/jobs/54395/48094/240198/shared/gcc/libgloss/mips/hal/mips_excpt_handler.c:265
80002d80:	3c048000 	lui	a0,0x8000
80002d84:	8e050038 	lw	a1,56(s0)
80002d88:	26463948 	addiu	a2,s2,14664
80002d8c:	0c000a2d 	jal	800028b4 <putsns>
80002d90:	248439f0 	addiu	a0,a0,14832
/scratch/mpf/jobs/54395/48094/240198/shared/gcc/libgloss/mips/hal/mips_excpt_handler.c:267
80002d94:	3c048000 	lui	a0,0x8000
80002d98:	8e05003c 	lw	a1,60(s0)
80002d9c:	2626397c 	addiu	a2,s1,14716
80002da0:	0c000a2d 	jal	800028b4 <putsns>
80002da4:	248439f8 	addiu	a0,a0,14840
/scratch/mpf/jobs/54395/48094/240198/shared/gcc/libgloss/mips/hal/mips_excpt_handler.c:268
80002da8:	3c048000 	lui	a0,0x8000
80002dac:	8e050040 	lw	a1,64(s0)
80002db0:	2626397c 	addiu	a2,s1,14716
80002db4:	0c000a2d 	jal	800028b4 <putsns>
80002db8:	24843a00 	addiu	a0,a0,14848
/scratch/mpf/jobs/54395/48094/240198/shared/gcc/libgloss/mips/hal/mips_excpt_handler.c:269
80002dbc:	3c048000 	lui	a0,0x8000
80002dc0:	8e050044 	lw	a1,68(s0)
80002dc4:	2626397c 	addiu	a2,s1,14716
80002dc8:	0c000a2d 	jal	800028b4 <putsns>
80002dcc:	24843a08 	addiu	a0,a0,14856
/scratch/mpf/jobs/54395/48094/240198/shared/gcc/libgloss/mips/hal/mips_excpt_handler.c:270
80002dd0:	3c048000 	lui	a0,0x8000
80002dd4:	8e050048 	lw	a1,72(s0)
80002dd8:	26463948 	addiu	a2,s2,14664
80002ddc:	0c000a2d 	jal	800028b4 <putsns>
80002de0:	24843a10 	addiu	a0,a0,14864
/scratch/mpf/jobs/54395/48094/240198/shared/gcc/libgloss/mips/hal/mips_excpt_handler.c:272
80002de4:	3c048000 	lui	a0,0x8000
80002de8:	8e05004c 	lw	a1,76(s0)
80002dec:	2626397c 	addiu	a2,s1,14716
80002df0:	0c000a2d 	jal	800028b4 <putsns>
80002df4:	24843a18 	addiu	a0,a0,14872
/scratch/mpf/jobs/54395/48094/240198/shared/gcc/libgloss/mips/hal/mips_excpt_handler.c:273
80002df8:	3c048000 	lui	a0,0x8000
80002dfc:	8e050050 	lw	a1,80(s0)
80002e00:	2626397c 	addiu	a2,s1,14716
80002e04:	0c000a2d 	jal	800028b4 <putsns>
80002e08:	24843a20 	addiu	a0,a0,14880
/scratch/mpf/jobs/54395/48094/240198/shared/gcc/libgloss/mips/hal/mips_excpt_handler.c:274
80002e0c:	3c048000 	lui	a0,0x8000
80002e10:	8e050054 	lw	a1,84(s0)
80002e14:	2626397c 	addiu	a2,s1,14716
80002e18:	0c000a2d 	jal	800028b4 <putsns>
80002e1c:	24843a28 	addiu	a0,a0,14888
/scratch/mpf/jobs/54395/48094/240198/shared/gcc/libgloss/mips/hal/mips_excpt_handler.c:275
80002e20:	3c048000 	lui	a0,0x8000
80002e24:	8e050058 	lw	a1,88(s0)
80002e28:	26463948 	addiu	a2,s2,14664
80002e2c:	0c000a2d 	jal	800028b4 <putsns>
80002e30:	24843a30 	addiu	a0,a0,14896
/scratch/mpf/jobs/54395/48094/240198/shared/gcc/libgloss/mips/hal/mips_excpt_handler.c:277
80002e34:	3c048000 	lui	a0,0x8000
80002e38:	8e05005c 	lw	a1,92(s0)
80002e3c:	2626397c 	addiu	a2,s1,14716
80002e40:	0c000a2d 	jal	800028b4 <putsns>
80002e44:	24843a38 	addiu	a0,a0,14904
/scratch/mpf/jobs/54395/48094/240198/shared/gcc/libgloss/mips/hal/mips_excpt_handler.c:278
80002e48:	3c048000 	lui	a0,0x8000
80002e4c:	8e050060 	lw	a1,96(s0)
80002e50:	2626397c 	addiu	a2,s1,14716
80002e54:	0c000a2d 	jal	800028b4 <putsns>
80002e58:	24843a40 	addiu	a0,a0,14912
/scratch/mpf/jobs/54395/48094/240198/shared/gcc/libgloss/mips/hal/mips_excpt_handler.c:279
80002e5c:	3c048000 	lui	a0,0x8000
80002e60:	8e050064 	lw	a1,100(s0)
80002e64:	2626397c 	addiu	a2,s1,14716
80002e68:	0c000a2d 	jal	800028b4 <putsns>
80002e6c:	24843a48 	addiu	a0,a0,14920
/scratch/mpf/jobs/54395/48094/240198/shared/gcc/libgloss/mips/hal/mips_excpt_handler.c:280
80002e70:	3c048000 	lui	a0,0x8000
80002e74:	8e050068 	lw	a1,104(s0)
80002e78:	26463948 	addiu	a2,s2,14664
80002e7c:	0c000a2d 	jal	800028b4 <putsns>
80002e80:	24843a50 	addiu	a0,a0,14928
/scratch/mpf/jobs/54395/48094/240198/shared/gcc/libgloss/mips/hal/mips_excpt_handler.c:282
80002e84:	3c048000 	lui	a0,0x8000
80002e88:	8e05006c 	lw	a1,108(s0)
80002e8c:	2626397c 	addiu	a2,s1,14716
80002e90:	0c000a2d 	jal	800028b4 <putsns>
80002e94:	24843a58 	addiu	a0,a0,14936
/scratch/mpf/jobs/54395/48094/240198/shared/gcc/libgloss/mips/hal/mips_excpt_handler.c:283
80002e98:	3c048000 	lui	a0,0x8000
80002e9c:	8e050070 	lw	a1,112(s0)
80002ea0:	2626397c 	addiu	a2,s1,14716
80002ea4:	0c000a2d 	jal	800028b4 <putsns>
80002ea8:	24843a60 	addiu	a0,a0,14944
/scratch/mpf/jobs/54395/48094/240198/shared/gcc/libgloss/mips/hal/mips_excpt_handler.c:284
80002eac:	3c048000 	lui	a0,0x8000
80002eb0:	8e050074 	lw	a1,116(s0)
80002eb4:	2626397c 	addiu	a2,s1,14716
80002eb8:	0c000a2d 	jal	800028b4 <putsns>
80002ebc:	24843a68 	addiu	a0,a0,14952
/scratch/mpf/jobs/54395/48094/240198/shared/gcc/libgloss/mips/hal/mips_excpt_handler.c:285
80002ec0:	3c048000 	lui	a0,0x8000
80002ec4:	8e050078 	lw	a1,120(s0)
80002ec8:	26463948 	addiu	a2,s2,14664
80002ecc:	0c000a2d 	jal	800028b4 <putsns>
80002ed0:	24843a70 	addiu	a0,a0,14960
/scratch/mpf/jobs/54395/48094/240198/shared/gcc/libgloss/mips/hal/mips_excpt_handler.c:288
80002ed4:	3c048000 	lui	a0,0x8000
80002ed8:	8e050084 	lw	a1,132(s0)
80002edc:	2626397c 	addiu	a2,s1,14716
80002ee0:	0c000a2d 	jal	800028b4 <putsns>
80002ee4:	24843a78 	addiu	a0,a0,14968
/scratch/mpf/jobs/54395/48094/240198/shared/gcc/libgloss/mips/hal/mips_excpt_handler.c:289
80002ee8:	3c048000 	lui	a0,0x8000
80002eec:	8e050088 	lw	a1,136(s0)
80002ef0:	26463948 	addiu	a2,s2,14664
80002ef4:	0c000a2d 	jal	800028b4 <putsns>
80002ef8:	24843a80 	addiu	a0,a0,14976
/scratch/mpf/jobs/54395/48094/240198/shared/gcc/libgloss/mips/hal/mips_excpt_handler.c:292
80002efc:	3c048000 	lui	a0,0x8000
80002f00:	8e05007c 	lw	a1,124(s0)
80002f04:	26463948 	addiu	a2,s2,14664
80002f08:	0c000a2d 	jal	800028b4 <putsns>
80002f0c:	24843a88 	addiu	a0,a0,14984
/scratch/mpf/jobs/54395/48094/240198/shared/gcc/libgloss/mips/hal/mips_excpt_handler.c:293
80002f10:	3c048000 	lui	a0,0x8000
80002f14:	8e050080 	lw	a1,128(s0)
80002f18:	26463948 	addiu	a2,s2,14664
80002f1c:	0c000a2d 	jal	800028b4 <putsns>
80002f20:	24843a94 	addiu	a0,a0,14996
/scratch/mpf/jobs/54395/48094/240198/shared/gcc/libgloss/mips/hal/mips_excpt_handler.c:295
80002f24:	3c048000 	lui	a0,0x8000
80002f28:	8e050090 	lw	a1,144(s0)
80002f2c:	26463948 	addiu	a2,s2,14664
80002f30:	0c0009fd 	jal	800027f4 <putsnds.constprop.0>
80002f34:	24843aa0 	addiu	a0,a0,15008
/scratch/mpf/jobs/54395/48094/240198/shared/gcc/libgloss/mips/hal/mips_excpt_handler.c:296
80002f38:	3c048000 	lui	a0,0x8000
80002f3c:	8e050094 	lw	a1,148(s0)
80002f40:	26463948 	addiu	a2,s2,14664
80002f44:	0c0009fd 	jal	800027f4 <putsnds.constprop.0>
80002f48:	24843aac 	addiu	a0,a0,15020
/scratch/mpf/jobs/54395/48094/240198/shared/gcc/libgloss/mips/hal/mips_excpt_handler.c:297
80002f4c:	3c048000 	lui	a0,0x8000
80002f50:	8e050098 	lw	a1,152(s0)
80002f54:	26463948 	addiu	a2,s2,14664
80002f58:	0c0009fd 	jal	800027f4 <putsnds.constprop.0>
80002f5c:	24843ab8 	addiu	a0,a0,15032
/scratch/mpf/jobs/54395/48094/240198/shared/gcc/libgloss/mips/hal/mips_excpt_handler.c:298
80002f60:	3c048000 	lui	a0,0x8000
80002f64:	8e05009c 	lw	a1,156(s0)
80002f68:	26463948 	addiu	a2,s2,14664
80002f6c:	0c0009fd 	jal	800027f4 <putsnds.constprop.0>
80002f70:	24843ac4 	addiu	a0,a0,15044
/scratch/mpf/jobs/54395/48094/240198/shared/gcc/libgloss/mips/hal/mips_excpt_handler.c:301
80002f74:	00002825 	move	a1,zero
80002f78:	0c000cce 	jal	80003338 <__uhi_exception>
80002f7c:	02002025 	move	a0,s0
80002f80:	1440fe92 	bnez	v0,800029cc <__exception_handle+0x110>
80002f84:	3c028000 	lui	v0,0x8000
/scratch/mpf/jobs/54395/48094/240198/shared/gcc/libgloss/mips/hal/mips_excpt_handler.c:308
80002f88:	8fbf001c 	lw	ra,28(sp)
80002f8c:	8fb20018 	lw	s2,24(sp)
80002f90:	8fb10014 	lw	s1,20(sp)
80002f94:	8fb00010 	lw	s0,16(sp)
80002f98:	03e00008 	jr	ra
80002f9c:	27bd0020 	addiu	sp,sp,32

80002fa0 <__register_excpt_handler>:
/scratch/mpf/jobs/54395/48094/240198/shared/gcc/libgloss/mips/hal/mips_excpt_register.S:57
80002fa0:	40056000 	mfc0	a1,c0_status
/scratch/mpf/jobs/54395/48094/240198/shared/gcc/libgloss/mips/hal/mips_excpt_register.S:62
80002fa4:	3c0a0040 	lui	t2,0x40
/scratch/mpf/jobs/54395/48094/240198/shared/gcc/libgloss/mips/hal/mips_excpt_register.S:63
80002fa8:	408a6000 	mtc0	t2,c0_status
/scratch/mpf/jobs/54395/48094/240198/shared/gcc/libgloss/mips/hal/mips_excpt_register.S:64
80002fac:	000000c0 	ehb
/scratch/mpf/jobs/54395/48094/240198/shared/gcc/libgloss/mips/hal/mips_excpt_register.S:72
80002fb0:	3c098000 	lui	t1,0x8000
80002fb4:	25293050 	addiu	t1,t1,12368
/scratch/mpf/jobs/54395/48094/240198/shared/gcc/libgloss/mips/hal/mips_excpt_register.S:73
80002fb8:	11200005 	beqz	t1,80002fd0 <__register_excpt_handler+0x30>
80002fbc:	00000000 	nop
/scratch/mpf/jobs/54395/48094/240198/shared/gcc/libgloss/mips/hal/mips_excpt_register.S:74
80002fc0:	03e03025 	move	a2,ra
/scratch/mpf/jobs/54395/48094/240198/shared/gcc/libgloss/mips/hal/mips_excpt_register.S:75
80002fc4:	0120f809 	jalr	t1
80002fc8:	00000000 	nop
/scratch/mpf/jobs/54395/48094/240198/shared/gcc/libgloss/mips/hal/mips_excpt_register.S:76
80002fcc:	0040f825 	move	ra,v0
/scratch/mpf/jobs/54395/48094/240198/shared/gcc/libgloss/mips/hal/mips_excpt_register.S:79
80002fd0:	3c098000 	lui	t1,0x8000
/scratch/mpf/jobs/54395/48094/240198/shared/gcc/libgloss/mips/hal/mips_excpt_register.S:80
80002fd4:	25293f30 	addiu	t1,t1,16176
80002fd8:	ad200000 	sw	zero,0(t1)
/scratch/mpf/jobs/54395/48094/240198/shared/gcc/libgloss/mips/hal/mips_excpt_register.S:82
80002fdc:	400c8003 	mfc0	t4,c0_config3
/scratch/mpf/jobs/54395/48094/240198/shared/gcc/libgloss/mips/hal/mips_excpt_register.S:91
80002fe0:	3c0a8000 	lui	t2,0x8000
80002fe4:	254a0000 	addiu	t2,t2,0
/scratch/mpf/jobs/54395/48094/240198/shared/gcc/libgloss/mips/hal/mips_excpt_register.S:95
80002fe8:	354a0800 	ori	t2,t2,0x800
/scratch/mpf/jobs/54395/48094/240198/shared/gcc/libgloss/mips/hal/mips_excpt_register.S:96
80002fec:	408a7801 	mtc0	t2,c0_ebase
/scratch/mpf/jobs/54395/48094/240198/shared/gcc/libgloss/mips/hal/mips_excpt_register.S:97
80002ff0:	000000c0 	ehb
/scratch/mpf/jobs/54395/48094/240198/shared/gcc/libgloss/mips/hal/mips_excpt_register.S:100
80002ff4:	00001025 	move	v0,zero
/scratch/mpf/jobs/54395/48094/240198/shared/gcc/libgloss/mips/hal/mips_excpt_register.S:103
80002ff8:	3c090000 	lui	t1,0x0
80002ffc:	25290020 	addiu	t1,t1,32
/scratch/mpf/jobs/54395/48094/240198/shared/gcc/libgloss/mips/hal/mips_excpt_register.S:106
80003000:	7d8a0140 	ext	t2,t4,0x5,0x1
/scratch/mpf/jobs/54395/48094/240198/shared/gcc/libgloss/mips/hal/mips_excpt_register.S:107
80003004:	7d8b0180 	ext	t3,t4,0x6,0x1
/scratch/mpf/jobs/54395/48094/240198/shared/gcc/libgloss/mips/hal/mips_excpt_register.S:108
80003008:	014b5025 	or	t2,t2,t3
/scratch/mpf/jobs/54395/48094/240198/shared/gcc/libgloss/mips/hal/mips_excpt_register.S:110
8000300c:	11400005 	beqz	t2,80003024 <__register_excpt_handler+0x84>
80003010:	00000000 	nop
/scratch/mpf/jobs/54395/48094/240198/shared/gcc/libgloss/mips/hal/mips_excpt_register.S:113
80003014:	400a6001 	mfc0	t2,c0_intctl
/scratch/mpf/jobs/54395/48094/240198/shared/gcc/libgloss/mips/hal/mips_excpt_register.S:114
80003018:	7d2a4804 	ins	t2,t1,0x0,0xa
/scratch/mpf/jobs/54395/48094/240198/shared/gcc/libgloss/mips/hal/mips_excpt_register.S:116
8000301c:	10000003 	b	8000302c <__register_excpt_handler+0x8c>
80003020:	408a6001 	mtc0	t2,c0_intctl
/scratch/mpf/jobs/54395/48094/240198/shared/gcc/libgloss/mips/hal/mips_excpt_register.S:120
80003024:	15200008 	bnez	t1,80003048 <__register_excpt_handler+0xa8>
80003028:	00000000 	nop
/scratch/mpf/jobs/54395/48094/240198/shared/gcc/libgloss/mips/hal/mips_excpt_register.S:123
8000302c:	3c090080 	lui	t1,0x80
/scratch/mpf/jobs/54395/48094/240198/shared/gcc/libgloss/mips/hal/mips_excpt_register.S:124
80003030:	40896800 	mtc0	t1,c0_cause
/scratch/mpf/jobs/54395/48094/240198/shared/gcc/libgloss/mips/hal/mips_excpt_register.S:125
80003034:	000000c0 	ehb
/scratch/mpf/jobs/54395/48094/240198/shared/gcc/libgloss/mips/hal/mips_excpt_register.S:128
80003038:	7d8a0180 	ext	t2,t4,0x6,0x1
/scratch/mpf/jobs/54395/48094/240198/shared/gcc/libgloss/mips/hal/mips_excpt_register.S:129
8000303c:	15400002 	bnez	t2,80003048 <__register_excpt_handler+0xa8>
80003040:	00000000 	nop
/scratch/mpf/jobs/54395/48094/240198/shared/gcc/libgloss/mips/hal/mips_excpt_register.S:132
80003044:	34420001 	ori	v0,v0,0x1
/scratch/mpf/jobs/54395/48094/240198/shared/gcc/libgloss/mips/hal/mips_excpt_register.S:134
80003048:	03e00008 	jr	ra
8000304c:	00000000 	nop

80003050 <__register_excpt_boot>:
/scratch/mpf/jobs/54395/48094/240198/shared/gcc/libgloss/mips/hal/mips_excpt_boot.S:81
80003050:	3c098000 	lui	t1,0x8000
80003054:	25293f34 	addiu	t1,t1,16180
/scratch/mpf/jobs/54395/48094/240198/shared/gcc/libgloss/mips/hal/mips_excpt_boot.S:82
80003058:	ad240038 	sw	a0,56(t1)
/scratch/mpf/jobs/54395/48094/240198/shared/gcc/libgloss/mips/hal/mips_excpt_boot.S:83
8000305c:	ad250000 	sw	a1,0(t1)
/scratch/mpf/jobs/54395/48094/240198/shared/gcc/libgloss/mips/hal/mips_excpt_boot.S:85
80003060:	ad300004 	sw	s0,4(t1)
/scratch/mpf/jobs/54395/48094/240198/shared/gcc/libgloss/mips/hal/mips_excpt_boot.S:86
80003064:	ad310008 	sw	s1,8(t1)
/scratch/mpf/jobs/54395/48094/240198/shared/gcc/libgloss/mips/hal/mips_excpt_boot.S:87
80003068:	ad32000c 	sw	s2,12(t1)
/scratch/mpf/jobs/54395/48094/240198/shared/gcc/libgloss/mips/hal/mips_excpt_boot.S:88
8000306c:	ad330010 	sw	s3,16(t1)
/scratch/mpf/jobs/54395/48094/240198/shared/gcc/libgloss/mips/hal/mips_excpt_boot.S:89
80003070:	ad340014 	sw	s4,20(t1)
/scratch/mpf/jobs/54395/48094/240198/shared/gcc/libgloss/mips/hal/mips_excpt_boot.S:90
80003074:	ad350018 	sw	s5,24(t1)
/scratch/mpf/jobs/54395/48094/240198/shared/gcc/libgloss/mips/hal/mips_excpt_boot.S:91
80003078:	ad36001c 	sw	s6,28(t1)
/scratch/mpf/jobs/54395/48094/240198/shared/gcc/libgloss/mips/hal/mips_excpt_boot.S:92
8000307c:	ad370020 	sw	s7,32(t1)
/scratch/mpf/jobs/54395/48094/240198/shared/gcc/libgloss/mips/hal/mips_excpt_boot.S:93
80003080:	ad3a0024 	sw	k0,36(t1)
/scratch/mpf/jobs/54395/48094/240198/shared/gcc/libgloss/mips/hal/mips_excpt_boot.S:94
80003084:	ad3b0028 	sw	k1,40(t1)
/scratch/mpf/jobs/54395/48094/240198/shared/gcc/libgloss/mips/hal/mips_excpt_boot.S:95
80003088:	ad3c002c 	sw	gp,44(t1)
/scratch/mpf/jobs/54395/48094/240198/shared/gcc/libgloss/mips/hal/mips_excpt_boot.S:96
8000308c:	ad3d0030 	sw	sp,48(t1)
/scratch/mpf/jobs/54395/48094/240198/shared/gcc/libgloss/mips/hal/mips_excpt_boot.S:97
80003090:	ad3e0034 	sw	s8,52(t1)
/scratch/mpf/jobs/54395/48094/240198/shared/gcc/libgloss/mips/hal/mips_excpt_boot.S:99
80003094:	400c8003 	mfc0	t4,c0_config3
/scratch/mpf/jobs/54395/48094/240198/shared/gcc/libgloss/mips/hal/mips_excpt_boot.S:104
80003098:	400c6001 	mfc0	t4,c0_intctl
/scratch/mpf/jobs/54395/48094/240198/shared/gcc/libgloss/mips/hal/mips_excpt_boot.S:105
8000309c:	ad2c003c 	sw	t4,60(t1)
/scratch/mpf/jobs/54395/48094/240198/shared/gcc/libgloss/mips/hal/mips_excpt_boot.S:108
800030a0:	400a7801 	mfc0	t2,c0_ebase
/scratch/mpf/jobs/54395/48094/240198/shared/gcc/libgloss/mips/hal/mips_excpt_boot.S:109
800030a4:	ad2a0040 	sw	t2,64(t1)
/scratch/mpf/jobs/54395/48094/240198/shared/gcc/libgloss/mips/hal/mips_excpt_boot.S:112
800030a8:	3c0b0040 	lui	t3,0x40
/scratch/mpf/jobs/54395/48094/240198/shared/gcc/libgloss/mips/hal/mips_excpt_boot.S:113
800030ac:	010b5824 	and	t3,t0,t3
/scratch/mpf/jobs/54395/48094/240198/shared/gcc/libgloss/mips/hal/mips_excpt_boot.S:114
800030b0:	11600003 	beqz	t3,800030c0 <__register_excpt_boot+0x70>
800030b4:	00000000 	nop
/scratch/mpf/jobs/54395/48094/240198/shared/gcc/libgloss/mips/hal/mips_excpt_boot.S:119
800030b8:	3c0abfc0 	lui	t2,0xbfc0
/scratch/mpf/jobs/54395/48094/240198/shared/gcc/libgloss/mips/hal/mips_excpt_boot.S:120
800030bc:	354a0200 	ori	t2,t2,0x200
/scratch/mpf/jobs/54395/48094/240198/shared/gcc/libgloss/mips/hal/mips_excpt_boot.S:123
800030c0:	ad2a0044 	sw	t2,68(t1)
/scratch/mpf/jobs/54395/48094/240198/shared/gcc/libgloss/mips/hal/mips_excpt_boot.S:127
800030c4:	03e00008 	jr	ra
800030c8:	00c01025 	move	v0,a2

800030cc <__return_to_boot>:
/scratch/mpf/jobs/54395/48094/240198/shared/gcc/libgloss/mips/hal/mips_excpt_boot.S:141
800030cc:	41606000 	di
/scratch/mpf/jobs/54395/48094/240198/shared/gcc/libgloss/mips/hal/mips_excpt_boot.S:142
800030d0:	000000c0 	ehb
/scratch/mpf/jobs/54395/48094/240198/shared/gcc/libgloss/mips/hal/mips_excpt_boot.S:144
800030d4:	40096000 	mfc0	t1,c0_status
/scratch/mpf/jobs/54395/48094/240198/shared/gcc/libgloss/mips/hal/mips_excpt_boot.S:145
800030d8:	3c0a0040 	lui	t2,0x40
/scratch/mpf/jobs/54395/48094/240198/shared/gcc/libgloss/mips/hal/mips_excpt_boot.S:146
800030dc:	012a4825 	or	t1,t1,t2
/scratch/mpf/jobs/54395/48094/240198/shared/gcc/libgloss/mips/hal/mips_excpt_boot.S:147
800030e0:	40896000 	mtc0	t1,c0_status
/scratch/mpf/jobs/54395/48094/240198/shared/gcc/libgloss/mips/hal/mips_excpt_boot.S:148
800030e4:	000000c0 	ehb
/scratch/mpf/jobs/54395/48094/240198/shared/gcc/libgloss/mips/hal/mips_excpt_boot.S:151
800030e8:	3c098000 	lui	t1,0x8000
800030ec:	25293f34 	addiu	t1,t1,16180
/scratch/mpf/jobs/54395/48094/240198/shared/gcc/libgloss/mips/hal/mips_excpt_boot.S:152
800030f0:	8d290040 	lw	t1,64(t1)
/scratch/mpf/jobs/54395/48094/240198/shared/gcc/libgloss/mips/hal/mips_excpt_boot.S:154
800030f4:	352a0800 	ori	t2,t1,0x800
/scratch/mpf/jobs/54395/48094/240198/shared/gcc/libgloss/mips/hal/mips_excpt_boot.S:155
800030f8:	408a7801 	mtc0	t2,c0_ebase
/scratch/mpf/jobs/54395/48094/240198/shared/gcc/libgloss/mips/hal/mips_excpt_boot.S:157
800030fc:	312b0800 	andi	t3,t1,0x800
/scratch/mpf/jobs/54395/48094/240198/shared/gcc/libgloss/mips/hal/mips_excpt_boot.S:158
80003100:	15600002 	bnez	t3,8000310c <__return_to_boot+0x40>
80003104:	00000000 	nop
/scratch/mpf/jobs/54395/48094/240198/shared/gcc/libgloss/mips/hal/mips_excpt_boot.S:161
80003108:	40897801 	mtc0	t1,c0_ebase
/scratch/mpf/jobs/54395/48094/240198/shared/gcc/libgloss/mips/hal/mips_excpt_boot.S:162
8000310c:	000000c0 	ehb
/scratch/mpf/jobs/54395/48094/240198/shared/gcc/libgloss/mips/hal/mips_excpt_boot.S:165
80003110:	3c098000 	lui	t1,0x8000
80003114:	25293f34 	addiu	t1,t1,16180
/scratch/mpf/jobs/54395/48094/240198/shared/gcc/libgloss/mips/hal/mips_excpt_boot.S:166
80003118:	8d300004 	lw	s0,4(t1)
/scratch/mpf/jobs/54395/48094/240198/shared/gcc/libgloss/mips/hal/mips_excpt_boot.S:167
8000311c:	8d310008 	lw	s1,8(t1)
/scratch/mpf/jobs/54395/48094/240198/shared/gcc/libgloss/mips/hal/mips_excpt_boot.S:168
80003120:	8d32000c 	lw	s2,12(t1)
/scratch/mpf/jobs/54395/48094/240198/shared/gcc/libgloss/mips/hal/mips_excpt_boot.S:169
80003124:	8d330010 	lw	s3,16(t1)
/scratch/mpf/jobs/54395/48094/240198/shared/gcc/libgloss/mips/hal/mips_excpt_boot.S:170
80003128:	8d340014 	lw	s4,20(t1)
/scratch/mpf/jobs/54395/48094/240198/shared/gcc/libgloss/mips/hal/mips_excpt_boot.S:171
8000312c:	8d350018 	lw	s5,24(t1)
/scratch/mpf/jobs/54395/48094/240198/shared/gcc/libgloss/mips/hal/mips_excpt_boot.S:172
80003130:	8d36001c 	lw	s6,28(t1)
/scratch/mpf/jobs/54395/48094/240198/shared/gcc/libgloss/mips/hal/mips_excpt_boot.S:173
80003134:	8d370020 	lw	s7,32(t1)
/scratch/mpf/jobs/54395/48094/240198/shared/gcc/libgloss/mips/hal/mips_excpt_boot.S:174
80003138:	8d3a0024 	lw	k0,36(t1)
/scratch/mpf/jobs/54395/48094/240198/shared/gcc/libgloss/mips/hal/mips_excpt_boot.S:175
8000313c:	8d3b0028 	lw	k1,40(t1)
/scratch/mpf/jobs/54395/48094/240198/shared/gcc/libgloss/mips/hal/mips_excpt_boot.S:176
80003140:	8d3c002c 	lw	gp,44(t1)
/scratch/mpf/jobs/54395/48094/240198/shared/gcc/libgloss/mips/hal/mips_excpt_boot.S:177
80003144:	8d3d0030 	lw	sp,48(t1)
/scratch/mpf/jobs/54395/48094/240198/shared/gcc/libgloss/mips/hal/mips_excpt_boot.S:178
80003148:	8d3e0034 	lw	s8,52(t1)
/scratch/mpf/jobs/54395/48094/240198/shared/gcc/libgloss/mips/hal/mips_excpt_boot.S:179
8000314c:	8d3f0038 	lw	ra,56(t1)
/scratch/mpf/jobs/54395/48094/240198/shared/gcc/libgloss/mips/hal/mips_excpt_boot.S:187
80003150:	8d22003c 	lw	v0,60(t1)
/scratch/mpf/jobs/54395/48094/240198/shared/gcc/libgloss/mips/hal/mips_excpt_boot.S:188
80003154:	40826001 	mtc0	v0,c0_intctl
/scratch/mpf/jobs/54395/48094/240198/shared/gcc/libgloss/mips/hal/mips_excpt_boot.S:190
80003158:	8d290000 	lw	t1,0(t1)
/scratch/mpf/jobs/54395/48094/240198/shared/gcc/libgloss/mips/hal/mips_excpt_boot.S:193
8000315c:	40896000 	mtc0	t1,c0_status
/scratch/mpf/jobs/54395/48094/240198/shared/gcc/libgloss/mips/hal/mips_excpt_boot.S:194
80003160:	40806800 	mtc0	zero,c0_cause
/scratch/mpf/jobs/54395/48094/240198/shared/gcc/libgloss/mips/hal/mips_excpt_boot.S:198
80003164:	03e00408 	jr.hb	ra
80003168:	00801025 	move	v0,a0

8000316c <__chain_uhi_excpt>:
/scratch/mpf/jobs/54395/48094/240198/shared/gcc/libgloss/mips/hal/mips_excpt_boot.S:214
8000316c:	00801825 	move	v1,a0
/scratch/mpf/jobs/54395/48094/240198/shared/gcc/libgloss/mips/hal/mips_excpt_boot.S:217
80003170:	8c690084 	lw	t1,132(v1)
/scratch/mpf/jobs/54395/48094/240198/shared/gcc/libgloss/mips/hal/mips_excpt_boot.S:218
80003174:	8c6a0088 	lw	t2,136(v1)
/scratch/mpf/jobs/54395/48094/240198/shared/gcc/libgloss/mips/hal/mips_excpt_boot.S:219
80003178:	01200011 	mthi	t1
/scratch/mpf/jobs/54395/48094/240198/shared/gcc/libgloss/mips/hal/mips_excpt_boot.S:223
8000317c:	01400013 	mtlo	t2
80003180:	8c690090 	lw	t1,144(v1)
/scratch/mpf/jobs/54395/48094/240198/shared/gcc/libgloss/mips/hal/mips_excpt_boot.S:224
80003184:	40896000 	mtc0	t1,c0_status
/scratch/mpf/jobs/54395/48094/240198/shared/gcc/libgloss/mips/hal/mips_excpt_boot.S:225
80003188:	8c69007c 	lw	t1,124(v1)
/scratch/mpf/jobs/54395/48094/240198/shared/gcc/libgloss/mips/hal/mips_excpt_boot.S:226
8000318c:	40897000 	mtc0	t1,c0_epc
/scratch/mpf/jobs/54395/48094/240198/shared/gcc/libgloss/mips/hal/mips_excpt_boot.S:227
80003190:	000000c0 	ehb
/scratch/mpf/jobs/54395/48094/240198/shared/gcc/libgloss/mips/hal/mips_excpt_boot.S:230
80003194:	8c610000 	lw	at,0(v1)
/scratch/mpf/jobs/54395/48094/240198/shared/gcc/libgloss/mips/hal/mips_excpt_boot.S:231
80003198:	8c620004 	lw	v0,4(v1)
/scratch/mpf/jobs/54395/48094/240198/shared/gcc/libgloss/mips/hal/mips_excpt_boot.S:232
8000319c:	8c64000c 	lw	a0,12(v1)
/scratch/mpf/jobs/54395/48094/240198/shared/gcc/libgloss/mips/hal/mips_excpt_boot.S:233
800031a0:	8c650010 	lw	a1,16(v1)
/scratch/mpf/jobs/54395/48094/240198/shared/gcc/libgloss/mips/hal/mips_excpt_boot.S:234
800031a4:	8c660014 	lw	a2,20(v1)
/scratch/mpf/jobs/54395/48094/240198/shared/gcc/libgloss/mips/hal/mips_excpt_boot.S:235
800031a8:	8c670018 	lw	a3,24(v1)
/scratch/mpf/jobs/54395/48094/240198/shared/gcc/libgloss/mips/hal/mips_excpt_boot.S:236
800031ac:	8c68001c 	lw	t0,28(v1)
/scratch/mpf/jobs/54395/48094/240198/shared/gcc/libgloss/mips/hal/mips_excpt_boot.S:237
800031b0:	8c690020 	lw	t1,32(v1)
/scratch/mpf/jobs/54395/48094/240198/shared/gcc/libgloss/mips/hal/mips_excpt_boot.S:238
800031b4:	8c6a0024 	lw	t2,36(v1)
/scratch/mpf/jobs/54395/48094/240198/shared/gcc/libgloss/mips/hal/mips_excpt_boot.S:239
800031b8:	8c6b0028 	lw	t3,40(v1)
/scratch/mpf/jobs/54395/48094/240198/shared/gcc/libgloss/mips/hal/mips_excpt_boot.S:240
800031bc:	8c6c002c 	lw	t4,44(v1)
/scratch/mpf/jobs/54395/48094/240198/shared/gcc/libgloss/mips/hal/mips_excpt_boot.S:241
800031c0:	8c6d0030 	lw	t5,48(v1)
/scratch/mpf/jobs/54395/48094/240198/shared/gcc/libgloss/mips/hal/mips_excpt_boot.S:242
800031c4:	8c6e0034 	lw	t6,52(v1)
/scratch/mpf/jobs/54395/48094/240198/shared/gcc/libgloss/mips/hal/mips_excpt_boot.S:243
800031c8:	8c6f0038 	lw	t7,56(v1)
/scratch/mpf/jobs/54395/48094/240198/shared/gcc/libgloss/mips/hal/mips_excpt_boot.S:244
800031cc:	8c70003c 	lw	s0,60(v1)
/scratch/mpf/jobs/54395/48094/240198/shared/gcc/libgloss/mips/hal/mips_excpt_boot.S:245
800031d0:	8c710040 	lw	s1,64(v1)
/scratch/mpf/jobs/54395/48094/240198/shared/gcc/libgloss/mips/hal/mips_excpt_boot.S:246
800031d4:	8c720044 	lw	s2,68(v1)
/scratch/mpf/jobs/54395/48094/240198/shared/gcc/libgloss/mips/hal/mips_excpt_boot.S:247
800031d8:	8c730048 	lw	s3,72(v1)
/scratch/mpf/jobs/54395/48094/240198/shared/gcc/libgloss/mips/hal/mips_excpt_boot.S:248
800031dc:	8c74004c 	lw	s4,76(v1)
/scratch/mpf/jobs/54395/48094/240198/shared/gcc/libgloss/mips/hal/mips_excpt_boot.S:249
800031e0:	8c750050 	lw	s5,80(v1)
/scratch/mpf/jobs/54395/48094/240198/shared/gcc/libgloss/mips/hal/mips_excpt_boot.S:250
800031e4:	8c760054 	lw	s6,84(v1)
/scratch/mpf/jobs/54395/48094/240198/shared/gcc/libgloss/mips/hal/mips_excpt_boot.S:251
800031e8:	8c770058 	lw	s7,88(v1)
/scratch/mpf/jobs/54395/48094/240198/shared/gcc/libgloss/mips/hal/mips_excpt_boot.S:252
800031ec:	8c78005c 	lw	t8,92(v1)
/scratch/mpf/jobs/54395/48094/240198/shared/gcc/libgloss/mips/hal/mips_excpt_boot.S:253
800031f0:	8c790060 	lw	t9,96(v1)
/scratch/mpf/jobs/54395/48094/240198/shared/gcc/libgloss/mips/hal/mips_excpt_boot.S:254
800031f4:	8c7c006c 	lw	gp,108(v1)
/scratch/mpf/jobs/54395/48094/240198/shared/gcc/libgloss/mips/hal/mips_excpt_boot.S:255
800031f8:	8c7d0070 	lw	sp,112(v1)
/scratch/mpf/jobs/54395/48094/240198/shared/gcc/libgloss/mips/hal/mips_excpt_boot.S:256
800031fc:	8c7e0074 	lw	s8,116(v1)
/scratch/mpf/jobs/54395/48094/240198/shared/gcc/libgloss/mips/hal/mips_excpt_boot.S:257
80003200:	8c7f0078 	lw	ra,120(v1)
/scratch/mpf/jobs/54395/48094/240198/shared/gcc/libgloss/mips/hal/mips_excpt_boot.S:260
80003204:	3c038000 	lui	v1,0x8000
80003208:	24633f34 	addiu	v1,v1,16180
/scratch/mpf/jobs/54395/48094/240198/shared/gcc/libgloss/mips/hal/mips_excpt_boot.S:261
8000320c:	8c7a0024 	lw	k0,36(v1)
/scratch/mpf/jobs/54395/48094/240198/shared/gcc/libgloss/mips/hal/mips_excpt_boot.S:262
80003210:	8c7b0028 	lw	k1,40(v1)
/scratch/mpf/jobs/54395/48094/240198/shared/gcc/libgloss/mips/hal/mips_excpt_boot.S:283
80003214:	8c630044 	lw	v1,68(v1)
/scratch/mpf/jobs/54395/48094/240198/shared/gcc/libgloss/mips/hal/mips_excpt_boot.S:284
80003218:	24630180 	addiu	v1,v1,384
/scratch/mpf/jobs/54395/48094/240198/shared/gcc/libgloss/mips/hal/mips_excpt_boot.S:287
8000321c:	00600008 	jr	v1
80003220:	00000000 	nop

80003224 <__get_startup_BEV>:
/scratch/mpf/jobs/54395/48094/240198/shared/gcc/libgloss/mips/hal/mips_excpt_boot.S:302
80003224:	3c028000 	lui	v0,0x8000
80003228:	24423f34 	addiu	v0,v0,16180
/scratch/mpf/jobs/54395/48094/240198/shared/gcc/libgloss/mips/hal/mips_excpt_boot.S:303
8000322c:	8c420000 	lw	v0,0(v0)
/scratch/mpf/jobs/54395/48094/240198/shared/gcc/libgloss/mips/hal/mips_excpt_boot.S:304
80003230:	3c030040 	lui	v1,0x40
/scratch/mpf/jobs/54395/48094/240198/shared/gcc/libgloss/mips/hal/mips_excpt_boot.S:306
80003234:	03e00008 	jr	ra
80003238:	00431024 	and	v0,v0,v1

8000323c <__convert_argv_pointers>:
/scratch/mpf/jobs/54395/48094/240198/shared/gcc/libgloss/mips/hal/mips_excpt_boot.S:323
8000323c:	18800021 	blez	a0,800032c4 <__convert_argv_pointers+0x88>
80003240:	00000000 	nop
/scratch/mpf/jobs/54395/48094/240198/shared/gcc/libgloss/mips/hal/mips_excpt_boot.S:326
80003244:	3c088000 	lui	t0,0x8000
80003248:	25083f34 	addiu	t0,t0,16180
/scratch/mpf/jobs/54395/48094/240198/shared/gcc/libgloss/mips/hal/mips_excpt_boot.S:327
8000324c:	8d080000 	lw	t0,0(t0)
/scratch/mpf/jobs/54395/48094/240198/shared/gcc/libgloss/mips/hal/mips_excpt_boot.S:328
80003250:	7d0901c0 	ext	t1,t0,0x7,0x1
/scratch/mpf/jobs/54395/48094/240198/shared/gcc/libgloss/mips/hal/mips_excpt_boot.S:329
80003254:	1120001b 	beqz	t1,800032c4 <__convert_argv_pointers+0x88>
80003258:	00000000 	nop
/scratch/mpf/jobs/54395/48094/240198/shared/gcc/libgloss/mips/hal/mips_excpt_boot.S:332
8000325c:	00804025 	move	t0,a0
/scratch/mpf/jobs/54395/48094/240198/shared/gcc/libgloss/mips/hal/mips_excpt_boot.S:333
80003260:	00084880 	sll	t1,t0,0x2
/scratch/mpf/jobs/54395/48094/240198/shared/gcc/libgloss/mips/hal/mips_excpt_boot.S:334
80003264:	25290007 	addiu	t1,t1,7
/scratch/mpf/jobs/54395/48094/240198/shared/gcc/libgloss/mips/hal/mips_excpt_boot.S:335
80003268:	2401fff8 	li	at,-8
8000326c:	01214824 	and	t1,t1,at
/scratch/mpf/jobs/54395/48094/240198/shared/gcc/libgloss/mips/hal/mips_excpt_boot.S:337
80003270:	03a9e823 	subu	sp,sp,t1
/scratch/mpf/jobs/54395/48094/240198/shared/gcc/libgloss/mips/hal/mips_excpt_boot.S:338
80003274:	03a05025 	move	t2,sp
/scratch/mpf/jobs/54395/48094/240198/shared/gcc/libgloss/mips/hal/mips_excpt_boot.S:339
80003278:	00a05825 	move	t3,a1
/scratch/mpf/jobs/54395/48094/240198/shared/gcc/libgloss/mips/hal/mips_excpt_boot.S:340
8000327c:	2409ffff 	li	t1,-1
/scratch/mpf/jobs/54395/48094/240198/shared/gcc/libgloss/mips/hal/mips_excpt_boot.S:344
80003280:	8d780000 	lw	t8,0(t3)
/scratch/mpf/jobs/54395/48094/240198/shared/gcc/libgloss/mips/hal/mips_excpt_boot.S:345
80003284:	8d790004 	lw	t9,4(t3)
/scratch/mpf/jobs/54395/48094/240198/shared/gcc/libgloss/mips/hal/mips_excpt_boot.S:353
80003288:	13200005 	beqz	t9,800032a0 <__convert_argv_pointers+0x64>
8000328c:	00000000 	nop
/scratch/mpf/jobs/54395/48094/240198/shared/gcc/libgloss/mips/hal/mips_excpt_boot.S:354
80003290:	13290003 	beq	t9,t1,800032a0 <__convert_argv_pointers+0x64>
80003294:	00000000 	nop
/scratch/mpf/jobs/54395/48094/240198/shared/gcc/libgloss/mips/hal/mips_excpt_boot.S:356
80003298:	3c188000 	lui	t8,0x8000
8000329c:	27183f7c 	addiu	t8,t8,16252
/scratch/mpf/jobs/54395/48094/240198/shared/gcc/libgloss/mips/hal/mips_excpt_boot.S:358
800032a0:	ad580000 	sw	t8,0(t2)
/scratch/mpf/jobs/54395/48094/240198/shared/gcc/libgloss/mips/hal/mips_excpt_boot.S:360
800032a4:	254a0004 	addiu	t2,t2,4
/scratch/mpf/jobs/54395/48094/240198/shared/gcc/libgloss/mips/hal/mips_excpt_boot.S:361
800032a8:	256b0008 	addiu	t3,t3,8
/scratch/mpf/jobs/54395/48094/240198/shared/gcc/libgloss/mips/hal/mips_excpt_boot.S:362
800032ac:	2508ffff 	addiu	t0,t0,-1
/scratch/mpf/jobs/54395/48094/240198/shared/gcc/libgloss/mips/hal/mips_excpt_boot.S:363
800032b0:	1500fff3 	bnez	t0,80003280 <__convert_argv_pointers+0x44>
800032b4:	00000000 	nop
/scratch/mpf/jobs/54395/48094/240198/shared/gcc/libgloss/mips/hal/mips_excpt_boot.S:365
800032b8:	03a02825 	move	a1,sp
/scratch/mpf/jobs/54395/48094/240198/shared/gcc/libgloss/mips/hal/mips_excpt_boot.S:366
800032bc:	27bdfff0 	addiu	sp,sp,-16
/scratch/mpf/jobs/54395/48094/240198/shared/gcc/libgloss/mips/hal/mips_excpt_boot.S:368
800032c0:	00003025 	move	a2,zero
/scratch/mpf/jobs/54395/48094/240198/shared/gcc/libgloss/mips/hal/mips_excpt_boot.S:370
800032c4:	03e00008 	jr	ra
800032c8:	00000000 	nop

800032cc <strlen>:
strlen():
800032cc:	24820001 	addiu	v0,a0,1
800032d0:	90830000 	lbu	v1,0(a0)
800032d4:	00000000 	nop
800032d8:	1460fffd 	bnez	v1,800032d0 <strlen+0x4>
800032dc:	24840001 	addiu	a0,a0,1
800032e0:	03e00008 	jr	ra
800032e4:	00821023 	subu	v0,a0,v0

800032e8 <write>:
write():
/scratch/mpf/jobs/54395/48094/240198/shared/gcc/libgloss/mips/uhi/uhi_write.c:53
800032e8:	27bdffe0 	addiu	sp,sp,-32
/scratch/mpf/jobs/54395/48094/240198/shared/gcc/libgloss/mips/uhi/uhi_write.c:57
800032ec:	24190005 	li	t9,5
/scratch/mpf/jobs/54395/48094/240198/shared/gcc/libgloss/mips/uhi/uhi_write.c:58
800032f0:	24020001 	li	v0,1
/scratch/mpf/jobs/54395/48094/240198/shared/gcc/libgloss/mips/uhi/uhi_write.c:53
800032f4:	afbf001c 	sw	ra,28(sp)
800032f8:	afb00018 	sw	s0,24(sp)
/scratch/mpf/jobs/54395/48094/240198/shared/gcc/libgloss/mips/uhi/uhi_write.c:61
800032fc:	0000004c 	syscall	0x1
/scratch/mpf/jobs/54395/48094/240198/shared/gcc/libgloss/mips/uhi/uhi_write.c:67
80003300:	00408025 	move	s0,v0
80003304:	2402ffff 	li	v0,-1
80003308:	16020007 	bne	s0,v0,80003328 <write+0x40>
8000330c:	8fbf001c 	lw	ra,28(sp)
/scratch/mpf/jobs/54395/48094/240198/shared/gcc/libgloss/mips/uhi/uhi_write.c:71
80003310:	afa30010 	sw	v1,16(sp)
/scratch/mpf/jobs/54395/48094/240198/shared/gcc/libgloss/mips/uhi/uhi_write.c:72
80003314:	0c000ce4 	jal	80003390 <__errno>
80003318:	00000000 	nop
8000331c:	8fa30010 	lw	v1,16(sp)
80003320:	ac430000 	sw	v1,0(v0)
/scratch/mpf/jobs/54395/48094/240198/shared/gcc/libgloss/mips/uhi/uhi_write.c:76
80003324:	8fbf001c 	lw	ra,28(sp)
80003328:	02001025 	move	v0,s0
8000332c:	8fb00018 	lw	s0,24(sp)
80003330:	03e00008 	jr	ra
80003334:	27bd0020 	addiu	sp,sp,32

80003338 <__uhi_exception>:
__uhi_exception():
/scratch/mpf/jobs/54395/48094/240198/shared/gcc/libgloss/mips/uhi/uhi_exception.c:56
80003338:	2419000f 	li	t9,15
/scratch/mpf/jobs/54395/48094/240198/shared/gcc/libgloss/mips/uhi/uhi_exception.c:57
8000333c:	24020001 	li	v0,1
/scratch/mpf/jobs/54395/48094/240198/shared/gcc/libgloss/mips/uhi/uhi_exception.c:59
80003340:	0000004c 	syscall	0x1
/scratch/mpf/jobs/54395/48094/240198/shared/gcc/libgloss/mips/uhi/uhi_exception.c:65
80003344:	03e00008 	jr	ra
80003348:	00000000 	nop

8000334c <__uhi_indirect>:
__uhi_indirect():
/scratch/mpf/jobs/54395/48094/240198/shared/gcc/libgloss/mips/uhi/uhi_indirect.c:36
8000334c:	00804025 	move	t0,a0
/scratch/mpf/jobs/54395/48094/240198/shared/gcc/libgloss/mips/uhi/uhi_indirect.c:37
80003350:	8c84000c 	lw	a0,12(a0)
/scratch/mpf/jobs/54395/48094/240198/shared/gcc/libgloss/mips/uhi/uhi_indirect.c:42
80003354:	24020001 	li	v0,1
/scratch/mpf/jobs/54395/48094/240198/shared/gcc/libgloss/mips/uhi/uhi_indirect.c:38
80003358:	8d050010 	lw	a1,16(t0)
/scratch/mpf/jobs/54395/48094/240198/shared/gcc/libgloss/mips/uhi/uhi_indirect.c:39
8000335c:	8d060014 	lw	a2,20(t0)
/scratch/mpf/jobs/54395/48094/240198/shared/gcc/libgloss/mips/uhi/uhi_indirect.c:40
80003360:	8d070018 	lw	a3,24(t0)
/scratch/mpf/jobs/54395/48094/240198/shared/gcc/libgloss/mips/uhi/uhi_indirect.c:41
80003364:	8d190060 	lw	t9,96(t0)
/scratch/mpf/jobs/54395/48094/240198/shared/gcc/libgloss/mips/uhi/uhi_indirect.c:45
80003368:	7000007f 	sdbbp	0x1
/scratch/mpf/jobs/54395/48094/240198/shared/gcc/libgloss/mips/uhi/uhi_indirect.c:50
8000336c:	ad020004 	sw	v0,4(t0)
/scratch/mpf/jobs/54395/48094/240198/shared/gcc/libgloss/mips/uhi/uhi_indirect.c:55
80003370:	8d02007c 	lw	v0,124(t0)
/scratch/mpf/jobs/54395/48094/240198/shared/gcc/libgloss/mips/uhi/uhi_indirect.c:51
80003374:	ad030008 	sw	v1,8(t0)
/scratch/mpf/jobs/54395/48094/240198/shared/gcc/libgloss/mips/uhi/uhi_indirect.c:52
80003378:	ad04000c 	sw	a0,12(t0)
/scratch/mpf/jobs/54395/48094/240198/shared/gcc/libgloss/mips/uhi/uhi_indirect.c:55
8000337c:	24420004 	addiu	v0,v0,4
/scratch/mpf/jobs/54395/48094/240198/shared/gcc/libgloss/mips/uhi/uhi_indirect.c:53
80003380:	ad050010 	sw	a1,16(t0)
/scratch/mpf/jobs/54395/48094/240198/shared/gcc/libgloss/mips/uhi/uhi_indirect.c:55
80003384:	ad02007c 	sw	v0,124(t0)
/scratch/mpf/jobs/54395/48094/240198/shared/gcc/libgloss/mips/uhi/uhi_indirect.c:58
80003388:	03e00008 	jr	ra
8000338c:	24020001 	li	v0,1

80003390 <__errno>:
__errno():
/scratch/mpf/jobs/54395/48094/240198/shared/gcc/newlib/libc/errno/errno.c:14
80003390:	3c028000 	lui	v0,0x8000
80003394:	03e00008 	jr	ra
80003398:	8c423fa4 	lw	v0,16292(v0)

8000339c <__exception_save>:
/scratch/mpf/jobs/54395/48094/240198/shared/gcc/libgloss/mips/hal/mips_excpt_entry.S:116
8000339c:	03a0d825 	move	k1,sp
/scratch/mpf/jobs/54395/48094/240198/shared/gcc/libgloss/mips/hal/mips_excpt_entry.S:118
800033a0:	27bdff50 	addiu	sp,sp,-176
/scratch/mpf/jobs/54395/48094/240198/shared/gcc/libgloss/mips/hal/mips_excpt_entry.S:121
800033a4:	afa10010 	sw	at,16(sp)
/scratch/mpf/jobs/54395/48094/240198/shared/gcc/libgloss/mips/hal/mips_excpt_entry.S:122
800033a8:	afa20014 	sw	v0,20(sp)
/scratch/mpf/jobs/54395/48094/240198/shared/gcc/libgloss/mips/hal/mips_excpt_entry.S:123
800033ac:	afa30018 	sw	v1,24(sp)
/scratch/mpf/jobs/54395/48094/240198/shared/gcc/libgloss/mips/hal/mips_excpt_entry.S:124
800033b0:	afa4001c 	sw	a0,28(sp)
/scratch/mpf/jobs/54395/48094/240198/shared/gcc/libgloss/mips/hal/mips_excpt_entry.S:125
800033b4:	afa50020 	sw	a1,32(sp)
/scratch/mpf/jobs/54395/48094/240198/shared/gcc/libgloss/mips/hal/mips_excpt_entry.S:126
800033b8:	afa60024 	sw	a2,36(sp)
/scratch/mpf/jobs/54395/48094/240198/shared/gcc/libgloss/mips/hal/mips_excpt_entry.S:127
800033bc:	afa70028 	sw	a3,40(sp)
/scratch/mpf/jobs/54395/48094/240198/shared/gcc/libgloss/mips/hal/mips_excpt_entry.S:128
800033c0:	afa8002c 	sw	t0,44(sp)
/scratch/mpf/jobs/54395/48094/240198/shared/gcc/libgloss/mips/hal/mips_excpt_entry.S:129
800033c4:	afa90030 	sw	t1,48(sp)
/scratch/mpf/jobs/54395/48094/240198/shared/gcc/libgloss/mips/hal/mips_excpt_entry.S:130
800033c8:	afaa0034 	sw	t2,52(sp)
/scratch/mpf/jobs/54395/48094/240198/shared/gcc/libgloss/mips/hal/mips_excpt_entry.S:131
800033cc:	afab0038 	sw	t3,56(sp)
/scratch/mpf/jobs/54395/48094/240198/shared/gcc/libgloss/mips/hal/mips_excpt_entry.S:132
800033d0:	afac003c 	sw	t4,60(sp)
/scratch/mpf/jobs/54395/48094/240198/shared/gcc/libgloss/mips/hal/mips_excpt_entry.S:133
800033d4:	afad0040 	sw	t5,64(sp)
/scratch/mpf/jobs/54395/48094/240198/shared/gcc/libgloss/mips/hal/mips_excpt_entry.S:134
800033d8:	afae0044 	sw	t6,68(sp)
/scratch/mpf/jobs/54395/48094/240198/shared/gcc/libgloss/mips/hal/mips_excpt_entry.S:135
800033dc:	afaf0048 	sw	t7,72(sp)
/scratch/mpf/jobs/54395/48094/240198/shared/gcc/libgloss/mips/hal/mips_excpt_entry.S:136
800033e0:	afb0004c 	sw	s0,76(sp)
/scratch/mpf/jobs/54395/48094/240198/shared/gcc/libgloss/mips/hal/mips_excpt_entry.S:137
800033e4:	afb10050 	sw	s1,80(sp)
/scratch/mpf/jobs/54395/48094/240198/shared/gcc/libgloss/mips/hal/mips_excpt_entry.S:138
800033e8:	afb20054 	sw	s2,84(sp)
/scratch/mpf/jobs/54395/48094/240198/shared/gcc/libgloss/mips/hal/mips_excpt_entry.S:139
800033ec:	afb30058 	sw	s3,88(sp)
/scratch/mpf/jobs/54395/48094/240198/shared/gcc/libgloss/mips/hal/mips_excpt_entry.S:140
800033f0:	afb4005c 	sw	s4,92(sp)
/scratch/mpf/jobs/54395/48094/240198/shared/gcc/libgloss/mips/hal/mips_excpt_entry.S:141
800033f4:	afb50060 	sw	s5,96(sp)
/scratch/mpf/jobs/54395/48094/240198/shared/gcc/libgloss/mips/hal/mips_excpt_entry.S:142
800033f8:	afb60064 	sw	s6,100(sp)
/scratch/mpf/jobs/54395/48094/240198/shared/gcc/libgloss/mips/hal/mips_excpt_entry.S:143
800033fc:	afb70068 	sw	s7,104(sp)
/scratch/mpf/jobs/54395/48094/240198/shared/gcc/libgloss/mips/hal/mips_excpt_entry.S:144
80003400:	afb8006c 	sw	t8,108(sp)
/scratch/mpf/jobs/54395/48094/240198/shared/gcc/libgloss/mips/hal/mips_excpt_entry.S:145
80003404:	afb90070 	sw	t9,112(sp)
/scratch/mpf/jobs/54395/48094/240198/shared/gcc/libgloss/mips/hal/mips_excpt_entry.S:146
80003408:	afba0074 	sw	k0,116(sp)
/scratch/mpf/jobs/54395/48094/240198/shared/gcc/libgloss/mips/hal/mips_excpt_entry.S:148
8000340c:	afbc007c 	sw	gp,124(sp)
/scratch/mpf/jobs/54395/48094/240198/shared/gcc/libgloss/mips/hal/mips_excpt_entry.S:149
80003410:	afbb0080 	sw	k1,128(sp)
/scratch/mpf/jobs/54395/48094/240198/shared/gcc/libgloss/mips/hal/mips_excpt_entry.S:150
80003414:	afbe0084 	sw	s8,132(sp)
/scratch/mpf/jobs/54395/48094/240198/shared/gcc/libgloss/mips/hal/mips_excpt_entry.S:151
80003418:	afbf0088 	sw	ra,136(sp)
/scratch/mpf/jobs/54395/48094/240198/shared/gcc/libgloss/mips/hal/mips_excpt_entry.S:152
8000341c:	afa0009c 	sw	zero,156(sp)
/scratch/mpf/jobs/54395/48094/240198/shared/gcc/libgloss/mips/hal/mips_excpt_entry.S:155
80003420:	00004810 	mfhi	t1
/scratch/mpf/jobs/54395/48094/240198/shared/gcc/libgloss/mips/hal/mips_excpt_entry.S:156
80003424:	00005012 	mflo	t2
/scratch/mpf/jobs/54395/48094/240198/shared/gcc/libgloss/mips/hal/mips_excpt_entry.S:157
80003428:	afa90094 	sw	t1,148(sp)
/scratch/mpf/jobs/54395/48094/240198/shared/gcc/libgloss/mips/hal/mips_excpt_entry.S:158
8000342c:	afaa0098 	sw	t2,152(sp)
/scratch/mpf/jobs/54395/48094/240198/shared/gcc/libgloss/mips/hal/mips_excpt_entry.S:163
80003430:	401f7000 	mfc0	ra,c0_epc
/scratch/mpf/jobs/54395/48094/240198/shared/gcc/libgloss/mips/hal/mips_excpt_entry.S:164
80003434:	40136800 	mfc0	s3,c0_cause
/scratch/mpf/jobs/54395/48094/240198/shared/gcc/libgloss/mips/hal/mips_excpt_entry.S:165
80003438:	afbf008c 	sw	ra,140(sp)
/scratch/mpf/jobs/54395/48094/240198/shared/gcc/libgloss/mips/hal/mips_excpt_entry.S:168
8000343c:	40094000 	mfc0	t1,c0_badvaddr
/scratch/mpf/jobs/54395/48094/240198/shared/gcc/libgloss/mips/hal/mips_excpt_entry.S:169
80003440:	afa90090 	sw	t1,144(sp)
/scratch/mpf/jobs/54395/48094/240198/shared/gcc/libgloss/mips/hal/mips_excpt_entry.S:170
80003444:	afb300a4 	sw	s3,164(sp)
/scratch/mpf/jobs/54395/48094/240198/shared/gcc/libgloss/mips/hal/mips_excpt_entry.S:172
80003448:	00005825 	move	t3,zero
/scratch/mpf/jobs/54395/48094/240198/shared/gcc/libgloss/mips/hal/mips_excpt_entry.S:173
8000344c:	00006025 	move	t4,zero
/scratch/mpf/jobs/54395/48094/240198/shared/gcc/libgloss/mips/hal/mips_excpt_entry.S:174
80003450:	40098003 	mfc0	t1,c0_config3
/scratch/mpf/jobs/54395/48094/240198/shared/gcc/libgloss/mips/hal/mips_excpt_entry.S:175
80003454:	7d2a06c0 	ext	t2,t1,0x1b,0x1
/scratch/mpf/jobs/54395/48094/240198/shared/gcc/libgloss/mips/hal/mips_excpt_entry.S:176
80003458:	11400002 	beqz	t2,80003464 <__exception_save+0xc8>
8000345c:	00000000 	nop
/scratch/mpf/jobs/54395/48094/240198/shared/gcc/libgloss/mips/hal/mips_excpt_entry.S:177
80003460:	400b4002 	mfc0	t3,$8,2
/scratch/mpf/jobs/54395/48094/240198/shared/gcc/libgloss/mips/hal/mips_excpt_entry.S:179
80003464:	7d290680 	ext	t1,t1,0x1a,0x1
/scratch/mpf/jobs/54395/48094/240198/shared/gcc/libgloss/mips/hal/mips_excpt_entry.S:180
80003468:	11200002 	beqz	t1,80003474 <__exception_save+0xd8>
8000346c:	00000000 	nop
/scratch/mpf/jobs/54395/48094/240198/shared/gcc/libgloss/mips/hal/mips_excpt_entry.S:181
80003470:	400c4001 	mfc0	t4,$8,1
/scratch/mpf/jobs/54395/48094/240198/shared/gcc/libgloss/mips/hal/mips_excpt_entry.S:183
80003474:	afab00ac 	sw	t3,172(sp)
/scratch/mpf/jobs/54395/48094/240198/shared/gcc/libgloss/mips/hal/mips_excpt_entry.S:184
80003478:	afac00a8 	sw	t4,168(sp)
/scratch/mpf/jobs/54395/48094/240198/shared/gcc/libgloss/mips/hal/mips_excpt_entry.S:187
8000347c:	03a02025 	move	a0,sp
/scratch/mpf/jobs/54395/48094/240198/shared/gcc/libgloss/mips/hal/mips_excpt_entry.S:190
80003480:	40156000 	mfc0	s5,c0_status
/scratch/mpf/jobs/54395/48094/240198/shared/gcc/libgloss/mips/hal/mips_excpt_entry.S:191
80003484:	afb500a0 	sw	s5,160(sp)
/scratch/mpf/jobs/54395/48094/240198/shared/gcc/libgloss/mips/hal/mips_excpt_entry.S:192
80003488:	3c090000 	lui	t1,0x0
/scratch/mpf/jobs/54395/48094/240198/shared/gcc/libgloss/mips/hal/mips_excpt_entry.S:193
8000348c:	2529fffd 	addiu	t1,t1,-3
/scratch/mpf/jobs/54395/48094/240198/shared/gcc/libgloss/mips/hal/mips_excpt_entry.S:194
80003490:	02a9a824 	and	s5,s5,t1
/scratch/mpf/jobs/54395/48094/240198/shared/gcc/libgloss/mips/hal/mips_excpt_entry.S:195
80003494:	40956000 	mtc0	s5,c0_status
/scratch/mpf/jobs/54395/48094/240198/shared/gcc/libgloss/mips/hal/mips_excpt_entry.S:198
80003498:	3c1f8000 	lui	ra,0x8000
8000349c:	27ff34bc 	addiu	ra,ra,13500
/scratch/mpf/jobs/54395/48094/240198/shared/gcc/libgloss/mips/hal/mips_excpt_entry.S:200
800034a0:	3265007c 	andi	a1,s3,0x7c
/scratch/mpf/jobs/54395/48094/240198/shared/gcc/libgloss/mips/hal/mips_excpt_entry.S:203
800034a4:	24840010 	addiu	a0,a0,16
/scratch/mpf/jobs/54395/48094/240198/shared/gcc/libgloss/mips/hal/mips_excpt_entry.S:206
800034a8:	00052882 	srl	a1,a1,0x2
/scratch/mpf/jobs/54395/48094/240198/shared/gcc/libgloss/mips/hal/mips_excpt_entry.S:210
800034ac:	3c198000 	lui	t9,0x8000
800034b0:	27391c0c 	addiu	t9,t9,7180
/scratch/mpf/jobs/54395/48094/240198/shared/gcc/libgloss/mips/hal/mips_excpt_entry.S:211
800034b4:	03200008 	jr	t9
800034b8:	00000000 	nop
/scratch/mpf/jobs/54395/48094/240198/shared/gcc/libgloss/mips/hal/mips_excpt_entry.S:217
800034bc:	8fa90094 	lw	t1,148(sp)
/scratch/mpf/jobs/54395/48094/240198/shared/gcc/libgloss/mips/hal/mips_excpt_entry.S:218
800034c0:	8faa0098 	lw	t2,152(sp)
/scratch/mpf/jobs/54395/48094/240198/shared/gcc/libgloss/mips/hal/mips_excpt_entry.S:219
800034c4:	01200011 	mthi	t1
/scratch/mpf/jobs/54395/48094/240198/shared/gcc/libgloss/mips/hal/mips_excpt_entry.S:220
800034c8:	01400013 	mtlo	t2
/scratch/mpf/jobs/54395/48094/240198/shared/gcc/libgloss/mips/hal/mips_excpt_entry.S:223
800034cc:	8fa10010 	lw	at,16(sp)
/scratch/mpf/jobs/54395/48094/240198/shared/gcc/libgloss/mips/hal/mips_excpt_entry.S:224
800034d0:	8fa20014 	lw	v0,20(sp)
/scratch/mpf/jobs/54395/48094/240198/shared/gcc/libgloss/mips/hal/mips_excpt_entry.S:225
800034d4:	8fa30018 	lw	v1,24(sp)
/scratch/mpf/jobs/54395/48094/240198/shared/gcc/libgloss/mips/hal/mips_excpt_entry.S:226
800034d8:	8fa4001c 	lw	a0,28(sp)
/scratch/mpf/jobs/54395/48094/240198/shared/gcc/libgloss/mips/hal/mips_excpt_entry.S:227
800034dc:	8fa50020 	lw	a1,32(sp)
/scratch/mpf/jobs/54395/48094/240198/shared/gcc/libgloss/mips/hal/mips_excpt_entry.S:228
800034e0:	8fa60024 	lw	a2,36(sp)
/scratch/mpf/jobs/54395/48094/240198/shared/gcc/libgloss/mips/hal/mips_excpt_entry.S:229
800034e4:	8fa70028 	lw	a3,40(sp)
/scratch/mpf/jobs/54395/48094/240198/shared/gcc/libgloss/mips/hal/mips_excpt_entry.S:230
800034e8:	8fa8002c 	lw	t0,44(sp)
/scratch/mpf/jobs/54395/48094/240198/shared/gcc/libgloss/mips/hal/mips_excpt_entry.S:231
800034ec:	8fa90030 	lw	t1,48(sp)
/scratch/mpf/jobs/54395/48094/240198/shared/gcc/libgloss/mips/hal/mips_excpt_entry.S:232
800034f0:	8faa0034 	lw	t2,52(sp)
/scratch/mpf/jobs/54395/48094/240198/shared/gcc/libgloss/mips/hal/mips_excpt_entry.S:233
800034f4:	8fab0038 	lw	t3,56(sp)
/scratch/mpf/jobs/54395/48094/240198/shared/gcc/libgloss/mips/hal/mips_excpt_entry.S:234
800034f8:	8fac003c 	lw	t4,60(sp)
/scratch/mpf/jobs/54395/48094/240198/shared/gcc/libgloss/mips/hal/mips_excpt_entry.S:235
800034fc:	8fad0040 	lw	t5,64(sp)
/scratch/mpf/jobs/54395/48094/240198/shared/gcc/libgloss/mips/hal/mips_excpt_entry.S:236
80003500:	8fae0044 	lw	t6,68(sp)
/scratch/mpf/jobs/54395/48094/240198/shared/gcc/libgloss/mips/hal/mips_excpt_entry.S:237
80003504:	8faf0048 	lw	t7,72(sp)
/scratch/mpf/jobs/54395/48094/240198/shared/gcc/libgloss/mips/hal/mips_excpt_entry.S:238
80003508:	8fb0004c 	lw	s0,76(sp)
/scratch/mpf/jobs/54395/48094/240198/shared/gcc/libgloss/mips/hal/mips_excpt_entry.S:239
8000350c:	8fb10050 	lw	s1,80(sp)
/scratch/mpf/jobs/54395/48094/240198/shared/gcc/libgloss/mips/hal/mips_excpt_entry.S:240
80003510:	8fb20054 	lw	s2,84(sp)
/scratch/mpf/jobs/54395/48094/240198/shared/gcc/libgloss/mips/hal/mips_excpt_entry.S:241
80003514:	8fb30058 	lw	s3,88(sp)
/scratch/mpf/jobs/54395/48094/240198/shared/gcc/libgloss/mips/hal/mips_excpt_entry.S:242
80003518:	8fb4005c 	lw	s4,92(sp)
/scratch/mpf/jobs/54395/48094/240198/shared/gcc/libgloss/mips/hal/mips_excpt_entry.S:243
8000351c:	8fb50060 	lw	s5,96(sp)
/scratch/mpf/jobs/54395/48094/240198/shared/gcc/libgloss/mips/hal/mips_excpt_entry.S:244
80003520:	8fb60064 	lw	s6,100(sp)
/scratch/mpf/jobs/54395/48094/240198/shared/gcc/libgloss/mips/hal/mips_excpt_entry.S:245
80003524:	8fb70068 	lw	s7,104(sp)
/scratch/mpf/jobs/54395/48094/240198/shared/gcc/libgloss/mips/hal/mips_excpt_entry.S:246
80003528:	8fb8006c 	lw	t8,108(sp)
/scratch/mpf/jobs/54395/48094/240198/shared/gcc/libgloss/mips/hal/mips_excpt_entry.S:247
8000352c:	8fb90070 	lw	t9,112(sp)
/scratch/mpf/jobs/54395/48094/240198/shared/gcc/libgloss/mips/hal/mips_excpt_entry.S:249
80003530:	8fbc007c 	lw	gp,124(sp)
/scratch/mpf/jobs/54395/48094/240198/shared/gcc/libgloss/mips/hal/mips_excpt_entry.S:251
80003534:	8fbe0084 	lw	s8,132(sp)
/scratch/mpf/jobs/54395/48094/240198/shared/gcc/libgloss/mips/hal/mips_excpt_entry.S:252
80003538:	8fbf0088 	lw	ra,136(sp)
/scratch/mpf/jobs/54395/48094/240198/shared/gcc/libgloss/mips/hal/mips_excpt_entry.S:253
8000353c:	41606000 	di
/scratch/mpf/jobs/54395/48094/240198/shared/gcc/libgloss/mips/hal/mips_excpt_entry.S:254
80003540:	8fba00a0 	lw	k0,160(sp)
/scratch/mpf/jobs/54395/48094/240198/shared/gcc/libgloss/mips/hal/mips_excpt_entry.S:255
80003544:	8fbb008c 	lw	k1,140(sp)
/scratch/mpf/jobs/54395/48094/240198/shared/gcc/libgloss/mips/hal/mips_excpt_entry.S:256
80003548:	409a6000 	mtc0	k0,c0_status
/scratch/mpf/jobs/54395/48094/240198/shared/gcc/libgloss/mips/hal/mips_excpt_entry.S:257
8000354c:	409b7000 	mtc0	k1,c0_epc
/scratch/mpf/jobs/54395/48094/240198/shared/gcc/libgloss/mips/hal/mips_excpt_entry.S:258
80003550:	000000c0 	ehb
/scratch/mpf/jobs/54395/48094/240198/shared/gcc/libgloss/mips/hal/mips_excpt_entry.S:259
80003554:	8fba0074 	lw	k0,116(sp)
/scratch/mpf/jobs/54395/48094/240198/shared/gcc/libgloss/mips/hal/mips_excpt_entry.S:260
80003558:	8fbb0078 	lw	k1,120(sp)
/scratch/mpf/jobs/54395/48094/240198/shared/gcc/libgloss/mips/hal/mips_excpt_entry.S:261
8000355c:	8fbd0080 	lw	sp,128(sp)
/scratch/mpf/jobs/54395/48094/240198/shared/gcc/libgloss/mips/hal/mips_excpt_entry.S:263
80003560:	42000018 	eret

Disassembly of section .init:

80003564 <_init>:
_init():
80003564:	27bdffe0 	addiu	sp,sp,-32
80003568:	afbf0014 	sw	ra,20(sp)
8000356c:	0c000177 	jal	800005dc <frame_dummy>
80003570:	00000000 	nop
80003574:	0c000757 	jal	80001d5c <__do_global_ctors_aux>
80003578:	00000000 	nop

8000357c <init>:
init():
8000357c:	8fbf0014 	lw	ra,20(sp)
80003580:	03e00008 	jr	ra
80003584:	27bd0020 	addiu	sp,sp,32

Disassembly of section .fini:

80003588 <_fini>:
_fini():
80003588:	27bdffe0 	addiu	sp,sp,-32
8000358c:	afbf0014 	sw	ra,20(sp)
80003590:	0c000147 	jal	8000051c <__do_global_dtors_aux>
80003594:	00000000 	nop

80003598 <fini>:
fini():
80003598:	8fbf0014 	lw	ra,20(sp)
8000359c:	03e00008 	jr	ra
800035a0:	27bd0020 	addiu	sp,sp,32

Disassembly of section .eh_frame:

800035a4 <__EH_FRAME_BEGIN__>:
800035a4:	00000000 	nop

Disassembly of section .jcr:

800035a8 <__JCR_END__>:
800035a8:	00000000 	nop

Disassembly of section .ctors:

800035ac <__CTOR_LIST__>:
800035ac:	ffffffff 	sdc3	$31,-1(ra)

800035b0 <__CTOR_END__>:
800035b0:	00000000 	nop

Disassembly of section .dtors:

800035b4 <__DTOR_LIST__>:
800035b4:	ffffffff 	sdc3	$31,-1(ra)

800035b8 <__DTOR_END__>:
800035b8:	00000000 	nop

Disassembly of section .MIPS.abiflags:

800035c0 <__MIPS_abiflags_start>:
__MIPS_abiflags_start():
800035c0:	02200000 	0x2200000
800035c4:	03000001 	movf	zero,t8,$fcc0
800035c8:	00000000 	nop
800035cc:	00000008 	jr	zero
800035d0:	00000001 	movf	zero,zero,$fcc0
800035d4:	00000000 	nop

Disassembly of section .rodata:

800035d8 <.rodata>:
800035d8:	80022ec0 	lb	v0,11968(zero)
800035dc:	80022e80 	lb	v0,11904(zero)
800035e0:	80022c80 	lb	v0,11392(zero)
800035e4:	80022800 	lb	v0,10240(zero)
800035e8:	80022400 	lb	v0,9216(zero)
800035ec:	80022000 	lb	v0,8192(zero)
800035f0:	80023000 	lb	v0,12288(zero)
800035f4:	80024000 	lb	v0,16384(zero)
800035f8:	80025000 	lb	v0,20480(zero)
800035fc:	80027000 	lb	v0,28672(zero)
80003600:	80001d44 	lb	zero,7492(zero)
80003604:	80001c54 	lb	zero,7252(zero)
80003608:	80001c7c 	lb	zero,7292(zero)
8000360c:	80001c7c 	lb	zero,7292(zero)
80003610:	80001c68 	lb	zero,7272(zero)
80003614:	80001c68 	lb	zero,7272(zero)
80003618:	80001d44 	lb	zero,7492(zero)
8000361c:	80001d44 	lb	zero,7492(zero)
80003620:	80001c40 	lb	zero,7232(zero)
80003624:	800028fc 	lb	zero,10492(zero)
80003628:	8000290c 	lb	zero,10508(zero)
8000362c:	80002918 	lb	zero,10520(zero)
80003630:	80002924 	lb	zero,10532(zero)
80003634:	80002944 	lb	zero,10564(zero)
80003638:	80002950 	lb	zero,10576(zero)
8000363c:	80002970 	lb	zero,10608(zero)
80003640:	80002984 	lb	zero,10628(zero)
80003644:	80002a5c 	lb	zero,10844(zero)
80003648:	80002a68 	lb	zero,10856(zero)
8000364c:	80002a74 	lb	zero,10868(zero)
80003650:	80002a80 	lb	zero,10880(zero)
80003654:	80002a94 	lb	zero,10900(zero)
80003658:	80002aa8 	lb	zero,10920(zero)
8000365c:	80002b04 	lb	zero,11012(zero)
80003660:	80002b60 	lb	zero,11104(zero)
80003664:	80002b70 	lb	zero,11120(zero)
80003668:	80002b84 	lb	zero,11140(zero)
8000366c:	80002b98 	lb	zero,11160(zero)
80003670:	80002bac 	lb	zero,11180(zero)
80003674:	80002bc0 	lb	zero,11200(zero)
80003678:	80002bcc 	lb	zero,11212(zero)
8000367c:	80002bd8 	lb	zero,11224(zero)
80003680:	80002be8 	lb	zero,11240(zero)
80003684:	80002bfc 	lb	zero,11260(zero)
80003688:	80002c10 	lb	zero,11280(zero)
8000368c:	80002c38 	lb	zero,11320(zero)
80003690:	80002c38 	lb	zero,11320(zero)
80003694:	80002c38 	lb	zero,11320(zero)
80003698:	80002c24 	lb	zero,11300(zero)
8000369c:	656c6469 	0x656c6469
800036a0:	00000000 	nop
800036a4:	00000043 	sra	zero,zero,0x1
800036a8:	33323130 	andi	s2,t9,0x3130
800036ac:	37363534 	ori	s6,t9,0x3534
800036b0:	42413938 	c0	0x413938
800036b4:	46454443 	c1	0x454443
800036b8:	00000000 	nop
800036bc:	20424c54 	addi	v0,v0,19540
800036c0:	69646f6d 	0x69646f6d
800036c4:	61636966 	0x61636966
800036c8:	6e6f6974 	0x6e6f6974
800036cc:	63786520 	0x63786520
800036d0:	69747065 	0x69747065
800036d4:	000a6e6f 	0xa6e6f
800036d8:	20424c54 	addi	v0,v0,19540
800036dc:	6f727265 	0x6f727265
800036e0:	6e6f2072 	0x6e6f2072
800036e4:	616f6c20 	0x616f6c20
800036e8:	72662064 	s8ldi	xr1,s3,-120,ptn1
800036ec:	30206d6f 	andi	zero,at,0x6d6f
800036f0:	00000078 	0x78
800036f4:	20424c54 	addi	v0,v0,19540
800036f8:	6f727265 	0x6f727265
800036fc:	6e6f2072 	0x6e6f2072
80003700:	6f747320 	0x6f747320
80003704:	74206572 	jalx	808195c8 <__stack+0x7d95c8>
80003708:	7830206f 	0x7830206f
8000370c:	00000000 	nop
80003710:	72646441 	0x72646441
80003714:	20737365 	addi	s3,v1,29541
80003718:	6f727265 	0x6f727265
8000371c:	6e6f2072 	0x6e6f2072
80003720:	616f6c20 	0x616f6c20
80003724:	72662064 	s8ldi	xr1,s3,-120,ptn1
80003728:	30206d6f 	andi	zero,at,0x6d6f
8000372c:	00000078 	0x78
80003730:	72646441 	0x72646441
80003734:	20737365 	addi	s3,v1,29541
80003738:	6f727265 	0x6f727265
8000373c:	6e6f2072 	0x6e6f2072
80003740:	6f747320 	0x6f747320
80003744:	74206572 	jalx	808195c8 <__stack+0x7d95c8>
80003748:	7830206f 	0x7830206f
8000374c:	00000000 	nop
80003750:	74736e49 	jalx	81cdb924 <__stack+0x1c9b924>
80003754:	74637572 	jalx	818dd5c8 <__stack+0x189d5c8>
80003758:	206e6f69 	addi	t6,v1,28521
8000375c:	20737562 	addi	s3,v1,30050
80003760:	6f727265 	0x6f727265
80003764:	00000a72 	tlt	zero,zero,0x29
80003768:	61746144 	0x61746144
8000376c:	73756220 	0x73756220
80003770:	72726520 	0x72726520
80003774:	000a726f 	0xa726f
80003778:	6320324c 	0x6320324c
8000377c:	65686361 	0x65686361
80003780:	6e6f6320 	0x6e6f6320
80003784:	75676966 	jalx	859da598 <__stack+0x599a598>
80003788:	69746172 	0x69746172
8000378c:	65206e6f 	0x65206e6f
80003790:	726f7272 	0x726f7272
80003794:	0000000a 	movz	zero,zero,zero
80003798:	6e6b6e55 	0x6e6b6e55
8000379c:	206e776f 	addi	t6,v1,30575
800037a0:	746f6f62 	jalx	81bdbd88 <__stack+0x1b9bd88>
800037a4:	69616620 	0x69616620
800037a8:	6572756c 	0x6572756c
800037ac:	72726520 	0x72726520
800037b0:	000a726f 	0xa726f
800037b4:	61657242 	0x61657242
800037b8:	696f706b 	0x696f706b
800037bc:	4020746e 	0x4020746e
800037c0:	00007830 	tge	zero,zero,0x1e0
800037c4:	656c6c49 	0x656c6c49
800037c8:	206c6167 	addi	t4,v1,24935
800037cc:	74736e69 	jalx	81cdb9a4 <__stack+0x1c9b9a4>
800037d0:	74637572 	jalx	818dd5c8 <__stack+0x189d5c8>
800037d4:	206e6f69 	addi	t6,v1,28521
800037d8:	00783040 	0x783040
800037dc:	72706f43 	0x72706f43
800037e0:	7365636f 	0x7365636f
800037e4:	20726f73 	addi	s2,v1,28531
800037e8:	73756e75 	q16slr	xr9,xr11,xr5,xr13,13
800037ec:	656c6261 	0x656c6261
800037f0:	78304020 	ld.b	$w0,48(t0)
800037f4:	00000000 	nop
800037f8:	7265764f 	d16mace	xr9,xr13,xr5,xr9,SA,LW
800037fc:	776f6c66 	jalx	8dbdb198 <__stack+0xdb9b198>
80003800:	0000000a 	movz	zero,zero,zero
80003804:	70617254 	s32ldi	xr9,v1,368
80003808:	0000000a 	movz	zero,zero,zero
8000380c:	2041534d 	addi	at,v0,21325
80003810:	616f6c46 	0x616f6c46
80003814:	676e6974 	0x676e6974
80003818:	696f7020 	0x696f7020
8000381c:	6520746e 	0x6520746e
80003820:	726f7272 	0x726f7272
80003824:	0000000a 	movz	zero,zero,zero
80003828:	6c706d49 	0x6c706d49
8000382c:	6e656d65 	0x6e656d65
80003830:	69746174 	0x69746174
80003834:	73206e6f 	0x73206e6f
80003838:	69636570 	0x69636570
8000383c:	20636966 	addi	v1,v1,26982
80003840:	65637865 	0x65637865
80003844:	6f697470 	0x6f697470
80003848:	3128206e 	andi	t0,t1,0x206e
8000384c:	000a2936 	tne	zero,t2,0xa4
80003850:	6c706d49 	0x6c706d49
80003854:	6e656d65 	0x6e656d65
80003858:	69746174 	0x69746174
8000385c:	73206e6f 	0x73206e6f
80003860:	69636570 	0x69636570
80003864:	20636966 	addi	v1,v1,26982
80003868:	65637865 	0x65637865
8000386c:	6f697470 	0x6f697470
80003870:	3128206e 	andi	t0,t1,0x206e
80003874:	000a2937 	0xa2937
80003878:	63657250 	0x63657250
8000387c:	20657369 	addi	a1,v1,29545
80003880:	72706f43 	0x72706f43
80003884:	7365636f 	0x7365636f
80003888:	20726f73 	addi	s2,v1,28531
8000388c:	78652032 	0x78652032
80003890:	74706563 	jalx	81c1958c <__stack+0x1bd958c>
80003894:	0a6e6f69 	j	89b9bda4 <__stack+0x9b5bda4>
80003898:	00000000 	nop
8000389c:	20424c54 	addi	v0,v0,19540
800038a0:	64616572 	0x64616572
800038a4:	686e6920 	0x686e6920
800038a8:	74696269 	jalx	81a589a4 <__stack+0x1a189a4>
800038ac:	63786520 	0x63786520
800038b0:	69747065 	0x69747065
800038b4:	000a6e6f 	0xa6e6f
800038b8:	20424c54 	addi	v0,v0,19540
800038bc:	63657865 	0x63657865
800038c0:	20657475 	addi	a1,v1,29813
800038c4:	69686e69 	0x69686e69
800038c8:	20746962 	addi	s4,v1,26978
800038cc:	65637865 	0x65637865
800038d0:	6f697470 	0x6f697470
800038d4:	00000a6e 	0xa6e
800038d8:	2041534d 	addi	at,v0,21325
800038dc:	73756e75 	q16slr	xr9,xr11,xr5,xr13,13
800038e0:	656c6261 	0x656c6261
800038e4:	78304020 	ld.b	$w0,48(t0)
800038e8:	00000000 	nop
800038ec:	584d444d 	0x584d444d
800038f0:	63786520 	0x63786520
800038f4:	69747065 	0x69747065
800038f8:	40206e6f 	0x40206e6f
800038fc:	00007830 	tge	zero,zero,0x1e0
80003900:	63746157 	0x63746157
80003904:	696f7068 	0x696f7068
80003908:	4020746e 	0x4020746e
8000390c:	00007830 	tge	zero,zero,0x1e0
80003910:	6863614d 	0x6863614d
80003914:	20656e69 	addi	a1,v1,28265
80003918:	63656863 	0x63656863
8000391c:	7265206b 	s16std	xr1,s3,-368,ptn0
80003920:	0a726f72 	j	89c9bdc8 <__stack+0x9c5bdc8>
80003924:	00000000 	nop
80003928:	65726854 	0x65726854
8000392c:	65206461 	0x65206461
80003930:	70656378 	0x70656378
80003934:	6e6f6974 	0x6e6f6974
80003938:	0000000a 	movz	zero,zero,zero
8000393c:	20505344 	addi	s0,v0,21316
80003940:	73756e75 	q16slr	xr9,xr11,xr5,xr13,13
80003944:	656c6261 	0x656c6261
80003948:	0000000a 	movz	zero,zero,zero
8000394c:	68636143 	0x68636143
80003950:	72652065 	s8sdi	xr1,s3,72,ptn1
80003954:	0a726f72 	j	89c9bdc8 <__stack+0x9c5bdc8>
80003958:	00000000 	nop
8000395c:	61686e55 	0x61686e55
80003960:	656c646e 	0x656c646e
80003964:	78652064 	st.b	$w1,101(a0)
80003968:	74706563 	jalx	81c1958c <__stack+0x1bd958c>
8000396c:	206e6f69 	addi	t6,v1,28521
80003970:	00000000 	nop
80003974:	093a3020 	j	84e8c080 <__stack+0x4e4c080>
80003978:	00000000 	nop
8000397c:	00000009 	jalr	zero,zero
80003980:	093a7461 	j	84e9d184 <__stack+0x4e5d184>
80003984:	00000000 	nop
80003988:	093a3076 	j	84e8c1d8 <__stack+0x4e4c1d8>
8000398c:	00000000 	nop
80003990:	093a3176 	j	84e8c5d8 <__stack+0x4e4c5d8>
80003994:	00000000 	nop
80003998:	093a3061 	j	84e8c184 <__stack+0x4e4c184>
8000399c:	00000000 	nop
800039a0:	093a3161 	j	84e8c584 <__stack+0x4e4c584>
800039a4:	00000000 	nop
800039a8:	093a3261 	j	84e8c984 <__stack+0x4e4c984>
800039ac:	00000000 	nop
800039b0:	093a3361 	j	84e8cd84 <__stack+0x4e4cd84>
800039b4:	00000000 	nop
800039b8:	093a3074 	j	84e8c1d0 <__stack+0x4e4c1d0>
800039bc:	00000000 	nop
800039c0:	093a3174 	j	84e8c5d0 <__stack+0x4e4c5d0>
800039c4:	00000000 	nop
800039c8:	093a3274 	j	84e8c9d0 <__stack+0x4e4c9d0>
800039cc:	00000000 	nop
800039d0:	093a3374 	j	84e8cdd0 <__stack+0x4e4cdd0>
800039d4:	00000000 	nop
800039d8:	093a3474 	j	84e8d1d0 <__stack+0x4e4d1d0>
800039dc:	00000000 	nop
800039e0:	093a3574 	j	84e8d5d0 <__stack+0x4e4d5d0>
800039e4:	00000000 	nop
800039e8:	093a3674 	j	84e8d9d0 <__stack+0x4e4d9d0>
800039ec:	00000000 	nop
800039f0:	093a3774 	j	84e8ddd0 <__stack+0x4e4ddd0>
800039f4:	00000000 	nop
800039f8:	093a3073 	j	84e8c1cc <__stack+0x4e4c1cc>
800039fc:	00000000 	nop
80003a00:	093a3173 	j	84e8c5cc <__stack+0x4e4c5cc>
80003a04:	00000000 	nop
80003a08:	093a3273 	j	84e8c9cc <__stack+0x4e4c9cc>
80003a0c:	00000000 	nop
80003a10:	093a3373 	j	84e8cdcc <__stack+0x4e4cdcc>
80003a14:	00000000 	nop
80003a18:	093a3473 	j	84e8d1cc <__stack+0x4e4d1cc>
80003a1c:	00000000 	nop
80003a20:	093a3573 	j	84e8d5cc <__stack+0x4e4d5cc>
80003a24:	00000000 	nop
80003a28:	093a3673 	j	84e8d9cc <__stack+0x4e4d9cc>
80003a2c:	00000000 	nop
80003a30:	093a3773 	j	84e8ddcc <__stack+0x4e4ddcc>
80003a34:	00000000 	nop
80003a38:	093a3874 	j	84e8e1d0 <__stack+0x4e4e1d0>
80003a3c:	00000000 	nop
80003a40:	093a3974 	j	84e8e5d0 <__stack+0x4e4e5d0>
80003a44:	00000000 	nop
80003a48:	093a306b 	j	84e8c1ac <__stack+0x4e4c1ac>
80003a4c:	00000000 	nop
80003a50:	093a316b 	j	84e8c5ac <__stack+0x4e4c5ac>
80003a54:	00000000 	nop
80003a58:	093a7067 	j	84e9c19c <__stack+0x4e5c19c>
80003a5c:	00000000 	nop
80003a60:	093a7073 	j	84e9c1cc <__stack+0x4e5c1cc>
80003a64:	00000000 	nop
80003a68:	093a7066 	j	84e9c198 <__stack+0x4e5c198>
80003a6c:	00000000 	nop
80003a70:	093a6172 	j	84e985c8 <__stack+0x4e585c8>
80003a74:	00000000 	nop
80003a78:	093a6968 	j	84e9a5a0 <__stack+0x4e5a5a0>
80003a7c:	00000000 	nop
80003a80:	093a6f6c 	j	84e9bdb0 <__stack+0x4e5bdb0>
80003a84:	00000000 	nop
80003a88:	3a637065 	xori	v1,s3,0x7065
80003a8c:	20202020 	addi	zero,at,8224
80003a90:	00000920 	0x920
80003a94:	56646142 	bnel	s3,a0,8001bfa0 <__global+0x10010>
80003a98:	72646441 	0x72646441
80003a9c:	0000093a 	0x93a
80003aa0:	74617453 	jalx	8185d14c <__stack+0x181d14c>
80003aa4:	203a7375 	addi	k0,at,29557
80003aa8:	00092020 	add	a0,zero,t1
80003aac:	73756143 	0x73756143
80003ab0:	20203a65 	addi	zero,at,14949
80003ab4:	00092020 	add	a0,zero,t1
80003ab8:	49646142 	0x49646142
80003abc:	7274736e 	0x7274736e
80003ac0:	0009203a 	0x9203a
80003ac4:	50646142 	beql	v1,a0,8001bfd0 <__global+0x10040>
80003ac8:	74736e49 	jalx	81cdb924 <__stack+0x1c9b924>
80003acc:	00093a72 	tlt	zero,t1,0xe9

Disassembly of section .data:

80003ad0 <_fdata>:
	...

80003adc <alloc_size>:
__temp_space():
80003adc:	00000021 	move	zero,zero
80003ae0:	00000040 	ssnop
80003ae4:	00000080 	sll	zero,zero,0x2
80003ae8:	00000100 	sll	zero,zero,0x4
80003aec:	00000200 	sll	zero,zero,0x8
80003af0:	00000400 	sll	zero,zero,0x10
80003af4:	00000800 	sll	at,zero,0x0
80003af8:	00001000 	sll	v0,zero,0x0
80003afc:	00001800 	sll	v1,zero,0x0
80003b00:	00001000 	sll	v0,zero,0x0
80003b04:	00000000 	nop

80003b08 <impure_data>:
80003b08:	00000000 	nop
80003b0c:	80003df4 	lb	zero,15860(zero)
80003b10:	80003e5c 	lb	zero,15964(zero)
80003b14:	80003ec4 	lb	zero,16068(zero)
	...
80003b3c:	800036a4 	lb	zero,13988(zero)
	...
80003bb0:	00000001 	movf	zero,zero,$fcc0
80003bb4:	00000000 	nop
80003bb8:	abcd330e 	swl	t5,13070(s8)
80003bbc:	e66d1234 	swc1	$f13,4660(s3)
80003bc0:	0005deec 	0x5deec
80003bc4:	0000000b 	movn	zero,zero,zero
	...

80003f30 <__first_boot>:
80003f30:	00000001 	movf	zero,zero,$fcc0

80003f34 <__start_ctx>:
	...

80003f7c <__MIPS_UHI_BAD_POINTER>:
80003f7c:	3a494855 	xori	t1,s2,0x4855
80003f80:	44414220 	0x44414220
80003f84:	494f5020 	0x494f5020
80003f88:	5245544e 	beql	s2,a1,800190c4 <__global+0xd134>
80003f8c:	00000000 	nop

Disassembly of section .sdata:

80003f90 <__TMC_END__>:
80003f90:	00000000 	nop

80003f94 <phy_page_count>:
80003f94:	ffffffff 	sdc3	$31,-1(ra)

80003f98 <pmm_stack_top>:
80003f98:	ffffffff 	sdc3	$31,-1(ra)

80003f9c <vmm_page_addr>:
80003f9c:	00022000 	sll	a0,v0,0x0

80003fa0 <_global_impure_ptr>:
80003fa0:	80003b08 	lb	zero,15112(zero)

80003fa4 <_impure_ptr>:
80003fa4:	80003b08 	lb	zero,15112(zero)

Disassembly of section .sbss:

80003fa8 <_edata>:
_edata():
80003fa8:	00000000 	nop

80003fac <tno>:
80003fac:	00000000 	nop

80003fb0 <current>:
80003fb0:	00000000 	nop

80003fb4 <idleproc>:
80003fb4:	00000000 	nop

80003fb8 <nr_process>:
80003fb8:	00000000 	nop

80003fbc <index_>:
80003fbc:	00000000 	nop

80003fc0 <pid>:
80003fc0:	00000000 	nop

80003fc4 <pte_p>:
80003fc4:	00000000 	nop

80003fc8 <proc_list>:
	...

80003fd0 <idx>:
80003fd0:	00000000 	nop

Disassembly of section .bss:

80003fd4 <_bss_start>:
_bss_start():
80003fd4:	00000000 	nop

80003fd8 <dtor_idx.3451>:
80003fd8:	00000000 	nop

80003fdc <object.3461>:
	...

80003ff4 <block_size>:
	...

80004030 <block_flag>:
	...

800040a4 <block_offset>:
	...

800040e0 <pmm_stack>:
	...

80004158 <page_alloc_counts>:
	...

80004198 <page_alloc_addrs>:
	...

Disassembly of section .startdata:

800042a0 <__lstack-0x400>:
	...

800046a0 <__lstack>:
	...

Disassembly of section .debug_aranges:

00000000 <.debug_aranges>:
   0:	0000001c 	0x1c
   4:	00000002 	srl	zero,zero,0x0
   8:	00040000 	sll	zero,a0,0x0
   c:	00000000 	nop
  10:	80000200 	lb	zero,512(zero)
  14:	00000298 	0x298
	...
  20:	0000001c 	0x1c
  24:	00e60002 	0xe60002
  28:	00040000 	sll	zero,a0,0x0
  2c:	00000000 	nop
  30:	8000063c 	lb	zero,1596(zero)
  34:	00000004 	sllv	zero,zero,zero
	...
  40:	0000001c 	0x1c
  44:	014b0002 	0x14b0002
  48:	00040000 	sll	zero,a0,0x0
  4c:	00000000 	nop
  50:	80000640 	lb	zero,1600(zero)
  54:	00000064 	0x64
	...
  60:	0000001c 	0x1c
  64:	01b40002 	0x1b40002
  68:	00040000 	sll	zero,a0,0x0
  6c:	00000000 	nop
  70:	800006c0 	lb	zero,1728(zero)
  74:	000001fc 	0x1fc
	...
  80:	0000001c 	0x1c
  84:	04070002 	aclr	0x0,2(zero)
  88:	00040000 	sll	zero,a0,0x0
  8c:	00000000 	nop
  90:	800008bc 	lb	zero,2236(zero)
  94:	00000334 	teq	zero,zero,0xc
	...
  a0:	0000001c 	0x1c
  a4:	0d500002 	jal	5400008 <__memory_size+0x53e0808>
  a8:	00040000 	sll	zero,a0,0x0
  ac:	00000000 	nop
  b0:	80000bf0 	lb	zero,3056(zero)
  b4:	000000c0 	ehb
	...
  c0:	0000001c 	0x1c
  c4:	10d50002 	beq	a2,s5,d0 <__isr_vec_space+0xb0>
  c8:	00040000 	sll	zero,a0,0x0
  cc:	00000000 	nop
  d0:	80000cb0 	lb	zero,3248(zero)
  d4:	000000e4 	0xe4
	...
  e0:	0000001c 	0x1c
  e4:	126f0002 	beq	s3,t7,f0 <__isr_vec_space+0xd0>
  e8:	00040000 	sll	zero,a0,0x0
  ec:	00000000 	nop
  f0:	80000d94 	lb	zero,3476(zero)
  f4:	000008e0 	0x8e0
	...
 100:	0000001c 	0x1c
 104:	1ca40002 	0x1ca40002
 108:	00040000 	sll	zero,a0,0x0
 10c:	00000000 	nop
 110:	80001674 	lb	zero,5748(zero)
 114:	00000310 	0x310
	...
 120:	0000001c 	0x1c
 124:	21870002 	addi	a3,t4,2
 128:	00040000 	sll	zero,a0,0x0
 12c:	00000000 	nop
 130:	80001984 	lb	zero,6532(zero)
 134:	000001e8 	0x1e8
	...
 140:	0000001c 	0x1c
 144:	24c50002 	addiu	a1,a2,2
 148:	00040000 	sll	zero,a0,0x0
 14c:	00000000 	nop
 150:	80001b6c 	lb	zero,7020(zero)
 154:	000001f0 	tge	zero,zero,0x7
	...
 160:	0000001c 	0x1c
 164:	2cbd0002 	sltiu	sp,a1,2
 168:	00040000 	sll	zero,a0,0x0
 16c:	00000000 	nop
 170:	80001da4 	lb	zero,7588(zero)
 174:	00000028 	0x28
	...
 180:	0000001c 	0x1c
 184:	2dc30002 	sltiu	v1,t6,2
 188:	00040000 	sll	zero,a0,0x0
 18c:	00000000 	nop
 190:	80001dcc 	lb	zero,7628(zero)
 194:	0000003c 	0x3c
	...
 1a0:	00000014 	0x14
 1a4:	36a30002 	ori	v1,s5,0x2
 1a8:	00040000 	sll	zero,a0,0x0
	...
 1b8:	0000001c 	0x1c
 1bc:	3f330002 	0x3f330002
 1c0:	00040000 	sll	zero,a0,0x0
 1c4:	00000000 	nop
 1c8:	80001e08 	lb	zero,7688(zero)
 1cc:	0000039c 	0x39c
	...
 1d8:	0000001c 	0x1c
 1dc:	402d0002 	0x402d0002
 1e0:	00040000 	sll	zero,a0,0x0
 1e4:	00000000 	nop
 1e8:	800021a4 	lb	zero,8612(zero)
 1ec:	0000012c 	0x12c
	...
 1f8:	0000001c 	0x1c
 1fc:	41270002 	0x41270002
 200:	00040000 	sll	zero,a0,0x0
 204:	00000000 	nop
 208:	800022d0 	lb	zero,8912(zero)
 20c:	00000110 	0x110
	...
 218:	0000001c 	0x1c
 21c:	4a570002 	c2	0x570002
 220:	00040000 	sll	zero,a0,0x0
 224:	00000000 	nop
 228:	800023e0 	lb	zero,9184(zero)
 22c:	00000180 	sll	zero,zero,0x6
	...
 238:	0000001c 	0x1c
 23c:	53ac0002 	beql	sp,t4,248 <__isr_vec_space+0x228>
 240:	00040000 	sll	zero,a0,0x0
 244:	00000000 	nop
 248:	80002560 	lb	zero,9568(zero)
 24c:	00000088 	0x88
	...
 258:	0000001c 	0x1c
 25c:	54d20002 	bnel	a2,s2,268 <__isr_vec_space+0x248>
 260:	00040000 	sll	zero,a0,0x0
 264:	00000000 	nop
 268:	800025e8 	lb	zero,9704(zero)
 26c:	0000004c 	syscall	0x1
	...
 278:	0000001c 	0x1c
 27c:	55e10002 	bnel	t7,at,288 <__isr_vec_space+0x268>
 280:	00040000 	sll	zero,a0,0x0
 284:	00000000 	nop
 288:	80002634 	lb	zero,9780(zero)
 28c:	000001c0 	sll	zero,zero,0x7
	...
 298:	00000024 	and	zero,zero,zero
 29c:	56cd0002 	bnel	s6,t5,2a8 <__isr_vec_space+0x288>
 2a0:	00040000 	sll	zero,a0,0x0
 2a4:	00000000 	nop
 2a8:	80000000 	lb	zero,0(zero)
 2ac:	00000194 	0x194
 2b0:	8000339c 	lb	zero,13212(zero)
 2b4:	000001c8 	0x1c8
	...
 2c0:	0000001c 	0x1c
 2c4:	57bb0002 	bnel	sp,k1,2d0 <__isr_vec_space+0x2b0>
 2c8:	00040000 	sll	zero,a0,0x0
 2cc:	00000000 	nop
 2d0:	800027f4 	lb	zero,10228(zero)
 2d4:	000007ac 	0x7ac
	...
 2e0:	0000001c 	0x1c
 2e4:	634a0002 	0x634a0002
 2e8:	00040000 	sll	zero,a0,0x0
 2ec:	00000000 	nop
 2f0:	80002fa0 	lb	zero,12192(zero)
 2f4:	000000b0 	tge	zero,zero,0x2
	...
 300:	0000001c 	0x1c
 304:	643f0002 	0x643f0002
 308:	00040000 	sll	zero,a0,0x0
 30c:	00000000 	nop
 310:	80003050 	lb	zero,12368(zero)
 314:	0000027c 	0x27c
	...
 320:	00000014 	0x14
 324:	65300002 	0x65300002
 328:	00040000 	sll	zero,a0,0x0
	...
 338:	0000001c 	0x1c
 33c:	659e0002 	0x659e0002
 340:	00040000 	sll	zero,a0,0x0
 344:	00000000 	nop
 348:	800032e8 	lb	zero,13032(zero)
 34c:	00000050 	0x50
	...
 358:	0000001c 	0x1c
 35c:	671c0002 	0x671c0002
 360:	00040000 	sll	zero,a0,0x0
 364:	00000000 	nop
 368:	80003338 	lb	zero,13112(zero)
 36c:	00000014 	0x14
	...
 378:	0000001c 	0x1c
 37c:	69cc0002 	0x69cc0002
 380:	00040000 	sll	zero,a0,0x0
 384:	00000000 	nop
 388:	8000334c 	lb	zero,13132(zero)
 38c:	00000044 	0x44
	...
 398:	0000001c 	0x1c
 39c:	6c820002 	0x6c820002
 3a0:	00040000 	sll	zero,a0,0x0
 3a4:	00000000 	nop
 3a8:	80003390 	lb	zero,13200(zero)
 3ac:	0000000c 	syscall
	...

Disassembly of section .debug_info:

00000000 <.debug_info>:
       0:	000000e2 	0xe2
       4:	00000002 	srl	zero,zero,0x0
       8:	01040000 	0x1040000
       c:	00000000 	nop
      10:	80000200 	lb	zero,512(zero)
      14:	80000498 	lb	zero,1176(zero)
      18:	7263732f 	0x7263732f
      1c:	68637461 	0x68637461
      20:	66706d2f 	0x66706d2f
      24:	626f6a2f 	0x626f6a2f
      28:	34352f73 	ori	s5,at,0x2f73
      2c:	2f353933 	sltiu	s5,t9,14643
      30:	39303834 	xori	s0,t1,0x3834
      34:	34322f34 	ori	s2,at,0x2f34
      38:	38393130 	xori	t9,at,0x3130
      3c:	6168732f 	0x6168732f
      40:	2f646572 	sltiu	a0,k1,25970
      44:	2f636367 	sltiu	v1,k1,25447
      48:	6762696c 	0x6762696c
      4c:	73736f6c 	s16ldi	xr13,k1,438,ptn2
      50:	70696d2f 	0x70696d2f
      54:	61682f73 	0x61682f73
      58:	72632f6c 	s16ldi	xr13,s3,406,ptn0
      5c:	532e3074 	beql	t9,t6,c230 <__isr_vec_space+0xc210>
      60:	63732f00 	0x63732f00
      64:	63746172 	0x63746172
      68:	706d2f68 	lxhu	a1,v1,t5,3
      6c:	6f6a2f66 	0x6f6a2f66
      70:	352f7362 	ori	t7,t1,0x7362
      74:	35393334 	ori	t9,t1,0x3334
      78:	3038342f 	andi	t8,at,0x342f
      7c:	322f3439 	andi	t7,s1,0x3439
      80:	36323034 	ori	s2,s1,0x3034
      84:	6f772f32 	0x6f772f32
      88:	6f2f6b72 	0x6f2f6b72
      8c:	6d2d6a62 	0x6d2d6a62
      90:	2d737069 	sltiu	s3,t3,28777
      94:	2d69746d 	sltiu	t1,t3,29805
      98:	2f666c65 	sltiu	a2,k1,27749
      9c:	2f636367 	sltiu	v1,k1,25447
      a0:	7370696d 	s16sdi	xr5,k1,52,
      a4:	69746d2d 	0x69746d2d
      a8:	666c652d 	0x666c652d
      ac:	70696d2f 	0x70696d2f
      b0:	2d6c6573 	sltiu	t4,t3,25971
      b4:	732d3272 	0x732d3272
      b8:	2d74666f 	sltiu	s4,t3,26223
      bc:	6c77656e 	0x6c77656e
      c0:	6c2f6269 	0x6c2f6269
      c4:	6c2f6269 	0x6c2f6269
      c8:	6c676269 	0x6c676269
      cc:	2f73736f 	sltiu	s3,k1,29551
      d0:	7370696d 	s16sdi	xr5,k1,52,
      d4:	554e4700 	bnel	t2,t6,11cd8 <__isr_vec_space+0x11cb8>
      d8:	20534120 	addi	s3,v0,16672
      dc:	34322e32 	ori	s2,at,0x2e32
      e0:	0030392e 	0x30392e
      e4:	00618001 	movt	s0,v1,$fcc0
      e8:	00020000 	sll	zero,v0,0x0
      ec:	00000014 	0x14
      f0:	00f90104 	0xf90104
      f4:	063c0000 	0x63c0000
      f8:	06408000 	bltz	s2,fffe00fc <__flash_start+0x403e00fc>
      fc:	6f628000 	0x6f628000
     100:	642f746f 	0x642f746f
     104:	796d6d75 	0x796d6d75
     108:	4300532e 	c0	0x100532e
     10c:	73555c3a 	0x73555c3a
     110:	5c737265 	0x5c737265
     114:	30797a6c 	andi	t9,v1,0x7a6c
     118:	6e4f5c35 	0x6e4f5c35
     11c:	69724465 	0x69724465
     120:	315c6576 	andi	gp,t2,0x6576
     124:	39312d38 	xori	s1,t1,0x2d38
     128:	6c61462d 	0x6c61462d
     12c:	43535c6c 	c0	0x1535c6c
     130:	69675c44 	0x69675c44
     134:	72735c74 	q16sll	xr1,xr7,xr13,xr12,9
     138:	4e470063 	c3	0x470063
     13c:	53412055 	beql	k0,at,8294 <__isr_vec_space+0x8274>
     140:	322e3220 	andi	t6,s1,0x3220
     144:	30392e34 	andi	t9,at,0x2e34
     148:	65800100 	0x65800100
     14c:	02000000 	0x2000000
     150:	00002800 	sll	a1,zero,0x0
     154:	35010400 	ori	at,t0,0x400
     158:	40000001 	mfc0	zero,c0_mvpcontrol
     15c:	a4800006 	sh	zero,6(a0)
     160:	70800006 	0x70800006
     164:	65636f72 	0x65636f72
     168:	732f7373 	d32sar	xr13,xr12,xr13,xr11,12
     16c:	63746977 	0x63746977
     170:	00532e68 	0x532e68
     174:	555c3a43 	bnel	t2,gp,ea84 <__isr_vec_space+0xea64>
     178:	73726573 	d32sar	xr5,xr9,xr9,xr12,13
     17c:	797a6c5c 	madd_q.w	$w17,$w13,$w26
     180:	4f5c3530 	nmadd.s	$f20,$f26,$f6,$f28
     184:	7244656e 	0x7244656e
     188:	5c657669 	0x5c657669
     18c:	312d3831 	andi	t5,t1,0x3831
     190:	61462d39 	0x61462d39
     194:	535c6c6c 	beql	k0,gp,1b348 <__isr_vec_space+0x1b328>
     198:	675c4443 	0x675c4443
     19c:	735c7469 	0x735c7469
     1a0:	47006372 	bz.b	$w0,18f6c <__isr_vec_space+0x18f4c>
     1a4:	4120554e 	0x4120554e
     1a8:	2e322053 	sltiu	s2,s1,8275
     1ac:	392e3432 	xori	t6,t1,0x3432
     1b0:	80010030 	lb	at,48(zero)
     1b4:	0000024f 	sync	0x9
     1b8:	003c0004 	sllv	zero,gp,at
     1bc:	01040000 	0x1040000
     1c0:	00000061 	0x61
     1c4:	00014301 	0x14301
     1c8:	0000ef00 	sll	sp,zero,0x1c
     1cc:	0006c000 	sll	t8,a2,0x0
     1d0:	0001fc80 	sll	ra,at,0x12
     1d4:	00018a00 	sll	s1,at,0x8
     1d8:	00130200 	sll	zero,s3,0x8
     1dc:	46010000 	add.s	$f0,$f0,$f1
     1e0:	800006c0 	lb	zero,1728(zero)
     1e4:	00000010 	mfhi	zero
     1e8:	00589c01 	0x589c01
     1ec:	47030000 	bz.b	$w3,1f0 <__isr_vec_space+0x1d0>
     1f0:	0100000c 	syscall	0x40000
     1f4:	00005846 	rorv	t3,zero,zero
     1f8:	04540100 	0x4540100
     1fc:	0000003c 	0x3c
     200:	005f4701 	0x5f4701
     204:	80800000 	lb	zero,0(a0)
     208:	007bfc80 	0x7bfc80
     20c:	69050405 	0x69050405
     210:	0600746e 	bltz	s0,1d3cc <__isr_vec_space+0x1d3ac>
     214:	00006504 	0x6504
     218:	00580700 	0x580700
     21c:	51080000 	beql	t0,t0,220 <__isr_vec_space+0x200>
     220:	01000001 	movf	zero,t0,$fcc0
     224:	0006d04b 	0x6d04b
     228:	00004c80 	sll	t1,zero,0x12
     22c:	8c9c0100 	lw	gp,256(a0)
     230:	09000000 	j	4000000 <__memory_size+0x3fe0800>
     234:	4c01006a 	0x4c01006a
     238:	0000008c 	syscall	0x2
     23c:	00789102 	0x789102
     240:	00009107 	0x9107
     244:	07040a00 	0x7040a00
     248:	000001a7 	0x1a7
     24c:	00000002 	srl	zero,zero,0x0
     250:	1c050100 	0x1c050100
     254:	b8800007 	swr	zero,7(a0)
     258:	01000000 	0x1000000
     25c:	00012a9c 	0x12a9c
     260:	61760b00 	0x61760b00
     264:	0501006c 	bgez	t0,418 <__isr_vec_space+0x3f8>
     268:	00000091 	0x91
     26c:	00000000 	nop
     270:	00013004 	sllv	a2,at,zero
     274:	5f060100 	0x5f060100
     278:	90000000 	lbu	zero,0(zero)
     27c:	7bfc8080 	xori.b	$w2,$w16,0xfc
     280:	00011e04 	0x11e04
     284:	5f070100 	0x5f070100
     288:	94000000 	lhu	zero,0(zero)
     28c:	7bfc8080 	xori.b	$w2,$w16,0xfc
     290:	00014b0c 	syscall	0x52c
     294:	65090100 	0x65090100
     298:	02000000 	0x2000000
     29c:	69096891 	0x69096891
     2a0:	65090100 	0x65090100
     2a4:	02000000 	0x2000000
     2a8:	65096c91 	0x65096c91
     2ac:	0901006e 	j	40401b8 <__memory_size+0x40209b8>
     2b0:	00000065 	0x65
     2b4:	0c709102 	jal	1c24408 <__memory_size+0x1c04c08>
     2b8:	00000157 	0x157
     2bc:	00650901 	0x650901
     2c0:	91020000 	lbu	v0,0(t0)
     2c4:	00320d74 	teq	at,s2,0x35
     2c8:	0a010000 	j	8040000 <__memory_size+0x8020800>
     2cc:	0000005f 	0x5f
     2d0:	0000001e 	0x1e
     2d4:	0007c80e 	0x7c80e
     2d8:	00006a80 	sll	t5,zero,0xa
     2dc:	ca020000 	lwc2	$2,0(s0)
     2e0:	01000000 	0x1000000
     2e4:	0007d41d 	0x7d41d
     2e8:	0000c880 	sll	t9,zero,0x2
     2ec:	f69c0100 	sdc1	$f28,256(s4)
     2f0:	0b000001 	j	c000004 <__memory_size+0xbfe0804>
     2f4:	006c6176 	tne	v1,t4,0x185
     2f8:	00911d01 	0x911d01
     2fc:	00410000 	0x410000
     300:	30040000 	andi	a0,zero,0x0
     304:	01000001 	movf	zero,t0,$fcc0
     308:	00005f1e 	0x5f1e
     30c:	80809000 	lb	zero,-28672(a0)
     310:	1e047bfc 	0x1e047bfc
     314:	01000001 	movf	zero,t0,$fcc0
     318:	00005f1f 	0x5f1f
     31c:	80809400 	lb	zero,-27648(a0)
     320:	c1047bfc 	ll	a0,31740(t0)
     324:	01000000 	0x1000000
     328:	00005f20 	0x5f20
     32c:	80809800 	lb	zero,-26624(a0)
     330:	3a047bfc 	xori	a0,s0,0x7bfc
     334:	01000001 	movf	zero,t0,$fcc0
     338:	00005f21 	0x5f21
     33c:	80809c00 	lb	zero,-25600(a0)
     340:	dd047bfc 	ldc3	$4,31740(t0)
     344:	01000000 	0x1000000
     348:	00005f22 	0x5f22
     34c:	8080a000 	lb	zero,-24576(a0)
     350:	e6047bfc 	swc1	$f4,31740(s0)
     354:	01000000 	0x1000000
     358:	00005f23 	0x5f23
     35c:	8080a400 	lb	zero,-23552(a0)
     360:	1b047bfc 	0x1b047bfc
     364:	01000000 	0x1000000
     368:	00005f24 	0x5f24
     36c:	8080a800 	lb	zero,-22528(a0)
     370:	29047bfc 	slti	a0,t0,31740
     374:	01000000 	0x1000000
     378:	00005f25 	0x5f25
     37c:	8080ac00 	lb	zero,-21504(a0)
     380:	27047bfc 	addiu	a0,t8,31740
     384:	01000001 	movf	zero,t0,$fcc0
     388:	00005f26 	0x5f26
     38c:	8080b000 	lb	zero,-20480(a0)
     390:	440c7bfc 	0x440c7bfc
     394:	01000000 	0x1000000
     398:	00008c28 	0x8c28
     39c:	70910200 	0x70910200
     3a0:	0008900e 	0x8900e
     3a4:	00006a80 	sll	t5,zero,0xa
     3a8:	4d020000 	lwxc1	$f0,v0(t0)
     3ac:	01000000 	0x1000000
     3b0:	00089c42 	srl	s3,t0,0x11
     3b4:	00002080 	sll	a0,zero,0x2
     3b8:	419c0100 	0x419c0100
     3bc:	0f000002 	jal	c000008 <__memory_size+0xbfe0808>
     3c0:	00000024 	and	zero,zero,zero
     3c4:	00914201 	0x914201
     3c8:	00620000 	0x620000
     3cc:	6c0b0000 	0x6c0b0000
     3d0:	0100776f 	0x100776f
     3d4:	00009142 	srl	s2,zero,0x5
     3d8:	00008300 	sll	s0,zero,0xc
     3dc:	08b01000 	j	2c04000 <__memory_size+0x2be4800>
     3e0:	012a8000 	0x12a8000
     3e4:	01110000 	0x1110000
     3e8:	01f30954 	0x1f30954
     3ec:	f3244054 	0xf3244054
     3f0:	00225501 	0x225501
     3f4:	00b41200 	0xb41200
     3f8:	03010000 	0x3010000
     3fc:	00000058 	0x58
     400:	3fa80305 	0x3fa80305
     404:	45008000 	bc1f	fffe0408 <__flash_start+0x403e0408>
     408:	04000009 	bltz	zero,430 <__isr_vec_space+0x410>
     40c:	00014400 	sll	t0,at,0x10
     410:	61010400 	0x61010400
     414:	01000000 	0x1000000
     418:	00000273 	tltu	zero,zero,0x9
     41c:	000000ef 	0xef
     420:	800008bc 	lb	zero,2236(zero)
     424:	00000334 	teq	zero,zero,0xc
     428:	00000225 	0x225
     42c:	a2070402 	sb	a3,1026(s0)
     430:	02000001 	movf	zero,s0,$fcc0
     434:	01a70704 	0x1a70704
     438:	08020000 	j	80000 <__memory_size+0x60800>
     43c:	00019d07 	0x19d07
     440:	05040300 	0x5040300
     444:	00746e69 	0x746e69
     448:	1a060102 	0x1a060102
     44c:	04000003 	bltz	zero,45c <__isr_vec_space+0x43c>
     450:	00000183 	sra	zero,zero,0x6
     454:	00531c03 	0x531c03
     458:	01020000 	0x1020000
     45c:	00031808 	0x31808
     460:	05020200 	bltzl	t0,c64 <__isr_vec_space+0xc44>
     464:	00000326 	0x326
     468:	82070202 	lb	a3,514(s0)
     46c:	04000002 	bltz	zero,478 <__isr_vec_space+0x458>
     470:	0000033f 	0x33f
     474:	00733703 	0x733703
     478:	04020000 	bltzl	zero,47c <__isr_vec_space+0x45c>
     47c:	0001cb05 	0x1cb05
     480:	021b0400 	0x21b0400
     484:	38030000 	xori	v1,zero,0x0
     488:	00000025 	move	zero,zero
     48c:	c6050802 	lwc1	$f5,2050(s0)
     490:	04000001 	bltz	zero,498 <__isr_vec_space+0x478>
     494:	00000307 	0x307
     498:	00334e03 	0x334e03
     49c:	85040000 	lh	a0,0(t0)
     4a0:	04000001 	bltz	zero,4a8 <__isr_vec_space+0x488>
     4a4:	0000482a 	slt	t1,zero,zero
     4a8:	03410400 	0x3410400
     4ac:	41040000 	mftc0	zero,c0_context
     4b0:	00000068 	0x68
     4b4:	00021d04 	0x21d04
     4b8:	7a420400 	nori.b	$w16,$w0,0x42
     4bc:	04000000 	bltz	zero,4c0 <__isr_vec_space+0x4a0>
     4c0:	00000309 	0x309
     4c4:	008c4e04 	0x8c4e04
     4c8:	04020000 	bltzl	zero,4cc <__isr_vec_space+0x4ac>
     4cc:	0002e807 	srav	sp,v0,zero
     4d0:	00da0500 	0xda0500
     4d4:	00da0000 	0xda0000
     4d8:	c3060000 	ll	a2,0(t8)
     4dc:	0f000000 	jal	c000000 <__memory_size+0xbfe0800>
     4e0:	08010200 	j	40800 <__memory_size+0x21000>
     4e4:	00000321 	0x321
     4e8:	0a040802 	j	8102008 <__memory_size+0x80e2808>
     4ec:	02000002 	0x2000002
     4f0:	03120404 	0x3120404
     4f4:	72040000 	madd	s0,a0
     4f8:	05000001 	bltz	t0,500 <__isr_vec_space+0x4e0>
     4fc:	000025d4 	0x25d4
     500:	08040700 	j	101c00 <__memory_size+0xe2400>
     504:	00010204 	0x10204
     508:	00da0900 	0xda0900
     50c:	ca040000 	lwc2	$4,0(s0)
     510:	06000003 	bltz	s0,520 <__isr_vec_space+0x500>
     514:	00003ac1 	0x3ac1
     518:	029e0a00 	0x29e0a00
     51c:	07040000 	0x7040000
     520:	00012b1b 	0x12b1b
     524:	03300b00 	0x3300b00
     528:	0b000000 	j	c000000 <__memory_size+0xbfe0800>
     52c:	00000734 	teq	zero,zero,0x1c
     530:	9e040001 	0x9e040001
     534:	07000002 	bltz	t8,540 <__isr_vec_space+0x520>
     538:	0001121e 	0x1121e
     53c:	02f70400 	0x2f70400
     540:	2f070000 	sltiu	a3,t8,0
     544:	000000b8 	0xb8
     548:	0003620c 	syscall	0xd88
     54c:	37070800 	ori	a3,t8,0x800
     550:	00000166 	0x166
     554:	000bf20d 	break	0xb,0x3c8
     558:	66380700 	0x66380700
     55c:	00000001 	movf	zero,zero,$fcc0
     560:	00018d0d 	break	0x1,0x234
     564:	66390700 	0x66390700
     568:	04000001 	bltz	zero,570 <__isr_vec_space+0x550>
     56c:	41040800 	mftc0	at,c0_context
     570:	0c000001 	jal	4 <ABIFlags_gpr_size>
     574:	0000036c 	0x36c
     578:	fd07082c 	sdc3	$7,2092(t0)
     57c:	0d000001 	jal	4000004 <__memory_size+0x3fe0804>
     580:	000001f2 	tlt	zero,zero,0x7
     584:	00ad0908 	0xad0908
     588:	0d000000 	jal	4000000 <__memory_size+0x3fe0800>
     58c:	000001f8 	0x1f8
     590:	00ad0a08 	0xad0a08
     594:	0d040000 	jal	4100000 <__memory_size+0x40e0800>
     598:	000001fe 	0x1fe
     59c:	00ad0a08 	0xad0a08
     5a0:	0d080000 	jal	4200000 <__memory_size+0x41e0800>
     5a4:	00000204 	0x204
     5a8:	00ad0a08 	0xad0a08
     5ac:	0d0c0000 	jal	4300000 <__memory_size+0x42e0800>
     5b0:	00000239 	0x239
     5b4:	00ad0a08 	0xad0a08
     5b8:	0d100000 	jal	4400000 <__memory_size+0x43e0800>
     5bc:	0000023f 	0x23f
     5c0:	00ad0a08 	0xad0a08
     5c4:	0d140000 	jal	4500000 <__memory_size+0x44e0800>
     5c8:	00000245 	0x245
     5cc:	00ad0a08 	0xad0a08
     5d0:	0d180000 	jal	4600000 <__memory_size+0x45e0800>
     5d4:	0000024b 	0x24b
     5d8:	00ad0a08 	0xad0a08
     5dc:	0d1c0000 	jal	4700000 <__memory_size+0x46e0800>
     5e0:	0000025a 	0x25a
     5e4:	00ad0b08 	0xad0b08
     5e8:	0d200000 	jal	4800000 <__memory_size+0x47e0800>
     5ec:	000002cd 	break	0x0,0xb
     5f0:	00ad0b08 	0xad0b08
     5f4:	0d240000 	jal	4900000 <__memory_size+0x48e0800>
     5f8:	000002d3 	0x2d3
     5fc:	00ad0b08 	0xad0b08
     600:	00280000 	0x280000
     604:	0003a00c 	syscall	0xe80
     608:	1a086800 	0x1a086800
     60c:	00000299 	0x299
     610:	6469700e 	0x6469700e
     614:	071c0800 	0x71c0800
     618:	00000001 	movf	zero,zero,$fcc0
     61c:	0002950d 	break	0x2,0x254
     620:	a21e0800 	sb	s8,2048(s0)
     624:	04000000 	bltz	zero,628 <__isr_vec_space+0x608>
     628:	0009b50d 	break	0x9,0x2d4
     62c:	a21f0800 	sb	ra,2048(s0)
     630:	08000000 	j	0 <hardware_exit_hook>
     634:	00037d0d 	break	0x3,0x1f4
     638:	ca200800 	lwc2	$0,2048(s1)
     63c:	0c000000 	jal	0 <hardware_exit_hook>
     640:	00034f0d 	break	0x3,0x13c
     644:	ad210800 	sw	at,2048(t1)
     648:	1c000000 	bgtz	zero,64c <__isr_vec_space+0x62c>
     64c:	0002a30d 	break	0x2,0x28c
     650:	99220800 	lwr	v0,2048(t1)
     654:	20000002 	addi	zero,zero,2
     658:	0001e00d 	break	0x1,0x380
     65c:	9e230800 	0x9e230800
     660:	24000002 	li	zero,2
     664:	00036c0d 	break	0x3,0x1b0
     668:	6c240800 	0x6c240800
     66c:	28000001 	slti	zero,zero,1
     670:	0002fd0d 	break	0x2,0x3f4
     674:	41260800 	0x41260800
     678:	54000001 	bnezl	zero,680 <__isr_vec_space+0x660>
     67c:	0073660e 	0x73660e
     680:	02a92708 	0x2a92708
     684:	0d5c0000 	jal	5700000 <__memory_size+0x56e0800>
     688:	000003d0 	0x3d0
     68c:	02b42808 	0x2b42808
     690:	0d600000 	jal	5800000 <__memory_size+0x57e0800>
     694:	000002c3 	sra	zero,zero,0xb
     698:	02bf2908 	0x2bf2908
     69c:	00640000 	0x640000
     6a0:	00012b0f 	0x12b0f
     6a4:	fd040800 	sdc3	$4,2048(t0)
     6a8:	10000001 	b	6b0 <__isr_vec_space+0x690>
     6ac:	000002b0 	tge	zero,zero,0xa
     6b0:	02a40408 	0x2a40408
     6b4:	93100000 	lbu	s0,0(t8)
     6b8:	08000003 	j	c <ABIFlags_ases>
     6bc:	0002af04 	0x2af04
     6c0:	02c31000 	0x2c31000
     6c4:	04080000 	tgei	zero,0
     6c8:	000002ba 	0x2ba
     6cc:	0001e711 	0x1e711
     6d0:	031e0200 	0x31e0200
     6d4:	000002f3 	tltu	zero,zero,0xb
     6d8:	0001b412 	0x1b412
     6dc:	661e0200 	0x661e0200
     6e0:	12000001 	beqz	s0,6e8 <__isr_vec_space+0x6c8>
     6e4:	0000018d 	break	0x0,0x6
     6e8:	01661f02 	0x1661f02
     6ec:	f2120000 	0xf2120000
     6f0:	0200000b 	movn	zero,s0,zero
     6f4:	0001661f 	0x1661f
     6f8:	e9110000 	swc2	$17,0(t0)
     6fc:	02000001 	movf	zero,s0,$fcc0
     700:	03160327 	0x3160327
     704:	b4120000 	0xb4120000
     708:	02000001 	movf	zero,s0,$fcc0
     70c:	00016627 	0x16627
     710:	03671200 	0x3671200
     714:	27020000 	addiu	v0,t8,0
     718:	00000166 	0x166
     71c:	035d1100 	0x35d1100
     720:	19020000 	0x19020000
     724:	00032e03 	sra	a1,v1,0x18
     728:	02161200 	0x2161200
     72c:	19020000 	0x19020000
     730:	00000166 	0x166
     734:	03ac1300 	0x3ac1300
     738:	57010000 	bnel	t8,at,73c <__isr_vec_space+0x71c>
     73c:	800008bc 	lb	zero,2236(zero)
     740:	00000020 	add	zero,zero,zero
     744:	03669c01 	0x3669c01
     748:	61140000 	0x61140000
     74c:	01006772 	tlt	t0,zero,0x19d
     750:	0000fa57 	0xfa57
     754:	0000a400 	sll	s4,zero,0x10
     758:	08d01500 	j	3405400 <__memory_size+0x33e5c00>
     75c:	08988000 	j	2620000 <__memory_size+0x2600800>
     760:	01160000 	0x1160000
     764:	550c0554 	bnel	t0,t4,1cb8 <__isr_vec_space+0x1c98>
     768:	00555555 	0x555555
     76c:	01921700 	0x1921700
     770:	13010000 	beq	t8,at,774 <__isr_vec_space+0x754>
     774:	0000029e 	0x29e
     778:	800008dc 	lb	zero,2268(zero)
     77c:	00000064 	0x64
     780:	03f29c01 	0x3f29c01
     784:	70140000 	madd	zero,s4
     788:	01006469 	0x1006469
     78c:	00010713 	0x10713
     790:	0000c500 	sll	t8,zero,0x14
     794:	01981800 	0x1981800
     798:	14010000 	bne	zero,at,79c <__isr_vec_space+0x77c>
     79c:	0000029e 	0x29e
     7a0:	000000e6 	0xe6
     7a4:	0008f019 	0x8f019
     7a8:	0008a980 	sll	s5,t0,0x6
     7ac:	0003b800 	sll	s7,v1,0x0
     7b0:	55011600 	bnel	t0,at,5fb4 <__isr_vec_space+0x5f94>
     7b4:	16680802 	bne	s3,t0,27c0 <__isr_vec_space+0x27a0>
     7b8:	f3035401 	0xf3035401
     7bc:	19005401 	blez	t0,157c4 <__isr_vec_space+0x157a4>
     7c0:	8000091c 	lb	zero,2332(zero)
     7c4:	000008c3 	sra	at,zero,0x3
     7c8:	000003d7 	0x3d7
     7cc:	02560116 	0x2560116
     7d0:	01162c08 	0x1162c08
     7d4:	16300155 	bne	s1,s0,d2c <__isr_vec_space+0xd0c>
     7d8:	80025401 	lb	v0,21505(zero)
     7dc:	2c150028 	sltiu	s5,zero,40
     7e0:	c3800009 	ll	zero,9(gp)
     7e4:	16000008 	bnez	s0,808 <__isr_vec_space+0x7e8>
     7e8:	3f015601 	0x3f015601
     7ec:	01550116 	0x1550116
     7f0:	54011630 	bnel	zero,at,60b4 <__isr_vec_space+0x6094>
     7f4:	000c8002 	srl	s0,t4,0x0
     7f8:	03741a00 	0x3741a00
     7fc:	2a010000 	slti	at,s0,0
     800:	000000fa 	0xfa
     804:	80000940 	lb	zero,2368(zero)
     808:	0000004c 	syscall	0x1
     80c:	04639c01 	bgezl	v1,fffe7814 <__flash_start+0x403e7814>
     810:	981b0000 	lwr	k1,0(zero)
     814:	01000001 	movf	zero,t0,$fcc0
     818:	00029e2a 	0x29e2a
     81c:	00010f00 	sll	at,at,0x1c
     820:	037d1b00 	0x37d1b00
     824:	2a010000 	slti	at,s0,0
     828:	000000fc 	0xfc
     82c:	0000014a 	0x14a
     830:	00096819 	0x96819
     834:	0008c380 	sll	t8,t0,0xe
     838:	00044700 	sll	t0,a0,0x1c
     83c:	56011600 	bnel	s0,at,6040 <__isr_vec_space+0x6020>
     840:	01164001 	0x1164001
     844:	16300155 	bne	s1,s0,d9c <__isr_vec_space+0xd7c>
     848:	80025401 	lb	v0,21505(zero)
     84c:	78150000 	andi.b	$w0,$w0,0x15
     850:	de800009 	ldc3	$0,9(s4)
     854:	16000008 	bnez	s0,878 <__isr_vec_space+0x858>
     858:	3f015601 	0x3f015601
     85c:	02550116 	0x2550116
     860:	01160081 	0x1160081
     864:	00800254 	0x800254
     868:	661c0000 	0x661c0000
     86c:	01000001 	movf	zero,t0,$fcc0
     870:	047b0131 	0x47b0131
     874:	98120000 	lwr	s2,0(zero)
     878:	01000001 	movf	zero,t0,$fcc0
     87c:	00029e31 	tgeu	zero,v0,0x278
     880:	631d0000 	0x631d0000
     884:	8c000004 	lw	zero,4(zero)
     888:	08800009 	j	2000024 <__memory_size+0x1fe0824>
     88c:	01000000 	0x1000000
     890:	0004969c 	0x4969c
     894:	046f1e00 	0x46f1e00
     898:	54010000 	bnel	zero,at,89c <__isr_vec_space+0x87c>
     89c:	03361f00 	0x3361f00
     8a0:	3e010000 	0x3e010000
     8a4:	80000994 	lb	zero,2452(zero)
     8a8:	0000006c 	0x6c
     8ac:	057e9c01 	0x57e9c01
     8b0:	981b0000 	lwr	k1,0(zero)
     8b4:	01000001 	movf	zero,t0,$fcc0
     8b8:	00029e3e 	0x29e3e
     8bc:	00017600 	sll	t6,at,0x18
     8c0:	09b02000 	j	6c08000 <__memory_size+0x6be8800>
     8c4:	003c8000 	0x3c8000
     8c8:	79210000 	ori.b	$w0,$w0,0x21
     8cc:	01000001 	movf	zero,t0,$fcc0
     8d0:	00012b41 	0x12b41
     8d4:	018d1800 	0x18d1800
     8d8:	42010000 	c0	0x10000
     8dc:	0000029e 	0x29e
     8e0:	000001a2 	0x1a2
     8e4:	000bf218 	0xbf218
     8e8:	9e420100 	0x9e420100
     8ec:	b5000002 	0xb5000002
     8f0:	22000001 	addi	zero,s0,1
     8f4:	00000463 	0x463
     8f8:	800009b0 	lb	zero,2480(zero)
     8fc:	00000004 	sllv	zero,zero,zero
     900:	05094301 	tgeiu	t0,17153
     904:	6f230000 	0x6f230000
     908:	b5000004 	0xb5000004
     90c:	00000001 	movf	zero,zero,$fcc0
     910:	00046322 	0x46322
     914:	0009e800 	sll	sp,t1,0x0
     918:	00000480 	sll	zero,zero,0x12
     91c:	264c0100 	addiu	t4,s2,256
     920:	23000005 	addi	zero,t8,5
     924:	0000046f 	0x46f
     928:	000001d3 	0x1d3
     92c:	09bc2400 	j	6f09000 <__memory_size+0x6ee9800>
     930:	08988000 	j	2620000 <__memory_size+0x2600800>
     934:	c8190000 	lwc2	$25,0(zero)
     938:	98800009 	lwr	zero,9(a0)
     93c:	46000008 	round.l.s	$f0,$f0
     940:	16000005 	bnez	s0,958 <__isr_vec_space+0x938>
     944:	0c055401 	jal	155004 <__memory_size+0x135804>
     948:	14766666 	bne	v1,s6,1a2e4 <__isr_vec_space+0x1a2c4>
     94c:	09d02400 	j	7409000 <__memory_size+0x73e9800>
     950:	08988000 	j	2620000 <__memory_size+0x2600800>
     954:	dc190000 	ldc3	$25,0(zero)
     958:	0a800009 	j	a000024 <__memory_size+0x9fe0824>
     95c:	69000009 	0x69000009
     960:	16000005 	bnez	s0,978 <__isr_vec_space+0x958>
     964:	80025501 	lb	v0,21761(zero)
     968:	54011628 	bnel	zero,at,620c <__isr_vec_space+0x61ec>
     96c:	00288102 	ror	s0,t0,0x4
     970:	0009e815 	0x9e815
     974:	00089880 	sll	s3,t0,0x2
     978:	54011600 	bnel	zero,at,617c <__isr_vec_space+0x615c>
     97c:	66660c05 	0x66660c05
     980:	00000756 	0x756
     984:	03492500 	0x3492500
     988:	52010000 	beql	s0,at,98c <__isr_vec_space+0x96c>
     98c:	0000003a 	0x3a
     990:	00059a01 	0x59a01
     994:	01981200 	0x1981200
     998:	52010000 	beql	s0,at,99c <__isr_vec_space+0x97c>
     99c:	0000029e 	0x29e
     9a0:	01d41a00 	0x1d41a00
     9a4:	68010000 	0x68010000
     9a8:	00000107 	0x107
     9ac:	80000a00 	lb	zero,2560(zero)
     9b0:	000000d4 	0xd4
     9b4:	06c19c01 	bgez	s6,fffe79bc <__flash_start+0x403e79bc>
     9b8:	66140000 	0x66140000
     9bc:	6801006e 	0x6801006e
     9c0:	000006cc 	syscall	0x1b
     9c4:	000001e6 	0x1e6
     9c8:	67726114 	0x67726114
     9cc:	fa680100 	sdc2	$8,256(s3)
     9d0:	12000000 	beqz	s0,9d4 <__isr_vec_space+0x9b4>
     9d4:	1b000002 	blez	t8,9e0 <__isr_vec_space+0x9c0>
     9d8:	00000295 	0x295
     9dc:	00ad6801 	movt	t5,a1,$fcc3
     9e0:	02330000 	0x2330000
     9e4:	98180000 	lwr	t8,0(zero)
     9e8:	01000001 	movf	zero,t0,$fcc0
     9ec:	00029e6a 	0x29e6a
     9f0:	00025f00 	sll	t3,v0,0x1c
     9f4:	65722600 	0x65722600
     9f8:	6b010074 	0x6b010074
     9fc:	00000107 	0x107
     a00:	0000027d 	0x27d
     a04:	00022618 	0x22618
     a08:	076d0100 	0x76d0100
     a0c:	9b000001 	lwr	zero,1(t8)
     a10:	27000002 	addiu	zero,t8,2
     a14:	00000251 	0x251
     a18:	0ab08a01 	j	ac22804 <__memory_size+0xac03004>
     a1c:	7e228000 	ext	v0,s1,0x0,0x11
     a20:	60000005 	0x60000005
     a24:	1080000a 	beqz	a0,a50 <__isr_vec_space+0xa30>
     a28:	01000000 	0x1000000
     a2c:	00064b7c 	0x64b7c
     a30:	058e2300 	tnei	t4,8960
     a34:	02ae0000 	0x2ae0000
     a38:	6c150000 	0x6c150000
     a3c:	a980000a 	swl	zero,10(t4)
     a40:	16000008 	bnez	s0,a64 <__isr_vec_space+0xa44>
     a44:	0a035501 	j	80d5404 <__memory_size+0x80b5c04>
     a48:	01161000 	0x1161000
     a4c:	00810254 	0x810254
     a50:	f3220000 	0xf3220000
     a54:	80000002 	lb	zero,2(zero)
     a58:	1880000a 	blez	a0,a84 <__isr_vec_space+0xa64>
     a5c:	01000000 	0x1000000
     a60:	00069c82 	srl	s3,a2,0x12
     a64:	030a2300 	0x30a2300
     a68:	02c10000 	0x2c10000
     a6c:	ff230000 	sdc3	$3,0(t9)
     a70:	d9000002 	ldc2	$0,2(t0)
     a74:	28000002 	slti	zero,zero,2
     a78:	000002c5 	0x2c5
     a7c:	80000a88 	lb	zero,2696(zero)
     a80:	00000010 	mfhi	zero
     a84:	e7232902 	swc1	$f3,10498(t9)
     a88:	fa000002 	sdc2	$0,2(s0)
     a8c:	23000002 	addi	zero,t8,2
     a90:	000002dc 	0x2dc
     a94:	00000319 	0x319
     a98:	0002d123 	0x2d123
     a9c:	00033100 	sll	a2,v1,0x4
     aa0:	19000000 	blez	t0,aa4 <__isr_vec_space+0xa84>
     aa4:	80000a48 	lb	zero,2632(zero)
     aa8:	00000366 	0x366
     aac:	000006b0 	tge	zero,zero,0x1a
     ab0:	02540116 	0x2540116
     ab4:	15000081 	bnez	t0,cbc <__isr_vec_space+0xc9c>
     ab8:	80000aac 	lb	zero,2732(zero)
     abc:	0000092a 	0x92a
     ac0:	02540116 	0x2540116
     ac4:	00000080 	sll	zero,zero,0x2
     ac8:	0006cc29 	0x6cc29
     acc:	00fa2a00 	0xfa2a00
     ad0:	08000000 	j	0 <hardware_exit_hook>
     ad4:	0006c104 	0x6c104
     ad8:	02601f00 	0x2601f00
     adc:	8f010000 	lw	at,0(t8)
     ae0:	80000ad4 	lb	zero,2772(zero)
     ae4:	000000cc 	syscall	0x3
     ae8:	07c19c01 	bgez	s8,fffe7af0 <__flash_start+0x403e7af0>
     aec:	ba180000 	swr	t8,0(s0)
     af0:	01000002 	0x1000002
     af4:	00010794 	0x10794
     af8:	00035200 	sll	t2,v1,0x8
     afc:	69702b00 	0x69702b00
     b00:	a4010064 	sh	at,100(zero)
     b04:	00000107 	0x107
     b08:	00031622 	0x31622
     b0c:	000ae000 	sll	gp,t2,0x0
     b10:	00000c80 	sll	at,zero,0x12
     b14:	21920100 	addi	s2,t4,256
     b18:	1e000007 	bgtz	s0,b38 <__isr_vec_space+0xb18>
     b1c:	00000322 	0x322
     b20:	3fc80306 	0x3fc80306
     b24:	009f8000 	0x9f8000
     b28:	000b0019 	multu	zero,t3
     b2c:	00036680 	sll	t4,v1,0x1a
     b30:	00073500 	sll	a2,a3,0x14
     b34:	54011600 	bnel	zero,at,6338 <__isr_vec_space+0x6318>
     b38:	00008002 	srl	s0,zero,0x0
     b3c:	000b2819 	0xb2819
     b40:	00089880 	sll	s3,t0,0x2
     b44:	00074d00 	sll	t1,a3,0x14
     b48:	54011600 	bnel	zero,at,634c <__isr_vec_space+0x632c>
     b4c:	b3991106 	0xb3991106
     b50:	0079cce6 	0x79cce6
     b54:	000b3024 	and	a2,zero,t3
     b58:	00089880 	sll	s3,t0,0x2
     b5c:	0b401900 	j	d006400 <__memory_size+0xcfe6c00>
     b60:	03f28000 	0x3f28000
     b64:	076d0000 	0x76d0000
     b68:	01160000 	0x1160000
     b6c:	9c030555 	0x9c030555
     b70:	00800036 	tne	a0,zero
     b74:	000b5824 	and	t3,zero,t3
     b78:	00089880 	sll	s3,t0,0x2
     b7c:	0b641900 	j	d906400 <__memory_size+0xd8e6c00>
     b80:	08988000 	j	2620000 <__memory_size+0x2600800>
     b84:	078d0000 	0x78d0000
     b88:	01160000 	0x1160000
     b8c:	660c0554 	0x660c0554
     b90:	00142666 	0x142666
     b94:	000b7819 	0xb7819
     b98:	00059a80 	sll	s3,a1,0xa
     b9c:	0007ae00 	sll	s5,a3,0x18
     ba0:	56011600 	bnel	s0,at,63a4 <__isr_vec_space+0x6384>
     ba4:	01163101 	0x1163101
     ba8:	16300155 	bne	s1,s0,1100 <__isr_vec_space+0x10e0>
     bac:	03055401 	0x3055401
     bb0:	800008bc 	lb	zero,2236(zero)
     bb4:	0b802400 	j	e009000 <__memory_size+0xdfe9800>
     bb8:	08988000 	j	2620000 <__memory_size+0x2600800>
     bbc:	90240000 	lbu	a0,0(at)
     bc0:	9880000b 	lwr	zero,11(a0)
     bc4:	00000008 	jr	zero
     bc8:	0001bd1f 	0x1bd1f
     bcc:	a0af0100 	sb	t7,256(a1)
     bd0:	5080000b 	beqzl	a0,c00 <__isr_vec_space+0xbe0>
     bd4:	01000000 	0x1000000
     bd8:	00081f9c 	0x81f9c
     bdc:	00002c00 	sll	a1,zero,0x10
     be0:	080e0000 	j	380000 <__memory_size+0x360800>
     be4:	6a2d0000 	0x6a2d0000
     be8:	01000002 	0x1000002
     bec:	00003ab4 	teq	zero,zero,0xea
     bf0:	0007f000 	sll	s8,a3,0x0
     bf4:	19002e00 	blez	t0,c3f8 <__isr_vec_space+0xc3d8>
     bf8:	80000bd8 	lb	zero,3032(zero)
     bfc:	00000898 	0x898
     c00:	00000804 	sllv	at,zero,zero
     c04:	02540116 	0x2540116
     c08:	24000081 	li	zero,129
     c0c:	80000be0 	lb	zero,3040(zero)
     c10:	0000093b 	0x93b
     c14:	0be81500 	j	fa05400 <__memory_size+0xf9e5c00>
     c18:	08988000 	j	2620000 <__memory_size+0x2600800>
     c1c:	01160000 	0x1160000
     c20:	00800254 	0x800254
     c24:	2e2f0000 	sltiu	t7,s1,0
     c28:	01000002 	0x1000002
     c2c:	00003a0e 	0x3a0e
     c30:	b8030500 	swr	v1,1280(zero)
     c34:	3080003f 	andi	zero,a0,0x3f
     c38:	000002f1 	tgeu	zero,zero,0xb
     c3c:	08411209 	j	1044824 <__memory_size+0x1025024>
     c40:	03050000 	0x3050000
     c44:	80003fc4 	lb	zero,16324(zero)
     c48:	01360408 	0x1360408
     c4c:	d9300000 	ldc2	$16,0(t1)
     c50:	08000002 	j	8 <ABIFlags_isa_ext>
     c54:	00029e0f 	0x29e0f
     c58:	306c0100 	andi	t4,v1,0x100
     c5c:	00000211 	0x211
     c60:	01410901 	0x1410901
     c64:	03050000 	0x3050000
     c68:	80003fc8 	lb	zero,16328(zero)
     c6c:	00015d30 	tge	zero,at,0x174
     c70:	9e0b0100 	0x9e0b0100
     c74:	05000002 	bltz	t0,c80 <__isr_vec_space+0xc60>
     c78:	003fb403 	0x3fb403
     c7c:	016a3080 	0x16a3080
     c80:	0c010000 	jal	40000 <__memory_size+0x20800>
     c84:	0000029e 	0x29e
     c88:	3fb00305 	0x3fb00305
     c8c:	74318000 	jalx	c60000 <__memory_size+0xc40800>
     c90:	01006f6e 	0x1006f6e
     c94:	00003a10 	0x3a10
     c98:	ac030500 	sw	v1,1280(zero)
     c9c:	3280003f 	andi	zero,s4,0x3f
     ca0:	000000ca 	0xca
     ca4:	08a90e0a 	j	2a43828 <__memory_size+0x2a24028>
     ca8:	2c2a0000 	sltiu	t2,at,0
     cac:	00000000 	nop
     cb0:	0003c233 	tltu	zero,v1,0x308
     cb4:	fa160c00 	sdc2	$22,3072(s0)
     cb8:	c3000000 	ll	zero,0(t8)
     cbc:	2a000008 	slti	zero,s0,8
     cc0:	00000107 	0x107
     cc4:	0000ef2a 	0xef2a
     cc8:	8c320000 	lw	s2,0(at)
     ccc:	0b000003 	j	c00000c <__memory_size+0xbfe080c>
     cd0:	0008de08 	0x8de08
     cd4:	00fa2a00 	0xfa2a00
     cd8:	972a0000 	lhu	t2,0(t9)
     cdc:	2a000000 	slti	zero,s0,0
     ce0:	000000ad 	0xad
     ce4:	03563200 	0x3563200
     ce8:	060b0000 	tltiu	s0,0
     cec:	000008f9 	0x8f9
     cf0:	0008f92a 	0x8f92a
     cf4:	08ff2a00 	j	3fca800 <__memory_size+0x3fab000>
     cf8:	ad2a0000 	sw	t2,0(t1)
     cfc:	00000000 	nop
     d00:	00970408 	0x970408
     d04:	04080000 	tgei	zero,0
     d08:	00000905 	0x905
     d0c:	00009709 	0x9709
     d10:	03823300 	0x3823300
     d14:	12080000 	beq	s0,t0,d18 <__isr_vec_space+0xcf8>
     d18:	000000fa 	0xfa
     d1c:	00000924 	0x924
     d20:	0009242a 	0x9242a
     d24:	09242a00 	j	490a800 <__memory_size+0x48eb000>
     d28:	08000000 	j	0 <hardware_exit_hook>
     d2c:	00016c04 	0x16c04
     d30:	03b63200 	0x3b63200
     d34:	0f010000 	jal	c040000 <__memory_size+0xc020800>
     d38:	0000093b 	0x93b
     d3c:	00029e2a 	0x29e2a
     d40:	6a340000 	0x6a340000
     d44:	01000002 	0x1000002
     d48:	00003ab4 	teq	zero,zero,0xea
     d4c:	00002e00 	sll	a1,zero,0x18
     d50:	00000381 	0x381
     d54:	041f0004 	synci	4(zero)
     d58:	01040000 	0x1040000
     d5c:	00000061 	0x61
     d60:	0003d601 	0x3d601
     d64:	0000ef00 	sll	sp,zero,0x1c
     d68:	000bf000 	sll	s8,t3,0x0
     d6c:	0000c080 	sll	t8,zero,0x2
     d70:	0004dc00 	sll	k1,a0,0x10
     d74:	07040200 	0x7040200
     d78:	000001a2 	0x1a2
     d7c:	a7070402 	sh	a3,1026(t8)
     d80:	02000001 	movf	zero,s0,$fcc0
     d84:	019d0708 	0x19d0708
     d88:	04030000 	bgezl	zero,d8c <__isr_vec_space+0xd6c>
     d8c:	746e6905 	jalx	1b9a414 <__memory_size+0x1b7ac14>
     d90:	06010200 	bgez	s0,1594 <__isr_vec_space+0x1574>
     d94:	0000031a 	0x31a
     d98:	18080102 	0x18080102
     d9c:	02000003 	0x2000003
     da0:	03260502 	0x3260502
     da4:	02020000 	0x2020000
     da8:	00028207 	0x28207
     dac:	033f0400 	0x33f0400
     db0:	37020000 	ori	v0,t8,0x0
     db4:	00000068 	0x68
     db8:	cb050402 	lwc2	$5,1026(t8)
     dbc:	04000001 	bltz	zero,dc4 <__isr_vec_space+0xda4>
     dc0:	0000021b 	0x21b
     dc4:	00253802 	ror	a3,a1,0x0
     dc8:	08020000 	j	80000 <__memory_size+0x60800>
     dcc:	0001c605 	0x1c605
     dd0:	03410400 	0x3410400
     dd4:	41030000 	mftc0	zero,c0_entrylo1
     dd8:	0000005d 	0x5d
     ddc:	00021d04 	0x21d04
     de0:	6f420300 	0x6f420300
     de4:	02000000 	0x2000000
     de8:	02e80704 	0x2e80704
     dec:	ae050000 	sw	a1,0(s0)
     df0:	ae000000 	sw	zero,0(s0)
     df4:	06000000 	bltz	s0,df8 <__isr_vec_space+0xdd8>
     df8:	00000097 	0x97
     dfc:	0102000f 	0x102000f
     e00:	00032108 	0x32108
     e04:	04080200 	tgei	zero,512
     e08:	0000020a 	0x20a
     e0c:	12040402 	beq	s0,a0,1e18 <__isr_vec_space+0x1df8>
     e10:	04000003 	bltz	zero,e20 <__isr_vec_space+0xe00>
     e14:	000003ca 	0x3ca
     e18:	003ac104 	0x3ac104
     e1c:	9e070000 	0x9e070000
     e20:	04000002 	bltz	zero,e2c <__isr_vec_space+0xe0c>
     e24:	00e71b05 	0xe71b05
     e28:	30080000 	andi	t0,zero,0x0
     e2c:	00000003 	sra	zero,zero,0x0
     e30:	00073408 	0x73408
     e34:	04000100 	bltz	zero,1238 <__isr_vec_space+0x1218>
     e38:	0000029e 	0x29e
     e3c:	00ce1e05 	0xce1e05
     e40:	62090000 	0x62090000
     e44:	08000003 	j	c <ABIFlags_ases>
     e48:	01173705 	0x1173705
     e4c:	f20a0000 	0xf20a0000
     e50:	0500000b 	bltz	t0,e80 <__isr_vec_space+0xe60>
     e54:	00011738 	0x11738
     e58:	8d0a0000 	lw	t2,0(t0)
     e5c:	05000001 	bltz	t0,e64 <__isr_vec_space+0xe44>
     e60:	00011739 	0x11739
     e64:	0b000400 	j	c001000 <__memory_size+0xbfe1800>
     e68:	0000f204 	0xf204
     e6c:	036c0900 	0x36c0900
     e70:	062c0000 	teqi	s1,0
     e74:	0001ae07 	0x1ae07
     e78:	01f20a00 	0x1f20a00
     e7c:	09060000 	j	4180000 <__memory_size+0x4160800>
     e80:	0000008c 	syscall	0x2
     e84:	01f80a00 	0x1f80a00
     e88:	0a060000 	j	8180000 <__memory_size+0x8160800>
     e8c:	0000008c 	syscall	0x2
     e90:	01fe0a04 	0x1fe0a04
     e94:	0a060000 	j	8180000 <__memory_size+0x8160800>
     e98:	0000008c 	syscall	0x2
     e9c:	02040a08 	0x2040a08
     ea0:	0a060000 	j	8180000 <__memory_size+0x8160800>
     ea4:	0000008c 	syscall	0x2
     ea8:	02390a0c 	syscall	0x8e428
     eac:	0a060000 	j	8180000 <__memory_size+0x8160800>
     eb0:	0000008c 	syscall	0x2
     eb4:	023f0a10 	0x23f0a10
     eb8:	0a060000 	j	8180000 <__memory_size+0x8160800>
     ebc:	0000008c 	syscall	0x2
     ec0:	02450a14 	0x2450a14
     ec4:	0a060000 	j	8180000 <__memory_size+0x8160800>
     ec8:	0000008c 	syscall	0x2
     ecc:	024b0a18 	0x24b0a18
     ed0:	0a060000 	j	8180000 <__memory_size+0x8160800>
     ed4:	0000008c 	syscall	0x2
     ed8:	025a0a1c 	0x25a0a1c
     edc:	0b060000 	j	c180000 <__memory_size+0xc160800>
     ee0:	0000008c 	syscall	0x2
     ee4:	02cd0a20 	0x2cd0a20
     ee8:	0b060000 	j	c180000 <__memory_size+0xc160800>
     eec:	0000008c 	syscall	0x2
     ef0:	02d30a24 	0x2d30a24
     ef4:	0b060000 	j	c180000 <__memory_size+0xc160800>
     ef8:	0000008c 	syscall	0x2
     efc:	a0090028 	sb	t1,40(zero)
     f00:	68000003 	0x68000003
     f04:	024a1a06 	0x24a1a06
     f08:	700c0000 	madd	zero,t4
     f0c:	06006469 	bltz	s0,1a0b4 <__isr_vec_space+0x1a094>
     f10:	0000c31c 	0xc31c
     f14:	950a0000 	lhu	t2,0(t0)
     f18:	06000002 	bltz	s0,f24 <__isr_vec_space+0xf04>
     f1c:	0000811e 	0x811e
     f20:	b50a0400 	0xb50a0400
     f24:	06000009 	bltz	s0,f4c <__isr_vec_space+0xf2c>
     f28:	0000811f 	0x811f
     f2c:	7d0a0800 	ext	t2,t0,0x0,0x2
     f30:	06000003 	bltz	s0,f40 <__isr_vec_space+0xf20>
     f34:	00009e20 	0x9e20
     f38:	4f0a0c00 	c3	0x10a0c00
     f3c:	06000003 	bltz	s0,f4c <__isr_vec_space+0xf2c>
     f40:	00008c21 	0x8c21
     f44:	a30a1c00 	sb	t2,7168(t8)
     f48:	06000002 	bltz	s0,f54 <__isr_vec_space+0xf34>
     f4c:	00024a22 	0x24a22
     f50:	e00a2000 	sc	t2,8192(zero)
     f54:	06000001 	bltz	s0,f5c <__isr_vec_space+0xf3c>
     f58:	00024f23 	0x24f23
     f5c:	6c0a2400 	0x6c0a2400
     f60:	06000003 	bltz	s0,f70 <__isr_vec_space+0xf50>
     f64:	00011d24 	0x11d24
     f68:	fd0a2800 	sdc3	$10,10240(t0)
     f6c:	06000002 	bltz	s0,f78 <__isr_vec_space+0xf58>
     f70:	0000f226 	0xf226
     f74:	660c5400 	0x660c5400
     f78:	27060073 	addiu	a2,t8,115
     f7c:	0000025a 	0x25a
     f80:	03d00a5c 	0x3d00a5c
     f84:	28060000 	slti	a2,zero,0
     f88:	00000265 	0x265
     f8c:	02c30a60 	0x2c30a60
     f90:	29060000 	slti	a2,t0,0
     f94:	00000270 	tge	zero,zero,0x9
     f98:	e70d0064 	swc1	$f13,100(t8)
     f9c:	0b000000 	j	c000000 <__memory_size+0xbfe0800>
     fa0:	0001ae04 	0x1ae04
     fa4:	02b00e00 	0x2b00e00
     fa8:	040b0000 	tltiu	zero,0
     fac:	00000255 	0x255
     fb0:	0003930e 	0x3930e
     fb4:	60040b00 	0x60040b00
     fb8:	0e000002 	jal	8000008 <__memory_size+0x7fe0808>
     fbc:	000002c3 	sra	zero,zero,0xb
     fc0:	026b040b 	0x26b040b
     fc4:	b60f0000 	0xb60f0000
     fc8:	01000003 	0x1000003
     fcc:	000bf006 	srlv	s8,t3,zero
     fd0:	00001480 	sll	v0,zero,0x12
     fd4:	999c0100 	lwr	gp,256(t4)
     fd8:	10000002 	b	fe4 <__isr_vec_space+0xfc4>
     fdc:	00000198 	0x198
     fe0:	024f0601 	0x24f0601
     fe4:	54010000 	bnel	zero,at,fe8 <__isr_vec_space+0xfc8>
     fe8:	026a0f00 	0x26a0f00
     fec:	10010000 	beq	zero,at,ff0 <__isr_vec_space+0xfd0>
     ff0:	80000c04 	lb	zero,3076(zero)
     ff4:	000000ac 	0xac
     ff8:	03389c01 	0x3389c01
     ffc:	79110000 	ori.b	$w0,$w0,0x11
    1000:	01000001 	movf	zero,t0,$fcc0
    1004:	0000e711 	0xe711
    1008:	656c1200 	0x656c1200
    100c:	17120100 	bne	t8,s2,1410 <__isr_vec_space+0x13f0>
    1010:	65000001 	0x65000001
    1014:	11000003 	beqz	t0,1024 <__isr_vec_space+0x1004>
    1018:	00000c72 	tlt	zero,zero,0x31
    101c:	01171201 	0x1171201
    1020:	ef130000 	swc3	$19,0(t8)
    1024:	01000003 	0x1000003
    1028:	00008113 	0x8113
    102c:	00038300 	sll	s0,v1,0xc
    1030:	0bf21300 	j	fc84c00 <__memory_size+0xfc65400>
    1034:	14010000 	bne	zero,at,1038 <__isr_vec_space+0x1018>
    1038:	0000024f 	sync	0x9
    103c:	000003a2 	0x3a2
    1040:	0003e713 	0x3e713
    1044:	4f150100 	lwxc1	$f4,s5(t8)
    1048:	cf000002 	pref	0x0,2(t8)
    104c:	14000003 	bnez	zero,105c <__isr_vec_space+0x103c>
    1050:	80000c7c 	lb	zero,3196(zero)
    1054:	00000008 	jr	zero
    1058:	0000032e 	0x32e
    105c:	00033615 	0x33615
    1060:	3a370100 	xori	s7,s1,0x100
    1064:	1d000000 	bgtz	t0,1068 <__isr_vec_space+0x1048>
    1068:	16000003 	bnez	s0,1078 <__isr_vec_space+0x1058>
    106c:	0c841700 	jal	2105c00 <__memory_size+0x20e6400>
    1070:	03668000 	0x3668000
    1074:	01180000 	0x1180000
    1078:	00800254 	0x800254
    107c:	94190000 	lhu	t9,0(zero)
    1080:	7780000c 	jalx	e000030 <__memory_size+0xdfe0830>
    1084:	00000003 	sra	zero,zero,0x0
    1088:	0002d91a 	0x2d91a
    108c:	4f0f0600 	lwxc1	$f24,t7(t8)
    1090:	01000002 	0x1000002
    1094:	02111b6c 	0x2111b6c
    1098:	18060000 	0x18060000
    109c:	000000f2 	tlt	zero,zero,0x3
    10a0:	00015d1b 	0x15d1b
    10a4:	4f3b0600 	lwxc1	$f24,k1(t9)
    10a8:	1b000002 	blez	t8,10b4 <__isr_vec_space+0x1094>
    10ac:	0000016a 	0x16a
    10b0:	024f3b06 	0x24f3b06
    10b4:	36150000 	ori	s5,s0,0x0
    10b8:	01000003 	0x1000003
    10bc:	00003a37 	0x3a37
    10c0:	00037700 	sll	t6,v1,0x1c
    10c4:	1c001600 	bgtz	zero,68c8 <__isr_vec_space+0x68a8>
    10c8:	000000ca 	0xca
    10cc:	2c1d0e07 	sltiu	sp,zero,3591
    10d0:	00000000 	nop
    10d4:	00019600 	sll	s2,at,0x18
    10d8:	99000400 	lwr	zero,1024(t0)
    10dc:	04000005 	bltz	zero,10f4 <__isr_vec_space+0x10d4>
    10e0:	00006101 	0x6101
    10e4:	04550100 	0x4550100
    10e8:	00ef0000 	0xef0000
    10ec:	0cb00000 	jal	2c00000 <__memory_size+0x2be0800>
    10f0:	00e48000 	0xe48000
    10f4:	06890000 	tgeiu	s4,0
    10f8:	04020000 	bltzl	zero,10fc <__isr_vec_space+0x10dc>
    10fc:	0001a207 	0x1a207
    1100:	07040200 	0x7040200
    1104:	000001a7 	0x1a7
    1108:	9d070802 	0x9d070802
    110c:	03000001 	movf	zero,t8,$fcc0
    1110:	6e690504 	0x6e690504
    1114:	01020074 	teq	t0,v0,0x1
    1118:	00031a06 	0x31a06
    111c:	08010200 	j	40800 <__memory_size+0x21000>
    1120:	00000318 	0x318
    1124:	26050202 	addiu	a1,s0,514
    1128:	02000003 	0x2000003
    112c:	02820702 	0x2820702
    1130:	3f040000 	0x3f040000
    1134:	02000003 	0x2000003
    1138:	00006837 	0x6837
    113c:	05040200 	0x5040200
    1140:	000001cb 	0x1cb
    1144:	00021b04 	0x21b04
    1148:	25380200 	addiu	t8,t1,512
    114c:	02000000 	0x2000000
    1150:	01c60508 	0x1c60508
    1154:	41040000 	mftc0	zero,c0_context
    1158:	03000003 	0x3000003
    115c:	00005d41 	0x5d41
    1160:	021d0400 	0x21d0400
    1164:	42030000 	c0	0x30000
    1168:	0000006f 	0x6f
    116c:	e8070402 	swc2	$7,1026(zero)
    1170:	02000002 	0x2000002
    1174:	03210801 	movt	at,t9,$fcc0
    1178:	08020000 	j	80000 <__memory_size+0x60800>
    117c:	00020a04 	0x20a04
    1180:	04040200 	0x4040200
    1184:	00000312 	0x312
    1188:	00044605 	0x44605
    118c:	8c1b0100 	lw	k1,256(zero)
    1190:	b0000000 	0xb0000000
    1194:	4080000c 	0x4080000c
    1198:	01000000 	0x1000000
    119c:	0000dc9c 	0xdc9c
    11a0:	04500600 	bltzal	v0,29a4 <__isr_vec_space+0x2984>
    11a4:	22010000 	addi	at,s0,0
    11a8:	0000008c 	syscall	0x2
    11ac:	000003ee 	0x3ee
    11b0:	041f0700 	synci	1792(zero)
    11b4:	28010000 	slti	at,zero,0
    11b8:	80000cf0 	lb	zero,3312(zero)
    11bc:	0000003c 	0x3c
    11c0:	00fd9c01 	0xfd9c01
    11c4:	70080000 	madd	zero,t0
    11c8:	8c280100 	lw	t0,256(at)
    11cc:	01000000 	0x1000000
    11d0:	f7090054 	sdc1	$f9,84(t8)
    11d4:	01000003 	0x1000003
    11d8:	000d2c0d 	break	0xd,0xb0
    11dc:	00005c80 	sll	t3,zero,0x12
    11e0:	419c0100 	0x419c0100
    11e4:	06000001 	bltz	s0,11ec <__isr_vec_space+0x11cc>
    11e8:	00000663 	0x663
    11ec:	008c1001 	movf	v0,a0,$fcc3
    11f0:	04010000 	b	11f4 <__isr_vec_space+0x11d4>
    11f4:	630a0000 	0x630a0000
    11f8:	0100746e 	0x100746e
    11fc:	00003a12 	0x3a12
    1200:	00042200 	sll	a0,a0,0x8
    1204:	0d600b00 	jal	5802c00 <__memory_size+0x57e3400>
    1208:	00dc8000 	0xdc8000
    120c:	010c0000 	0x10c0000
    1210:	00800254 	0x800254
    1214:	000d0000 	sll	zero,t5,0x0
    1218:	01000004 	sllv	zero,zero,t0
    121c:	00008c32 	tlt	zero,zero,0x230
    1220:	000d8800 	sll	s1,t5,0x0
    1224:	00000c80 	sll	at,zero,0x12
    1228:	0e9c0100 	jal	a700400 <__memory_size+0xa6e0c00>
    122c:	0000008c 	syscall	0x2
    1230:	00000166 	0x166
    1234:	0000970f 	0x970f
    1238:	10001d00 	b	863c <__isr_vec_space+0x861c>
    123c:	0000043c 	0x43c
    1240:	01560501 	0x1560501
    1244:	03050000 	0x3050000
    1248:	800040e0 	lb	zero,16608(zero)
    124c:	00041110 	0x41110
    1250:	81080100 	lb	t0,256(t0)
    1254:	05000000 	bltz	t0,1258 <__isr_vec_space+0x1238>
    1258:	003f9803 	0x3f9803
    125c:	042d1080 	0x42d1080
    1260:	0b010000 	j	c040000 <__memory_size+0xc020800>
    1264:	00000081 	0x81
    1268:	3f940305 	0x3f940305
    126c:	31008000 	andi	zero,t0,0x8000
    1270:	0400000a 	bltz	zero,129c <__isr_vec_space+0x127c>
    1274:	00069d00 	sll	s3,a2,0x14
    1278:	61010400 	0x61010400
    127c:	01000000 	0x1000000
    1280:	00000678 	0x678
    1284:	000000ef 	0xef
    1288:	80000d94 	lb	zero,3476(zero)
    128c:	000008e0 	0x8e0
    1290:	000007ab 	0x7ab
    1294:	9d070802 	0x9d070802
    1298:	02000001 	movf	zero,s0,$fcc0
    129c:	01a70704 	0x1a70704
    12a0:	04020000 	bltzl	zero,12a4 <__isr_vec_space+0x1284>
    12a4:	0001a207 	0x1a207
    12a8:	05040300 	0x5040300
    12ac:	00746e69 	0x746e69
    12b0:	1a060102 	0x1a060102
    12b4:	02000003 	0x2000003
    12b8:	03180801 	movf	at,t8,$fcc6
    12bc:	02020000 	0x2020000
    12c0:	00032605 	0x32605
    12c4:	06110400 	bgezal	s0,22c8 <__isr_vec_space+0x22a8>
    12c8:	26020000 	addiu	v0,s0,0
    12cc:	00000061 	0x61
    12d0:	82070202 	lb	a3,514(s0)
    12d4:	02000002 	0x2000002
    12d8:	01cb0504 	0x1cb0504
    12dc:	1b040000 	0x1b040000
    12e0:	02000002 	0x2000002
    12e4:	00003338 	0x3338
    12e8:	05080200 	tgei	t0,512
    12ec:	000001c6 	0x1c6
    12f0:	00030704 	0x30704
    12f4:	254e0200 	addiu	t6,t2,512
    12f8:	04000000 	bltz	zero,12fc <__isr_vec_space+0x12dc>
    12fc:	00000613 	0x613
    1300:	00563603 	0x563603
    1304:	1d040000 	0x1d040000
    1308:	03000002 	0x3000002
    130c:	00006f42 	srl	t5,zero,0x1d
    1310:	03090400 	0x3090400
    1314:	4e030000 	lwxc1	$f0,v1(s0)
    1318:	00000081 	0x81
    131c:	e8070402 	swc2	$7,1026(zero)
    1320:	02000002 	0x2000002
    1324:	03210801 	movt	at,t9,$fcc0
    1328:	08020000 	j	80000 <__memory_size+0x60800>
    132c:	00020a04 	0x20a04
    1330:	04040200 	0x4040200
    1334:	00000312 	0x312
    1338:	00017204 	0x17204
    133c:	33d40400 	andi	s4,s8,0x400
    1340:	04000000 	bltz	zero,1344 <__isr_vec_space+0x1324>
    1344:	000003ca 	0x3ca
    1348:	003ac105 	0x3ac105
    134c:	9e050000 	0x9e050000
    1350:	04000002 	bltz	zero,135c <__isr_vec_space+0x133c>
    1354:	00f81b06 	0xf81b06
    1358:	30060000 	andi	a2,zero,0x0
    135c:	00000003 	sra	zero,zero,0x0
    1360:	00073406 	0x73406
    1364:	04000100 	bltz	zero,1768 <__isr_vec_space+0x1748>
    1368:	0000029e 	0x29e
    136c:	00df1e06 	0xdf1e06
    1370:	f7040000 	sdc1	$f4,0(t8)
    1374:	06000002 	bltz	s0,1380 <__isr_vec_space+0x1360>
    1378:	0000a22f 	0xa22f
    137c:	04f40700 	0x4f40700
    1380:	64010000 	0x64010000
    1384:	80000d94 	lb	zero,3476(zero)
    1388:	00000028 	0x28
    138c:	014f9c01 	0x14f9c01
    1390:	70080000 	madd	zero,t0
    1394:	01006e70 	tge	t0,zero,0x1b9
    1398:	00003a64 	0x3a64
    139c:	00043600 	sll	a2,a0,0x18
    13a0:	74700900 	jalx	1c02400 <__memory_size+0x1be2c00>
    13a4:	64010065 	0x64010065
    13a8:	0000014f 	sync	0x5
    13ac:	180a5501 	0x180a5501
    13b0:	01000005 	lsa	zero,t0,zero,0x1
    13b4:	0000a265 	0xa265
    13b8:	00000000 	nop
    13bc:	040b00fc 	tltiu	zero,252
    13c0:	00000103 	sra	zero,zero,0x4
    13c4:	0005ec07 	0x5ec07
    13c8:	bc110100 	cache	0x11,256(zero)
    13cc:	f880000d 	sdc2	$0,13(a0)
    13d0:	01000001 	movf	zero,t0,$fcc0
    13d4:	0001e29c 	0x1e29c
    13d8:	6e630c00 	0x6e630c00
    13dc:	15010074 	bne	t0,at,15b0 <__isr_vec_space+0x1590>
    13e0:	0000003a 	0x3a
    13e4:	00000457 	0x457
    13e8:	6e70700c 	0x6e70700c
    13ec:	3a150100 	xori	s5,s0,0x100
    13f0:	76000000 	jalx	8000000 <__memory_size+0x7fe0800>
    13f4:	0c000004 	jal	10 <ABIFlags_flags1>
    13f8:	00786469 	0x786469
    13fc:	003a2801 	0x3a2801
    1400:	04960000 	0x4960000
    1404:	fb0d0000 	sdc2	$13,0(t8)
    1408:	01000005 	lsa	zero,t0,zero,0x1
    140c:	00003a28 	0x3a28
    1410:	0004e600 	sll	gp,a0,0x18
    1414:	060c0d00 	teqi	s0,3328
    1418:	28010000 	slti	at,zero,0
    141c:	0000003a 	0x3a
    1420:	0000054b 	0x54b
    1424:	00076a0d 	break	0x7,0x1a8
    1428:	3a280100 	xori	t0,s1,0x100
    142c:	b2000000 	0xb2000000
    1430:	0c000005 	jal	14 <ABIFlags_flags2>
    1434:	3801006b 	xori	at,zero,0x6b
    1438:	0000003a 	0x3a
    143c:	0000060b 	0x60b
    1440:	000e1c0e 	0xe1c0e
    1444:	00010e80 	sll	at,at,0x1a
    1448:	54010f00 	bnel	zero,at,504c <__isr_vec_space+0x502c>
    144c:	00008402 	srl	s0,zero,0x10
    1450:	05780700 	0x5780700
    1454:	69010000 	0x69010000
    1458:	80000fb4 	lb	zero,4020(zero)
    145c:	00000028 	0x28
    1460:	02239c01 	0x2239c01
    1464:	76080000 	jalx	8200000 <__memory_size+0x81e0800>
    1468:	01006e70 	tge	t0,zero,0x1b9
    146c:	00003a69 	0x3a69
    1470:	00064300 	sll	t0,a2,0xc
    1474:	74700900 	jalx	1c02400 <__memory_size+0x1be2c00>
    1478:	69010065 	0x69010065
    147c:	0000014f 	sync	0x5
    1480:	180a5501 	0x180a5501
    1484:	01000005 	lsa	zero,t0,zero,0x1
    1488:	0000a26a 	0xa26a
    148c:	3fffc000 	0x3fffc000
    1490:	cf100000 	pref	0x10,0(t8)
    1494:	01000004 	sllv	zero,zero,t0
    1498:	0000976e 	0x976e
    149c:	023f0100 	0x23f0100
    14a0:	51110000 	beql	t0,s1,14a4 <__isr_vec_space+0x1484>
    14a4:	01000006 	srlv	zero,zero,t0
    14a8:	0000976e 	0x976e
    14ac:	23120000 	addi	s2,t8,0
    14b0:	dc000002 	ldc3	$0,2(zero)
    14b4:	0880000f 	j	200003c <__memory_size+0x1fe083c>
    14b8:	01000000 	0x1000000
    14bc:	00025a9c 	0x25a9c
    14c0:	02331300 	0x2331300
    14c4:	54010000 	bnel	zero,at,14c8 <__isr_vec_space+0x14a8>
    14c8:	052e1000 	tnei	t1,4096
    14cc:	73010000 	madd	t8,at
    14d0:	00000097 	0x97
    14d4:	00027601 	0x27601
    14d8:	74701400 	jalx	1c05000 <__memory_size+0x1be5800>
    14dc:	73010065 	s8sdi	xr1,t8,64,ptn0
    14e0:	00000103 	sra	zero,zero,0x4
    14e4:	025a1200 	0x25a1200
    14e8:	0fe40000 	jal	f900000 <__memory_size+0xf8e0800>
    14ec:	00088000 	sll	s0,t0,0x0
    14f0:	9c010000 	0x9c010000
    14f4:	00000296 	0x296
    14f8:	00026a13 	0x26a13
    14fc:	93540600 	lbu	s4,1536(k0)
    1500:	04935504 	bgezall	a0,16914 <__isr_vec_space+0x168f4>
    1504:	05a41000 	0x5a41000
    1508:	78010000 	andi.b	$w0,$w0,0x1
    150c:	00000097 	0x97
    1510:	0002b201 	0x2b201
    1514:	74701400 	jalx	1c05000 <__memory_size+0x1be5800>
    1518:	78010065 	st.h	$w1,2(zero)
    151c:	00000103 	sra	zero,zero,0x4
    1520:	02961200 	0x2961200
    1524:	0fec0000 	jal	fb00000 <__memory_size+0xfae0800>
    1528:	00148000 	sll	s0,s4,0x0
    152c:	9c010000 	0x9c010000
    1530:	000002d2 	0x2d2
    1534:	0002a613 	0x2a613
    1538:	93540600 	lbu	s4,1536(k0)
    153c:	04935504 	bgezall	a0,16950 <__isr_vec_space+0x16930>
    1540:	051d1000 	0x51d1000
    1544:	7d010000 	ext	at,t0,0x0,0x1
    1548:	00000097 	0x97
    154c:	0002ee01 	0x2ee01
    1550:	74701400 	jalx	1c05000 <__memory_size+0x1be5800>
    1554:	7d010065 	0x7d010065
    1558:	00000103 	sra	zero,zero,0x4
    155c:	02d21200 	0x2d21200
    1560:	10000000 	b	1564 <__isr_vec_space+0x1544>
    1564:	00088000 	sll	s0,t0,0x0
    1568:	9c010000 	0x9c010000
    156c:	0000030e 	0x30e
    1570:	0002e213 	0x2e213
    1574:	93540600 	lbu	s4,1536(k0)
    1578:	04935504 	bgezall	a0,1698c <__isr_vec_space+0x1696c>
    157c:	04b81000 	0x4b81000
    1580:	96010000 	lhu	at,0(s0)
    1584:	00000097 	0x97
    1588:	00032a01 	0x32a01
    158c:	04e61100 	0x4e61100
    1590:	96010000 	lhu	at,0(s0)
    1594:	00000097 	0x97
    1598:	047c1500 	0x47c1500
    159c:	82010000 	lb	at,0(s0)
    15a0:	0000014f 	sync	0x5
    15a4:	80001008 	lb	zero,4104(zero)
    15a8:	00000084 	0x84
    15ac:	03a39c01 	0x3a39c01
    15b0:	e6160000 	swc1	$f22,0(s0)
    15b4:	01000004 	sllv	zero,zero,t0
    15b8:	00009782 	srl	s2,zero,0x1e
    15bc:	00066400 	sll	t4,a2,0x10
    15c0:	70761700 	0x70761700
    15c4:	8601006e 	lh	at,110(s0)
    15c8:	0000003a 	0x3a
    15cc:	746e630c 	jalx	1b98c30 <__memory_size+0x1b79430>
    15d0:	3a870100 	xori	a3,s4,0x100
    15d4:	9a000000 	lwr	zero,0(s0)
    15d8:	18000006 	blez	zero,15f4 <__isr_vec_space+0x15d4>
    15dc:	0000030e 	0x30e
    15e0:	8000100c 	lb	zero,4108(zero)
    15e4:	00000004 	sllv	zero,zero,zero
    15e8:	03898601 	0x3898601
    15ec:	1e190000 	0x1e190000
    15f0:	d2000003 	0xd2000003
    15f4:	00000006 	srlv	zero,zero,zero
    15f8:	0002961a 	0x2961a
    15fc:	00101800 	sll	v1,s0,0x0
    1600:	00001880 	sll	v1,zero,0x2
    1604:	198f0100 	0x198f0100
    1608:	000002a6 	0x2a6
    160c:	000006fd 	0x6fd
    1610:	0e120000 	jal	8480000 <__memory_size+0x8460800>
    1614:	8c000003 	lw	zero,3(zero)
    1618:	08800010 	j	2000040 <__memory_size+0x1fe0840>
    161c:	01000000 	0x1000000
    1620:	0003be9c 	0x3be9c
    1624:	031e1300 	0x31e1300
    1628:	54010000 	bnel	zero,at,162c <__isr_vec_space+0x160c>
    162c:	05dd1500 	0x5dd1500
    1630:	9b010000 	lwr	at,0(t8)
    1634:	00000097 	0x97
    1638:	80001094 	lb	zero,4244(zero)
    163c:	00000078 	0x78
    1640:	040d9c01 	0x40d9c01
    1644:	76090000 	jalx	8240000 <__memory_size+0x8220800>
    1648:	01006e70 	tge	t0,zero,0x1b9
    164c:	0000979b 	0x979b
    1650:	0c540100 	jal	1500400 <__memory_size+0x14e0c00>
    1654:	00746e63 	0x746e63
    1658:	003a9d01 	0x3a9d01
    165c:	074d0000 	0x74d0000
    1660:	961a0000 	lhu	k0,0(s0)
    1664:	a0000002 	sb	zero,2(zero)
    1668:	38800010 	xori	zero,a0,0x10
    166c:	01000000 	0x1000000
    1670:	02a619a0 	0x2a619a0
    1674:	07790000 	0x7790000
    1678:	00000000 	nop
    167c:	00049f15 	0x49f15
    1680:	97a70100 	lhu	a3,256(sp)
    1684:	0c000000 	jal	0 <hardware_exit_hook>
    1688:	34800011 	ori	zero,a0,0x11
    168c:	01000000 	0x1000000
    1690:	0004719c 	0x4719c
    1694:	04af1600 	0x4af1600
    1698:	a7010000 	sh	at,0(t8)
    169c:	00000097 	0x97
    16a0:	000007c1 	0x7c1
    16a4:	6e707617 	0x6e707617
    16a8:	97a90100 	lhu	t1,256(sp)
    16ac:	0c000000 	jal	0 <hardware_exit_hook>
    16b0:	006e7070 	tge	v1,t6,0x1c1
    16b4:	0097aa01 	0x97aa01
    16b8:	07ed0000 	0x7ed0000
    16bc:	730d0000 	madd	t8,t5
    16c0:	01000004 	sllv	zero,zero,t0
    16c4:	000097ab 	0x97ab
    16c8:	00080000 	sll	zero,t0,0x0
    16cc:	11240e00 	beq	t1,a0,4ed0 <__isr_vec_space+0x4eb0>
    16d0:	03be8000 	0x3be8000
    16d4:	010f0000 	0x10f0000
    16d8:	00800454 	0x800454
    16dc:	0000253c 	0x253c
    16e0:	00055907 	0x55907
    16e4:	40b90100 	0x40b90100
    16e8:	84800011 	lh	zero,17(a0)
    16ec:	01000000 	0x1000000
    16f0:	0004ea9c 	0x4ea9c
    16f4:	70700800 	madd	$ac1,v1,s0
    16f8:	b901006e 	swr	at,110(t0)
    16fc:	00000097 	0x97
    1700:	00000829 	0x829
    1704:	0005cc16 	0x5cc16
    1708:	3ab90100 	xori	t9,s5,0x100
    170c:	55000000 	bnezl	t0,1710 <__isr_vec_space+0x16f0>
    1710:	0c000008 	jal	20 <__isr_vec_space>
    1714:	00746e63 	0x746e63
    1718:	003abd01 	0x3abd01
    171c:	08820000 	j	2080000 <__memory_size+0x2060800>
    1720:	5a1b0000 	0x5a1b0000
    1724:	58000002 	blezl	zero,1730 <__isr_vec_space+0x1710>
    1728:	58800011 	blezl	a0,1770 <__isr_vec_space+0x1750>
    172c:	01000000 	0x1000000
    1730:	0004d0c0 	sll	k0,a0,0x3
    1734:	026a1900 	0x26a1900
    1738:	08ae0000 	j	2b80000 <__memory_size+0x2b60800>
    173c:	1c000000 	bgtz	zero,1740 <__isr_vec_space+0x1720>
    1740:	80001180 	lb	zero,4480(zero)
    1744:	0000001c 	0x1c
    1748:	0005180d 	break	0x5,0x60
    174c:	3ac10100 	xori	at,s6,0x100
    1750:	f9000000 	sdc2	$0,0(t0)
    1754:	00000008 	jr	zero
    1758:	045e0700 	0x45e0700
    175c:	af010000 	sw	at,0(t8)
    1760:	800011c4 	lb	zero,4548(zero)
    1764:	0000001c 	0x1c
    1768:	05259c01 	0x5259c01
    176c:	70080000 	madd	zero,t0
    1770:	01006e70 	tge	t0,zero,0x1b9
    1774:	000097af 	0x97af
    1778:	00090e00 	sll	at,t1,0x18
    177c:	11d40e00 	beq	t6,s4,4f80 <__isr_vec_space+0x4f60>
    1780:	04718000 	bgezal	v1,fffe1784 <__flash_start+0x403e1784>
    1784:	010f0000 	0x10f0000
    1788:	0f300155 	jal	cc00554 <__memory_size+0xcbe0d54>
    178c:	f3035401 	0xf3035401
    1790:	00005401 	0x5401
    1794:	00068107 	0x68107
    1798:	e0b20100 	sc	s2,256(a1)
    179c:	1c800011 	bgtz	a0,17e4 <__isr_vec_space+0x17c4>
    17a0:	01000000 	0x1000000
    17a4:	0005609c 	0x5609c
    17a8:	70700800 	madd	$ac1,v1,s0
    17ac:	b201006e 	0xb201006e
    17b0:	00000097 	0x97
    17b4:	0000092f 	0x92f
    17b8:	0011f00e 	0x11f00e
    17bc:	00047180 	sll	t6,a0,0x6
    17c0:	55010f00 	bnel	t0,at,53c4 <__isr_vec_space+0x53a4>
    17c4:	010f3101 	0x10f3101
    17c8:	01f30354 	0x1f30354
    17cc:	07000054 	bltz	t8,1920 <__isr_vec_space+0x1900>
    17d0:	00000587 	0x587
    17d4:	11fcb501 	beq	t7,gp,fffeebdc <__flash_start+0x403eebdc>
    17d8:	001c8000 	sll	s0,gp,0x0
    17dc:	9c010000 	0x9c010000
    17e0:	0000059b 	0x59b
    17e4:	6e707008 	0x6e707008
    17e8:	97b50100 	lhu	s5,256(sp)
    17ec:	50000000 	beqzl	zero,17f0 <__isr_vec_space+0x17d0>
    17f0:	0e000009 	jal	8000024 <__memory_size+0x7fe0824>
    17f4:	8000120c 	lb	zero,4620(zero)
    17f8:	00000471 	tgeu	zero,zero,0x11
    17fc:	0155010f 	0x155010f
    1800:	54010f32 	bnel	zero,at,54cc <__isr_vec_space+0x54ac>
    1804:	5401f303 	bnel	zero,at,ffffe414 <__flash_start+0x403fe414>
    1808:	1c150000 	0x1c150000
    180c:	01000006 	srlv	zero,zero,t0
    1810:	00003ac9 	0x3ac9
    1814:	00121800 	sll	v1,s2,0x0
    1818:	00001080 	sll	v0,zero,0x2
    181c:	f49c0100 	sdc1	$f28,256(a0)
    1820:	09000005 	j	4000014 <__memory_size+0x3fe0814>
    1824:	00657470 	tge	v1,a1,0x1d1
    1828:	0103c901 	0x103c901
    182c:	54060000 	bnel	zero,a2,1830 <__isr_vec_space+0x1810>
    1830:	93550493 	lbu	s5,1171(k0)
    1834:	05181d04 	0x5181d04
    1838:	ca010000 	lwc2	$1,0(s0)
    183c:	0000003a 	0x3a
    1840:	05cc1e4f 	teqi	t6,7759
    1844:	cb010000 	lwc2	$1,0(t8)
    1848:	0000003a 	0x3a
    184c:	3fc40315 	0x3fc40315
    1850:	f6068000 	sdc1	$f6,-32768(s0)
    1854:	30082508 	andi	t0,zero,0x2508
    1858:	341a25f7 	li	k0,0x25f7
    185c:	f72525f7 	sdc1	$f5,9719(t9)
    1860:	15009f2c 	bnez	t0,fffe9514 <__flash_start+0x403e9514>
    1864:	000005c3 	sra	zero,zero,0x17
    1868:	003acf01 	0x3acf01
    186c:	12280000 	beq	s1,t0,1870 <__isr_vec_space+0x1850>
    1870:	009c8000 	0x9c8000
    1874:	9c010000 	0x9c010000
    1878:	0000067a 	0x67a
    187c:	0004e616 	0x4e616
    1880:	97cf0100 	lhu	t7,256(s8)
    1884:	71000000 	madd	t0,zero
    1888:	17000009 	bnez	t8,18b0 <__isr_vec_space+0x1890>
    188c:	006e7076 	tne	v1,t6,0x1c1
    1890:	003ad001 	0x3ad001
    1894:	630c0000 	0x630c0000
    1898:	0100746e 	0x100746e
    189c:	00003ad1 	0x3ad1
    18a0:	00099200 	sll	s2,t1,0x8
    18a4:	030e1800 	0x30e1800
    18a8:	12300000 	beq	s1,s0,18ac <__isr_vec_space+0x188c>
    18ac:	00048000 	sll	s0,a0,0x0
    18b0:	d0010000 	0xd0010000
    18b4:	00000653 	0x653
    18b8:	00031e19 	0x31e19
    18bc:	0009be00 	sll	s7,t1,0x18
    18c0:	961b0000 	lhu	k1,0(s0)
    18c4:	44000002 	mfc1	zero,$f0
    18c8:	70800012 	s32lddv	xr0,a0,zero,0
    18cc:	01000000 	0x1000000
    18d0:	000670d4 	0x670d4
    18d4:	02a61900 	0x2a61900
    18d8:	09df0000 	j	77c0000 <__memory_size+0x77a0800>
    18dc:	1f000000 	bgtz	t8,18e0 <__isr_vec_space+0x18c0>
    18e0:	80001280 	lb	zero,4736(zero)
    18e4:	0000059b 	0x59b
    18e8:	053f1000 	synci	4096(t1)
    18ec:	db010000 	ldc2	$1,0(t8)
    18f0:	000000f8 	0xf8
    18f4:	00069601 	0x69601
    18f8:	06021100 	bltzl	s0,5cfc <__isr_vec_space+0x5cdc>
    18fc:	db010000 	ldc2	$1,0(t8)
    1900:	00000097 	0x97
    1904:	067a1200 	0x67a1200
    1908:	12c40000 	beq	s6,a0,190c <__isr_vec_space+0x18ec>
    190c:	00088000 	sll	s0,t0,0x0
    1910:	9c010000 	0x9c010000
    1914:	000006b1 	tgeu	zero,zero,0x1a
    1918:	00068a13 	0x68a13
    191c:	00540100 	0x540100
    1920:	00063515 	0x63515
    1924:	3ae40100 	xori	a0,s7,0x100
    1928:	cc000000 	pref	0x0,0(zero)
    192c:	64800012 	0x64800012
    1930:	01000000 	0x1000000
    1934:	0007039c 	0x7039c
    1938:	74700800 	jalx	1c02000 <__memory_size+0x1be2800>
    193c:	e4010065 	swc1	$f1,101(zero)
    1940:	00000103 	sra	zero,zero,0x4
    1944:	00000a2a 	0xa2a
    1948:	00076a20 	0x76a20
    194c:	c9e40100 	lwc2	$4,256(t7)
    1950:	01000000 	0x1000000
    1954:	64690c56 	0x64690c56
    1958:	e6010078 	swc1	$f1,120(s0)
    195c:	0000003a 	0x3a
    1960:	00000a72 	tlt	zero,zero,0x29
    1964:	0006021e 	0x6021e
    1968:	97e70100 	lhu	a3,256(ra)
    196c:	01000000 	0x1000000
    1970:	ba150055 	swr	s5,85(s0)
    1974:	01000005 	lsa	zero,t0,zero,0x1
    1978:	0000c9f4 	teq	zero,zero,0x327
    197c:	00133000 	sll	a2,s3,0x0
    1980:	00004880 	sll	t1,zero,0x2
    1984:	2c9c0100 	sltiu	gp,a0,256
    1988:	16000007 	bnez	s0,19a8 <__isr_vec_space+0x1988>
    198c:	0000076a 	0x76a
    1990:	00c9f401 	0xc9f401
    1994:	0a9d0000 	j	a740000 <__memory_size+0xa720800>
    1998:	21000000 	addi	zero,t0,0
    199c:	0000050c 	syscall	0x14
    19a0:	78010701 	bmnzi.b	$w28,$w0,0x1
    19a4:	6c800013 	0x6c800013
    19a8:	01000000 	0x1000000
    19ac:	0007739c 	0x7739c
    19b0:	06db2200 	0x6db2200
    19b4:	07010000 	bgez	t8,19b8 <__isr_vec_space+0x1998>
    19b8:	00009701 	0x9701
    19bc:	000abe00 	sll	s7,t2,0x18
    19c0:	05fb2300 	0x5fb2300
    19c4:	08010000 	j	40000 <__memory_size+0x20800>
    19c8:	00009701 	0x9701
    19cc:	000adf00 	sll	k1,t2,0x1c
    19d0:	64692400 	0x64692400
    19d4:	09010078 	j	40401e0 <__memory_size+0x40209e0>
    19d8:	00003a01 	0x3a01
    19dc:	000b0400 	sll	zero,t3,0x10
    19e0:	6d210000 	0x6d210000
    19e4:	01000006 	srlv	zero,zero,t0
    19e8:	13e40112 	beq	ra,a0,1e34 <__isr_vec_space+0x1e14>
    19ec:	00948000 	0x948000
    19f0:	9c010000 	0x9c010000
    19f4:	000007d3 	0x7d3
    19f8:	0006db22 	0x6db22
    19fc:	01120100 	0x1120100
    1a00:	00000097 	0x97
    1a04:	00000b2f 	0xb2f
    1a08:	00066323 	0x66323
    1a0c:	01130100 	0x1130100
    1a10:	00000097 	0x97
    1a14:	00000b5b 	0xb5b
    1a18:	0005fb23 	0x5fb23
    1a1c:	01140100 	0x1140100
    1a20:	00000097 	0x97
    1a24:	00000b80 	sll	at,zero,0xe
    1a28:	78646924 	st.b	$w4,100(t5)
    1a2c:	01150100 	0x1150100
    1a30:	0000003a 	0x3a
    1a34:	00000ba5 	0xba5
    1a38:	0014441f 	0x14441f
    1a3c:	00032a80 	sll	a1,v1,0xa
    1a40:	99250000 	lwr	a1,0(t1)
    1a44:	01000005 	lsa	zero,t0,zero,0x1
    1a48:	0097011e 	0x97011e
    1a4c:	14780000 	bne	v1,t8,1a50 <__isr_vec_space+0x1a30>
    1a50:	00f48000 	0xf48000
    1a54:	9c010000 	0x9c010000
    1a58:	000008a1 	0x8a1
    1a5c:	64697026 	0x64697026
    1a60:	011e0100 	0x11e0100
    1a64:	000000d4 	0xd4
    1a68:	00000bd0 	0xbd0
    1a6c:	00076a22 	0x76a22
    1a70:	011e0100 	0x11e0100
    1a74:	000000c9 	0xc9
    1a78:	00000bfc 	0xbfc
    1a7c:	0005b527 	0x5b527
    1a80:	01220100 	0x1220100
    1a84:	000000c9 	0xc9
    1a88:	746e6324 	jalx	1b98c90 <__memory_size+0x1b79490>
    1a8c:	01230100 	0x1230100
    1a90:	0000003a 	0x3a
    1a94:	00000c28 	0xc28
    1a98:	00009028 	0x9028
    1a9c:	00087900 	sll	t7,t0,0x4
    1aa0:	05d32300 	bgezall	t6,a6a4 <__isr_vec_space+0xa684>
    1aa4:	28010000 	slti	at,zero,0
    1aa8:	00003a01 	0x3a01
    1aac:	000c3c00 	sll	a3,t4,0x10
    1ab0:	06db2700 	0x6db2700
    1ab4:	2d010000 	sltiu	at,t0,0
    1ab8:	00009701 	0x9701
    1abc:	02962900 	0x2962900
    1ac0:	15080000 	bne	t0,t0,1ac4 <__isr_vec_space+0x1aa4>
    1ac4:	00088000 	sll	s0,t0,0x0
    1ac8:	2d010000 	sltiu	at,t0,0
    1acc:	00086801 	movf	t5,zero,$fcc2
    1ad0:	02a62a00 	0x2a62a00
    1ad4:	0e000000 	jal	8000000 <__memory_size+0x7fe0800>
    1ad8:	80001500 	lb	zero,5376(zero)
    1adc:	000006b1 	tgeu	zero,zero,0x1a
    1ae0:	0256010f 	0x256010f
    1ae4:	00000087 	0x87
    1ae8:	0002d229 	0x2d229
    1aec:	0014c800 	sll	t9,s4,0x0
    1af0:	00000480 	sll	zero,zero,0x12
    1af4:	01260100 	0x1260100
    1af8:	00000897 	0x897
    1afc:	0002e219 	0x2e219
    1b00:	000c4f00 	sll	t1,t4,0x1c
    1b04:	e01f0000 	sc	ra,0(zero)
    1b08:	9b800014 	lwr	zero,20(gp)
    1b0c:	00000005 	lsa	zero,zero,zero,0x1
    1b10:	00056925 	0x56925
    1b14:	01380100 	0x1380100
    1b18:	00000097 	0x97
    1b1c:	8000156c 	lb	zero,5484(zero)
    1b20:	000000ec 	0xec
    1b24:	095e9c01 	j	57a7004 <__memory_size+0x5787804>
    1b28:	63220000 	0x63220000
    1b2c:	01000006 	srlv	zero,zero,t0
    1b30:	00970138 	0x970138
    1b34:	0c670000 	jal	19c0000 <__memory_size+0x19a0800>
    1b38:	70260000 	madd	at,a2
    1b3c:	01006469 	0x1006469
    1b40:	00d40138 	0xd40138
    1b44:	0c880000 	jal	2200000 <__memory_size+0x21e0800>
    1b48:	422b0000 	c0	0x2b0000
    1b4c:	01000005 	lsa	zero,t0,zero,0x1
    1b50:	00f80138 	0xf80138
    1b54:	56010000 	bnel	s0,at,1b58 <__isr_vec_space+0x1b38>
    1b58:	0006942c 	0x6942c
    1b5c:	013a0100 	0x13a0100
    1b60:	00000097 	0x97
    1b64:	702d5201 	0x702d5201
    1b68:	01006e70 	tge	t0,zero,0x1b9
    1b6c:	0097013b 	0x97013b
    1b70:	762e0000 	jalx	8b80000 <__memory_size+0x8b60800>
    1b74:	01006e70 	tge	t0,zero,0x1b9
    1b78:	0097013c 	0x97013c
    1b7c:	72050000 	madd	s0,a1
    1b80:	9f253c00 	0x9f253c00
    1b84:	746e6324 	jalx	1b98c90 <__memory_size+0x1b79490>
    1b88:	013d0100 	0x13d0100
    1b8c:	0000003a 	0x3a
    1b90:	00000cc2 	srl	at,zero,0x13
    1b94:	00022329 	0x22329
    1b98:	00157000 	sll	t6,s5,0x0
    1b9c:	00000480 	sll	zero,zero,0x12
    1ba0:	013b0100 	0x13b0100
    1ba4:	00000943 	sra	at,zero,0x5
    1ba8:	00023319 	0x23319
    1bac:	000cee00 	sll	sp,t4,0x18
    1bb0:	5a2f0000 	0x5a2f0000
    1bb4:	7c000002 	0x7c000002
    1bb8:	a8800015 	swl	zero,21(a0)
    1bbc:	01000000 	0x1000000
    1bc0:	6a190140 	0x6a190140
    1bc4:	0f000002 	jal	c000008 <__memory_size+0xbfe0808>
    1bc8:	0000000d 	break
    1bcc:	04912100 	bgezal	a0,9fd0 <__isr_vec_space+0x9fb0>
    1bd0:	53010000 	beql	t8,at,1bd4 <__isr_vec_space+0x1bb4>
    1bd4:	00165801 	0x165801
    1bd8:	00001c80 	sll	v1,zero,0x12
    1bdc:	a49c0100 	sh	gp,256(a0)
    1be0:	22000009 	addi	zero,s0,9
    1be4:	00000663 	0x663
    1be8:	97015301 	lhu	at,21249(t8)
    1bec:	4f000000 	lwxc1	$f0,zero(t8)
    1bf0:	2d00000d 	sltiu	zero,t0,13
    1bf4:	006e7070 	tge	v1,t6,0x1c1
    1bf8:	97015801 	lhu	at,22529(t8)
    1bfc:	0e000000 	jal	8000000 <__memory_size+0x7fe0800>
    1c00:	80001668 	lb	zero,5736(zero)
    1c04:	000004ea 	0x4ea
    1c08:	0554010f 	0x554010f
    1c0c:	3c5401f3 	0x3c5401f3
    1c10:	1d000025 	bgtz	t0,1ca8 <__isr_vec_space+0x1c88>
    1c14:	00000503 	sra	zero,zero,0x14
    1c18:	014f0301 	0x14f0301
    1c1c:	80800000 	lb	zero,0(a0)
    1c20:	30788088 	andi	t8,v1,0x8088
    1c24:	000000b4 	teq	zero,zero,0x2
    1c28:	003a0a07 	0x3a0a07
    1c2c:	f1310000 	0xf1310000
    1c30:	08000002 	j	8 <ABIFlags_isa_ext>
    1c34:	00014f12 	0x14f12
    1c38:	c4030500 	lwc1	$f3,1280(zero)
    1c3c:	3180003f 	andi	zero,t4,0x3f
    1c40:	0000065f 	0x65f
    1c44:	00970e01 	0x970e01
    1c48:	03050000 	0x3050000
    1c4c:	80003f9c 	lb	zero,16284(zero)
    1c50:	00008c32 	tlt	zero,zero,0x230
    1c54:	0009f100 	sll	s8,t1,0x4
    1c58:	00ad3300 	0xad3300
    1c5c:	001c0000 	sll	zero,gp,0x0
    1c60:	0005f531 	tgeu	zero,a1,0x3d4
    1c64:	e1060100 	sc	a2,256(t0)
    1c68:	05000009 	bltz	t0,1c90 <__isr_vec_space+0x1c70>
    1c6c:	0040a403 	0x40a403
    1c70:	00973280 	0x973280
    1c74:	0a120000 	j	8480000 <__memory_size+0x8460800>
    1c78:	ad330000 	sw	s3,0(t1)
    1c7c:	1c000000 	bgtz	zero,1c80 <__isr_vec_space+0x1c60>
    1c80:	06063100 	0x6063100
    1c84:	09010000 	j	4040000 <__memory_size+0x4020800>
    1c88:	00000a02 	srl	at,zero,0x8
    1c8c:	40300305 	0x40300305
    1c90:	4e318000 	c3	0x318000
    1c94:	01000005 	lsa	zero,t0,zero,0x1
    1c98:	0009e10c 	syscall	0x2784
    1c9c:	f4030500 	sdc1	$f3,1280(zero)
    1ca0:	0080003f 	0x80003f
    1ca4:	000004df 	0x4df
    1ca8:	098b0004 	j	62c0010 <__memory_size+0x62a0810>
    1cac:	01040000 	0x1040000
    1cb0:	00000061 	0x61
    1cb4:	0006a301 	0x6a301
    1cb8:	0000ef00 	sll	sp,zero,0x1c
    1cbc:	00167400 	sll	t6,s6,0x10
    1cc0:	00031080 	sll	v0,v1,0x2
    1cc4:	000ba500 	sll	s4,t3,0x14
    1cc8:	07040200 	0x7040200
    1ccc:	000001a2 	0x1a2
    1cd0:	a7070402 	sh	a3,1026(t8)
    1cd4:	02000001 	movf	zero,s0,$fcc0
    1cd8:	019d0708 	0x19d0708
    1cdc:	04030000 	bgezl	zero,1ce0 <__isr_vec_space+0x1cc0>
    1ce0:	746e6905 	jalx	1b9a414 <__memory_size+0x1b7ac14>
    1ce4:	06010200 	bgez	s0,24e8 <__isr_vec_space+0x24c8>
    1ce8:	0000031a 	0x31a
    1cec:	00018304 	0x18304
    1cf0:	531c0200 	beql	t8,gp,24f4 <__isr_vec_space+0x24d4>
    1cf4:	02000000 	0x2000000
    1cf8:	03180801 	movf	at,t8,$fcc6
    1cfc:	02020000 	0x2020000
    1d00:	00032605 	0x32605
    1d04:	07020200 	bltzl	t8,2508 <__isr_vec_space+0x24e8>
    1d08:	00000282 	srl	zero,zero,0xa
    1d0c:	cb050402 	lwc2	$5,1026(t8)
    1d10:	04000001 	bltz	zero,1d18 <__isr_vec_space+0x1cf8>
    1d14:	0000021b 	0x21b
    1d18:	00253802 	ror	a3,a1,0x0
    1d1c:	08020000 	j	80000 <__memory_size+0x60800>
    1d20:	0001c605 	0x1c605
    1d24:	03070400 	0x3070400
    1d28:	4e020000 	lwxc1	$f0,v0(s0)
    1d2c:	00000033 	tltu	zero,zero
    1d30:	00018504 	0x18504
    1d34:	482a0300 	0x482a0300
    1d38:	04000000 	bltz	zero,1d3c <__isr_vec_space+0x1d1c>
    1d3c:	0000021d 	0x21d
    1d40:	006f4203 	0x6f4203
    1d44:	09040000 	j	4100000 <__memory_size+0x40e0800>
    1d48:	03000003 	0x3000003
    1d4c:	0000814e 	0x814e
    1d50:	07040200 	0x7040200
    1d54:	000002e8 	0x2e8
    1d58:	21080102 	addi	t0,t0,258
    1d5c:	02000003 	0x2000003
    1d60:	020a0408 	0x20a0408
    1d64:	04020000 	bltzl	zero,1d68 <__isr_vec_space+0x1d48>
    1d68:	00031204 	0x31204
    1d6c:	01720400 	0x1720400
    1d70:	d4040000 	ldc1	$f4,0(zero)
    1d74:	00000025 	move	zero,zero
    1d78:	ca040405 	lwc2	$4,1029(s0)
    1d7c:	05000003 	bltz	t0,1d8c <__isr_vec_space+0x1d6c>
    1d80:	00003ac1 	0x3ac1
    1d84:	029e0600 	0x29e0600
    1d88:	06040000 	0x6040000
    1d8c:	0000fa1b 	0xfa1b
    1d90:	03300700 	0x3300700
    1d94:	07000000 	bltz	t8,1d98 <__isr_vec_space+0x1d78>
    1d98:	00000734 	teq	zero,zero,0x1c
    1d9c:	9e040001 	0x9e040001
    1da0:	06000002 	bltz	s0,1dac <__isr_vec_space+0x1d8c>
    1da4:	0000e11e 	0xe11e
    1da8:	02f70400 	0x2f70400
    1dac:	2f060000 	sltiu	a2,t8,0
    1db0:	000000a2 	0xa2
    1db4:	0006cb08 	0x6cb08
    1db8:	d4090100 	ldc1	$f9,256(zero)
    1dbc:	01000000 	0x1000000
    1dc0:	0000012c 	0x12c
    1dc4:	00066809 	0x66809
    1dc8:	97090100 	lhu	t1,256(t8)
    1dcc:	00000000 	nop
    1dd0:	0001100a 	movz	v0,zero,at
    1dd4:	00167400 	sll	t6,s6,0x10
    1dd8:	00000880 	sll	at,zero,0x2
    1ddc:	479c0100 	bnz.b	$w28,21e0 <__isr_vec_space+0x21c0>
    1de0:	0b000001 	j	c000004 <__memory_size+0xbfe0804>
    1de4:	00000120 	0x120
    1de8:	0c005401 	jal	15004 <__isr_vec_space+0x14fe4>
    1dec:	000003f8 	0x3f8
    1df0:	167c0d01 	bne	s3,gp,51f8 <__isr_vec_space+0x51d8>
    1df4:	00508000 	0x508000
    1df8:	9c010000 	0x9c010000
    1dfc:	0000016f 	0x16f
    1e00:	0016b80d 	break	0x16,0x2e0
    1e04:	00042480 	sll	a0,a0,0x12
    1e08:	16c00d00 	bnez	s6,520c <__isr_vec_space+0x51ec>
    1e0c:	04318000 	bgezal	at,fffe1e10 <__flash_start+0x403e1e10>
    1e10:	0e000000 	jal	8000000 <__memory_size+0x7fe0800>
    1e14:	000003c2 	srl	zero,zero,0xf
    1e18:	00d41901 	0xd41901
    1e1c:	16cc0000 	bne	s6,t4,1e20 <__isr_vec_space+0x1e00>
    1e20:	01848000 	0x1848000
    1e24:	9c010000 	0x9c010000
    1e28:	000002e1 	0x2e1
    1e2c:	6469700f 	0x6469700f
    1e30:	d6190100 	ldc1	$f25,256(s0)
    1e34:	70000000 	madd	zero,zero
    1e38:	1000000d 	b	1e70 <__isr_vec_space+0x1e50>
    1e3c:	0000076a 	0x76a
    1e40:	00c91901 	0xc91901
    1e44:	0dc80000 	jal	7200000 <__memory_size+0x71e0800>
    1e48:	c0110000 	ll	s1,0(zero)
    1e4c:	4c000000 	lwxc1	$f0,zero(zero)
    1e50:	12000002 	beqz	s0,1e5c <__isr_vec_space+0x1e3c>
    1e54:	00000c3f 	0xc3f
    1e58:	003a5201 	0x3a5201
    1e5c:	0e070000 	jal	81c0000 <__memory_size+0x81a0800>
    1e60:	51120000 	beql	t0,s2,1e64 <__isr_vec_space+0x1e44>
    1e64:	01000006 	srlv	zero,zero,t0
    1e68:	0000975b 	0x975b
    1e6c:	000e3200 	sll	a2,t6,0x8
    1e70:	04e61200 	0x4e61200
    1e74:	5c010000 	0x5c010000
    1e78:	00000097 	0x97
    1e7c:	00000e5b 	0xe5b
    1e80:	01006913 	0x1006913
    1e84:	00003a61 	0x3a61
    1e88:	000e8400 	sll	s0,t6,0x10
    1e8c:	17900d00 	bne	gp,s0,5290 <__isr_vec_space+0x5270>
    1e90:	04388000 	0x4388000
    1e94:	a0140000 	sb	s4,0(zero)
    1e98:	49800017 	0x49800017
    1e9c:	0b000004 	j	c000010 <__memory_size+0xbfe0810>
    1ea0:	15000002 	bnez	t0,1eac <__isr_vec_space+0x1e8c>
    1ea4:	30015601 	andi	at,zero,0x5601
    1ea8:	02550115 	0x2550115
    1eac:	0d000082 	jal	4000208 <__memory_size+0x3fe0a08>
    1eb0:	800017bc 	lb	zero,6076(zero)
    1eb4:	00000438 	0x438
    1eb8:	0017cc14 	0x17cc14
    1ebc:	00044980 	sll	t1,a0,0x6
    1ec0:	00022d00 	sll	a1,v0,0x14
    1ec4:	56011500 	bnel	s0,at,72c8 <__isr_vec_space+0x72a8>
    1ec8:	01153001 	movt	a2,t0,$fcc5
    1ecc:	00820255 	0x820255
    1ed0:	18140d00 	0x18140d00
    1ed4:	04388000 	0x4388000
    1ed8:	24160000 	li	s6,0
    1edc:	49800018 	0x49800018
    1ee0:	15000004 	bnez	t0,1ef4 <__isr_vec_space+0x1ed4>
    1ee4:	30015601 	andi	at,zero,0x5601
    1ee8:	02550115 	0x2550115
    1eec:	00000082 	srl	zero,zero,0x2
    1ef0:	00170c17 	0x170c17
    1ef4:	00006480 	sll	t4,zero,0x12
    1ef8:	06bc1200 	0x6bc1200
    1efc:	30010000 	andi	at,zero,0x0
    1f00:	00000097 	0x97
    1f04:	00000eaf 	0xeaf
    1f08:	00172018 	0x172018
    1f0c:	00004880 	sll	t1,zero,0x2
    1f10:	0002d600 	sll	k0,v0,0x18
    1f14:	06511200 	bgezal	s2,6718 <__isr_vec_space+0x66f8>
    1f18:	3d010000 	0x3d010000
    1f1c:	00000097 	0x97
    1f20:	00000ee3 	0xee3
    1f24:	0017280d 	break	0x17,0xa0
    1f28:	00046880 	sll	t5,a0,0x2
    1f2c:	17380d00 	bne	t9,t8,5330 <__isr_vec_space+0x5310>
    1f30:	04388000 	0x4388000
    1f34:	48140000 	mfc2	s4,$0
    1f38:	49800017 	0x49800017
    1f3c:	ab000004 	swl	zero,4(t8)
    1f40:	15000002 	bnez	t0,1f4c <__isr_vec_space+0x1f2c>
    1f44:	31015601 	andi	at,t0,0x5601
    1f48:	02550115 	0x2550115
    1f4c:	14000082 	bnez	zero,2158 <__isr_vec_space+0x2138>
    1f50:	80001754 	lb	zero,5972(zero)
    1f54:	00000473 	tltu	zero,zero,0x11
    1f58:	000002c5 	0x2c5
    1f5c:	02550115 	0x2550115
    1f60:	01150081 	0x1150081
    1f64:	00820254 	0x820254
    1f68:	17681600 	bne	k1,t0,776c <__isr_vec_space+0x774c>
    1f6c:	048d8000 	0x48d8000
    1f70:	01150000 	0x1150000
    1f74:	00800254 	0x800254
    1f78:	140d0000 	bne	zero,t5,1f7c <__isr_vec_space+0x1f5c>
    1f7c:	73800017 	s32sdiv	xr0,gp,zero,0
    1f80:	00000004 	sllv	zero,zero,zero
    1f84:	069d0c00 	0x69d0c00
    1f88:	74010000 	jalx	40000 <__memory_size+0x20800>
    1f8c:	80001850 	lb	zero,6224(zero)
    1f90:	00000134 	teq	zero,zero,0x4
    1f94:	03ba9c01 	0x3ba9c01
    1f98:	700f0000 	madd	zero,t7
    1f9c:	01007274 	teq	t0,zero,0x1c9
    1fa0:	0000d474 	teq	zero,zero,0x351
    1fa4:	000ef600 	sll	s8,t6,0x18
    1fa8:	06d71200 	0x6d71200
    1fac:	75010000 	jalx	4040000 <__memory_size+0x4020800>
    1fb0:	00000097 	0x97
    1fb4:	00000f30 	tge	zero,zero,0x3c
    1fb8:	00066312 	0x66312
    1fbc:	97760100 	lhu	s6,256(k1)
    1fc0:	6a000000 	0x6a000000
    1fc4:	1300000f 	beqz	t8,2004 <__isr_vec_space+0x1fe4>
    1fc8:	79010069 	0x79010069
    1fcc:	0000003a 	0x3a
    1fd0:	00000fb8 	0xfb8
    1fd4:	0018a018 	0x18a018
    1fd8:	0000ac80 	sll	s5,zero,0x12
    1fdc:	0003b000 	sll	s6,v1,0x0
    1fe0:	04731200 	bgezall	v1,67e4 <__isr_vec_space+0x67c4>
    1fe4:	7d010000 	ext	at,t0,0x0,0x1
    1fe8:	00000097 	0x97
    1fec:	00001034 	teq	zero,zero,0x40
    1ff0:	0004af12 	0x4af12
    1ff4:	977d0100 	lhu	sp,256(k1)
    1ff8:	52000000 	beqzl	s0,1ffc <__isr_vec_space+0x1fdc>
    1ffc:	12000010 	beqz	s0,2040 <__isr_vec_space+0x2020>
    2000:	00000c3f 	0xc3f
    2004:	003a7f01 	0x3a7f01
    2008:	10700000 	beq	v1,s0,200c <__isr_vec_space+0x1fec>
    200c:	6a130000 	0x6a130000
    2010:	3a800100 	xori	zero,s4,0x100
    2014:	83000000 	lb	zero,0(t8)
    2018:	14000010 	bnez	zero,205c <__isr_vec_space+0x203c>
    201c:	800018c4 	lb	zero,6340(zero)
    2020:	0000049e 	0x49e
    2024:	0000038b 	0x38b
    2028:	02540115 	0x2540115
    202c:	14000081 	bnez	zero,2234 <__isr_vec_space+0x2214>
    2030:	800018d0 	lb	zero,6352(zero)
    2034:	000004b3 	tltu	zero,zero,0x12
    2038:	0000039f 	0x39f
    203c:	02540115 	0x2540115
    2040:	16000083 	bnez	s0,2250 <__isr_vec_space+0x2230>
    2044:	800018d8 	lb	zero,6360(zero)
    2048:	000004c4 	0x4c4
    204c:	02540115 	0x2540115
    2050:	00000083 	sra	zero,zero,0x2
    2054:	0019640d 	break	0x19,0x190
    2058:	0004d580 	sll	k0,a0,0x16
    205c:	f1190000 	0xf1190000
    2060:	07000002 	bltz	t8,206c <__isr_vec_space+0x204c>
    2064:	0003cb12 	0x3cb12
    2068:	c4030500 	lwc1	$f3,1280(zero)
    206c:	1a80003f 	blez	s4,216c <__isr_vec_space+0x214c>
    2070:	00010504 	0x10504
    2074:	00971b00 	0x971b00
    2078:	03e10000 	0x3e10000
    207c:	ad1c0000 	sw	gp,0(t0)
    2080:	3f000000 	0x3f000000
    2084:	06ab1900 	tltiu	s5,6400
    2088:	04010000 	b	208c <__isr_vec_space+0x206c>
    208c:	000003d1 	0x3d1
    2090:	41980305 	0x41980305
    2094:	8c1b8000 	lw	k1,-32768(zero)
    2098:	02000000 	0x2000000
    209c:	1c000004 	bgtz	zero,20b0 <__isr_vec_space+0x2090>
    20a0:	000000ad 	0xad
    20a4:	e619003f 	swc1	$f25,63(s0)
    20a8:	01000006 	srlv	zero,zero,t0
    20ac:	0003f205 	0x3f205
    20b0:	58030500 	0x58030500
    20b4:	1d800041 	bgtz	t4,21bc <__isr_vec_space+0x219c>
    20b8:	00786469 	0x786469
    20bc:	003a0601 	0x3a0601
    20c0:	03050000 	0x3050000
    20c4:	80003fd0 	lb	zero,16336(zero)
    20c8:	0003f71e 	0x3f71e
    20cc:	31390800 	andi	t9,t1,0x800
    20d0:	1f000004 	bgtz	t8,20e4 <__isr_vec_space+0x20c4>
    20d4:	05ec2000 	teqi	t7,8192
    20d8:	47070000 	bz.b	$w7,20dc <__isr_vec_space+0x20bc>
    20dc:	00044621 	0x44621
    20e0:	973b0800 	lhu	k1,2048(t9)
    20e4:	49000000 	bc2f	20e8 <__isr_vec_space+0x20c8>
    20e8:	1f000004 	bgtz	t8,20fc <__isr_vec_space+0x20dc>
    20ec:	05692200 	tgeiu	t3,8704
    20f0:	75070000 	jalx	41c0000 <__memory_size+0x41a0800>
    20f4:	00000097 	0x97
    20f8:	00000468 	0x468
    20fc:	00009723 	0x9723
    2100:	00d62300 	0xd62300
    2104:	fa230000 	sdc2	$3,0(s1)
    2108:	00000000 	nop
    210c:	00040024 	and	zero,zero,a0
    2110:	97400800 	lhu	zero,2048(k0)
    2114:	22000000 	addi	zero,s0,0
    2118:	00000599 	0x599
    211c:	00977f07 	0x977f07
    2120:	048d0000 	0x48d0000
    2124:	d6230000 	ldc1	$f3,0(s1)
    2128:	23000000 	addi	zero,t8,0
    212c:	000000c9 	0xc9
    2130:	050c2500 	teqi	t0,9472
    2134:	7b070000 	xori.b	$w0,$w0,0x7
    2138:	0000049e 	0x49e
    213c:	00009723 	0x9723
    2140:	9f220000 	0x9f220000
    2144:	07000004 	bltz	t8,2158 <__isr_vec_space+0x2138>
    2148:	00009763 	0x9763
    214c:	0004b300 	sll	s6,a0,0xc
    2150:	00972300 	0x972300
    2154:	25000000 	addiu	zero,t0,0
    2158:	0000041f 	0x41f
    215c:	04c43d08 	0x4c43d08
    2160:	97230000 	lhu	v1,0(t9)
    2164:	00000000 	nop
    2168:	00049125 	0x49125
    216c:	d5760700 	ldc1	$f22,1792(t3)
    2170:	23000004 	addi	zero,t8,4
    2174:	00000097 	0x97
    2178:	066d2600 	0x66d2600
    217c:	7c070000 	ext	a3,zero,0x0,0x1
    2180:	00009723 	0x9723
    2184:	3a000000 	xori	zero,s0,0x0
    2188:	04000003 	bltz	zero,2198 <__isr_vec_space+0x2178>
    218c:	000ba600 	sll	s4,t3,0x18
    2190:	61010400 	0x61010400
    2194:	01000000 	0x1000000
    2198:	00000722 	0x722
    219c:	000000ef 	0xef
    21a0:	80001984 	lb	zero,6532(zero)
    21a4:	000001e8 	0x1e8
    21a8:	00000e0f 	0xe0f
    21ac:	a2070402 	sb	a3,1026(s0)
    21b0:	02000001 	movf	zero,s0,$fcc0
    21b4:	01a70704 	0x1a70704
    21b8:	08020000 	j	80000 <__memory_size+0x60800>
    21bc:	00019d07 	0x19d07
    21c0:	05040300 	0x5040300
    21c4:	00746e69 	0x746e69
    21c8:	1a060102 	0x1a060102
    21cc:	02000003 	0x2000003
    21d0:	03180801 	movf	at,t8,$fcc6
    21d4:	02020000 	0x2020000
    21d8:	00032605 	0x32605
    21dc:	07020200 	bltzl	t8,29e0 <__isr_vec_space+0x29c0>
    21e0:	00000282 	srl	zero,zero,0xa
    21e4:	cb050402 	lwc2	$5,1026(t8)
    21e8:	04000001 	bltz	zero,21f0 <__isr_vec_space+0x21d0>
    21ec:	0000021b 	0x21b
    21f0:	00253802 	ror	a3,a1,0x0
    21f4:	08020000 	j	80000 <__memory_size+0x60800>
    21f8:	0001c605 	0x1c605
    21fc:	03070400 	0x3070400
    2200:	4e020000 	lwxc1	$f0,v0(s0)
    2204:	00000033 	tltu	zero,zero
    2208:	00021d04 	0x21d04
    220c:	64420300 	0x64420300
    2210:	04000000 	bltz	zero,2214 <__isr_vec_space+0x21f4>
    2214:	00000309 	0x309
    2218:	00764e03 	0x764e03
    221c:	04020000 	bltzl	zero,2220 <__isr_vec_space+0x2200>
    2220:	0002e807 	srav	sp,v0,zero
    2224:	08010200 	j	40800 <__memory_size+0x21000>
    2228:	00000321 	0x321
    222c:	0a040802 	j	8102008 <__memory_size+0x80e2808>
    2230:	02000002 	0x2000002
    2234:	03120404 	0x3120404
    2238:	72040000 	madd	s0,a0
    223c:	04000001 	bltz	zero,2244 <__isr_vec_space+0x2224>
    2240:	000025d4 	0x25d4
    2244:	04040500 	0x4040500
    2248:	000003ca 	0x3ca
    224c:	003ac105 	0x3ac105
    2250:	f7040000 	sdc1	$f4,0(t8)
    2254:	06000002 	bltz	s0,2260 <__isr_vec_space+0x2240>
    2258:	00008c2f 	0x8c2f
    225c:	076f0600 	0x76f0600
    2260:	08010000 	j	40000 <__memory_size+0x20800>
    2264:	0000003a 	0x3a
    2268:	80001984 	lb	zero,6532(zero)
    226c:	0000015c 	0x15c
    2270:	01a29c01 	0x1a29c01
    2274:	17070000 	bne	t8,a3,2278 <__isr_vec_space+0x2258>
    2278:	01000007 	srav	zero,zero,t0
    227c:	0001a209 	0x1a209
    2280:	07090800 	tgeiu	t8,2048
    2284:	0a010000 	j	8040000 <__memory_size+0x8020800>
    2288:	000001b8 	0x1b8
    228c:	7f909103 	0x7f909103
    2290:	00072f08 	0x72f08
    2294:	a20b0100 	sb	t3,256(s0)
    2298:	03000001 	movf	zero,t8,$fcc0
    229c:	097fb891 	j	5fee244 <__memory_size+0x5fcea44>
    22a0:	0d010069 	jal	40401a4 <__memory_size+0x40209a4>
    22a4:	0000003a 	0x3a
    22a8:	000010ad 	0x10ad
    22ac:	001a540a 	0x1a540a
    22b0:	0002f080 	sll	s8,v0,0x2
    22b4:	1a600b00 	blez	s3,4eb8 <__isr_vec_space+0x4e98>
    22b8:	030a8000 	0x30a8000
    22bc:	01420000 	0x1420000
    22c0:	010c0000 	0x10c0000
    22c4:	00800254 	0x800254
    22c8:	1a700b00 	0x1a700b00
    22cc:	031f8000 	0x31f8000
    22d0:	01560000 	0x1560000
    22d4:	010c0000 	0x10c0000
    22d8:	ff090254 	sdc3	$9,596(t8)
    22dc:	1a880b00 	0x1a880b00
    22e0:	031f8000 	0x31f8000
    22e4:	016a0000 	0x16a0000
    22e8:	010c0000 	0x10c0000
    22ec:	f0090254 	0xf0090254
    22f0:	1a900b00 	0x1a900b00
    22f4:	03308000 	0x3308000
    22f8:	017e0000 	0x17e0000
    22fc:	010c0000 	0x10c0000
    2300:	00830254 	0x830254
    2304:	1a980b00 	0x1a980b00
    2308:	031f8000 	0x31f8000
    230c:	01920000 	0x1920000
    2310:	010c0000 	0x10c0000
    2314:	00800254 	0x800254
    2318:	1ab40d00 	0x1ab40d00
    231c:	031f8000 	0x31f8000
    2320:	010c0000 	0x10c0000
    2324:	00300154 	0x300154
    2328:	01b20e00 	0x1b20e00
    232c:	01b20000 	0x1b20000
    2330:	970f0000 	lhu	t7,0(t8)
    2334:	09000000 	j	4000000 <__memory_size+0x3fe0800>
    2338:	3a041000 	xori	a0,s0,0x1000
    233c:	0e000000 	jal	8000000 <__memory_size+0x7fe0800>
    2340:	0000003a 	0x3a
    2344:	000001c8 	0x1c8
    2348:	0000970f 	0x970f
    234c:	06000900 	bltz	s0,4750 <__isr_vec_space+0x4730>
    2350:	00000740 	sll	zero,zero,0x1d
    2354:	003a2d01 	0x3a2d01
    2358:	1ae00000 	blez	s7,235c <__isr_vec_space+0x233c>
    235c:	00788000 	0x788000
    2360:	9c010000 	0x9c010000
    2364:	00000280 	sll	zero,zero,0xa
    2368:	00066811 	0x66811
    236c:	b2300100 	0xb2300100
    2370:	cc000001 	pref	0x0,1(zero)
    2374:	11000010 	beqz	t0,23b8 <__isr_vec_space+0x2398>
    2378:	00000781 	0x781
    237c:	01b23101 	0x1b23101
    2380:	10ea0000 	beq	a3,t2,2384 <__isr_vec_space+0x2364>
    2384:	fc0b0000 	sdc3	$11,0(zero)
    2388:	f080001a 	0xf080001a
    238c:	18000002 	blez	zero,2398 <__isr_vec_space+0x2378>
    2390:	0c000002 	jal	8 <ABIFlags_isa_ext>
    2394:	08025501 	j	95404 <__memory_size+0x75c04>
    2398:	54010c80 	bnel	zero,at,559c <__isr_vec_space+0x557c>
    239c:	0b003001 	j	c00c004 <__memory_size+0xbfec804>
    23a0:	80001b0c 	lb	zero,6924(zero)
    23a4:	000002f0 	tge	zero,zero,0xb
    23a8:	00000232 	tlt	zero,zero,0x8
    23ac:	0355010c 	syscall	0xd5404
    23b0:	0c10000a 	jal	400028 <__memory_size+0x3e0828>
    23b4:	30015401 	andi	at,zero,0x5401
    23b8:	1b180b00 	0x1b180b00
    23bc:	031f8000 	0x31f8000
    23c0:	02460000 	0x2460000
    23c4:	010c0000 	0x10c0000
    23c8:	00800254 	0x800254
    23cc:	1b200b00 	blez	t9,4fd0 <__isr_vec_space+0x4fb0>
    23d0:	031f8000 	0x31f8000
    23d4:	025a0000 	0x25a0000
    23d8:	010c0000 	0x10c0000
    23dc:	00810254 	0x810254
    23e0:	1b300b00 	0x1b300b00
    23e4:	03308000 	0x3308000
    23e8:	026f0000 	0x26f0000
    23ec:	010c0000 	0x10c0000
    23f0:	c80a0354 	lwc2	$10,852(zero)
    23f4:	400d0001 	mfc0	t5,c0_mvpcontrol
    23f8:	3080001b 	andi	zero,a0,0x1b
    23fc:	0c000003 	jal	c <ABIFlags_ases>
    2400:	08025401 	j	95004 <__memory_size+0x75804>
    2404:	1200007b 	beqz	s0,25f4 <__isr_vec_space+0x25d4>
    2408:	000006f8 	0x6f8
    240c:	003a3c01 	0x3a3c01
    2410:	1b580000 	0x1b580000
    2414:	00088000 	sll	s0,t0,0x0
    2418:	9c010000 	0x9c010000
    241c:	00074f13 	0x74f13
    2420:	60400100 	0x60400100
    2424:	0c80001b 	jal	200006c <__memory_size+0x1fe086c>
    2428:	01000000 	0x1000000
    242c:	02f1149c 	0x2f1149c
    2430:	12070000 	beq	s0,a3,2434 <__isr_vec_space+0x2414>
    2434:	000002b7 	0x2b7
    2438:	3fc40305 	0x3fc40305
    243c:	04108000 	bltzal	zero,fffe2440 <__flash_start+0x403e2440>
    2440:	000000cb 	0xcb
    2444:	64697015 	0x64697015
    2448:	c0030100 	ll	v1,256(zero)
    244c:	05000000 	bltz	t0,2450 <__isr_vec_space+0x2430>
    2450:	003fc003 	0x3fc003
    2454:	07641480 	0x7641480
    2458:	04010000 	b	245c <__isr_vec_space+0x243c>
    245c:	000001b8 	0x1b8
    2460:	3adc0305 	xori	gp,s6,0x305
    2464:	39148000 	xori	s4,t0,0x8000
    2468:	01000007 	srav	zero,zero,t0
    246c:	00003a06 	0x3a06
    2470:	bc030500 	cache	0x3,1280(zero)
    2474:	1680003f 	bnez	s4,2574 <__isr_vec_space+0x2554>
    2478:	000003c2 	srl	zero,zero,0xf
    247c:	00be1608 	0xbe1608
    2480:	030a0000 	0x30a0000
    2484:	c0170000 	ll	s7,0(zero)
    2488:	17000000 	bnez	t8,248c <__isr_vec_space+0x246c>
    248c:	000000b3 	tltu	zero,zero,0x2
    2490:	05c31600 	bgezl	t6,7c94 <__isr_vec_space+0x7c74>
    2494:	6f070000 	0x6f070000
    2498:	0000003a 	0x3a
    249c:	0000031f 	0x31f
    24a0:	00008117 	0x8117
    24a4:	ca180000 	lwc2	$24,0(s0)
    24a8:	09000000 	j	4000000 <__memory_size+0x3fe0800>
    24ac:	0003300e 	0x3300e
    24b0:	002c1700 	0x2c1700
    24b4:	19000000 	blez	t0,24b8 <__isr_vec_space+0x2498>
    24b8:	00000000 	nop
    24bc:	2c170c09 	sltiu	s7,zero,3081
    24c0:	00000000 	nop
    24c4:	0007f400 	sll	s8,a3,0x10
    24c8:	12000400 	beqz	s0,34cc <__isr_vec_space+0x34ac>
    24cc:	0400000d 	bltz	zero,2504 <__isr_vec_space+0x24e4>
    24d0:	00006101 	0x6101
    24d4:	07bd0100 	0x7bd0100
    24d8:	00ef0000 	0xef0000
    24dc:	1b6c0000 	0x1b6c0000
    24e0:	01f08000 	0x1f08000
    24e4:	10420000 	beq	v0,v0,24e8 <__isr_vec_space+0x24c8>
    24e8:	04020000 	bltzl	zero,24ec <__isr_vec_space+0x24cc>
    24ec:	0001a207 	0x1a207
    24f0:	08160300 	j	580c00 <__memory_size+0x561400>
    24f4:	31020000 	andi	v0,t0,0x0
    24f8:	00000037 	0x37
    24fc:	a7070402 	sh	a3,1026(t8)
    2500:	03000001 	movf	zero,t8,$fcc0
    2504:	000007c4 	0x7c4
    2508:	00373202 	ror	a2,s7,0x8
    250c:	b5040000 	0xb5040000
    2510:	03000007 	srav	zero,zero,t8
    2514:	00370393 	0x370393
    2518:	08020000 	j	80000 <__memory_size+0x60800>
    251c:	00019d07 	0x19d07
    2520:	10830400 	beq	a0,v1,3524 <__isr_vec_space+0x3504>
    2524:	96030000 	lhu	v1,0(s0)
    2528:	00003703 	sra	a2,zero,0x1c
    252c:	05040500 	0x5040500
    2530:	00746e69 	0x746e69
    2534:	1a060102 	0x1a060102
    2538:	02000003 	0x2000003
    253c:	03180801 	movf	at,t8,$fcc6
    2540:	02020000 	0x2020000
    2544:	00032605 	0x32605
    2548:	07020200 	bltzl	t8,2d4c <__isr_vec_space+0x2d2c>
    254c:	00000282 	srl	zero,zero,0xa
    2550:	00033f03 	sra	a3,v1,0x1c
    2554:	96370400 	lhu	s7,1024(s1)
    2558:	02000000 	0x2000000
    255c:	01cb0504 	0x1cb0504
    2560:	1b030000 	0x1b030000
    2564:	04000002 	bltz	zero,2570 <__isr_vec_space+0x2550>
    2568:	00002538 	0x2538
    256c:	05080200 	tgei	t0,512
    2570:	000001c6 	0x1c6
    2574:	00030703 	sra	zero,v1,0x1c
    2578:	554e0400 	bnel	t2,t6,357c <__isr_vec_space+0x355c>
    257c:	03000000 	0x3000000
    2580:	00000341 	0x341
    2584:	008b4105 	0x8b4105
    2588:	1d030000 	0x1d030000
    258c:	05000002 	bltz	t0,2598 <__isr_vec_space+0x2578>
    2590:	00009d42 	srl	s3,zero,0x15
    2594:	03090300 	0x3090300
    2598:	4e050000 	lwxc1	$f0,a1(s0)
    259c:	000000af 	0xaf
    25a0:	ec067c06 	swc3	$6,31750(zero)
    25a4:	00000158 	0x158
    25a8:	00746107 	0x746107
    25ac:	005cee06 	0x5cee06
    25b0:	07000000 	bltz	t8,25b4 <__isr_vec_space+0x2594>
    25b4:	ef060076 	swc3	$6,118(t8)
    25b8:	00000158 	0x158
    25bc:	00610704 	0x610704
    25c0:	016ff406 	0x16ff406
    25c4:	070c0000 	teqi	t8,0
    25c8:	f5060074 	sdc1	$f6,116(t0)
    25cc:	0000017f 	0x17f
    25d0:	0073071c 	0x73071c
    25d4:	017ff706 	0x17ff706
    25d8:	073c0000 	0x73c0000
    25dc:	06003274 	bltz	s0,efb0 <__isr_vec_space+0xef90>
    25e0:	000158f8 	0x158f8
    25e4:	6b075c00 	0x6b075c00
    25e8:	58f90600 	0x58f90600
    25ec:	64000001 	0x64000001
    25f0:	00706707 	0x706707
    25f4:	005cfa06 	0x5cfa06
    25f8:	076c0000 	teqi	k1,0
    25fc:	06007073 	bltz	s0,1e7cc <__isr_vec_space+0x1e7ac>
    2600:	00005cfb 	0x5cfb
    2604:	66077000 	0x66077000
    2608:	fc060070 	sdc3	$6,112(zero)
    260c:	0000005c 	0x5c
    2610:	61720774 	0x61720774
    2614:	5cfd0600 	0x5cfd0600
    2618:	78000000 	andi.b	$w0,$w0,0x0
    261c:	005c0800 	0x5c0800
    2620:	01680000 	0x1680000
    2624:	68090000 	0x68090000
    2628:	01000001 	movf	zero,t0,$fcc0
    262c:	07040200 	0x7040200
    2630:	000002e8 	0x2e8
    2634:	00005c08 	0x5c08
    2638:	00017f00 	sll	t7,at,0x1c
    263c:	01680900 	0x1680900
    2640:	00030000 	sll	zero,v1,0x0
    2644:	00005c08 	0x5c08
    2648:	00018f00 	sll	s1,at,0x1c
    264c:	01680900 	0x1680900
    2650:	00070000 	sll	zero,a3,0x0
    2654:	ea067c0a 	swc2	$6,31754(s0)
    2658:	000001a6 	0x1a6
    265c:	0000db0b 	0xdb0b
    2660:	00720c00 	0x720c00
    2664:	01a6ff06 	0x1a6ff06
    2668:	08000000 	j	0 <hardware_exit_hook>
    266c:	0000005c 	0x5c
    2670:	000001b6 	tne	zero,zero,0x6
    2674:	00016809 	0x16809
    2678:	0d001e00 	jal	4007800 <__memory_size+0x3fe8000>
    267c:	000007cc 	syscall	0x1f
    2680:	3ce806a0 	0x3ce806a0
    2684:	0e000002 	jal	8000008 <__memory_size+0x7fe0808>
    2688:	0000018f 	sync	0x6
    268c:	70650f00 	0x70650f00
    2690:	02060063 	0x2060063
    2694:	00005c01 	0x5c01
    2698:	de107c00 	ldc3	$16,31744(s0)
    269c:	06000007 	bltz	s0,26bc <__isr_vec_space+0x269c>
    26a0:	005c0103 	0x5c0103
    26a4:	0f800000 	jal	e000000 <__memory_size+0xdfe0800>
    26a8:	06006968 	bltz	s0,1cc4c <__isr_vec_space+0x1cc2c>
    26ac:	005c0104 	0x5c0104
    26b0:	0f840000 	jal	e100000 <__memory_size+0xe0e0800>
    26b4:	06006f6c 	bltz	s0,1e468 <__isr_vec_space+0x1e448>
    26b8:	005c0105 	0x5c0105
    26bc:	10880000 	beq	a0,t0,26c0 <__isr_vec_space+0x26a0>
    26c0:	00000302 	srl	zero,zero,0xc
    26c4:	63010706 	0x63010706
    26c8:	8c000002 	lw	zero,2(zero)
    26cc:	0005cc10 	0x5cc10
    26d0:	010a0600 	0x10a0600
    26d4:	000000c5 	lsa	zero,zero,zero,0x4
    26d8:	07871090 	aclr	0x1,144(gp)
    26dc:	0c060000 	jal	180000 <__memory_size+0x160800>
    26e0:	0000c501 	0xc501
    26e4:	0d109400 	jal	4425000 <__memory_size+0x4405800>
    26e8:	06000008 	bltz	s0,270c <__isr_vec_space+0x26ec>
    26ec:	00c5010d 	break	0xc5,0x4
    26f0:	10980000 	beq	a0,t8,26f4 <__isr_vec_space+0x26d4>
    26f4:	00000803 	sra	at,zero,0x0
    26f8:	c5010e06 	lwc1	$f1,3590(t0)
    26fc:	9c000000 	0x9c000000
    2700:	078d1100 	0x78d1100
    2704:	06080000 	tgei	s0,0
    2708:	02630111 	0x2630111
    270c:	690f0000 	0x690f0000
    2710:	13060064 	beq	t8,a2,28a4 <__isr_vec_space+0x2884>
    2714:	00005c01 	0x5c01
    2718:	f2100000 	0xf2100000
    271c:	0600000b 	bltz	s0,274c <__isr_vec_space+0x272c>
    2720:	02630114 	0x2630114
    2724:	00040000 	sll	zero,a0,0x0
    2728:	023c0412 	0x23c0412
    272c:	79080000 	ori.b	$w0,$w0,0x8
    2730:	79000002 	shf.h	$w0,$w0,0x0
    2734:	09000002 	j	4000008 <__memory_size+0x3fe0808>
    2738:	00000168 	0x168
    273c:	0102000f 	0x102000f
    2740:	00032108 	0x32108
    2744:	04080200 	tgei	zero,512
    2748:	0000020a 	0x20a
    274c:	12040402 	beq	s0,a0,3758 <__isr_vec_space+0x3738>
    2750:	03000003 	0x3000003
    2754:	00000172 	tlt	zero,zero,0x5
    2758:	0025d407 	0x25d407
    275c:	04130000 	bgezall	zero,2760 <__isr_vec_space+0x2740>
    2760:	0003ca03 	sra	t9,v1,0x8
    2764:	68c10800 	0x68c10800
    2768:	14000000 	bnez	zero,276c <__isr_vec_space+0x274c>
    276c:	0000029e 	0x29e
    2770:	bf1b0904 	cache	0x1b,2308(t8)
    2774:	15000002 	bnez	t0,2780 <__isr_vec_space+0x2760>
    2778:	00000330 	tge	zero,zero,0xc
    277c:	07341500 	0x7341500
    2780:	00010000 	sll	zero,at,0x0
    2784:	00029e03 	sra	s3,v0,0x18
    2788:	a61e0900 	sh	s8,2304(s0)
    278c:	03000002 	0x3000002
    2790:	000002f7 	0x2f7
    2794:	00d02f09 	0xd02f09
    2798:	620d0000 	0x620d0000
    279c:	08000003 	j	c <ABIFlags_ases>
    27a0:	02fa3709 	0x2fa3709
    27a4:	f2160000 	0xf2160000
    27a8:	0900000b 	j	400002c <__memory_size+0x3fe082c>
    27ac:	0002fa38 	0x2fa38
    27b0:	8d160000 	lw	s6,0(t0)
    27b4:	09000001 	j	4000004 <__memory_size+0x3fe0804>
    27b8:	0002fa39 	0x2fa39
    27bc:	12000400 	beqz	s0,37c0 <__isr_vec_space+0x37a0>
    27c0:	0002d504 	0x2d504
    27c4:	036c0d00 	0x36c0d00
    27c8:	0a2c0000 	j	8b00000 <__memory_size+0x8ae0800>
    27cc:	00039107 	0x39107
    27d0:	01f21600 	0x1f21600
    27d4:	090a0000 	j	4280000 <__memory_size+0x4260800>
    27d8:	000000c5 	lsa	zero,zero,zero,0x4
    27dc:	01f81600 	0x1f81600
    27e0:	0a0a0000 	j	8280000 <__memory_size+0x8260800>
    27e4:	000000c5 	lsa	zero,zero,zero,0x4
    27e8:	01fe1604 	0x1fe1604
    27ec:	0a0a0000 	j	8280000 <__memory_size+0x8260800>
    27f0:	000000c5 	lsa	zero,zero,zero,0x4
    27f4:	02041608 	0x2041608
    27f8:	0a0a0000 	j	8280000 <__memory_size+0x8260800>
    27fc:	000000c5 	lsa	zero,zero,zero,0x4
    2800:	0239160c 	syscall	0x8e458
    2804:	0a0a0000 	j	8280000 <__memory_size+0x8260800>
    2808:	000000c5 	lsa	zero,zero,zero,0x4
    280c:	023f1610 	0x23f1610
    2810:	0a0a0000 	j	8280000 <__memory_size+0x8260800>
    2814:	000000c5 	lsa	zero,zero,zero,0x4
    2818:	02451614 	0x2451614
    281c:	0a0a0000 	j	8280000 <__memory_size+0x8260800>
    2820:	000000c5 	lsa	zero,zero,zero,0x4
    2824:	024b1618 	0x24b1618
    2828:	0a0a0000 	j	8280000 <__memory_size+0x8260800>
    282c:	000000c5 	lsa	zero,zero,zero,0x4
    2830:	025a161c 	0x25a161c
    2834:	0b0a0000 	j	c280000 <__memory_size+0xc260800>
    2838:	000000c5 	lsa	zero,zero,zero,0x4
    283c:	02cd1620 	0x2cd1620
    2840:	0b0a0000 	j	c280000 <__memory_size+0xc260800>
    2844:	000000c5 	lsa	zero,zero,zero,0x4
    2848:	02d31624 	0x2d31624
    284c:	0b0a0000 	j	c280000 <__memory_size+0xc260800>
    2850:	000000c5 	lsa	zero,zero,zero,0x4
    2854:	a00d0028 	sb	t5,40(zero)
    2858:	68000003 	0x68000003
    285c:	042d1a0a 	0x42d1a0a
    2860:	70070000 	madd	zero,a3
    2864:	0a006469 	j	80191a4 <__memory_size+0x7ff99a4>
    2868:	00029b1c 	0x29b1c
    286c:	95160000 	lhu	s6,0(t0)
    2870:	0a000002 	j	8000008 <__memory_size+0x7fe0808>
    2874:	0000ba1e 	0xba1e
    2878:	b5160400 	0xb5160400
    287c:	0a000009 	j	8000024 <__memory_size+0x7fe0824>
    2880:	0000ba1f 	0xba1f
    2884:	7d160800 	ext	s6,t0,0x0,0x2
    2888:	0a000003 	j	800000c <__memory_size+0x7fe080c>
    288c:	00026920 	0x26920
    2890:	4f160c00 	c3	0x1160c00
    2894:	0a000003 	j	800000c <__memory_size+0x7fe080c>
    2898:	0000c521 	0xc521
    289c:	a3161c00 	sb	s6,7168(t8)
    28a0:	0a000002 	j	8000008 <__memory_size+0x7fe0808>
    28a4:	00042d22 	0x42d22
    28a8:	e0162000 	sc	s6,8192(zero)
    28ac:	0a000001 	j	8000004 <__memory_size+0x7fe0804>
    28b0:	00043223 	0x43223
    28b4:	6c162400 	0x6c162400
    28b8:	0a000003 	j	800000c <__memory_size+0x7fe080c>
    28bc:	00030024 	and	zero,zero,v1
    28c0:	fd162800 	sdc3	$22,10240(t0)
    28c4:	0a000002 	j	8000008 <__memory_size+0x7fe0808>
    28c8:	0002d526 	0x2d526
    28cc:	66075400 	0x66075400
    28d0:	270a0073 	addiu	t2,t8,115
    28d4:	0000043d 	0x43d
    28d8:	03d0165c 	0x3d0165c
    28dc:	280a0000 	slti	t2,zero,0
    28e0:	00000448 	0x448
    28e4:	02c31660 	0x2c31660
    28e8:	290a0000 	slti	t2,t0,0
    28ec:	00000453 	0x453
    28f0:	bf170064 	cache	0x17,100(t8)
    28f4:	12000002 	beqz	s0,2900 <__isr_vec_space+0x28e0>
    28f8:	00039104 	0x39104
    28fc:	02b01800 	0x2b01800
    2900:	04120000 	bltzall	zero,2904 <__isr_vec_space+0x28e4>
    2904:	00000438 	0x438
    2908:	00039318 	0x39318
    290c:	43041200 	c0	0x1041200
    2910:	18000004 	blez	zero,2924 <__isr_vec_space+0x2904>
    2914:	000002c3 	sra	zero,zero,0xb
    2918:	044e0412 	tnei	v0,1042
    291c:	e7190000 	swc1	$f25,0(t8)
    2920:	01000007 	srav	zero,zero,t0
    2924:	001b6c10 	0x1b6c10
    2928:	00004080 	sll	t0,zero,0x2
    292c:	bd9c0100 	cache	0x1c,256(t4)
    2930:	1a000004 	blez	s0,2944 <__isr_vec_space+0x2924>
    2934:	17010069 	bne	t8,at,2adc <__isr_vec_space+0x2abc>
    2938:	00000068 	0x68
    293c:	00001108 	0x1108
    2940:	001b801b 	0x1b801b
    2944:	00001880 	sll	v1,zero,0x2
    2948:	0004b300 	sll	s6,a0,0xc
    294c:	06511c00 	bgezal	s2,9950 <__isr_vec_space+0x9930>
    2950:	19010000 	0x19010000
    2954:	000000c5 	lsa	zero,zero,zero,0x4
    2958:	0000112c 	0x112c
    295c:	001b881d 	0x1b881d
    2960:	00072e80 	sll	a1,a3,0x1a
    2964:	1b901d00 	0x1b901d00
    2968:	073f8000 	synci	-32768(t9)
    296c:	981d0000 	lwr	sp,0(zero)
    2970:	5080001b 	beqzl	a0,29e0 <__isr_vec_space+0x29c0>
    2974:	00000007 	srav	zero,zero,zero
    2978:	001b7c1d 	0x1b7c1d
    297c:	00075d80 	sll	t3,a3,0x16
    2980:	ac190000 	sw	t9,0(zero)
    2984:	01000007 	srav	zero,zero,t0
    2988:	001bac24 	0x1bac24
    298c:	00003080 	sll	a2,zero,0x2
    2990:	059c0100 	0x59c0100
    2994:	1e000005 	bgtz	s0,29ac <__isr_vec_space+0x298c>
    2998:	0000065f 	0x65f
    299c:	00c52c01 	0xc52c01
    29a0:	bc1d0000 	cache	0x1d,0(zero)
    29a4:	5d80001b 	bgtzl	t4,2a14 <__isr_vec_space+0x29f4>
    29a8:	1d000007 	bgtz	t0,29c8 <__isr_vec_space+0x29a8>
    29ac:	80001bc4 	lb	zero,7108(zero)
    29b0:	0000076a 	0x76a
    29b4:	001bd01f 	0x1bd01f
    29b8:	00077180 	sll	t6,a3,0x6
    29bc:	55012000 	bnel	t0,at,a9c0 <__isr_vec_space+0xa9a0>
    29c0:	20200802 	addi	zero,at,2050
    29c4:	30015401 	andi	at,zero,0x5401
    29c8:	b1210000 	0xb1210000
    29cc:	01000003 	0x1000003
    29d0:	0000683b 	0x683b
    29d4:	001bdc00 	sll	k1,k1,0x10
    29d8:	00003080 	sll	a2,zero,0x2
    29dc:	5b9c0100 	0x5b9c0100
    29e0:	22000005 	addi	zero,s0,5
    29e4:	000001bd 	0x1bd
    29e8:	00684101 	0x684101
    29ec:	052f0000 	0x52f0000
    29f0:	00230000 	0x230000
    29f4:	001bec1d 	0x1bec1d
    29f8:	00078b80 	sll	s1,a3,0xe
    29fc:	1bf41d00 	0x1bf41d00
    2a00:	07928000 	bltzall	gp,fffe2a04 <__flash_start+0x403e2a04>
    2a04:	fc1d0000 	sdc3	$29,0(zero)
    2a08:	9980001b 	lwr	zero,27(t4)
    2a0c:	1f000007 	bgtz	t8,2a2c <__isr_vec_space+0x2a0c>
    2a10:	80001c04 	lb	zero,7172(zero)
    2a14:	0000073f 	0x73f
    2a18:	02540120 	0x2540120
    2a1c:	00000080 	sll	zero,zero,0x2
    2a20:	00079524 	0x79524
    2a24:	01860600 	0x1860600
    2a28:	80001c0c 	lb	zero,7180(zero)
    2a2c:	00000150 	0x150
    2a30:	07049c01 	0x7049c01
    2a34:	63250000 	0x63250000
    2a38:	01007874 	teq	t0,zero,0x1e1
    2a3c:	00070448 	0x70448
    2a40:	00113f00 	sll	a3,s1,0x1c
    2a44:	07a22600 	bltzl	sp,c248 <__isr_vec_space+0xc228>
    2a48:	48010000 	mfc2	at,$0
    2a4c:	00000068 	0x68
    2a50:	000011c6 	0x11c6
    2a54:	001c4027 	nor	t0,zero,gp
    2a58:	00010c80 	sll	at,at,0x12
    2a5c:	07de1c00 	0x7de1c00
    2a60:	60010000 	0x60010000
    2a64:	000000c5 	lsa	zero,zero,zero,0x4
    2a68:	0000124b 	0x124b
    2a6c:	6e70761a 	0x6e70761a
    2a70:	c5610100 	lwc1	$f1,256(t3)
    2a74:	5e000000 	bgtzl	s0,2a78 <__isr_vec_space+0x2a58>
    2a78:	1a000012 	blez	s0,2ac4 <__isr_vec_space+0x2aa4>
    2a7c:	006e7070 	tge	v1,t6,0x1c1
    2a80:	00c56501 	0xc56501
    2a84:	12710000 	beq	s3,s1,2a88 <__isr_vec_space+0x2a68>
    2a88:	201b0000 	addi	k1,zero,0
    2a8c:	0480001d 	bltz	a0,2b04 <__isr_vec_space+0x2ae4>
    2a90:	de000000 	ldc3	$0,0(s0)
    2a94:	28000005 	slti	zero,zero,5
    2a98:	00725f5f 	0x725f5f
    2a9c:	00257801 	movt	t7,at,$fcc1
    2aa0:	1b000000 	blez	t8,2aa4 <__isr_vec_space+0x2a84>
    2aa4:	80001d24 	lb	zero,7460(zero)
    2aa8:	00000004 	sllv	zero,zero,zero
    2aac:	000005f7 	0x5f7
    2ab0:	725f5f28 	lxbu	t3,s2,ra,3
    2ab4:	25790100 	addiu	t9,t3,256
    2ab8:	00000000 	nop
    2abc:	001d281b 	0x1d281b
    2ac0:	00000480 	sll	zero,zero,0x12
    2ac4:	00061000 	sll	v0,a2,0x0
    2ac8:	5f5f2800 	0x5f5f2800
    2acc:	7a010072 	0x7a010072
    2ad0:	00000025 	move	zero,zero
    2ad4:	1d2c1b00 	0x1d2c1b00
    2ad8:	00048000 	sll	s0,a0,0x0
    2adc:	06290000 	tgeiu	s1,0
    2ae0:	5f280000 	0x5f280000
    2ae4:	0100725f 	0x100725f
    2ae8:	0000257b 	0x257b
    2aec:	4c290000 	lwxc1	$f0,t1(at)
    2af0:	3f80001c 	0x3f80001c
    2af4:	40000007 	mfc0	zero,$0,7
    2af8:	20000006 	addi	zero,zero,6
    2afc:	0c055401 	jal	155004 <__memory_size+0x135804>
    2b00:	11111111 	beq	t0,s1,6f48 <__isr_vec_space+0x6f28>
    2b04:	1c602900 	bgtz	v1,cf08 <__isr_vec_space+0xcee8>
    2b08:	073f8000 	synci	-32768(t9)
    2b0c:	06570000 	0x6570000
    2b10:	01200000 	0x1200000
    2b14:	020c0554 	0x20c0554
    2b18:	00020202 	srl	zero,v0,0x8
    2b1c:	001c7429 	0x1c7429
    2b20:	00073f80 	sll	a3,a3,0x1e
    2b24:	00066e00 	sll	t5,a2,0x18
    2b28:	54012000 	bnel	zero,at,ab2c <__isr_vec_space+0xab0c>
    2b2c:	04040c05 	0x4040c05
    2b30:	29000404 	slti	zero,t0,1028
    2b34:	80001c88 	lb	zero,7304(zero)
    2b38:	0000073f 	0x73f
    2b3c:	00000685 	0x685
    2b40:	05540120 	0x5540120
    2b44:	0101010c 	syscall	0x40404
    2b48:	a01d0001 	sb	sp,1(zero)
    2b4c:	3f80001c 	0x3f80001c
    2b50:	29000007 	slti	zero,t0,7
    2b54:	80001cb4 	lb	zero,7348(zero)
    2b58:	000007aa 	0x7aa
    2b5c:	000006a2 	0x6a2
    2b60:	02540120 	0x2540120
    2b64:	29000080 	slti	zero,t0,128
    2b68:	80001ccc 	lb	zero,7372(zero)
    2b6c:	000007aa 	0x7aa
    2b70:	000006b6 	tne	zero,zero,0x1a
    2b74:	02540120 	0x2540120
    2b78:	29000180 	slti	zero,t0,384
    2b7c:	80001cec 	lb	zero,7404(zero)
    2b80:	000007aa 	0x7aa
    2b84:	000006ca 	0x6ca
    2b88:	02540120 	0x2540120
    2b8c:	29007f80 	slti	zero,t0,32640
    2b90:	80001d04 	lb	zero,7428(zero)
    2b94:	000007aa 	0x7aa
    2b98:	000006de 	0x6de
    2b9c:	02540120 	0x2540120
    2ba0:	29000080 	slti	zero,t0,128
    2ba4:	80001d3c 	lb	zero,7484(zero)
    2ba8:	000007bf 	0x7bf
    2bac:	000006f2 	tlt	zero,zero,0x1b
    2bb0:	108d0220 	beq	a0,t5,3434 <__isr_vec_space+0x3414>
    2bb4:	1f003101 	bgtz	t8,efbc <__isr_vec_space+0xef9c>
    2bb8:	80001d4c 	lb	zero,7500(zero)
    2bbc:	000007e4 	0x7e4
    2bc0:	02540120 	0x2540120
    2bc4:	00000080 	sll	zero,zero,0x2
    2bc8:	b6041200 	0xb6041200
    2bcc:	2a000001 	slti	zero,s0,1
    2bd0:	000002f1 	tgeu	zero,zero,0xb
    2bd4:	071b120b 	0x71b120b
    2bd8:	03050000 	0x3050000
    2bdc:	80003fc4 	lb	zero,16324(zero)
    2be0:	02ca0412 	0x2ca0412
    2be4:	d92a0000 	ldc2	$10,0(t1)
    2be8:	0a000002 	j	8000008 <__memory_size+0x7fe0808>
    2bec:	0004320f 	0x4320f
    2bf0:	226c0100 	addi	t4,s3,256
    2bf4:	00000446 	0x446
    2bf8:	00c53b0c 	syscall	0x314ec
    2bfc:	073f0000 	synci	0(t9)
    2c00:	00230000 	0x230000
    2c04:	0000ca2b 	0xca2b
    2c08:	500e0d00 	beql	zero,t6,600c <__isr_vec_space+0x5fec>
    2c0c:	2c000007 	sltiu	zero,zero,7
    2c10:	00000037 	0x37
    2c14:	01512d00 	0x1512d00
    2c18:	140d0000 	bne	zero,t5,2c1c <__isr_vec_space+0x2bfc>
    2c1c:	0000075d 	0x75d
    2c20:	f72d0023 	sdc1	$f13,35(t9)
    2c24:	0c000003 	jal	c <ABIFlags_ases>
    2c28:	00076a39 	0x76a39
    2c2c:	2e002300 	sltiu	zero,s0,8960
    2c30:	000005ec 	0x5ec
    2c34:	c22f470b 	ll	t7,18187(s1)
    2c38:	0e000003 	jal	800000c <__memory_size+0x7fe080c>
    2c3c:	00029916 	0x29916
    2c40:	00078b00 	sll	s1,a3,0xc
    2c44:	029b2c00 	0x29b2c00
    2c48:	8e2c0000 	lw	t4,0(s1)
    2c4c:	00000002 	srl	zero,zero,0x0
    2c50:	0003f82e 	0x3f82e
    2c54:	2e140e00 	sltiu	s4,s0,3584
    2c58:	00000260 	0x260
    2c5c:	bd223c0a 	cache	0x2,15370(t1)
    2c60:	01000001 	movf	zero,t0,$fcc0
    2c64:	00006841 	0x6841
    2c68:	0007aa00 	sll	s5,a3,0x8
    2c6c:	2f002300 	sltiu	zero,t8,8960
    2c70:	000005dd 	0x5dd
    2c74:	00c5600b 	movn	t4,a2,a1
    2c78:	07bf0000 	synci	0(sp)
    2c7c:	c52c0000 	lwc1	$f12,0(t1)
    2c80:	00000000 	nop
    2c84:	0007d22b 	0x7d22b
    2c88:	e4430200 	swc1	$f3,512(v0)
    2c8c:	2c000007 	sltiu	zero,zero,7
    2c90:	0000002c 	0x2c
    2c94:	00003e2c 	0x3e2c
    2c98:	003e2c00 	0x3e2c00
    2c9c:	372c0000 	ori	t4,t9,0x0
    2ca0:	2c000000 	sltiu	zero,zero,0
    2ca4:	00000068 	0x68
    2ca8:	07f03000 	bltzal	ra,ecac <__isr_vec_space+0xec8c>
    2cac:	88060000 	lwl	a2,0(zero)
    2cb0:	07042c01 	0x7042c01
    2cb4:	682c0000 	0x682c0000
    2cb8:	00000000 	nop
    2cbc:	00010200 	sll	zero,at,0x8
    2cc0:	a1000400 	sb	zero,1024(t0)
    2cc4:	0400000f 	bltz	zero,2d04 <__isr_vec_space+0x2ce4>
    2cc8:	00089901 	0x89901
    2ccc:	082d0100 	j	b40400 <__memory_size+0xb20c00>
    2cd0:	1da40000 	0x1da40000
    2cd4:	00288000 	0x288000
    2cd8:	13100000 	beq	t8,s0,2cdc <__isr_vec_space+0x2cbc>
    2cdc:	04020000 	bltzl	zero,2ce0 <__isr_vec_space+0x2cc0>
    2ce0:	0001a207 	0x1a207
    2ce4:	05040300 	0x5040300
    2ce8:	00746e69 	0x746e69
    2cec:	cb050402 	lwc2	$5,1026(t8)
    2cf0:	02000001 	movf	zero,s0,$fcc0
    2cf4:	031a0601 	0x31a0601
    2cf8:	01020000 	0x1020000
    2cfc:	00031808 	0x31808
    2d00:	05020200 	bltzl	t0,3504 <__isr_vec_space+0x34e4>
    2d04:	00000326 	0x326
    2d08:	82070202 	lb	a3,514(s0)
    2d0c:	02000002 	0x2000002
    2d10:	01c60508 	0x1c60508
    2d14:	08020000 	j	80000 <__memory_size+0x60800>
    2d18:	00019d07 	0x19d07
    2d1c:	07040200 	0x7040200
    2d20:	000001a7 	0x1a7
    2d24:	e8070402 	swc2	$7,1026(zero)
    2d28:	04000002 	bltz	zero,2d34 <__isr_vec_space+0x2d14>
    2d2c:	76040504 	jalx	8101410 <__memory_size+0x80e1c10>
    2d30:	06000000 	bltz	s0,2d34 <__isr_vec_space+0x2d14>
    2d34:	21080102 	addi	t0,t0,258
    2d38:	07000003 	bltz	t8,2d48 <__isr_vec_space+0x2d28>
    2d3c:	0000081e 	0x81e
    2d40:	9d050204 	0x9d050204
    2d44:	08000000 	j	0 <hardware_exit_hook>
    2d48:	0000094a 	0x94a
    2d4c:	088d0800 	j	2342000 <__memory_size+0x2322800>
    2d50:	08010000 	j	40000 <__memory_size+0x20800>
    2d54:	00000941 	0x941
    2d58:	4f090002 	c3	0x1090002
    2d5c:	03000009 	jalr	zero,t8
    2d60:	00002844 	0x2844
    2d64:	001da400 	sll	s4,sp,0x10
    2d68:	00002880 	sll	a1,zero,0x2
    2d6c:	e59c0100 	swc1	$f28,256(t4)
    2d70:	0a000000 	j	8000000 <__memory_size+0x7fe0800>
    2d74:	01006e66 	0x1006e66
    2d78:	0000703d 	0x703d
    2d7c:	0012a500 	sll	s4,s2,0x14
    2d80:	1dc00b00 	bgtz	t6,5984 <__isr_vec_space+0x5964>
    2d84:	00e58000 	0xe58000
    2d88:	010c0000 	0x10c0000
    2d8c:	0c300157 	jal	c0055c <__memory_size+0xbe0d5c>
    2d90:	30015601 	andi	at,zero,0x5601
    2d94:	0355010c 	syscall	0xd5404
    2d98:	0c5401f3 	jal	15007cc <__memory_size+0x14e0fcc>
    2d9c:	30015401 	andi	at,zero,0x5401
    2da0:	790d0000 	ori.b	$w0,$w0,0xd
    2da4:	02000008 	jr	s0
    2da8:	0000280d 	break	0x0,0xa0
    2dac:	00280e00 	0x280e00
    2db0:	700e0000 	madd	zero,t6
    2db4:	0e000000 	jal	8000000 <__memory_size+0x7fe0800>
    2db8:	0000006e 	0x6e
    2dbc:	00006e0e 	0x6e0e
    2dc0:	dc000000 	ldc3	$0,0(zero)
    2dc4:	04000008 	bltz	zero,2de8 <__isr_vec_space+0x2dc8>
    2dc8:	00105400 	sll	t2,s0,0x10
    2dcc:	99010400 	lwr	at,1024(t0)
    2dd0:	01000008 	jr	t0
    2dd4:	00000b91 	0xb91
    2dd8:	80001dcc 	lb	zero,7628(zero)
    2ddc:	0000003c 	0x3c
    2de0:	000013eb 	0x13eb
    2de4:	a2070402 	sb	a3,1026(s0)
    2de8:	03000001 	movf	zero,t8,$fcc0
    2dec:	6e690504 	0x6e690504
    2df0:	04020074 	bltzl	zero,2fc4 <__isr_vec_space+0x2fa4>
    2df4:	0001cb05 	0x1cb05
    2df8:	06010200 	bgez	s0,35fc <__isr_vec_space+0x35dc>
    2dfc:	0000031a 	0x31a
    2e00:	18080102 	0x18080102
    2e04:	02000003 	0x2000003
    2e08:	03260502 	0x3260502
    2e0c:	02020000 	0x2020000
    2e10:	00028207 	0x28207
    2e14:	05080200 	tgei	t0,512
    2e18:	000001c6 	0x1c6
    2e1c:	9d070802 	0x9d070802
    2e20:	04000001 	bltz	zero,2e28 <__isr_vec_space+0x2e08>
    2e24:	00000b49 	0xb49
    2e28:	00280702 	ror	zero,t0,0x1c
    2e2c:	1c040000 	0x1c040000
    2e30:	0300000b 	movn	zero,t8,zero
    2e34:	00002f10 	0x2f10
    2e38:	0c530400 	jal	14c1000 <__memory_size+0x14a1800>
    2e3c:	27030000 	addiu	v1,t8,0
    2e40:	0000002f 	0x2f
    2e44:	000ae105 	0xae105
    2e48:	01610400 	0x1610400
    2e4c:	0000008d 	break	0x0,0x2
    2e50:	a7070402 	sh	a3,1026(t8)
    2e54:	06000001 	bltz	s0,2e5c <__isr_vec_space+0x2e3c>
    2e58:	b34a0304 	0xb34a0304
    2e5c:	07000000 	bltz	t8,2e60 <__isr_vec_space+0x2e40>
    2e60:	00000adb 	0xadb
    2e64:	00814c03 	0x814c03
    2e68:	8d070000 	lw	a3,0(t0)
    2e6c:	0300000a 	movz	zero,t8,zero
    2e70:	0000b34d 	break	0x0,0x2cd
    2e74:	3d080000 	0x3d080000
    2e78:	c3000000 	ll	zero,0(t8)
    2e7c:	09000000 	j	4000000 <__memory_size+0x3fe0800>
    2e80:	000000c3 	sra	zero,zero,0x3
    2e84:	04020003 	bltzl	zero,2e94 <__isr_vec_space+0x2e74>
    2e88:	0002e807 	srav	sp,v0,zero
    2e8c:	03080a00 	0x3080a00
    2e90:	0000eb47 	0xeb47
    2e94:	0c3d0b00 	jal	f42c00 <__memory_size+0xf23400>
    2e98:	49030000 	bc2tl	2e9c <__isr_vec_space+0x2e7c>
    2e9c:	00000028 	0x28
    2ea0:	0c450b00 	jal	1142c00 <__memory_size+0x1123400>
    2ea4:	4e030000 	lwxc1	$f0,v1(s0)
    2ea8:	00000094 	0x94
    2eac:	3e040004 	0x3e040004
    2eb0:	0300000b 	movn	zero,t8,zero
    2eb4:	0000ca4f 	0xca4f
    2eb8:	0a500400 	j	9401000 <__memory_size+0x93e1800>
    2ebc:	53030000 	beql	t8,v1,2ec0 <__isr_vec_space+0x2ea0>
    2ec0:	00000060 	0x60
    2ec4:	8004040c 	lb	a0,1036(zero)
    2ec8:	0500000c 	bltz	t0,2efc <__isr_vec_space+0x2edc>
    2ecc:	00002116 	0x2116
    2ed0:	0a610d00 	j	9843400 <__memory_size+0x9823c00>
    2ed4:	05180000 	0x5180000
    2ed8:	0001612d 	0x1612d
    2edc:	0bf10b00 	j	fc42c00 <__memory_size+0xfc23400>
    2ee0:	2f050000 	sltiu	a1,t8,0
    2ee4:	00000161 	0x161
    2ee8:	6b5f0e00 	0x6b5f0e00
    2eec:	28300500 	slti	s0,at,1280
    2ef0:	04000000 	bltz	zero,2ef4 <__isr_vec_space+0x2ed4>
    2ef4:	000c280b 	movn	a1,zero,t4
    2ef8:	28300500 	slti	s0,at,1280
    2efc:	08000000 	j	0 <hardware_exit_hook>
    2f00:	000a4a0b 	0xa4a0b
    2f04:	28300500 	slti	s0,at,1280
    2f08:	0c000000 	jal	0 <hardware_exit_hook>
    2f0c:	000cc70b 	0xcc70b
    2f10:	28300500 	slti	s0,at,1280
    2f14:	10000000 	b	2f18 <__isr_vec_space+0x2ef8>
    2f18:	00785f0e 	0x785f0e
    2f1c:	01673105 	0x1673105
    2f20:	00140000 	sll	zero,s4,0x0
    2f24:	010e040f 	0x10e040f
    2f28:	03080000 	0x3080000
    2f2c:	77000001 	jalx	c000004 <__memory_size+0xbfe0804>
    2f30:	09000001 	j	4000004 <__memory_size+0x3fe0804>
    2f34:	000000c3 	sra	zero,zero,0x3
    2f38:	880d0000 	lwl	t5,0(zero)
    2f3c:	2400000a 	li	zero,10
    2f40:	01f03505 	0x1f03505
    2f44:	bb0b0000 	swr	t3,0(t8)
    2f48:	05000009 	bltz	t0,2f70 <__isr_vec_space+0x2f50>
    2f4c:	00002837 	0x2837
    2f50:	5b0b0000 	0x5b0b0000
    2f54:	0500000c 	bltz	t0,2f88 <__isr_vec_space+0x2f68>
    2f58:	00002838 	0x2838
    2f5c:	ca0b0400 	lwc2	$11,1024(s0)
    2f60:	05000009 	bltz	t0,2f88 <__isr_vec_space+0x2f68>
    2f64:	00002839 	0x2839
    2f68:	5b0b0800 	0x5b0b0800
    2f6c:	0500000b 	bltz	t0,2f9c <__isr_vec_space+0x2f7c>
    2f70:	0000283a 	0x283a
    2f74:	080b0c00 	j	2c3000 <__memory_size+0x2a3800>
    2f78:	0500000b 	bltz	t0,2fa8 <__isr_vec_space+0x2f88>
    2f7c:	0000283b 	0x283b
    2f80:	f70b1000 	sdc1	$f11,4096(t8)
    2f84:	0500000a 	bltz	t0,2fb0 <__isr_vec_space+0x2f90>
    2f88:	0000283c 	0x283c
    2f8c:	cc0b1400 	pref	0xb,5120(zero)
    2f90:	0500000c 	bltz	t0,2fc4 <__isr_vec_space+0x2fa4>
    2f94:	0000283d 	0x283d
    2f98:	730b1800 	madd	$ac3,t8,t3
    2f9c:	0500000b 	bltz	t0,2fcc <__isr_vec_space+0x2fac>
    2fa0:	0000283e 	0x283e
    2fa4:	070b1c00 	tltiu	t8,7168
    2fa8:	0500000d 	bltz	t0,2fe0 <__isr_vec_space+0x2fc0>
    2fac:	0000283f 	0x283f
    2fb0:	10002000 	b	afb4 <__isr_vec_space+0xaf94>
    2fb4:	000009d9 	0x9d9
    2fb8:	48050108 	0x48050108
    2fbc:	00000230 	tge	zero,zero,0x8
    2fc0:	000a3d0b 	0xa3d0b
    2fc4:	30490500 	andi	t1,v0,0x500
    2fc8:	00000002 	srl	zero,zero,0x0
    2fcc:	0009560b 	0x9560b
    2fd0:	304a0500 	andi	t2,v0,0x500
    2fd4:	80000002 	lb	zero,2(zero)
    2fd8:	000c7711 	0xc7711
    2fdc:	034c0500 	0x34c0500
    2fe0:	00000001 	movf	zero,zero,$fcc0
    2fe4:	09fe1101 	j	7f84404 <__memory_size+0x7f64c04>
    2fe8:	4f050000 	lwxc1	$f0,a1(t8)
    2fec:	00000103 	sra	zero,zero,0x4
    2ff0:	08000104 	j	410 <__isr_vec_space+0x3f0>
    2ff4:	00000101 	0x101
    2ff8:	00000240 	sll	zero,zero,0x9
    2ffc:	0000c309 	0xc309
    3000:	10001f00 	b	ac04 <__isr_vec_space+0xabe4>
    3004:	0000094e 	0x94e
    3008:	5b050190 	0x5b050190
    300c:	0000027e 	0x27e
    3010:	000bf10b 	0xbf10b
    3014:	7e5c0500 	ext	gp,s2,0x14,0x1
    3018:	00000002 	srl	zero,zero,0x0
    301c:	000c090b 	0xc090b
    3020:	285d0500 	slti	sp,v0,1280
    3024:	04000000 	bltz	zero,3028 <__isr_vec_space+0x3008>
    3028:	000a450b 	0xa450b
    302c:	845f0500 	lh	ra,1280(v0)
    3030:	08000002 	j	8 <ABIFlags_isa_ext>
    3034:	0009d90b 	0x9d90b
    3038:	f0600500 	0xf0600500
    303c:	88000001 	lwl	zero,1(zero)
    3040:	40040f00 	0x40040f00
    3044:	08000002 	j	8 <ABIFlags_isa_ext>
    3048:	00000294 	0x294
    304c:	00000294 	0x294
    3050:	0000c309 	0xc309
    3054:	0f001f00 	jal	c007c00 <__memory_size+0xbfe8400>
    3058:	00029a04 	0x29a04
    305c:	7d0d1200 	ext	t5,t0,0x8,0x3
    3060:	0800000b 	j	2c <__isr_vec_space+0xc>
    3064:	02c07305 	0x2c07305
    3068:	180b0000 	0x180b0000
    306c:	05000010 	bltz	t0,30b0 <__isr_vec_space+0x3090>
    3070:	0002c074 	teq	zero,v0,0x301
    3074:	690b0000 	0x690b0000
    3078:	05000007 	bltz	t0,3098 <__isr_vec_space+0x3078>
    307c:	00002875 	0x2875
    3080:	0f000400 	jal	c001000 <__memory_size+0xbfe1800>
    3084:	00003d04 	0x3d04
    3088:	0bdb0d00 	j	f6c3400 <__memory_size+0xf6a3c00>
    308c:	05680000 	tgei	t3,0
    3090:	0003f0b3 	tltu	zero,v1,0x3c2
    3094:	705f0e00 	0x705f0e00
    3098:	c0b40500 	ll	s4,1280(a1)
    309c:	00000002 	srl	zero,zero,0x0
    30a0:	00725f0e 	0x725f0e
    30a4:	0028b505 	0x28b505
    30a8:	0e040000 	jal	8100000 <__memory_size+0x80e0800>
    30ac:	0500775f 	bltz	t0,20e2c <__memory_size+0x162c>
    30b0:	000028b6 	tne	zero,zero,0xa2
    30b4:	f70b0800 	sdc1	$f11,2048(t8)
    30b8:	05000009 	bltz	t0,30e0 <__isr_vec_space+0x30c0>
    30bc:	000044b7 	0x44b7
    30c0:	a40b0c00 	sh	t3,3072(zero)
    30c4:	0500000a 	bltz	t0,30f0 <__isr_vec_space+0x30d0>
    30c8:	000044b8 	0x44b8
    30cc:	5f0e0e00 	0x5f0e0e00
    30d0:	05006662 	bltz	t0,1ca5c <__isr_vec_space+0x1ca3c>
    30d4:	00029bb9 	0x29bb9
    30d8:	950b1000 	lhu	t3,4096(t0)
    30dc:	05000009 	bltz	t0,3104 <__isr_vec_space+0x30e4>
    30e0:	000028ba 	0x28ba
    30e4:	e70b1800 	swc1	$f11,6144(t8)
    30e8:	05000009 	bltz	t0,3110 <__isr_vec_space+0x30f0>
    30ec:	000101c1 	0x101c1
    30f0:	780b1c00 	andi.b	$w16,$w3,0xb
    30f4:	0500000a 	bltz	t0,3120 <__isr_vec_space+0x3100>
    30f8:	000553c3 	sra	t2,a1,0xf
    30fc:	f00b2000 	0xf00b2000
    3100:	0500000a 	bltz	t0,312c <__isr_vec_space+0x310c>
    3104:	000582c5 	0x582c5
    3108:	4d0b2400 	0x4d0b2400
    310c:	0500000c 	bltz	t0,3140 <__isr_vec_space+0x3120>
    3110:	0005a6c8 	0x5a6c8
    3114:	210b2800 	addi	t3,t0,10240
    3118:	0500000d 	bltz	t0,3150 <__isr_vec_space+0x3130>
    311c:	0005c0c9 	0x5c0c9
    3120:	5f0e2c00 	0x5f0e2c00
    3124:	05006275 	bltz	t0,1bafc <__isr_vec_space+0x1badc>
    3128:	00029bcc 	syscall	0xa6f
    312c:	5f0e3000 	0x5f0e3000
    3130:	05007075 	bltz	t0,1f308 <__isr_vec_space+0x1f2e8>
    3134:	0002c0cd 	break	0x2,0x303
    3138:	5f0e3800 	0x5f0e3800
    313c:	05007275 	bltz	t0,1fb14 <__memory_size+0x314>
    3140:	000028ce 	0x28ce
    3144:	c40b3c00 	lwc1	$f11,15360(zero)
    3148:	05000009 	bltz	t0,3170 <__isr_vec_space+0x3150>
    314c:	0005c6d1 	0x5c6d1
    3150:	f90b4000 	sdc2	$11,16384(t0)
    3154:	0500000c 	bltz	t0,3188 <__isr_vec_space+0x3168>
    3158:	0005d6d2 	0x5d6d2
    315c:	5f0e4300 	0x5f0e4300
    3160:	0500626c 	bltz	t0,1bb14 <__isr_vec_space+0x1baf4>
    3164:	00029bd5 	0x29bd5
    3168:	0d0b4400 	jal	42d1000 <__memory_size+0x42b1800>
    316c:	0500000a 	bltz	t0,3198 <__isr_vec_space+0x3178>
    3170:	000028d8 	0x28d8
    3174:	fa0b4c00 	sdc2	$11,19456(s0)
    3178:	05000005 	bltz	t0,3190 <__isr_vec_space+0x3170>
    317c:	00006bd9 	0x6bd9
    3180:	460b5000 	add.s	$f0,$f10,$f11
    3184:	0500000d 	bltz	t0,31bc <__isr_vec_space+0x319c>
    3188:	00040edc 	0x40edc
    318c:	fb0b5400 	sdc2	$11,21504(t8)
    3190:	0500000d 	bltz	t0,31c8 <__isr_vec_space+0x31a8>
    3194:	0000f6e0 	0xf6e0
    3198:	e30b5800 	sc	t3,22528(t8)
    319c:	0500000b 	bltz	t0,31cc <__isr_vec_space+0x31ac>
    31a0:	0000ebe2 	0xebe2
    31a4:	e80b5c00 	swc2	$11,23552(zero)
    31a8:	0500000a 	bltz	t0,31d4 <__isr_vec_space+0x31b4>
    31ac:	000028e3 	0x28e3
    31b0:	13006400 	beqz	t8,1c1b4 <__isr_vec_space+0x1c194>
    31b4:	00000028 	0x28
    31b8:	0000040e 	0x40e
    31bc:	00040e14 	0x40e14
    31c0:	01011400 	0x1011400
    31c4:	46140000 	add.s	$f0,$f0,$f20
    31c8:	14000005 	bnez	zero,31e0 <__isr_vec_space+0x31c0>
    31cc:	00000028 	0x28
    31d0:	14040f00 	bne	zero,a0,6dd4 <__isr_vec_space+0x6db4>
    31d4:	15000004 	bnez	t0,31e8 <__isr_vec_space+0x31c8>
    31d8:	00000c30 	tge	zero,zero,0x30
    31dc:	39050428 	xori	a1,t0,0x428
    31e0:	00054602 	srl	t0,a1,0x18
    31e4:	11c41600 	beq	t6,a0,89e8 <__isr_vec_space+0x89c8>
    31e8:	3b050000 	xori	a1,t8,0x0
    31ec:	00002802 	srl	a1,zero,0x0
    31f0:	06160000 	0x6160000
    31f4:	0500000a 	bltz	t0,3220 <__isr_vec_space+0x3200>
    31f8:	062d0240 	0x62d0240
    31fc:	16040000 	bne	s0,a0,3200 <__isr_vec_space+0x31e0>
    3200:	00000a94 	0xa94
    3204:	2d024005 	sltiu	v0,t0,16389
    3208:	08000006 	j	18 <ABIFlags_flags2+0x4>
    320c:	000a5916 	0xa5916
    3210:	02400500 	0x2400500
    3214:	0000062d 	0x62d
    3218:	0c04160c 	jal	105830 <__memory_size+0xe6030>
    321c:	42050000 	c0	0x50000
    3220:	00002802 	srl	a1,zero,0x0
    3224:	6a161000 	0x6a161000
    3228:	05000009 	bltz	t0,3250 <__isr_vec_space+0x3230>
    322c:	080f0243 	j	3c090c <__memory_size+0x3a110c>
    3230:	16140000 	bne	s0,s4,3234 <__isr_vec_space+0x3214>
    3234:	00000ca8 	0xca8
    3238:	28024505 	slti	v0,zero,17669
    323c:	30000000 	andi	zero,zero,0x0
    3240:	000c0e16 	0xc0e16
    3244:	02460500 	0x2460500
    3248:	00000577 	0x577
    324c:	0b111634 	j	c4458d0 <__memory_size+0xc4260d0>
    3250:	48050000 	mfc2	a1,$0
    3254:	00002802 	srl	a1,zero,0x0
    3258:	1e163800 	0x1e163800
    325c:	0500000c 	bltz	t0,3290 <__isr_vec_space+0x3270>
    3260:	082a024a 	j	a80928 <__memory_size+0xa61128>
    3264:	163c0000 	bne	s1,gp,3268 <__isr_vec_space+0x3248>
    3268:	00000ad3 	0xad3
    326c:	61024d05 	0x61024d05
    3270:	40000001 	mfc0	zero,c0_mvpcontrol
    3274:	000a7e16 	0xa7e16
    3278:	024e0500 	0x24e0500
    327c:	00000028 	0x28
    3280:	0d3b1644 	jal	4ec5910 <__memory_size+0x4ea6110>
    3284:	4f050000 	lwxc1	$f0,a1(t8)
    3288:	00016102 	srl	t4,at,0x4
    328c:	34164800 	li	s6,0x4800
    3290:	0500000b 	bltz	t0,32c0 <__isr_vec_space+0x32a0>
    3294:	08300250 	j	c00940 <__memory_size+0xbe1140>
    3298:	164c0000 	bne	s2,t4,329c <__isr_vec_space+0x327c>
    329c:	00000a9c 	0xa9c
    32a0:	28025305 	slti	v0,zero,21253
    32a4:	50000000 	beqzl	zero,32a8 <__isr_vec_space+0x3288>
    32a8:	000a1616 	0xa1616
    32ac:	02540500 	0x2540500
    32b0:	00000546 	0x546
    32b4:	0b651654 	j	d945950 <__memory_size+0xd926150>
    32b8:	77050000 	jalx	c140000 <__memory_size+0xc120800>
    32bc:	0007ed02 	srl	sp,a3,0x14
    32c0:	4e175800 	c3	0x175800
    32c4:	05000009 	bltz	t0,32ec <__isr_vec_space+0x32cc>
    32c8:	027e027b 	0x27e027b
    32cc:	01480000 	0x1480000
    32d0:	000ab117 	0xab117
    32d4:	027c0500 	0x27c0500
    32d8:	00000240 	sll	zero,zero,0x9
    32dc:	ef17014c 	swc3	$23,332(t8)
    32e0:	0500000c 	bltz	t0,3314 <__isr_vec_space+0x32f4>
    32e4:	08410280 	j	1040a00 <__memory_size+0x1021200>
    32e8:	02dc0000 	0x2dc0000
    32ec:	0009ef17 	0x9ef17
    32f0:	02850500 	0x2850500
    32f4:	000005f2 	tlt	zero,zero,0x17
    32f8:	d41702e0 	ldc1	$f23,736(zero)
    32fc:	05000009 	bltz	t0,3324 <__isr_vec_space+0x3304>
    3300:	084d0286 	j	1340a18 <__memory_size+0x1321218>
    3304:	02ec0000 	0x2ec0000
    3308:	4c040f00 	0x4c040f00
    330c:	02000005 	lsa	zero,s0,zero,0x1
    3310:	03210801 	movt	at,t9,$fcc0
    3314:	040f0000 	0x40f0000
    3318:	000003f0 	tge	zero,zero,0xf
    331c:	00002813 	0x2813
    3320:	00057700 	sll	t6,a1,0x1c
    3324:	040e1400 	tnei	zero,5120
    3328:	01140000 	0x1140000
    332c:	14000001 	bnez	zero,3334 <__isr_vec_space+0x3314>
    3330:	00000577 	0x577
    3334:	00002814 	0x2814
    3338:	040f0000 	0x40f0000
    333c:	0000057d 	0x57d
    3340:	00054c18 	0x54c18
    3344:	59040f00 	0x59040f00
    3348:	13000005 	beqz	t8,3360 <__isr_vec_space+0x3340>
    334c:	00000076 	tne	zero,zero,0x1
    3350:	000005a6 	0x5a6
    3354:	00040e14 	0x40e14
    3358:	01011400 	0x1011400
    335c:	76140000 	jalx	8500000 <__memory_size+0x84e0800>
    3360:	14000000 	bnez	zero,3364 <__isr_vec_space+0x3344>
    3364:	00000028 	0x28
    3368:	88040f00 	lwl	a0,3840(zero)
    336c:	13000005 	beqz	t8,3384 <__isr_vec_space+0x3364>
    3370:	00000028 	0x28
    3374:	000005c0 	sll	zero,zero,0x17
    3378:	00040e14 	0x40e14
    337c:	01011400 	0x1011400
    3380:	0f000000 	jal	c000000 <__memory_size+0xbfe0800>
    3384:	0005ac04 	0x5ac04
    3388:	003d0800 	0x3d0800
    338c:	05d60000 	0x5d60000
    3390:	c3090000 	ll	t1,0(t8)
    3394:	02000000 	0x2000000
    3398:	003d0800 	0x3d0800
    339c:	05e60000 	0x5e60000
    33a0:	c3090000 	ll	t1,0(t8)
    33a4:	00000000 	nop
    33a8:	0b8a0500 	j	e281400 <__memory_size+0xe261c00>
    33ac:	1d050000 	0x1d050000
    33b0:	0002c601 	0x2c601
    33b4:	0cd61900 	jal	3586400 <__memory_size+0x3566c00>
    33b8:	050c0000 	teqi	t0,0
    33bc:	06270121 	aclr	0x0,289(s1)
    33c0:	f1160000 	0xf1160000
    33c4:	0500000b 	bltz	t0,33f4 <__isr_vec_space+0x33d4>
    33c8:	06270123 	aclr	0x0,291(s1)
    33cc:	16000000 	bnez	s0,33d0 <__isr_vec_space+0x33b0>
    33d0:	00000aaa 	0xaaa
    33d4:	28012405 	slti	at,zero,9221
    33d8:	04000000 	bltz	zero,33dc <__isr_vec_space+0x33bc>
    33dc:	000b8416 	0xb8416
    33e0:	01250500 	0x1250500
    33e4:	0000062d 	0x62d
    33e8:	040f0008 	0x40f0008
    33ec:	000005f2 	tlt	zero,zero,0x17
    33f0:	05e6040f 	0x5e6040f
    33f4:	62190000 	0x62190000
    33f8:	0e000009 	jal	8000024 <__memory_size+0x7fe0824>
    33fc:	68013d05 	0x68013d05
    3400:	16000006 	bnez	s0,341c <__isr_vec_space+0x33fc>
    3404:	00000c37 	0xc37
    3408:	68013e05 	0x68013e05
    340c:	00000006 	srlv	zero,zero,zero
    3410:	000c6416 	0xc6416
    3414:	013f0500 	0x13f0500
    3418:	00000668 	0x668
    341c:	01ed1606 	0x1ed1606
    3420:	40050000 	mfc0	a1,c0_index
    3424:	00004b01 	0x4b01
    3428:	08000c00 	j	3000 <__isr_vec_space+0x2fe0>
    342c:	0000004b 	0x4b
    3430:	00000678 	0x678
    3434:	0000c309 	0xc309
    3438:	1a000200 	blez	s0,3c3c <__isr_vec_space+0x3c1c>
    343c:	025805d0 	0x25805d0
    3440:	00000779 	0x779
    3444:	000cba16 	0xcba16
    3448:	025a0500 	0x25a0500
    344c:	0000008d 	break	0x0,0x2
    3450:	0c6a1600 	jal	1a85800 <__memory_size+0x1a66000>
    3454:	5b050000 	0x5b050000
    3458:	00054602 	srl	t0,a1,0x18
    345c:	c6160400 	lwc1	$f22,1024(s0)
    3460:	0500000a 	bltz	t0,348c <__isr_vec_space+0x346c>
    3464:	0779025c 	0x779025c
    3468:	16080000 	bne	s0,t0,346c <__isr_vec_space+0x344c>
    346c:	00000d12 	0xd12
    3470:	77025d05 	jalx	c097414 <__memory_size+0xc077c14>
    3474:	24000001 	li	zero,1
    3478:	000a6916 	0xa6916
    347c:	025e0500 	0x25e0500
    3480:	00000028 	0x28
    3484:	0bec1648 	j	fb05920 <__memory_size+0xfae6120>
    3488:	5f050000 	0x5f050000
    348c:	00005902 	srl	t3,zero,0x4
    3490:	28165000 	slti	s6,zero,20480
    3494:	0500000d 	bltz	t0,34cc <__isr_vec_space+0x34ac>
    3498:	06330260 	bgezall	s1,3e1c <__isr_vec_space+0x3dfc>
    349c:	16580000 	bne	s2,t8,34a0 <__isr_vec_space+0x3480>
    34a0:	00000bf7 	0xbf7
    34a4:	eb026105 	swc2	$2,24837(t8)
    34a8:	68000000 	0x68000000
    34ac:	000d2d16 	0xd2d16
    34b0:	02620500 	0x2620500
    34b4:	000000eb 	0xeb
    34b8:	09ad1670 	j	6b459c0 <__memory_size+0x6b261c0>
    34bc:	63050000 	0x63050000
    34c0:	0000eb02 	srl	sp,zero,0xc
    34c4:	e5167800 	swc1	$f22,30720(t0)
    34c8:	0500000c 	bltz	t0,34fc <__isr_vec_space+0x34dc>
    34cc:	07890264 	tgeiu	gp,612
    34d0:	16800000 	bnez	s4,34d4 <__isr_vec_space+0x34b4>
    34d4:	00000aba 	0xaba
    34d8:	99026505 	lwr	v0,25861(t0)
    34dc:	88000007 	lwl	zero,7(zero)
    34e0:	000c8816 	0xc8816
    34e4:	02660500 	0x2660500
    34e8:	00000028 	0x28
    34ec:	0a2f16a0 	j	8bc5a80 <__memory_size+0x8ba6280>
    34f0:	67050000 	0x67050000
    34f4:	0000eb02 	srl	sp,zero,0xc
    34f8:	9e16a400 	0x9e16a400
    34fc:	05000009 	bltz	t0,3524 <__isr_vec_space+0x3504>
    3500:	00eb0268 	0xeb0268
    3504:	16ac0000 	bne	s5,t4,3508 <__isr_vec_space+0x34e8>
    3508:	00000a1e 	0xa1e
    350c:	eb026905 	swc2	$2,26885(t8)
    3510:	b4000000 	0xb4000000
    3514:	00097516 	0x97516
    3518:	026a0500 	0x26a0500
    351c:	000000eb 	0xeb
    3520:	098416bc 	j	6105af0 <__memory_size+0x60e62f0>
    3524:	6b050000 	0x6b050000
    3528:	0000eb02 	srl	sp,zero,0xc
    352c:	6a16c400 	0x6a16c400
    3530:	0500000b 	bltz	t0,3560 <__isr_vec_space+0x3540>
    3534:	0028026c 	0x28026c
    3538:	00cc0000 	0xcc0000
    353c:	00054c08 	0x54c08
    3540:	00078900 	sll	s1,a3,0x4
    3544:	00c30900 	0xc30900
    3548:	00190000 	sll	zero,t9,0x0
    354c:	00054c08 	0x54c08
    3550:	00079900 	sll	s3,a3,0x4
    3554:	00c30900 	0xc30900
    3558:	00070000 	sll	zero,a3,0x0
    355c:	00054c08 	0x54c08
    3560:	0007a900 	sll	s5,a3,0x4
    3564:	00c30900 	0xc30900
    3568:	00170000 	sll	zero,s7,0x0
    356c:	7105f01a 	udi10	t0,a1,s8,0x0
    3570:	0007cd02 	srl	t9,a3,0x14
    3574:	0b011600 	j	c045800 <__memory_size+0xc026000>
    3578:	74050000 	jalx	140000 <__memory_size+0x120800>
    357c:	0007cd02 	srl	t9,a3,0x14
    3580:	dc160000 	ldc3	$22,0(zero)
    3584:	0500000c 	bltz	t0,35b8 <__isr_vec_space+0x3598>
    3588:	07dd0275 	0x7dd0275
    358c:	00780000 	0x780000
    3590:	0002c008 	0x2c008
    3594:	0007dd00 	sll	k1,a3,0x14
    3598:	00c30900 	0xc30900
    359c:	001d0000 	sll	zero,sp,0x0
    35a0:	00008d08 	0x8d08
    35a4:	0007ed00 	sll	sp,a3,0x14
    35a8:	00c30900 	0xc30900
    35ac:	001d0000 	sll	zero,sp,0x0
    35b0:	5605f01b 	bnel	s0,a1,fffff620 <__flash_start+0x403ff620>
    35b4:	00080f02 	srl	at,t0,0x1c
    35b8:	0c301c00 	jal	c07000 <__memory_size+0xbe7800>
    35bc:	6d050000 	0x6d050000
    35c0:	00067802 	srl	t7,a2,0x0
    35c4:	0cff1c00 	jal	3fc7000 <__memory_size+0x3fa7800>
    35c8:	76050000 	jalx	8140000 <__memory_size+0x8120800>
    35cc:	0007a902 	srl	s5,a3,0x4
    35d0:	4c080000 	lwxc1	$f0,t0(zero)
    35d4:	1f000005 	bgtz	t8,35ec <__isr_vec_space+0x35cc>
    35d8:	09000008 	j	4000020 <__memory_size+0x3fe0820>
    35dc:	000000c3 	sra	zero,zero,0x3
    35e0:	2a1d0018 	slti	sp,s0,24
    35e4:	14000008 	bnez	zero,3608 <__isr_vec_space+0x35e8>
    35e8:	0000040e 	0x40e
    35ec:	1f040f00 	0x1f040f00
    35f0:	0f000008 	jal	c000020 <__memory_size+0xbfe0820>
    35f4:	00016104 	0x16104
    35f8:	08411d00 	j	1047400 <__memory_size+0x1027c00>
    35fc:	28140000 	slti	s4,zero,0
    3600:	00000000 	nop
    3604:	0847040f 	j	11c103c <__memory_size+0x11a183c>
    3608:	040f0000 	0x40f0000
    360c:	00000836 	tne	zero,zero,0x20
    3610:	0005e608 	0x5e608
    3614:	00085d00 	sll	t3,t0,0x14
    3618:	00c30900 	0xc30900
    361c:	00020000 	sll	zero,v0,0x0
    3620:	000ebe1e 	0xebe1e
    3624:	cc540600 	pref	0x14,1536(v0)
    3628:	3c80001d 	0x3c80001d
    362c:	01000000 	0x1000000
    3630:	0008ab9c 	0x8ab9c
    3634:	0eb71f00 	jal	adc7c00 <__memory_size+0xada8400>
    3638:	3a010000 	xori	at,s0,0x0
    363c:	00000028 	0x28
    3640:	000012d1 	0x12d1
    3644:	001de420 	0x1de420
    3648:	0008bc80 	sll	s7,t0,0x12
    364c:	00089a00 	sll	s3,t0,0x8
    3650:	55012100 	bnel	t0,at,ba54 <__isr_vec_space+0xba34>
    3654:	01213001 	movt	a2,t1,$fcc0
    3658:	00800254 	0x800254
    365c:	1e082200 	0x1e082200
    3660:	08d28000 	j	34a0000 <__memory_size+0x3480800>
    3664:	01210000 	0x1210000
    3668:	00800254 	0x800254
    366c:	95230000 	lhu	v1,0(t1)
    3670:	0500000c 	bltz	t0,36a4 <__isr_vec_space+0x3684>
    3674:	08b702fb 	j	2dc0bec <__memory_size+0x2da13ec>
    3678:	0e180000 	jal	8600000 <__memory_size+0x85e0800>
    367c:	24000004 	li	zero,4
    3680:	00000b23 	0xb23
    3684:	08d20c07 	j	348301c <__memory_size+0x346381c>
    3688:	28140000 	slti	s4,zero,0
    368c:	14000000 	bnez	zero,3690 <__isr_vec_space+0x3670>
    3690:	00000101 	0x101
    3694:	0ebd2500 	jal	af49400 <__memory_size+0xaf29c00>
    3698:	11080000 	beq	t0,t0,369c <__isr_vec_space+0x367c>
    369c:	00002814 	0x2814
    36a0:	8c000000 	lw	zero,0(zero)
    36a4:	04000008 	bltz	zero,36c8 <__isr_vec_space+0x36a8>
    36a8:	00123800 	sll	a3,s2,0x0
    36ac:	99010400 	lwr	at,1024(t0)
    36b0:	01000008 	jr	t0
    36b4:	00000d4c 	syscall	0x35
    36b8:	00001595 	0x1595
    36bc:	cb050402 	lwc2	$5,1026(t8)
    36c0:	02000001 	movf	zero,s0,$fcc0
    36c4:	01a20704 	0x1a20704
    36c8:	04030000 	bgezl	zero,36cc <__isr_vec_space+0x36ac>
    36cc:	746e6905 	jalx	1b9a414 <__memory_size+0x1b7ac14>
    36d0:	06010200 	bgez	s0,3ed4 <__isr_vec_space+0x3eb4>
    36d4:	0000031a 	0x31a
    36d8:	18080102 	0x18080102
    36dc:	02000003 	0x2000003
    36e0:	03260502 	0x3260502
    36e4:	02020000 	0x2020000
    36e8:	00028207 	0x28207
    36ec:	05080200 	tgei	t0,512
    36f0:	000001c6 	0x1c6
    36f4:	9d070802 	0x9d070802
    36f8:	04000001 	bltz	zero,3700 <__isr_vec_space+0x36e0>
    36fc:	00000b49 	0xb49
    3700:	00270701 	0x270701
    3704:	1c040000 	0x1c040000
    3708:	0200000b 	movn	zero,s0,zero
    370c:	00001910 	0x1910
    3710:	0c530400 	jal	14c1000 <__memory_size+0x14a1800>
    3714:	27020000 	addiu	v0,t8,0
    3718:	00000019 	multu	zero,zero
    371c:	000ae105 	0xae105
    3720:	01610300 	0x1610300
    3724:	00000085 	lsa	zero,zero,zero,0x3
    3728:	a7070402 	sh	a3,1026(t8)
    372c:	06000001 	bltz	s0,3734 <__isr_vec_space+0x3714>
    3730:	ab4a0204 	swl	t2,516(k0)
    3734:	07000000 	bltz	t8,3738 <__isr_vec_space+0x3718>
    3738:	00000adb 	0xadb
    373c:	00794c02 	0x794c02
    3740:	8d070000 	lw	a3,0(t0)
    3744:	0200000a 	movz	zero,s0,zero
    3748:	0000ab4d 	break	0x0,0x2ad
    374c:	35080000 	ori	t0,t0,0x0
    3750:	bb000000 	swr	zero,0(t8)
    3754:	09000000 	j	4000000 <__memory_size+0x3fe0800>
    3758:	000000bb 	0xbb
    375c:	04020003 	bltzl	zero,376c <__isr_vec_space+0x374c>
    3760:	0002e807 	srav	sp,v0,zero
    3764:	02080a00 	0x2080a00
    3768:	0000e347 	0xe347
    376c:	0c3d0b00 	jal	f42c00 <__memory_size+0xf23400>
    3770:	49020000 	bc2fl	3774 <__isr_vec_space+0x3754>
    3774:	00000027 	nor	zero,zero,zero
    3778:	0c450b00 	jal	1142c00 <__memory_size+0x1123400>
    377c:	4e020000 	lwxc1	$f0,v0(s0)
    3780:	0000008c 	syscall	0x2
    3784:	3e040004 	0x3e040004
    3788:	0200000b 	movn	zero,s0,zero
    378c:	0000c24f 	0xc24f
    3790:	0a500400 	j	9401000 <__memory_size+0x93e1800>
    3794:	53020000 	beql	t8,v0,3798 <__isr_vec_space+0x3778>
    3798:	00000058 	0x58
    379c:	8004040c 	lb	a0,1036(zero)
    37a0:	0400000c 	bltz	zero,37d4 <__isr_vec_space+0x37b4>
    37a4:	00002016 	0x2016
    37a8:	0a610d00 	j	9843400 <__memory_size+0x9823c00>
    37ac:	04180000 	0x4180000
    37b0:	0001592d 	0x1592d
    37b4:	0bf10b00 	j	fc42c00 <__memory_size+0xfc23400>
    37b8:	2f040000 	sltiu	a0,t8,0
    37bc:	00000159 	0x159
    37c0:	6b5f0e00 	0x6b5f0e00
    37c4:	27300400 	addiu	s0,t9,1024
    37c8:	04000000 	bltz	zero,37cc <__isr_vec_space+0x37ac>
    37cc:	000c280b 	movn	a1,zero,t4
    37d0:	27300400 	addiu	s0,t9,1024
    37d4:	08000000 	j	0 <hardware_exit_hook>
    37d8:	000a4a0b 	0xa4a0b
    37dc:	27300400 	addiu	s0,t9,1024
    37e0:	0c000000 	jal	0 <hardware_exit_hook>
    37e4:	000cc70b 	0xcc70b
    37e8:	27300400 	addiu	s0,t9,1024
    37ec:	10000000 	b	37f0 <__isr_vec_space+0x37d0>
    37f0:	00785f0e 	0x785f0e
    37f4:	015f3104 	0x15f3104
    37f8:	00140000 	sll	zero,s4,0x0
    37fc:	0106040f 	0x106040f
    3800:	fb080000 	sdc2	$8,0(t8)
    3804:	6f000000 	0x6f000000
    3808:	09000001 	j	4000004 <__memory_size+0x3fe0804>
    380c:	000000bb 	0xbb
    3810:	880d0000 	lwl	t5,0(zero)
    3814:	2400000a 	li	zero,10
    3818:	01e83504 	0x1e83504
    381c:	bb0b0000 	swr	t3,0(t8)
    3820:	04000009 	bltz	zero,3848 <__isr_vec_space+0x3828>
    3824:	00002737 	0x2737
    3828:	5b0b0000 	0x5b0b0000
    382c:	0400000c 	bltz	zero,3860 <__isr_vec_space+0x3840>
    3830:	00002738 	0x2738
    3834:	ca0b0400 	lwc2	$11,1024(s0)
    3838:	04000009 	bltz	zero,3860 <__isr_vec_space+0x3840>
    383c:	00002739 	0x2739
    3840:	5b0b0800 	0x5b0b0800
    3844:	0400000b 	bltz	zero,3874 <__isr_vec_space+0x3854>
    3848:	0000273a 	0x273a
    384c:	080b0c00 	j	2c3000 <__memory_size+0x2a3800>
    3850:	0400000b 	bltz	zero,3880 <__isr_vec_space+0x3860>
    3854:	0000273b 	0x273b
    3858:	f70b1000 	sdc1	$f11,4096(t8)
    385c:	0400000a 	bltz	zero,3888 <__isr_vec_space+0x3868>
    3860:	0000273c 	0x273c
    3864:	cc0b1400 	pref	0xb,5120(zero)
    3868:	0400000c 	bltz	zero,389c <__isr_vec_space+0x387c>
    386c:	0000273d 	0x273d
    3870:	730b1800 	madd	$ac3,t8,t3
    3874:	0400000b 	bltz	zero,38a4 <__isr_vec_space+0x3884>
    3878:	0000273e 	0x273e
    387c:	070b1c00 	tltiu	t8,7168
    3880:	0400000d 	bltz	zero,38b8 <__isr_vec_space+0x3898>
    3884:	0000273f 	0x273f
    3888:	10002000 	b	b88c <__isr_vec_space+0xb86c>
    388c:	000009d9 	0x9d9
    3890:	48040108 	0x48040108
    3894:	00000228 	0x228
    3898:	000a3d0b 	0xa3d0b
    389c:	28490400 	slti	t1,v0,1024
    38a0:	00000002 	srl	zero,zero,0x0
    38a4:	0009560b 	0x9560b
    38a8:	284a0400 	slti	t2,v0,1024
    38ac:	80000002 	lb	zero,2(zero)
    38b0:	000c7711 	0xc7711
    38b4:	fb4c0400 	sdc2	$12,1024(k0)
    38b8:	00000000 	nop
    38bc:	09fe1101 	j	7f84404 <__memory_size+0x7f64c04>
    38c0:	4f040000 	lwxc1	$f0,a0(t8)
    38c4:	000000fb 	0xfb
    38c8:	08000104 	j	410 <__isr_vec_space+0x3f0>
    38cc:	000000f9 	0xf9
    38d0:	00000238 	0x238
    38d4:	0000bb09 	0xbb09
    38d8:	10001f00 	b	b4dc <__isr_vec_space+0xb4bc>
    38dc:	0000094e 	0x94e
    38e0:	5b040190 	0x5b040190
    38e4:	00000276 	tne	zero,zero,0x9
    38e8:	000bf10b 	0xbf10b
    38ec:	765c0400 	jalx	9701000 <__memory_size+0x96e1800>
    38f0:	00000002 	srl	zero,zero,0x0
    38f4:	000c090b 	0xc090b
    38f8:	275d0400 	addiu	sp,k0,1024
    38fc:	04000000 	bltz	zero,3900 <__isr_vec_space+0x38e0>
    3900:	000a450b 	0xa450b
    3904:	7c5f0400 	ext	ra,v0,0x10,0x1
    3908:	08000002 	j	8 <ABIFlags_isa_ext>
    390c:	0009d90b 	0x9d90b
    3910:	e8600400 	swc2	$0,1024(v1)
    3914:	88000001 	lwl	zero,1(zero)
    3918:	38040f00 	xori	a0,zero,0xf00
    391c:	08000002 	j	8 <ABIFlags_isa_ext>
    3920:	0000028c 	syscall	0xa
    3924:	0000028c 	syscall	0xa
    3928:	0000bb09 	0xbb09
    392c:	0f001f00 	jal	c007c00 <__memory_size+0xbfe8400>
    3930:	00029204 	0x29204
    3934:	7d0d1200 	ext	t5,t0,0x8,0x3
    3938:	0800000b 	j	2c <__isr_vec_space+0xc>
    393c:	02b87304 	0x2b87304
    3940:	180b0000 	0x180b0000
    3944:	04000010 	bltz	zero,3988 <__isr_vec_space+0x3968>
    3948:	0002b874 	teq	zero,v0,0x2e1
    394c:	690b0000 	0x690b0000
    3950:	04000007 	bltz	zero,3970 <__isr_vec_space+0x3950>
    3954:	00002775 	0x2775
    3958:	0f000400 	jal	c001000 <__memory_size+0xbfe1800>
    395c:	00003504 	0x3504
    3960:	0bdb0d00 	j	f6c3400 <__memory_size+0xf6a3c00>
    3964:	04680000 	tgei	v1,0
    3968:	0003e8b3 	tltu	zero,v1,0x3a2
    396c:	705f0e00 	0x705f0e00
    3970:	b8b40400 	swr	s4,1024(a1)
    3974:	00000002 	srl	zero,zero,0x0
    3978:	00725f0e 	0x725f0e
    397c:	0027b504 	0x27b504
    3980:	0e040000 	jal	8100000 <__memory_size+0x80e0800>
    3984:	0400775f 	bltz	zero,21704 <__memory_size+0x1f04>
    3988:	000027b6 	tne	zero,zero,0x9e
    398c:	f70b0800 	sdc1	$f11,2048(t8)
    3990:	04000009 	bltz	zero,39b8 <__isr_vec_space+0x3998>
    3994:	00003cb7 	0x3cb7
    3998:	a40b0c00 	sh	t3,3072(zero)
    399c:	0400000a 	bltz	zero,39c8 <__isr_vec_space+0x39a8>
    39a0:	00003cb8 	0x3cb8
    39a4:	5f0e0e00 	0x5f0e0e00
    39a8:	04006662 	bltz	zero,1d334 <__isr_vec_space+0x1d314>
    39ac:	000293b9 	0x293b9
    39b0:	950b1000 	lhu	t3,4096(t0)
    39b4:	04000009 	bltz	zero,39dc <__isr_vec_space+0x39bc>
    39b8:	000027ba 	0x27ba
    39bc:	e70b1800 	swc1	$f11,6144(t8)
    39c0:	04000009 	bltz	zero,39e8 <__isr_vec_space+0x39c8>
    39c4:	0000f9c1 	0xf9c1
    39c8:	780b1c00 	andi.b	$w16,$w3,0xb
    39cc:	0400000a 	bltz	zero,39f8 <__isr_vec_space+0x39d8>
    39d0:	00054bc3 	sra	t1,a1,0xf
    39d4:	f00b2000 	0xf00b2000
    39d8:	0400000a 	bltz	zero,3a04 <__isr_vec_space+0x39e4>
    39dc:	00057ac5 	0x57ac5
    39e0:	4d0b2400 	0x4d0b2400
    39e4:	0400000c 	bltz	zero,3a18 <__isr_vec_space+0x39f8>
    39e8:	00059ec8 	0x59ec8
    39ec:	210b2800 	addi	t3,t0,10240
    39f0:	0400000d 	bltz	zero,3a28 <__isr_vec_space+0x3a08>
    39f4:	0005b8c9 	0x5b8c9
    39f8:	5f0e2c00 	0x5f0e2c00
    39fc:	04006275 	bltz	zero,1c3d4 <__isr_vec_space+0x1c3b4>
    3a00:	000293cc 	syscall	0xa4f
    3a04:	5f0e3000 	0x5f0e3000
    3a08:	04007075 	bltz	zero,1fbe0 <__memory_size+0x3e0>
    3a0c:	0002b8cd 	break	0x2,0x2e3
    3a10:	5f0e3800 	0x5f0e3800
    3a14:	04007275 	bltz	zero,203ec <__memory_size+0xbec>
    3a18:	000027ce 	0x27ce
    3a1c:	c40b3c00 	lwc1	$f11,15360(zero)
    3a20:	04000009 	bltz	zero,3a48 <__isr_vec_space+0x3a28>
    3a24:	0005bed1 	0x5bed1
    3a28:	f90b4000 	sdc2	$11,16384(t0)
    3a2c:	0400000c 	bltz	zero,3a60 <__isr_vec_space+0x3a40>
    3a30:	0005ced2 	0x5ced2
    3a34:	5f0e4300 	0x5f0e4300
    3a38:	0400626c 	bltz	zero,1c3ec <__isr_vec_space+0x1c3cc>
    3a3c:	000293d5 	0x293d5
    3a40:	0d0b4400 	jal	42d1000 <__memory_size+0x42b1800>
    3a44:	0400000a 	bltz	zero,3a70 <__isr_vec_space+0x3a50>
    3a48:	000027d8 	0x27d8
    3a4c:	fa0b4c00 	sdc2	$11,19456(s0)
    3a50:	04000005 	bltz	zero,3a68 <__isr_vec_space+0x3a48>
    3a54:	000063d9 	0x63d9
    3a58:	460b5000 	add.s	$f0,$f10,$f11
    3a5c:	0400000d 	bltz	zero,3a94 <__isr_vec_space+0x3a74>
    3a60:	000406dc 	0x406dc
    3a64:	fb0b5400 	sdc2	$11,21504(t8)
    3a68:	0400000d 	bltz	zero,3aa0 <__isr_vec_space+0x3a80>
    3a6c:	0000eee0 	0xeee0
    3a70:	e30b5800 	sc	t3,22528(t8)
    3a74:	0400000b 	bltz	zero,3aa4 <__isr_vec_space+0x3a84>
    3a78:	0000e3e2 	0xe3e2
    3a7c:	e80b5c00 	swc2	$11,23552(zero)
    3a80:	0400000a 	bltz	zero,3aac <__isr_vec_space+0x3a8c>
    3a84:	000027e3 	0x27e3
    3a88:	13006400 	beqz	t8,1ca8c <__isr_vec_space+0x1ca6c>
    3a8c:	00000027 	nor	zero,zero,zero
    3a90:	00000406 	0x406
    3a94:	00040614 	0x40614
    3a98:	00f91400 	0xf91400
    3a9c:	3e140000 	0x3e140000
    3aa0:	14000005 	bnez	zero,3ab8 <__isr_vec_space+0x3a98>
    3aa4:	00000027 	nor	zero,zero,zero
    3aa8:	0c040f00 	jal	103c00 <__memory_size+0xe4400>
    3aac:	15000004 	bnez	t0,3ac0 <__isr_vec_space+0x3aa0>
    3ab0:	00000c30 	tge	zero,zero,0x30
    3ab4:	39040428 	xori	a0,t0,0x428
    3ab8:	00053e02 	srl	a3,a1,0x18
    3abc:	11c41600 	beq	t6,a0,92c0 <__isr_vec_space+0x92a0>
    3ac0:	3b040000 	xori	a0,t8,0x0
    3ac4:	00002702 	srl	a0,zero,0x1c
    3ac8:	06160000 	0x6160000
    3acc:	0400000a 	bltz	zero,3af8 <__isr_vec_space+0x3ad8>
    3ad0:	06250240 	0x6250240
    3ad4:	16040000 	bne	s0,a0,3ad8 <__isr_vec_space+0x3ab8>
    3ad8:	00000a94 	0xa94
    3adc:	25024004 	addiu	v0,t0,16388
    3ae0:	08000006 	j	18 <ABIFlags_flags2+0x4>
    3ae4:	000a5916 	0xa5916
    3ae8:	02400400 	0x2400400
    3aec:	00000625 	0x625
    3af0:	0c04160c 	jal	105830 <__memory_size+0xe6030>
    3af4:	42040000 	c0	0x40000
    3af8:	00002702 	srl	a0,zero,0x1c
    3afc:	6a161000 	0x6a161000
    3b00:	04000009 	bltz	zero,3b28 <__isr_vec_space+0x3b08>
    3b04:	08070243 	j	1c090c <__memory_size+0x1a110c>
    3b08:	16140000 	bne	s0,s4,3b0c <__isr_vec_space+0x3aec>
    3b0c:	00000ca8 	0xca8
    3b10:	27024504 	addiu	v0,t8,17668
    3b14:	30000000 	andi	zero,zero,0x0
    3b18:	000c0e16 	0xc0e16
    3b1c:	02460400 	0x2460400
    3b20:	0000056f 	0x56f
    3b24:	0b111634 	j	c4458d0 <__memory_size+0xc4260d0>
    3b28:	48040000 	mfc2	a0,$0
    3b2c:	00002702 	srl	a0,zero,0x1c
    3b30:	1e163800 	0x1e163800
    3b34:	0400000c 	bltz	zero,3b68 <__isr_vec_space+0x3b48>
    3b38:	0822024a 	j	880928 <__memory_size+0x861128>
    3b3c:	163c0000 	bne	s1,gp,3b40 <__isr_vec_space+0x3b20>
    3b40:	00000ad3 	0xad3
    3b44:	59024d04 	0x59024d04
    3b48:	40000001 	mfc0	zero,c0_mvpcontrol
    3b4c:	000a7e16 	0xa7e16
    3b50:	024e0400 	0x24e0400
    3b54:	00000027 	nor	zero,zero,zero
    3b58:	0d3b1644 	jal	4ec5910 <__memory_size+0x4ea6110>
    3b5c:	4f040000 	lwxc1	$f0,a0(t8)
    3b60:	00015902 	srl	t3,at,0x4
    3b64:	34164800 	li	s6,0x4800
    3b68:	0400000b 	bltz	zero,3b98 <__isr_vec_space+0x3b78>
    3b6c:	08280250 	j	a00940 <__memory_size+0x9e1140>
    3b70:	164c0000 	bne	s2,t4,3b74 <__isr_vec_space+0x3b54>
    3b74:	00000a9c 	0xa9c
    3b78:	27025304 	addiu	v0,t8,21252
    3b7c:	50000000 	beqzl	zero,3b80 <__isr_vec_space+0x3b60>
    3b80:	000a1616 	0xa1616
    3b84:	02540400 	0x2540400
    3b88:	0000053e 	0x53e
    3b8c:	0b651654 	j	d945950 <__memory_size+0xd926150>
    3b90:	77040000 	jalx	c100000 <__memory_size+0xc0e0800>
    3b94:	0007e502 	srl	gp,a3,0x14
    3b98:	4e175800 	c3	0x175800
    3b9c:	04000009 	bltz	zero,3bc4 <__isr_vec_space+0x3ba4>
    3ba0:	0276027b 	0x276027b
    3ba4:	01480000 	0x1480000
    3ba8:	000ab117 	0xab117
    3bac:	027c0400 	0x27c0400
    3bb0:	00000238 	0x238
    3bb4:	ef17014c 	swc3	$23,332(t8)
    3bb8:	0400000c 	bltz	zero,3bec <__isr_vec_space+0x3bcc>
    3bbc:	08390280 	j	e40a00 <__memory_size+0xe21200>
    3bc0:	02dc0000 	0x2dc0000
    3bc4:	0009ef17 	0x9ef17
    3bc8:	02850400 	0x2850400
    3bcc:	000005ea 	0x5ea
    3bd0:	d41702e0 	ldc1	$f23,736(zero)
    3bd4:	04000009 	bltz	zero,3bfc <__isr_vec_space+0x3bdc>
    3bd8:	08450286 	j	1140a18 <__memory_size+0x1121218>
    3bdc:	02ec0000 	0x2ec0000
    3be0:	44040f00 	0x44040f00
    3be4:	02000005 	lsa	zero,s0,zero,0x1
    3be8:	03210801 	movt	at,t9,$fcc0
    3bec:	040f0000 	0x40f0000
    3bf0:	000003e8 	0x3e8
    3bf4:	00002713 	0x2713
    3bf8:	00056f00 	sll	t5,a1,0x1c
    3bfc:	04061400 	0x4061400
    3c00:	f9140000 	sdc2	$20,0(t0)
    3c04:	14000000 	bnez	zero,3c08 <__isr_vec_space+0x3be8>
    3c08:	0000056f 	0x56f
    3c0c:	00002714 	0x2714
    3c10:	040f0000 	0x40f0000
    3c14:	00000575 	0x575
    3c18:	00054418 	0x54418
    3c1c:	51040f00 	beql	t0,a0,7820 <__isr_vec_space+0x7800>
    3c20:	13000005 	beqz	t8,3c38 <__isr_vec_space+0x3c18>
    3c24:	0000006e 	0x6e
    3c28:	0000059e 	0x59e
    3c2c:	00040614 	0x40614
    3c30:	00f91400 	0xf91400
    3c34:	6e140000 	0x6e140000
    3c38:	14000000 	bnez	zero,3c3c <__isr_vec_space+0x3c1c>
    3c3c:	00000027 	nor	zero,zero,zero
    3c40:	80040f00 	lb	a0,3840(zero)
    3c44:	13000005 	beqz	t8,3c5c <__isr_vec_space+0x3c3c>
    3c48:	00000027 	nor	zero,zero,zero
    3c4c:	000005b8 	0x5b8
    3c50:	00040614 	0x40614
    3c54:	00f91400 	0xf91400
    3c58:	0f000000 	jal	c000000 <__memory_size+0xbfe0800>
    3c5c:	0005a404 	0x5a404
    3c60:	00350800 	0x350800
    3c64:	05ce0000 	tnei	t6,0
    3c68:	bb090000 	swr	t1,0(t8)
    3c6c:	02000000 	0x2000000
    3c70:	00350800 	0x350800
    3c74:	05de0000 	0x5de0000
    3c78:	bb090000 	swr	t1,0(t8)
    3c7c:	00000000 	nop
    3c80:	0b8a0500 	j	e281400 <__memory_size+0xe261c00>
    3c84:	1d040000 	0x1d040000
    3c88:	0002be01 	0x2be01
    3c8c:	0cd61900 	jal	3586400 <__memory_size+0x3566c00>
    3c90:	040c0000 	teqi	zero,0
    3c94:	061f0121 	synci	289(s0)
    3c98:	f1160000 	0xf1160000
    3c9c:	0400000b 	bltz	zero,3ccc <__isr_vec_space+0x3cac>
    3ca0:	061f0123 	synci	291(s0)
    3ca4:	16000000 	bnez	s0,3ca8 <__isr_vec_space+0x3c88>
    3ca8:	00000aaa 	0xaaa
    3cac:	27012404 	addiu	at,t8,9220
    3cb0:	04000000 	bltz	zero,3cb4 <__isr_vec_space+0x3c94>
    3cb4:	000b8416 	0xb8416
    3cb8:	01250400 	0x1250400
    3cbc:	00000625 	0x625
    3cc0:	040f0008 	0x40f0008
    3cc4:	000005ea 	0x5ea
    3cc8:	05de040f 	0x5de040f
    3ccc:	62190000 	0x62190000
    3cd0:	0e000009 	jal	8000024 <__memory_size+0x7fe0824>
    3cd4:	60013d04 	0x60013d04
    3cd8:	16000006 	bnez	s0,3cf4 <__isr_vec_space+0x3cd4>
    3cdc:	00000c37 	0xc37
    3ce0:	60013e04 	0x60013e04
    3ce4:	00000006 	srlv	zero,zero,zero
    3ce8:	000c6416 	0xc6416
    3cec:	013f0400 	0x13f0400
    3cf0:	00000660 	0x660
    3cf4:	01ed1606 	0x1ed1606
    3cf8:	40040000 	mfc0	a0,c0_index
    3cfc:	00004301 	0x4301
    3d00:	08000c00 	j	3000 <__isr_vec_space+0x2fe0>
    3d04:	00000043 	sra	zero,zero,0x1
    3d08:	00000670 	tge	zero,zero,0x19
    3d0c:	0000bb09 	0xbb09
    3d10:	1a000200 	blez	s0,4514 <__isr_vec_space+0x44f4>
    3d14:	025804d0 	0x25804d0
    3d18:	00000771 	tgeu	zero,zero,0x1d
    3d1c:	000cba16 	0xcba16
    3d20:	025a0400 	0x25a0400
    3d24:	00000085 	lsa	zero,zero,zero,0x3
    3d28:	0c6a1600 	jal	1a85800 <__memory_size+0x1a66000>
    3d2c:	5b040000 	0x5b040000
    3d30:	00053e02 	srl	a3,a1,0x18
    3d34:	c6160400 	lwc1	$f22,1024(s0)
    3d38:	0400000a 	bltz	zero,3d64 <__isr_vec_space+0x3d44>
    3d3c:	0771025c 	bgezal	k1,46b0 <__isr_vec_space+0x4690>
    3d40:	16080000 	bne	s0,t0,3d44 <__isr_vec_space+0x3d24>
    3d44:	00000d12 	0xd12
    3d48:	6f025d04 	0x6f025d04
    3d4c:	24000001 	li	zero,1
    3d50:	000a6916 	0xa6916
    3d54:	025e0400 	0x25e0400
    3d58:	00000027 	nor	zero,zero,zero
    3d5c:	0bec1648 	j	fb05920 <__memory_size+0xfae6120>
    3d60:	5f040000 	0x5f040000
    3d64:	00005102 	srl	t2,zero,0x4
    3d68:	28165000 	slti	s6,zero,20480
    3d6c:	0400000d 	bltz	zero,3da4 <__isr_vec_space+0x3d84>
    3d70:	062b0260 	tltiu	s1,608
    3d74:	16580000 	bne	s2,t8,3d78 <__isr_vec_space+0x3d58>
    3d78:	00000bf7 	0xbf7
    3d7c:	e3026104 	sc	v0,24836(t8)
    3d80:	68000000 	0x68000000
    3d84:	000d2d16 	0xd2d16
    3d88:	02620400 	0x2620400
    3d8c:	000000e3 	0xe3
    3d90:	09ad1670 	j	6b459c0 <__memory_size+0x6b261c0>
    3d94:	63040000 	0x63040000
    3d98:	0000e302 	srl	gp,zero,0xc
    3d9c:	e5167800 	swc1	$f22,30720(t0)
    3da0:	0400000c 	bltz	zero,3dd4 <__isr_vec_space+0x3db4>
    3da4:	07810264 	bgez	gp,4738 <__isr_vec_space+0x4718>
    3da8:	16800000 	bnez	s4,3dac <__isr_vec_space+0x3d8c>
    3dac:	00000aba 	0xaba
    3db0:	91026504 	lbu	v0,25860(t0)
    3db4:	88000007 	lwl	zero,7(zero)
    3db8:	000c8816 	0xc8816
    3dbc:	02660400 	0x2660400
    3dc0:	00000027 	nor	zero,zero,zero
    3dc4:	0a2f16a0 	j	8bc5a80 <__memory_size+0x8ba6280>
    3dc8:	67040000 	0x67040000
    3dcc:	0000e302 	srl	gp,zero,0xc
    3dd0:	9e16a400 	0x9e16a400
    3dd4:	04000009 	bltz	zero,3dfc <__isr_vec_space+0x3ddc>
    3dd8:	00e30268 	0xe30268
    3ddc:	16ac0000 	bne	s5,t4,3de0 <__isr_vec_space+0x3dc0>
    3de0:	00000a1e 	0xa1e
    3de4:	e3026904 	sc	v0,26884(t8)
    3de8:	b4000000 	0xb4000000
    3dec:	00097516 	0x97516
    3df0:	026a0400 	0x26a0400
    3df4:	000000e3 	0xe3
    3df8:	098416bc 	j	6105af0 <__memory_size+0x60e62f0>
    3dfc:	6b040000 	0x6b040000
    3e00:	0000e302 	srl	gp,zero,0xc
    3e04:	6a16c400 	0x6a16c400
    3e08:	0400000b 	bltz	zero,3e38 <__isr_vec_space+0x3e18>
    3e0c:	0027026c 	0x27026c
    3e10:	00cc0000 	0xcc0000
    3e14:	00054408 	0x54408
    3e18:	00078100 	sll	s0,a3,0x4
    3e1c:	00bb0900 	0xbb0900
    3e20:	00190000 	sll	zero,t9,0x0
    3e24:	00054408 	0x54408
    3e28:	00079100 	sll	s2,a3,0x4
    3e2c:	00bb0900 	0xbb0900
    3e30:	00070000 	sll	zero,a3,0x0
    3e34:	00054408 	0x54408
    3e38:	0007a100 	sll	s4,a3,0x4
    3e3c:	00bb0900 	0xbb0900
    3e40:	00170000 	sll	zero,s7,0x0
    3e44:	7104f01a 	udi10	t0,a0,s8,0x0
    3e48:	0007c502 	srl	t8,a3,0x14
    3e4c:	0b011600 	j	c045800 <__memory_size+0xc026000>
    3e50:	74040000 	jalx	100000 <__memory_size+0xe0800>
    3e54:	0007c502 	srl	t8,a3,0x14
    3e58:	dc160000 	ldc3	$22,0(zero)
    3e5c:	0400000c 	bltz	zero,3e90 <__isr_vec_space+0x3e70>
    3e60:	07d50275 	0x7d50275
    3e64:	00780000 	0x780000
    3e68:	0002b808 	0x2b808
    3e6c:	0007d500 	sll	k0,a3,0x14
    3e70:	00bb0900 	0xbb0900
    3e74:	001d0000 	sll	zero,sp,0x0
    3e78:	00008508 	0x8508
    3e7c:	0007e500 	sll	gp,a3,0x14
    3e80:	00bb0900 	0xbb0900
    3e84:	001d0000 	sll	zero,sp,0x0
    3e88:	5604f01b 	bnel	s0,a0,fffffef8 <__flash_start+0x403ffef8>
    3e8c:	00080702 	srl	zero,t0,0x1c
    3e90:	0c301c00 	jal	c07000 <__memory_size+0xbe7800>
    3e94:	6d040000 	0x6d040000
    3e98:	00067002 	srl	t6,a2,0x0
    3e9c:	0cff1c00 	jal	3fc7000 <__memory_size+0x3fa7800>
    3ea0:	76040000 	jalx	8100000 <__memory_size+0x80e0800>
    3ea4:	0007a102 	srl	s4,a3,0x4
    3ea8:	44080000 	mfc1	t0,$f0
    3eac:	17000005 	bnez	t8,3ec4 <__isr_vec_space+0x3ea4>
    3eb0:	09000008 	j	4000020 <__memory_size+0x3fe0820>
    3eb4:	000000bb 	0xbb
    3eb8:	221d0018 	addi	sp,s0,24
    3ebc:	14000008 	bnez	zero,3ee0 <__isr_vec_space+0x3ec0>
    3ec0:	00000406 	0x406
    3ec4:	17040f00 	bne	t8,a0,7ac8 <__isr_vec_space+0x7aa8>
    3ec8:	0f000008 	jal	c000020 <__memory_size+0xbfe0820>
    3ecc:	00015904 	0x15904
    3ed0:	08391d00 	j	e47400 <__memory_size+0xe27c00>
    3ed4:	27140000 	addiu	s4,t8,0
    3ed8:	00000000 	nop
    3edc:	083f040f 	j	fc103c <__memory_size+0xfa183c>
    3ee0:	040f0000 	0x40f0000
    3ee4:	0000082e 	0x82e
    3ee8:	0005de08 	0x5de08
    3eec:	00085500 	sll	t2,t0,0x14
    3ef0:	00bb0900 	0xbb0900
    3ef4:	00020000 	sll	zero,v0,0x0
    3ef8:	000d401e 	0xd401e
    3efc:	0c170500 	jal	5c1400 <__memory_size+0x5a1c00>
    3f00:	05000004 	bltz	t0,3f14 <__isr_vec_space+0x3ef4>
    3f04:	003b0803 	0x3b0803
    3f08:	0c9c1f80 	jal	2707e00 <__memory_size+0x26e8600>
    3f0c:	fa040000 	sdc2	$4,0(s0)
    3f10:	00040602 	srl	zero,a0,0x18
    3f14:	a4030500 	sh	v1,1280(zero)
    3f18:	1f80003f 	bgtz	gp,4018 <__isr_vec_space+0x3ff8>
    3f1c:	00000c95 	0xc95
    3f20:	8a02fb04 	lwl	v0,-1276(s0)
    3f24:	05000008 	bltz	t0,3f48 <__isr_vec_space+0x3f28>
    3f28:	003fa003 	0x3fa003
    3f2c:	04061880 	0x4061880
    3f30:	f6000000 	sdc1	$f0,0(s0)
    3f34:	02000000 	0x2000000
    3f38:	0013b600 	sll	s6,s3,0x18
    3f3c:	c0010400 	ll	at,1024(zero)
    3f40:	08000016 	j	58 <__isr_vec_space+0x38>
    3f44:	a480001e 	sh	zero,30(a0)
    3f48:	2f800021 	sltiu	zero,gp,33
    3f4c:	61726373 	0x61726373
    3f50:	2f686374 	sltiu	t0,k1,25460
    3f54:	2f66706d 	sltiu	a2,k1,28781
    3f58:	73626f6a 	s16ldd	xr13,k1,310,ptn0
    3f5c:	3334352f 	andi	s4,t9,0x352f
    3f60:	342f3539 	ori	t7,at,0x3539
    3f64:	34393038 	ori	t9,at,0x3038
    3f68:	3034322f 	andi	s4,at,0x322f
    3f6c:	2f383931 	sltiu	t8,t9,14641
    3f70:	72616873 	d32sar	xr1,xr10,xr5,xr8,9
    3f74:	672f6465 	0x672f6465
    3f78:	6e2f6363 	0x6e2f6363
    3f7c:	696c7765 	0x696c7765
    3f80:	696c2f62 	0x696c2f62
    3f84:	6d2f6362 	0x6d2f6362
    3f88:	69686361 	0x69686361
    3f8c:	6d2f656e 	0x6d2f656e
    3f90:	2f737069 	sltiu	s3,k1,28777
    3f94:	636d656d 	0x636d656d
    3f98:	532e7970 	beql	t9,t6,2255c <__memory_size+0x2d5c>
    3f9c:	63732f00 	0x63732f00
    3fa0:	63746172 	0x63746172
    3fa4:	706d2f68 	lxhu	a1,v1,t5,3
    3fa8:	6f6a2f66 	0x6f6a2f66
    3fac:	352f7362 	ori	t7,t1,0x7362
    3fb0:	35393334 	ori	t9,t1,0x3334
    3fb4:	3038342f 	andi	t8,at,0x342f
    3fb8:	322f3439 	andi	t7,s1,0x3439
    3fbc:	36323034 	ori	s2,s1,0x3034
    3fc0:	6f772f32 	0x6f772f32
    3fc4:	6f2f6b72 	0x6f2f6b72
    3fc8:	6d2d6a62 	0x6d2d6a62
    3fcc:	2d737069 	sltiu	s3,t3,28777
    3fd0:	2d69746d 	sltiu	t1,t3,29805
    3fd4:	2f666c65 	sltiu	a2,k1,27749
    3fd8:	2f636367 	sltiu	v1,k1,25447
    3fdc:	7370696d 	s16sdi	xr5,k1,52,
    3fe0:	69746d2d 	0x69746d2d
    3fe4:	666c652d 	0x666c652d
    3fe8:	70696d2f 	0x70696d2f
    3fec:	2d6c6573 	sltiu	t4,t3,25971
    3ff0:	732d3272 	0x732d3272
    3ff4:	2d74666f 	sltiu	s4,t3,26223
    3ff8:	6c77656e 	0x6c77656e
    3ffc:	6c2f6269 	0x6c2f6269
    4000:	6e2f6269 	0x6e2f6269
    4004:	696c7765 	0x696c7765
    4008:	696c2f62 	0x696c2f62
    400c:	6d2f6362 	0x6d2f6362
    4010:	69686361 	0x69686361
    4014:	6d2f656e 	0x6d2f656e
    4018:	00737069 	0x737069
    401c:	20554e47 	addi	s5,v0,20039
    4020:	32205341 	andi	zero,s1,0x5341
    4024:	2e34322e 	sltiu	s4,s1,12846
    4028:	01003039 	0x1003039
    402c:	0000f680 	sll	s8,zero,0x1a
    4030:	ca000200 	lwc2	$0,512(s0)
    4034:	04000013 	bltz	zero,4084 <__isr_vec_space+0x4064>
    4038:	00183901 	0x183901
    403c:	0021a400 	0x21a400
    4040:	0022d080 	0x22d080
    4044:	63732f80 	0x63732f80
    4048:	63746172 	0x63746172
    404c:	706d2f68 	lxhu	a1,v1,t5,3
    4050:	6f6a2f66 	0x6f6a2f66
    4054:	352f7362 	ori	t7,t1,0x7362
    4058:	35393334 	ori	t9,t1,0x3334
    405c:	3038342f 	andi	t8,at,0x342f
    4060:	322f3439 	andi	t7,s1,0x3439
    4064:	39313034 	xori	s1,t1,0x3034
    4068:	68732f38 	0x68732f38
    406c:	64657261 	0x64657261
    4070:	6363672f 	0x6363672f
    4074:	77656e2f 	jalx	d95b8bc <__memory_size+0xd93c0bc>
    4078:	2f62696c 	sltiu	v0,k1,26988
    407c:	6362696c 	0x6362696c
    4080:	63616d2f 	0x63616d2f
    4084:	656e6968 	0x656e6968
    4088:	70696d2f 	0x70696d2f
    408c:	656d2f73 	0x656d2f73
    4090:	7465736d 	jalx	195cdb4 <__memory_size+0x193d5b4>
    4094:	2f00532e 	sltiu	zero,t8,21294
    4098:	61726373 	0x61726373
    409c:	2f686374 	sltiu	t0,k1,25460
    40a0:	2f66706d 	sltiu	a2,k1,28781
    40a4:	73626f6a 	s16ldd	xr13,k1,310,ptn0
    40a8:	3334352f 	andi	s4,t9,0x352f
    40ac:	342f3539 	ori	t7,at,0x3539
    40b0:	34393038 	ori	t9,at,0x3038
    40b4:	3034322f 	andi	s4,at,0x322f
    40b8:	2f323632 	sltiu	s2,t9,13874
    40bc:	6b726f77 	0x6b726f77
    40c0:	6a626f2f 	0x6a626f2f
    40c4:	70696d2d 	s16sdi	xr4,v1,182,ptn1
    40c8:	746d2d73 	jalx	1b4b5cc <__memory_size+0x1b2bdcc>
    40cc:	6c652d69 	0x6c652d69
    40d0:	63672f66 	0x63672f66
    40d4:	696d2f63 	0x696d2f63
    40d8:	6d2d7370 	0x6d2d7370
    40dc:	652d6974 	0x652d6974
    40e0:	6d2f666c 	0x6d2f666c
    40e4:	65737069 	0x65737069
    40e8:	32722d6c 	andi	s2,s3,0x2d6c
    40ec:	666f732d 	0x666f732d
    40f0:	656e2d74 	0x656e2d74
    40f4:	62696c77 	0x62696c77
    40f8:	62696c2f 	0x62696c2f
    40fc:	77656e2f 	jalx	d95b8bc <__memory_size+0xd93c0bc>
    4100:	2f62696c 	sltiu	v0,k1,26988
    4104:	6362696c 	0x6362696c
    4108:	63616d2f 	0x63616d2f
    410c:	656e6968 	0x656e6968
    4110:	70696d2f 	0x70696d2f
    4114:	4e470073 	c3	0x470073
    4118:	53412055 	beql	k0,at,c270 <__isr_vec_space+0xc250>
    411c:	322e3220 	andi	t6,s1,0x3220
    4120:	30392e34 	andi	t9,at,0x2e34
    4124:	2c800100 	sltiu	zero,a0,256
    4128:	04000009 	bltz	zero,4150 <__isr_vec_space+0x4130>
    412c:	0013de00 	sll	k1,s3,0x18
    4130:	99010400 	lwr	at,1024(t0)
    4134:	01000008 	jr	t0
    4138:	00000d97 	0xd97
    413c:	800022d0 	lb	zero,8912(zero)
    4140:	00000110 	0x110
    4144:	0000190d 	break	0x0,0x64
    4148:	cb050402 	lwc2	$5,1026(t8)
    414c:	03000001 	movf	zero,t8,$fcc0
    4150:	00000172 	tlt	zero,zero,0x5
    4154:	0033d402 	ror	k0,s3,0x10
    4158:	04020000 	bltzl	zero,415c <__isr_vec_space+0x413c>
    415c:	0001a207 	0x1a207
    4160:	05040400 	0x5040400
    4164:	00746e69 	0x746e69
    4168:	1a060102 	0x1a060102
    416c:	02000003 	0x2000003
    4170:	03180801 	movf	at,t8,$fcc6
    4174:	02020000 	0x2020000
    4178:	00032605 	0x32605
    417c:	07020200 	bltzl	t8,4980 <__isr_vec_space+0x4960>
    4180:	00000282 	srl	zero,zero,0xa
    4184:	c6050802 	lwc1	$f5,2050(s0)
    4188:	02000001 	movf	zero,s0,$fcc0
    418c:	019d0708 	0x19d0708
    4190:	49030000 	bc2tl	4194 <__isr_vec_space+0x4174>
    4194:	0300000b 	movn	zero,t8,zero
    4198:	00003a07 	0x3a07
    419c:	0b1c0300 	j	c700c00 <__memory_size+0xc6e1400>
    41a0:	10040000 	beq	zero,a0,41a4 <__isr_vec_space+0x4184>
    41a4:	00000021 	move	zero,zero
    41a8:	000c5303 	sra	t2,t4,0xc
    41ac:	21270400 	addi	a3,t1,1024
    41b0:	05000000 	bltz	t0,41b4 <__isr_vec_space+0x4194>
    41b4:	00000ae1 	0xae1
    41b8:	98016102 	lwr	at,24834(zero)
    41bc:	02000000 	0x2000000
    41c0:	01a70704 	0x1a70704
    41c4:	04060000 	0x4060000
    41c8:	00be4a04 	0xbe4a04
    41cc:	db070000 	ldc2	$7,0(t8)
    41d0:	0400000a 	bltz	zero,41fc <__isr_vec_space+0x41dc>
    41d4:	00008c4c 	syscall	0x231
    41d8:	0a8d0700 	j	a341c00 <__memory_size+0xa322400>
    41dc:	4d040000 	lwxc1	$f0,a0(t0)
    41e0:	000000be 	0xbe
    41e4:	00480800 	0x480800
    41e8:	00ce0000 	0xce0000
    41ec:	ce090000 	pref	0x9,0(s0)
    41f0:	03000000 	0x3000000
    41f4:	07040200 	0x7040200
    41f8:	000002e8 	0x2e8
    41fc:	4704080a 	bz.b	$w4,6228 <__isr_vec_space+0x6208>
    4200:	000000f6 	tne	zero,zero,0x3
    4204:	000c3d0b 	0xc3d0b
    4208:	3a490400 	xori	t1,s2,0x400
    420c:	00000000 	nop
    4210:	000c450b 	0xc450b
    4214:	9f4e0400 	0x9f4e0400
    4218:	04000000 	bltz	zero,421c <__isr_vec_space+0x41fc>
    421c:	0b3e0300 	j	cf80c00 <__memory_size+0xcf61400>
    4220:	4f040000 	lwxc1	$f0,a0(t8)
    4224:	000000d5 	0xd5
    4228:	000a5003 	sra	t2,t2,0x0
    422c:	6b530400 	0x6b530400
    4230:	0c000000 	jal	0 <hardware_exit_hook>
    4234:	0c800304 	jal	2000c10 <__memory_size+0x1fe1410>
    4238:	16050000 	bne	s0,a1,423c <__isr_vec_space+0x421c>
    423c:	00000033 	tltu	zero,zero
    4240:	000a610d 	break	0xa,0x184
    4244:	2d051800 	sltiu	a1,t0,6144
    4248:	0000016c 	0x16c
    424c:	000bf10b 	0xbf10b
    4250:	6c2f0500 	0x6c2f0500
    4254:	00000001 	movf	zero,zero,$fcc0
    4258:	006b5f0e 	0x6b5f0e
    425c:	003a3005 	lsa	a2,at,k0,0x1
    4260:	0b040000 	j	c100000 <__memory_size+0xc0e0800>
    4264:	00000c28 	0xc28
    4268:	003a3005 	lsa	a2,at,k0,0x1
    426c:	0b080000 	j	c200000 <__memory_size+0xc1e0800>
    4270:	00000a4a 	0xa4a
    4274:	003a3005 	lsa	a2,at,k0,0x1
    4278:	0b0c0000 	j	c300000 <__memory_size+0xc2e0800>
    427c:	00000cc7 	0xcc7
    4280:	003a3005 	lsa	a2,at,k0,0x1
    4284:	0e100000 	jal	8400000 <__memory_size+0x83e0800>
    4288:	0500785f 	bltz	t0,22408 <__memory_size+0x2c08>
    428c:	00017231 	tgeu	zero,at,0x1c8
    4290:	0f001400 	jal	c005000 <__memory_size+0xbfe5800>
    4294:	00011904 	0x11904
    4298:	010e0800 	0x10e0800
    429c:	01820000 	0x1820000
    42a0:	ce090000 	pref	0x9,0(s0)
    42a4:	00000000 	nop
    42a8:	0a880d00 	j	a203400 <__memory_size+0xa1e3c00>
    42ac:	05240000 	0x5240000
    42b0:	0001fb35 	0x1fb35
    42b4:	09bb0b00 	j	6ec2c00 <__memory_size+0x6ea3400>
    42b8:	37050000 	ori	a1,t8,0x0
    42bc:	0000003a 	0x3a
    42c0:	0c5b0b00 	jal	16c2c00 <__memory_size+0x16a3400>
    42c4:	38050000 	xori	a1,zero,0x0
    42c8:	0000003a 	0x3a
    42cc:	09ca0b04 	j	7282c10 <__memory_size+0x7263410>
    42d0:	39050000 	xori	a1,t0,0x0
    42d4:	0000003a 	0x3a
    42d8:	0b5b0b08 	j	d6c2c20 <__memory_size+0xd6a3420>
    42dc:	3a050000 	xori	a1,s0,0x0
    42e0:	0000003a 	0x3a
    42e4:	0b080b0c 	j	c202c30 <__memory_size+0xc1e3430>
    42e8:	3b050000 	xori	a1,t8,0x0
    42ec:	0000003a 	0x3a
    42f0:	0af70b10 	j	bdc2c40 <__memory_size+0xbda3440>
    42f4:	3c050000 	lui	a1,0x0
    42f8:	0000003a 	0x3a
    42fc:	0ccc0b14 	jal	3302c50 <__memory_size+0x32e3450>
    4300:	3d050000 	0x3d050000
    4304:	0000003a 	0x3a
    4308:	0b730b18 	j	dcc2c60 <__memory_size+0xdca3460>
    430c:	3e050000 	0x3e050000
    4310:	0000003a 	0x3a
    4314:	0d070b1c 	jal	41c2c70 <__memory_size+0x41a3470>
    4318:	3f050000 	0x3f050000
    431c:	0000003a 	0x3a
    4320:	d9100020 	ldc2	$16,32(t0)
    4324:	08000009 	j	24 <__isr_vec_space+0x4>
    4328:	3b480501 	xori	t0,k0,0x501
    432c:	0b000002 	j	c000008 <__memory_size+0xbfe0808>
    4330:	00000a3d 	0xa3d
    4334:	023b4905 	0x23b4905
    4338:	0b000000 	j	c000000 <__memory_size+0xbfe0800>
    433c:	00000956 	0x956
    4340:	023b4a05 	0x23b4a05
    4344:	11800000 	beqz	t4,4348 <__isr_vec_space+0x4328>
    4348:	00000c77 	0xc77
    434c:	010e4c05 	0x10e4c05
    4350:	01000000 	0x1000000
    4354:	0009fe11 	0x9fe11
    4358:	0e4f0500 	jal	93c1400 <__memory_size+0x93a1c00>
    435c:	04000001 	bltz	zero,4364 <__isr_vec_space+0x4344>
    4360:	0c080001 	jal	200004 <__memory_size+0x1e0804>
    4364:	4b000001 	c2	0x1000001
    4368:	09000002 	j	4000008 <__memory_size+0x3fe0808>
    436c:	000000ce 	0xce
    4370:	4e10001f 	c3	0x10001f
    4374:	90000009 	lbu	zero,9(zero)
    4378:	895b0501 	lwl	k1,1281(t2)
    437c:	0b000002 	j	c000008 <__memory_size+0xbfe0808>
    4380:	00000bf1 	tgeu	zero,zero,0x2f
    4384:	02895c05 	0x2895c05
    4388:	0b000000 	j	c000000 <__memory_size+0xbfe0800>
    438c:	00000c09 	jalr.hb	at,zero
    4390:	003a5d05 	0x3a5d05
    4394:	0b040000 	j	c100000 <__memory_size+0xc0e0800>
    4398:	00000a45 	0xa45
    439c:	028f5f05 	0x28f5f05
    43a0:	0b080000 	j	c200000 <__memory_size+0xc1e0800>
    43a4:	000009d9 	0x9d9
    43a8:	01fb6005 	lsa	t4,t7,k1,0x1
    43ac:	00880000 	0x880000
    43b0:	024b040f 	0x24b040f
    43b4:	9f080000 	0x9f080000
    43b8:	9f000002 	0x9f000002
    43bc:	09000002 	j	4000008 <__memory_size+0x3fe0808>
    43c0:	000000ce 	0xce
    43c4:	040f001f 	0x40f001f
    43c8:	000002a5 	0x2a5
    43cc:	0b7d0d12 	j	df43448 <__memory_size+0xdf23c48>
    43d0:	05080000 	tgei	t0,0
    43d4:	0002cb73 	tltu	zero,v0,0x32d
    43d8:	10180b00 	beq	zero,t8,6fdc <__isr_vec_space+0x6fbc>
    43dc:	74050000 	jalx	140000 <__memory_size+0x120800>
    43e0:	000002cb 	0x2cb
    43e4:	07690b00 	tgeiu	k1,2816
    43e8:	75050000 	jalx	4140000 <__memory_size+0x4120800>
    43ec:	0000003a 	0x3a
    43f0:	040f0004 	0x40f0004
    43f4:	00000048 	0x48
    43f8:	000bdb0d 	break	0xb,0x36c
    43fc:	b3056800 	0xb3056800
    4400:	000003fb 	0x3fb
    4404:	00705f0e 	0x705f0e
    4408:	02cbb405 	0x2cbb405
    440c:	0e000000 	jal	8000000 <__memory_size+0x7fe0800>
    4410:	0500725f 	bltz	t0,20d90 <__memory_size+0x1590>
    4414:	00003ab5 	0x3ab5
    4418:	5f0e0400 	0x5f0e0400
    441c:	b6050077 	0xb6050077
    4420:	0000003a 	0x3a
    4424:	09f70b08 	j	7dc2c20 <__memory_size+0x7da3420>
    4428:	b7050000 	0xb7050000
    442c:	0000004f 	sync	0x1
    4430:	0aa40b0c 	j	a902c30 <__memory_size+0xa8e3430>
    4434:	b8050000 	swr	a1,0(zero)
    4438:	0000004f 	sync	0x1
    443c:	625f0e0e 	0x625f0e0e
    4440:	b9050066 	swr	a1,102(t0)
    4444:	000002a6 	0x2a6
    4448:	09950b10 	j	6542c40 <__memory_size+0x6523440>
    444c:	ba050000 	swr	a1,0(s0)
    4450:	0000003a 	0x3a
    4454:	09e70b18 	j	79c2c60 <__memory_size+0x79a3460>
    4458:	c1050000 	ll	a1,0(t0)
    445c:	0000010c 	syscall	0x4
    4460:	0a780b1c 	j	9e02c70 <__memory_size+0x9de3470>
    4464:	c3050000 	ll	a1,0(t8)
    4468:	0000055e 	0x55e
    446c:	0af00b20 	j	bc02c80 <__memory_size+0xbbe3480>
    4470:	c5050000 	lwc1	$f5,0(t0)
    4474:	0000058d 	break	0x0,0x16
    4478:	0c4d0b24 	jal	1342c90 <__memory_size+0x1323490>
    447c:	c8050000 	lwc2	$5,0(zero)
    4480:	000005b1 	tgeu	zero,zero,0x16
    4484:	0d210b28 	jal	4842ca0 <__memory_size+0x48234a0>
    4488:	c9050000 	lwc2	$5,0(t0)
    448c:	000005cb 	0x5cb
    4490:	755f0e2c 	jalx	57c38b0 <__memory_size+0x57a40b0>
    4494:	cc050062 	pref	0x5,98(zero)
    4498:	000002a6 	0x2a6
    449c:	755f0e30 	jalx	57c38c0 <__memory_size+0x57a40c0>
    44a0:	cd050070 	pref	0x5,112(t0)
    44a4:	000002cb 	0x2cb
    44a8:	755f0e38 	jalx	57c38e0 <__memory_size+0x57a40e0>
    44ac:	ce050072 	pref	0x5,114(s0)
    44b0:	0000003a 	0x3a
    44b4:	09c40b3c 	j	7102cf0 <__memory_size+0x70e34f0>
    44b8:	d1050000 	0xd1050000
    44bc:	000005d1 	0x5d1
    44c0:	0cf90b40 	jal	3e42d00 <__memory_size+0x3e23500>
    44c4:	d2050000 	0xd2050000
    44c8:	000005e1 	0x5e1
    44cc:	6c5f0e43 	0x6c5f0e43
    44d0:	d5050062 	ldc1	$f5,98(t0)
    44d4:	000002a6 	0x2a6
    44d8:	0a0d0b44 	j	8342d10 <__memory_size+0x8323510>
    44dc:	d8050000 	ldc2	$5,0(zero)
    44e0:	0000003a 	0x3a
    44e4:	05fa0b4c 	0x5fa0b4c
    44e8:	d9050000 	ldc2	$5,0(t0)
    44ec:	00000076 	tne	zero,zero,0x1
    44f0:	0d460b50 	jal	5182d40 <__memory_size+0x5163540>
    44f4:	dc050000 	ldc3	$5,0(zero)
    44f8:	00000419 	0x419
    44fc:	0dfb0b54 	jal	7ec2d50 <__memory_size+0x7ea3550>
    4500:	e0050000 	sc	a1,0(zero)
    4504:	00000101 	0x101
    4508:	0be30b58 	j	f8c2d60 <__memory_size+0xf8a3560>
    450c:	e2050000 	sc	a1,0(s0)
    4510:	000000f6 	tne	zero,zero,0x3
    4514:	0ae80b5c 	j	ba02d70 <__memory_size+0xb9e3570>
    4518:	e3050000 	sc	a1,0(t8)
    451c:	0000003a 	0x3a
    4520:	3a130064 	xori	s3,s0,0x64
    4524:	19000000 	blez	t0,4528 <__isr_vec_space+0x4508>
    4528:	14000004 	bnez	zero,453c <__isr_vec_space+0x451c>
    452c:	00000419 	0x419
    4530:	00010c14 	0x10c14
    4534:	05511400 	bgezal	t2,9538 <__isr_vec_space+0x9518>
    4538:	3a140000 	xori	s4,s0,0x0
    453c:	00000000 	nop
    4540:	041f040f 	synci	1039(zero)
    4544:	30150000 	andi	s5,zero,0x0
    4548:	2800000c 	slti	zero,zero,12
    454c:	02390504 	0x2390504
    4550:	00000551 	0x551
    4554:	0011c416 	0x11c416
    4558:	023b0500 	0x23b0500
    455c:	0000003a 	0x3a
    4560:	0a061600 	j	8185800 <__memory_size+0x8166000>
    4564:	40050000 	mfc0	a1,c0_index
    4568:	00063802 	srl	a3,a2,0x0
    456c:	94160400 	lhu	s6,1024(zero)
    4570:	0500000a 	bltz	t0,459c <__isr_vec_space+0x457c>
    4574:	06380240 	0x6380240
    4578:	16080000 	bne	s0,t0,457c <__isr_vec_space+0x455c>
    457c:	00000a59 	0xa59
    4580:	38024005 	xori	v0,zero,0x4005
    4584:	0c000006 	jal	18 <ABIFlags_flags2+0x4>
    4588:	000c0416 	0xc0416
    458c:	02420500 	0x2420500
    4590:	0000003a 	0x3a
    4594:	096a1610 	j	5a85840 <__memory_size+0x5a66040>
    4598:	43050000 	c0	0x1050000
    459c:	00081a02 	srl	v1,t0,0x8
    45a0:	a8161400 	swl	s6,5120(zero)
    45a4:	0500000c 	bltz	t0,45d8 <__isr_vec_space+0x45b8>
    45a8:	003a0245 	0x3a0245
    45ac:	16300000 	bne	s1,s0,45b0 <__isr_vec_space+0x4590>
    45b0:	00000c0e 	0xc0e
    45b4:	82024605 	lb	v0,17925(s0)
    45b8:	34000005 	li	zero,0x5
    45bc:	000b1116 	0xb1116
    45c0:	02480500 	0x2480500
    45c4:	0000003a 	0x3a
    45c8:	0c1e1638 	jal	7858e0 <__memory_size+0x7660e0>
    45cc:	4a050000 	c2	0x50000
    45d0:	00083502 	srl	a2,t0,0x14
    45d4:	d3163c00 	0xd3163c00
    45d8:	0500000a 	bltz	t0,4604 <__isr_vec_space+0x45e4>
    45dc:	016c024d 	break	0x16c,0x9
    45e0:	16400000 	bnez	s2,45e4 <__isr_vec_space+0x45c4>
    45e4:	00000a7e 	0xa7e
    45e8:	3a024e05 	xori	v0,s0,0x4e05
    45ec:	44000000 	mfc1	zero,$f0
    45f0:	000d3b16 	0xd3b16
    45f4:	024f0500 	0x24f0500
    45f8:	0000016c 	0x16c
    45fc:	0b341648 	j	cd05920 <__memory_size+0xcce6120>
    4600:	50050000 	beql	zero,a1,4604 <__isr_vec_space+0x45e4>
    4604:	00083b02 	srl	a3,t0,0xc
    4608:	9c164c00 	0x9c164c00
    460c:	0500000a 	bltz	t0,4638 <__isr_vec_space+0x4618>
    4610:	003a0253 	0x3a0253
    4614:	16500000 	bne	s2,s0,4618 <__isr_vec_space+0x45f8>
    4618:	00000a16 	0xa16
    461c:	51025405 	beql	t0,v0,19634 <__isr_vec_space+0x19614>
    4620:	54000005 	bnezl	zero,4638 <__isr_vec_space+0x4618>
    4624:	000b6516 	0xb6516
    4628:	02770500 	0x2770500
    462c:	000007f8 	0x7f8
    4630:	094e1758 	j	5385d60 <__memory_size+0x5366560>
    4634:	7b050000 	xori.b	$w0,$w0,0x5
    4638:	00028902 	srl	s1,v0,0x4
    463c:	17014800 	bne	t8,at,16640 <__isr_vec_space+0x16620>
    4640:	00000ab1 	tgeu	zero,zero,0x2a
    4644:	4b027c05 	c2	0x1027c05
    4648:	4c000002 	mfc3	zero,$0,2
    464c:	0cef1701 	jal	3bc5c04 <__memory_size+0x3ba6404>
    4650:	80050000 	lb	a1,0(zero)
    4654:	00084c02 	srl	t1,t0,0x10
    4658:	1702dc00 	bne	t8,v0,ffffb65c <__flash_start+0x403fb65c>
    465c:	000009ef 	0x9ef
    4660:	fd028505 	sdc3	$2,-31483(t0)
    4664:	e0000005 	sc	zero,5(zero)
    4668:	09d41702 	j	7505c08 <__memory_size+0x74e6408>
    466c:	86050000 	lh	a1,0(s0)
    4670:	00085802 	srl	t3,t0,0x0
    4674:	0002ec00 	sll	sp,v0,0x10
    4678:	0557040f 	0x557040f
    467c:	01020000 	0x1020000
    4680:	00032108 	0x32108
    4684:	fb040f00 	sdc2	$4,3840(t8)
    4688:	13000003 	beqz	t8,4698 <__isr_vec_space+0x4678>
    468c:	0000003a 	0x3a
    4690:	00000582 	srl	zero,zero,0x16
    4694:	00041914 	0x41914
    4698:	010c1400 	0x10c1400
    469c:	82140000 	lb	s4,0(s0)
    46a0:	14000005 	bnez	zero,46b8 <__isr_vec_space+0x4698>
    46a4:	0000003a 	0x3a
    46a8:	88040f00 	lwl	a0,3840(zero)
    46ac:	18000005 	blez	zero,46c4 <__isr_vec_space+0x46a4>
    46b0:	00000557 	0x557
    46b4:	0564040f 	0x564040f
    46b8:	81130000 	lb	s3,0(t0)
    46bc:	b1000000 	0xb1000000
    46c0:	14000005 	bnez	zero,46d8 <__isr_vec_space+0x46b8>
    46c4:	00000419 	0x419
    46c8:	00010c14 	0x10c14
    46cc:	00811400 	0x811400
    46d0:	3a140000 	xori	s4,s0,0x0
    46d4:	00000000 	nop
    46d8:	0593040f 	bgezall	t4,5718 <__isr_vec_space+0x56f8>
    46dc:	3a130000 	xori	s3,s0,0x0
    46e0:	cb000000 	lwc2	$0,0(t8)
    46e4:	14000005 	bnez	zero,46fc <__isr_vec_space+0x46dc>
    46e8:	00000419 	0x419
    46ec:	00010c14 	0x10c14
    46f0:	040f0000 	0x40f0000
    46f4:	000005b7 	0x5b7
    46f8:	00004808 	0x4808
    46fc:	0005e100 	sll	gp,a1,0x4
    4700:	00ce0900 	0xce0900
    4704:	00020000 	sll	zero,v0,0x0
    4708:	00004808 	0x4808
    470c:	0005f100 	sll	s8,a1,0x4
    4710:	00ce0900 	0xce0900
    4714:	00000000 	nop
    4718:	000b8a05 	0xb8a05
    471c:	011d0500 	0x11d0500
    4720:	000002d1 	0x2d1
    4724:	000cd619 	0xcd619
    4728:	21050c00 	addi	a1,t0,3072
    472c:	00063201 	0x63201
    4730:	0bf11600 	j	fc45800 <__memory_size+0xfc26000>
    4734:	23050000 	addi	a1,t8,0
    4738:	00063201 	0x63201
    473c:	aa160000 	swl	s6,0(s0)
    4740:	0500000a 	bltz	t0,476c <__isr_vec_space+0x474c>
    4744:	003a0124 	0x3a0124
    4748:	16040000 	bne	s0,a0,474c <__isr_vec_space+0x472c>
    474c:	00000b84 	0xb84
    4750:	38012505 	xori	at,zero,0x2505
    4754:	08000006 	j	18 <ABIFlags_flags2+0x4>
    4758:	fd040f00 	sdc3	$4,3840(t0)
    475c:	0f000005 	jal	c000014 <__memory_size+0xbfe0814>
    4760:	0005f104 	0x5f104
    4764:	09621900 	j	5886400 <__memory_size+0x5866c00>
    4768:	050e0000 	tnei	t0,0
    476c:	0673013d 	bgezall	s3,4c64 <__isr_vec_space+0x4c44>
    4770:	37160000 	ori	s6,t8,0x0
    4774:	0500000c 	bltz	t0,47a8 <__isr_vec_space+0x4788>
    4778:	0673013e 	bgezall	s3,4c74 <__isr_vec_space+0x4c54>
    477c:	16000000 	bnez	s0,4780 <__isr_vec_space+0x4760>
    4780:	00000c64 	0xc64
    4784:	73013f05 	0x73013f05
    4788:	06000006 	bltz	s0,47a4 <__isr_vec_space+0x4784>
    478c:	0001ed16 	0x1ed16
    4790:	01400500 	0x1400500
    4794:	00000056 	0x56
    4798:	5608000c 	bnel	s0,t0,47cc <__isr_vec_space+0x47ac>
    479c:	83000000 	lb	zero,0(t8)
    47a0:	09000006 	j	4000018 <__memory_size+0x3fe0818>
    47a4:	000000ce 	0xce
    47a8:	d01a0002 	0xd01a0002
    47ac:	84025805 	lh	v0,22533(zero)
    47b0:	16000007 	bnez	s0,47d0 <__isr_vec_space+0x47b0>
    47b4:	00000cba 	0xcba
    47b8:	98025a05 	lwr	v0,23045(zero)
    47bc:	00000000 	nop
    47c0:	000c6a16 	0xc6a16
    47c4:	025b0500 	0x25b0500
    47c8:	00000551 	0x551
    47cc:	0ac61604 	j	b185810 <__memory_size+0xb166010>
    47d0:	5c050000 	0x5c050000
    47d4:	00078402 	srl	s0,a3,0x10
    47d8:	12160800 	beq	s0,s6,67dc <__isr_vec_space+0x67bc>
    47dc:	0500000d 	bltz	t0,4814 <__isr_vec_space+0x47f4>
    47e0:	0182025d 	0x182025d
    47e4:	16240000 	bne	s1,a0,47e8 <__isr_vec_space+0x47c8>
    47e8:	00000a69 	0xa69
    47ec:	3a025e05 	xori	v0,s0,0x5e05
    47f0:	48000000 	mfc2	zero,$0
    47f4:	000bec16 	0xbec16
    47f8:	025f0500 	0x25f0500
    47fc:	00000064 	0x64
    4800:	0d281650 	jal	4a05940 <__memory_size+0x49e6140>
    4804:	60050000 	0x60050000
    4808:	00063e02 	srl	a3,a2,0x18
    480c:	f7165800 	sdc1	$f22,22528(t8)
    4810:	0500000b 	bltz	t0,4840 <__isr_vec_space+0x4820>
    4814:	00f60261 	0xf60261
    4818:	16680000 	bne	s3,t0,481c <__isr_vec_space+0x47fc>
    481c:	00000d2d 	0xd2d
    4820:	f6026205 	sdc1	$f2,25093(s0)
    4824:	70000000 	madd	zero,zero
    4828:	0009ad16 	0x9ad16
    482c:	02630500 	0x2630500
    4830:	000000f6 	tne	zero,zero,0x3
    4834:	0ce51678 	jal	39459e0 <__memory_size+0x39261e0>
    4838:	64050000 	0x64050000
    483c:	00079402 	srl	s2,a3,0x10
    4840:	ba168000 	swr	s6,-32768(s0)
    4844:	0500000a 	bltz	t0,4870 <__isr_vec_space+0x4850>
    4848:	07a40265 	0x7a40265
    484c:	16880000 	bne	s4,t0,4850 <__isr_vec_space+0x4830>
    4850:	00000c88 	0xc88
    4854:	3a026605 	xori	v0,s0,0x6605
    4858:	a0000000 	sb	zero,0(zero)
    485c:	000a2f16 	0xa2f16
    4860:	02670500 	0x2670500
    4864:	000000f6 	tne	zero,zero,0x3
    4868:	099e16a4 	j	6785a90 <__memory_size+0x6766290>
    486c:	68050000 	0x68050000
    4870:	0000f602 	srl	s8,zero,0x18
    4874:	1e16ac00 	0x1e16ac00
    4878:	0500000a 	bltz	t0,48a4 <__isr_vec_space+0x4884>
    487c:	00f60269 	0xf60269
    4880:	16b40000 	bne	s5,s4,4884 <__isr_vec_space+0x4864>
    4884:	00000975 	0x975
    4888:	f6026a05 	sdc1	$f2,27141(s0)
    488c:	bc000000 	cache	0x0,0(zero)
    4890:	00098416 	0x98416
    4894:	026b0500 	0x26b0500
    4898:	000000f6 	tne	zero,zero,0x3
    489c:	0b6a16c4 	j	da85b10 <__memory_size+0xda66310>
    48a0:	6c050000 	0x6c050000
    48a4:	00003a02 	srl	a3,zero,0x8
    48a8:	0800cc00 	j	33000 <__memory_size+0x13800>
    48ac:	00000557 	0x557
    48b0:	00000794 	0x794
    48b4:	0000ce09 	0xce09
    48b8:	08001900 	j	6400 <__isr_vec_space+0x63e0>
    48bc:	00000557 	0x557
    48c0:	000007a4 	0x7a4
    48c4:	0000ce09 	0xce09
    48c8:	08000700 	j	1c00 <__isr_vec_space+0x1be0>
    48cc:	00000557 	0x557
    48d0:	000007b4 	teq	zero,zero,0x1e
    48d4:	0000ce09 	0xce09
    48d8:	1a001700 	blez	s0,a4dc <__isr_vec_space+0xa4bc>
    48dc:	027105f0 	tge	s3,s1,0x17
    48e0:	000007d8 	0x7d8
    48e4:	000b0116 	0xb0116
    48e8:	02740500 	0x2740500
    48ec:	000007d8 	0x7d8
    48f0:	0cdc1600 	jal	3705800 <__memory_size+0x36e6000>
    48f4:	75050000 	jalx	4140000 <__memory_size+0x4120800>
    48f8:	0007e802 	srl	sp,a3,0x0
    48fc:	08007800 	j	1e000 <__isr_vec_space+0x1dfe0>
    4900:	000002cb 	0x2cb
    4904:	000007e8 	0x7e8
    4908:	0000ce09 	0xce09
    490c:	08001d00 	j	7400 <__isr_vec_space+0x73e0>
    4910:	00000098 	0x98
    4914:	000007f8 	0x7f8
    4918:	0000ce09 	0xce09
    491c:	1b001d00 	blez	t8,bd20 <__isr_vec_space+0xbd00>
    4920:	025605f0 	tge	s2,s6,0x17
    4924:	0000081a 	0x81a
    4928:	000c301c 	0xc301c
    492c:	026d0500 	0x26d0500
    4930:	00000683 	sra	zero,zero,0x1a
    4934:	000cff1c 	0xcff1c
    4938:	02760500 	0x2760500
    493c:	000007b4 	teq	zero,zero,0x1e
    4940:	05570800 	0x5570800
    4944:	082a0000 	j	a80000 <__memory_size+0xa60800>
    4948:	ce090000 	pref	0x9,0(s0)
    494c:	18000000 	blez	zero,4950 <__isr_vec_space+0x4930>
    4950:	08351d00 	j	d47400 <__memory_size+0xd27c00>
    4954:	19140000 	0x19140000
    4958:	00000004 	sllv	zero,zero,zero
    495c:	082a040f 	j	a8103c <__memory_size+0xa6183c>
    4960:	040f0000 	0x40f0000
    4964:	0000016c 	0x16c
    4968:	00084c1d 	0x84c1d
    496c:	003a1400 	0x3a1400
    4970:	0f000000 	jal	c000000 <__memory_size+0xbfe0800>
    4974:	00085204 	0x85204
    4978:	41040f00 	0x41040f00
    497c:	08000008 	j	20 <__isr_vec_space>
    4980:	000005f1 	tgeu	zero,zero,0x17
    4984:	00000868 	0x868
    4988:	0000ce09 	0xce09
    498c:	1e000200 	bgtz	s0,5190 <__isr_vec_space+0x5170>
    4990:	0000081e 	0x81e
    4994:	87050604 	lh	a1,1540(t8)
    4998:	1f000008 	bgtz	t8,49bc <__isr_vec_space+0x499c>
    499c:	0000094a 	0x94a
    49a0:	088d1f00 	j	2347c00 <__memory_size+0x2328400>
    49a4:	1f010000 	0x1f010000
    49a8:	00000941 	0x941
    49ac:	79200002 	shf.h	$w0,$w0,0x20
    49b0:	01000008 	jr	t0
    49b4:	00003a42 	srl	a3,zero,0x9
    49b8:	0022d000 	0x22d000
    49bc:	00011080 	sll	v0,at,0x2
    49c0:	079c0100 	0x79c0100
    49c4:	21000009 	addi	zero,t0,9
    49c8:	000002ec 	0x2ec
    49cc:	003a4201 	0x3a4201
    49d0:	12ef0000 	beq	s7,t7,49d4 <__isr_vec_space+0x49b4>
    49d4:	66220000 	0x66220000
    49d8:	4201006e 	c0	0x1006e
    49dc:	0000029f 	0x29f
    49e0:	0000131b 	0x131b
    49e4:	67726122 	0x67726122
    49e8:	0c420100 	jal	1080400 <__memory_size+0x1060c00>
    49ec:	5d000001 	bgtzl	t0,49f4 <__isr_vec_space+0x49d4>
    49f0:	22000013 	addi	zero,s0,19
    49f4:	42010064 	c0	0x10064
    49f8:	0000010c 	syscall	0x4
    49fc:	0000139f 	0x139f
    4a00:	0009e223 	0x9e223
    4a04:	07490100 	tgeiu	k0,256
    4a08:	e1000009 	sc	zero,9(t0)
    4a0c:	24000013 	li	zero,19
    4a10:	4a010070 	c2	0x10070
    4a14:	00000289 	0x289
    4a18:	000013f7 	0x13f7
    4a1c:	00234425 	0x234425
    4a20:	00091e80 	sll	v1,t1,0x1a
    4a24:	54012600 	bnel	zero,at,e228 <__isr_vec_space+0xe208>
    4a28:	01900a03 	0x1900a03
    4a2c:	040f0000 	0x40f0000
    4a30:	000001fb 	0x1fb
    4a34:	000c9527 	0xc9527
    4a38:	02fb0500 	0x2fb0500
    4a3c:	00000919 	0x919
    4a40:	00041918 	0x41918
    4a44:	03c32800 	0x3c32800
    4a48:	60070000 	0x60070000
    4a4c:	0000010c 	syscall	0x4
    4a50:	00002814 	0x2814
    4a54:	51000000 	beqzl	t0,4a58 <__isr_vec_space+0x4a38>
    4a58:	04000009 	bltz	zero,4a80 <__isr_vec_space+0x4a60>
    4a5c:	0015eb00 	sll	sp,s5,0xc
    4a60:	99010400 	lwr	at,1024(t0)
    4a64:	01000008 	jr	t0
    4a68:	00000e01 	0xe01
    4a6c:	800023e0 	lb	zero,9184(zero)
    4a70:	00000180 	sll	zero,zero,0x6
    4a74:	00001acb 	0x1acb
    4a78:	a2070402 	sb	a3,1026(s0)
    4a7c:	03000001 	movf	zero,t8,$fcc0
    4a80:	6e690504 	0x6e690504
    4a84:	04020074 	bltzl	zero,4c58 <__isr_vec_space+0x4c38>
    4a88:	0001cb05 	0x1cb05
    4a8c:	06010200 	bgez	s0,5290 <__isr_vec_space+0x5270>
    4a90:	0000031a 	0x31a
    4a94:	18080102 	0x18080102
    4a98:	02000003 	0x2000003
    4a9c:	03260502 	0x3260502
    4aa0:	02020000 	0x2020000
    4aa4:	00028207 	0x28207
    4aa8:	05080200 	tgei	t0,512
    4aac:	000001c6 	0x1c6
    4ab0:	9d070802 	0x9d070802
    4ab4:	04000001 	bltz	zero,4abc <__isr_vec_space+0x4a9c>
    4ab8:	00000b49 	0xb49
    4abc:	00280702 	ror	zero,t0,0x1c
    4ac0:	1c040000 	0x1c040000
    4ac4:	0300000b 	movn	zero,t8,zero
    4ac8:	00002f10 	0x2f10
    4acc:	0c530400 	jal	14c1000 <__memory_size+0x14a1800>
    4ad0:	27030000 	addiu	v1,t8,0
    4ad4:	0000002f 	0x2f
    4ad8:	000ae105 	0xae105
    4adc:	01610400 	0x1610400
    4ae0:	0000008d 	break	0x0,0x2
    4ae4:	a7070402 	sh	a3,1026(t8)
    4ae8:	06000001 	bltz	s0,4af0 <__isr_vec_space+0x4ad0>
    4aec:	b34a0304 	0xb34a0304
    4af0:	07000000 	bltz	t8,4af4 <__isr_vec_space+0x4ad4>
    4af4:	00000adb 	0xadb
    4af8:	00814c03 	0x814c03
    4afc:	8d070000 	lw	a3,0(t0)
    4b00:	0300000a 	movz	zero,t8,zero
    4b04:	0000b34d 	break	0x0,0x2cd
    4b08:	3d080000 	0x3d080000
    4b0c:	c3000000 	ll	zero,0(t8)
    4b10:	09000000 	j	4000000 <__memory_size+0x3fe0800>
    4b14:	000000c3 	sra	zero,zero,0x3
    4b18:	04020003 	bltzl	zero,4b28 <__isr_vec_space+0x4b08>
    4b1c:	0002e807 	srav	sp,v0,zero
    4b20:	03080a00 	0x3080a00
    4b24:	0000eb47 	0xeb47
    4b28:	0c3d0b00 	jal	f42c00 <__memory_size+0xf23400>
    4b2c:	49030000 	bc2tl	4b30 <__isr_vec_space+0x4b10>
    4b30:	00000028 	0x28
    4b34:	0c450b00 	jal	1142c00 <__memory_size+0x1123400>
    4b38:	4e030000 	lwxc1	$f0,v1(s0)
    4b3c:	00000094 	0x94
    4b40:	3e040004 	0x3e040004
    4b44:	0300000b 	movn	zero,t8,zero
    4b48:	0000ca4f 	0xca4f
    4b4c:	0a500400 	j	9401000 <__memory_size+0x93e1800>
    4b50:	53030000 	beql	t8,v1,4b54 <__isr_vec_space+0x4b34>
    4b54:	00000060 	0x60
    4b58:	8004040c 	lb	a0,1036(zero)
    4b5c:	0500000c 	bltz	t0,4b90 <__isr_vec_space+0x4b70>
    4b60:	00002116 	0x2116
    4b64:	0a610d00 	j	9843400 <__memory_size+0x9823c00>
    4b68:	05180000 	0x5180000
    4b6c:	0001612d 	0x1612d
    4b70:	0bf10b00 	j	fc42c00 <__memory_size+0xfc23400>
    4b74:	2f050000 	sltiu	a1,t8,0
    4b78:	00000161 	0x161
    4b7c:	6b5f0e00 	0x6b5f0e00
    4b80:	28300500 	slti	s0,at,1280
    4b84:	04000000 	bltz	zero,4b88 <__isr_vec_space+0x4b68>
    4b88:	000c280b 	movn	a1,zero,t4
    4b8c:	28300500 	slti	s0,at,1280
    4b90:	08000000 	j	0 <hardware_exit_hook>
    4b94:	000a4a0b 	0xa4a0b
    4b98:	28300500 	slti	s0,at,1280
    4b9c:	0c000000 	jal	0 <hardware_exit_hook>
    4ba0:	000cc70b 	0xcc70b
    4ba4:	28300500 	slti	s0,at,1280
    4ba8:	10000000 	b	4bac <__isr_vec_space+0x4b8c>
    4bac:	00785f0e 	0x785f0e
    4bb0:	01673105 	0x1673105
    4bb4:	00140000 	sll	zero,s4,0x0
    4bb8:	010e040f 	0x10e040f
    4bbc:	03080000 	0x3080000
    4bc0:	77000001 	jalx	c000004 <__memory_size+0xbfe0804>
    4bc4:	09000001 	j	4000004 <__memory_size+0x3fe0804>
    4bc8:	000000c3 	sra	zero,zero,0x3
    4bcc:	880d0000 	lwl	t5,0(zero)
    4bd0:	2400000a 	li	zero,10
    4bd4:	01f03505 	0x1f03505
    4bd8:	bb0b0000 	swr	t3,0(t8)
    4bdc:	05000009 	bltz	t0,4c04 <__isr_vec_space+0x4be4>
    4be0:	00002837 	0x2837
    4be4:	5b0b0000 	0x5b0b0000
    4be8:	0500000c 	bltz	t0,4c1c <__isr_vec_space+0x4bfc>
    4bec:	00002838 	0x2838
    4bf0:	ca0b0400 	lwc2	$11,1024(s0)
    4bf4:	05000009 	bltz	t0,4c1c <__isr_vec_space+0x4bfc>
    4bf8:	00002839 	0x2839
    4bfc:	5b0b0800 	0x5b0b0800
    4c00:	0500000b 	bltz	t0,4c30 <__isr_vec_space+0x4c10>
    4c04:	0000283a 	0x283a
    4c08:	080b0c00 	j	2c3000 <__memory_size+0x2a3800>
    4c0c:	0500000b 	bltz	t0,4c3c <__isr_vec_space+0x4c1c>
    4c10:	0000283b 	0x283b
    4c14:	f70b1000 	sdc1	$f11,4096(t8)
    4c18:	0500000a 	bltz	t0,4c44 <__isr_vec_space+0x4c24>
    4c1c:	0000283c 	0x283c
    4c20:	cc0b1400 	pref	0xb,5120(zero)
    4c24:	0500000c 	bltz	t0,4c58 <__isr_vec_space+0x4c38>
    4c28:	0000283d 	0x283d
    4c2c:	730b1800 	madd	$ac3,t8,t3
    4c30:	0500000b 	bltz	t0,4c60 <__isr_vec_space+0x4c40>
    4c34:	0000283e 	0x283e
    4c38:	070b1c00 	tltiu	t8,7168
    4c3c:	0500000d 	bltz	t0,4c74 <__isr_vec_space+0x4c54>
    4c40:	0000283f 	0x283f
    4c44:	10002000 	b	cc48 <__isr_vec_space+0xcc28>
    4c48:	000009d9 	0x9d9
    4c4c:	48050108 	0x48050108
    4c50:	00000230 	tge	zero,zero,0x8
    4c54:	000a3d0b 	0xa3d0b
    4c58:	30490500 	andi	t1,v0,0x500
    4c5c:	00000002 	srl	zero,zero,0x0
    4c60:	0009560b 	0x9560b
    4c64:	304a0500 	andi	t2,v0,0x500
    4c68:	80000002 	lb	zero,2(zero)
    4c6c:	000c7711 	0xc7711
    4c70:	034c0500 	0x34c0500
    4c74:	00000001 	movf	zero,zero,$fcc0
    4c78:	09fe1101 	j	7f84404 <__memory_size+0x7f64c04>
    4c7c:	4f050000 	lwxc1	$f0,a1(t8)
    4c80:	00000103 	sra	zero,zero,0x4
    4c84:	08000104 	j	410 <__isr_vec_space+0x3f0>
    4c88:	00000101 	0x101
    4c8c:	00000240 	sll	zero,zero,0x9
    4c90:	0000c309 	0xc309
    4c94:	10001f00 	b	c898 <__isr_vec_space+0xc878>
    4c98:	0000094e 	0x94e
    4c9c:	5b050190 	0x5b050190
    4ca0:	0000027e 	0x27e
    4ca4:	000bf10b 	0xbf10b
    4ca8:	7e5c0500 	ext	gp,s2,0x14,0x1
    4cac:	00000002 	srl	zero,zero,0x0
    4cb0:	000c090b 	0xc090b
    4cb4:	285d0500 	slti	sp,v0,1280
    4cb8:	04000000 	bltz	zero,4cbc <__isr_vec_space+0x4c9c>
    4cbc:	000a450b 	0xa450b
    4cc0:	845f0500 	lh	ra,1280(v0)
    4cc4:	08000002 	j	8 <ABIFlags_isa_ext>
    4cc8:	0009d90b 	0x9d90b
    4ccc:	f0600500 	0xf0600500
    4cd0:	88000001 	lwl	zero,1(zero)
    4cd4:	40040f00 	0x40040f00
    4cd8:	08000002 	j	8 <ABIFlags_isa_ext>
    4cdc:	00000294 	0x294
    4ce0:	00000294 	0x294
    4ce4:	0000c309 	0xc309
    4ce8:	0f001f00 	jal	c007c00 <__memory_size+0xbfe8400>
    4cec:	00029a04 	0x29a04
    4cf0:	7d0d1200 	ext	t5,t0,0x8,0x3
    4cf4:	0800000b 	j	2c <__isr_vec_space+0xc>
    4cf8:	02c07305 	0x2c07305
    4cfc:	180b0000 	0x180b0000
    4d00:	05000010 	bltz	t0,4d44 <__isr_vec_space+0x4d24>
    4d04:	0002c074 	teq	zero,v0,0x301
    4d08:	690b0000 	0x690b0000
    4d0c:	05000007 	bltz	t0,4d2c <__isr_vec_space+0x4d0c>
    4d10:	00002875 	0x2875
    4d14:	0f000400 	jal	c001000 <__memory_size+0xbfe1800>
    4d18:	00003d04 	0x3d04
    4d1c:	0bdb0d00 	j	f6c3400 <__memory_size+0xf6a3c00>
    4d20:	05680000 	tgei	t3,0
    4d24:	0003f0b3 	tltu	zero,v1,0x3c2
    4d28:	705f0e00 	0x705f0e00
    4d2c:	c0b40500 	ll	s4,1280(a1)
    4d30:	00000002 	srl	zero,zero,0x0
    4d34:	00725f0e 	0x725f0e
    4d38:	0028b505 	0x28b505
    4d3c:	0e040000 	jal	8100000 <__memory_size+0x80e0800>
    4d40:	0500775f 	bltz	t0,22ac0 <__memory_size+0x32c0>
    4d44:	000028b6 	tne	zero,zero,0xa2
    4d48:	f70b0800 	sdc1	$f11,2048(t8)
    4d4c:	05000009 	bltz	t0,4d74 <__isr_vec_space+0x4d54>
    4d50:	000044b7 	0x44b7
    4d54:	a40b0c00 	sh	t3,3072(zero)
    4d58:	0500000a 	bltz	t0,4d84 <__isr_vec_space+0x4d64>
    4d5c:	000044b8 	0x44b8
    4d60:	5f0e0e00 	0x5f0e0e00
    4d64:	05006662 	bltz	t0,1e6f0 <__isr_vec_space+0x1e6d0>
    4d68:	00029bb9 	0x29bb9
    4d6c:	950b1000 	lhu	t3,4096(t0)
    4d70:	05000009 	bltz	t0,4d98 <__isr_vec_space+0x4d78>
    4d74:	000028ba 	0x28ba
    4d78:	e70b1800 	swc1	$f11,6144(t8)
    4d7c:	05000009 	bltz	t0,4da4 <__isr_vec_space+0x4d84>
    4d80:	000101c1 	0x101c1
    4d84:	780b1c00 	andi.b	$w16,$w3,0xb
    4d88:	0500000a 	bltz	t0,4db4 <__isr_vec_space+0x4d94>
    4d8c:	000553c3 	sra	t2,a1,0xf
    4d90:	f00b2000 	0xf00b2000
    4d94:	0500000a 	bltz	t0,4dc0 <__isr_vec_space+0x4da0>
    4d98:	000582c5 	0x582c5
    4d9c:	4d0b2400 	0x4d0b2400
    4da0:	0500000c 	bltz	t0,4dd4 <__isr_vec_space+0x4db4>
    4da4:	0005a6c8 	0x5a6c8
    4da8:	210b2800 	addi	t3,t0,10240
    4dac:	0500000d 	bltz	t0,4de4 <__isr_vec_space+0x4dc4>
    4db0:	0005c0c9 	0x5c0c9
    4db4:	5f0e2c00 	0x5f0e2c00
    4db8:	05006275 	bltz	t0,1d790 <__isr_vec_space+0x1d770>
    4dbc:	00029bcc 	syscall	0xa6f
    4dc0:	5f0e3000 	0x5f0e3000
    4dc4:	05007075 	bltz	t0,20f9c <__memory_size+0x179c>
    4dc8:	0002c0cd 	break	0x2,0x303
    4dcc:	5f0e3800 	0x5f0e3800
    4dd0:	05007275 	bltz	t0,217a8 <__memory_size+0x1fa8>
    4dd4:	000028ce 	0x28ce
    4dd8:	c40b3c00 	lwc1	$f11,15360(zero)
    4ddc:	05000009 	bltz	t0,4e04 <__isr_vec_space+0x4de4>
    4de0:	0005c6d1 	0x5c6d1
    4de4:	f90b4000 	sdc2	$11,16384(t0)
    4de8:	0500000c 	bltz	t0,4e1c <__isr_vec_space+0x4dfc>
    4dec:	0005d6d2 	0x5d6d2
    4df0:	5f0e4300 	0x5f0e4300
    4df4:	0500626c 	bltz	t0,1d7a8 <__isr_vec_space+0x1d788>
    4df8:	00029bd5 	0x29bd5
    4dfc:	0d0b4400 	jal	42d1000 <__memory_size+0x42b1800>
    4e00:	0500000a 	bltz	t0,4e2c <__isr_vec_space+0x4e0c>
    4e04:	000028d8 	0x28d8
    4e08:	fa0b4c00 	sdc2	$11,19456(s0)
    4e0c:	05000005 	bltz	t0,4e24 <__isr_vec_space+0x4e04>
    4e10:	00006bd9 	0x6bd9
    4e14:	460b5000 	add.s	$f0,$f10,$f11
    4e18:	0500000d 	bltz	t0,4e50 <__isr_vec_space+0x4e30>
    4e1c:	00040edc 	0x40edc
    4e20:	fb0b5400 	sdc2	$11,21504(t8)
    4e24:	0500000d 	bltz	t0,4e5c <__isr_vec_space+0x4e3c>
    4e28:	0000f6e0 	0xf6e0
    4e2c:	e30b5800 	sc	t3,22528(t8)
    4e30:	0500000b 	bltz	t0,4e60 <__isr_vec_space+0x4e40>
    4e34:	0000ebe2 	0xebe2
    4e38:	e80b5c00 	swc2	$11,23552(zero)
    4e3c:	0500000a 	bltz	t0,4e68 <__isr_vec_space+0x4e48>
    4e40:	000028e3 	0x28e3
    4e44:	13006400 	beqz	t8,1de48 <__isr_vec_space+0x1de28>
    4e48:	00000028 	0x28
    4e4c:	0000040e 	0x40e
    4e50:	00040e14 	0x40e14
    4e54:	01011400 	0x1011400
    4e58:	46140000 	add.s	$f0,$f0,$f20
    4e5c:	14000005 	bnez	zero,4e74 <__isr_vec_space+0x4e54>
    4e60:	00000028 	0x28
    4e64:	14040f00 	bne	zero,a0,8a68 <__isr_vec_space+0x8a48>
    4e68:	15000004 	bnez	t0,4e7c <__isr_vec_space+0x4e5c>
    4e6c:	00000c30 	tge	zero,zero,0x30
    4e70:	39050428 	xori	a1,t0,0x428
    4e74:	00054602 	srl	t0,a1,0x18
    4e78:	11c41600 	beq	t6,a0,a67c <__isr_vec_space+0xa65c>
    4e7c:	3b050000 	xori	a1,t8,0x0
    4e80:	00002802 	srl	a1,zero,0x0
    4e84:	06160000 	0x6160000
    4e88:	0500000a 	bltz	t0,4eb4 <__isr_vec_space+0x4e94>
    4e8c:	062d0240 	0x62d0240
    4e90:	16040000 	bne	s0,a0,4e94 <__isr_vec_space+0x4e74>
    4e94:	00000a94 	0xa94
    4e98:	2d024005 	sltiu	v0,t0,16389
    4e9c:	08000006 	j	18 <ABIFlags_flags2+0x4>
    4ea0:	000a5916 	0xa5916
    4ea4:	02400500 	0x2400500
    4ea8:	0000062d 	0x62d
    4eac:	0c04160c 	jal	105830 <__memory_size+0xe6030>
    4eb0:	42050000 	c0	0x50000
    4eb4:	00002802 	srl	a1,zero,0x0
    4eb8:	6a161000 	0x6a161000
    4ebc:	05000009 	bltz	t0,4ee4 <__isr_vec_space+0x4ec4>
    4ec0:	080f0243 	j	3c090c <__memory_size+0x3a110c>
    4ec4:	16140000 	bne	s0,s4,4ec8 <__isr_vec_space+0x4ea8>
    4ec8:	00000ca8 	0xca8
    4ecc:	28024505 	slti	v0,zero,17669
    4ed0:	30000000 	andi	zero,zero,0x0
    4ed4:	000c0e16 	0xc0e16
    4ed8:	02460500 	0x2460500
    4edc:	00000577 	0x577
    4ee0:	0b111634 	j	c4458d0 <__memory_size+0xc4260d0>
    4ee4:	48050000 	mfc2	a1,$0
    4ee8:	00002802 	srl	a1,zero,0x0
    4eec:	1e163800 	0x1e163800
    4ef0:	0500000c 	bltz	t0,4f24 <__isr_vec_space+0x4f04>
    4ef4:	082a024a 	j	a80928 <__memory_size+0xa61128>
    4ef8:	163c0000 	bne	s1,gp,4efc <__isr_vec_space+0x4edc>
    4efc:	00000ad3 	0xad3
    4f00:	61024d05 	0x61024d05
    4f04:	40000001 	mfc0	zero,c0_mvpcontrol
    4f08:	000a7e16 	0xa7e16
    4f0c:	024e0500 	0x24e0500
    4f10:	00000028 	0x28
    4f14:	0d3b1644 	jal	4ec5910 <__memory_size+0x4ea6110>
    4f18:	4f050000 	lwxc1	$f0,a1(t8)
    4f1c:	00016102 	srl	t4,at,0x4
    4f20:	34164800 	li	s6,0x4800
    4f24:	0500000b 	bltz	t0,4f54 <__isr_vec_space+0x4f34>
    4f28:	08300250 	j	c00940 <__memory_size+0xbe1140>
    4f2c:	164c0000 	bne	s2,t4,4f30 <__isr_vec_space+0x4f10>
    4f30:	00000a9c 	0xa9c
    4f34:	28025305 	slti	v0,zero,21253
    4f38:	50000000 	beqzl	zero,4f3c <__isr_vec_space+0x4f1c>
    4f3c:	000a1616 	0xa1616
    4f40:	02540500 	0x2540500
    4f44:	00000546 	0x546
    4f48:	0b651654 	j	d945950 <__memory_size+0xd926150>
    4f4c:	77050000 	jalx	c140000 <__memory_size+0xc120800>
    4f50:	0007ed02 	srl	sp,a3,0x14
    4f54:	4e175800 	c3	0x175800
    4f58:	05000009 	bltz	t0,4f80 <__isr_vec_space+0x4f60>
    4f5c:	027e027b 	0x27e027b
    4f60:	01480000 	0x1480000
    4f64:	000ab117 	0xab117
    4f68:	027c0500 	0x27c0500
    4f6c:	00000240 	sll	zero,zero,0x9
    4f70:	ef17014c 	swc3	$23,332(t8)
    4f74:	0500000c 	bltz	t0,4fa8 <__isr_vec_space+0x4f88>
    4f78:	08410280 	j	1040a00 <__memory_size+0x1021200>
    4f7c:	02dc0000 	0x2dc0000
    4f80:	0009ef17 	0x9ef17
    4f84:	02850500 	0x2850500
    4f88:	000005f2 	tlt	zero,zero,0x17
    4f8c:	d41702e0 	ldc1	$f23,736(zero)
    4f90:	05000009 	bltz	t0,4fb8 <__isr_vec_space+0x4f98>
    4f94:	084d0286 	j	1340a18 <__memory_size+0x1321218>
    4f98:	02ec0000 	0x2ec0000
    4f9c:	4c040f00 	0x4c040f00
    4fa0:	02000005 	lsa	zero,s0,zero,0x1
    4fa4:	03210801 	movt	at,t9,$fcc0
    4fa8:	040f0000 	0x40f0000
    4fac:	000003f0 	tge	zero,zero,0xf
    4fb0:	00002813 	0x2813
    4fb4:	00057700 	sll	t6,a1,0x1c
    4fb8:	040e1400 	tnei	zero,5120
    4fbc:	01140000 	0x1140000
    4fc0:	14000001 	bnez	zero,4fc8 <__isr_vec_space+0x4fa8>
    4fc4:	00000577 	0x577
    4fc8:	00002814 	0x2814
    4fcc:	040f0000 	0x40f0000
    4fd0:	0000057d 	0x57d
    4fd4:	00054c18 	0x54c18
    4fd8:	59040f00 	0x59040f00
    4fdc:	13000005 	beqz	t8,4ff4 <__isr_vec_space+0x4fd4>
    4fe0:	00000076 	tne	zero,zero,0x1
    4fe4:	000005a6 	0x5a6
    4fe8:	00040e14 	0x40e14
    4fec:	01011400 	0x1011400
    4ff0:	76140000 	jalx	8500000 <__memory_size+0x84e0800>
    4ff4:	14000000 	bnez	zero,4ff8 <__isr_vec_space+0x4fd8>
    4ff8:	00000028 	0x28
    4ffc:	88040f00 	lwl	a0,3840(zero)
    5000:	13000005 	beqz	t8,5018 <__isr_vec_space+0x4ff8>
    5004:	00000028 	0x28
    5008:	000005c0 	sll	zero,zero,0x17
    500c:	00040e14 	0x40e14
    5010:	01011400 	0x1011400
    5014:	0f000000 	jal	c000000 <__memory_size+0xbfe0800>
    5018:	0005ac04 	0x5ac04
    501c:	003d0800 	0x3d0800
    5020:	05d60000 	0x5d60000
    5024:	c3090000 	ll	t1,0(t8)
    5028:	02000000 	0x2000000
    502c:	003d0800 	0x3d0800
    5030:	05e60000 	0x5e60000
    5034:	c3090000 	ll	t1,0(t8)
    5038:	00000000 	nop
    503c:	0b8a0500 	j	e281400 <__memory_size+0xe261c00>
    5040:	1d050000 	0x1d050000
    5044:	0002c601 	0x2c601
    5048:	0cd61900 	jal	3586400 <__memory_size+0x3566c00>
    504c:	050c0000 	teqi	t0,0
    5050:	06270121 	aclr	0x0,289(s1)
    5054:	f1160000 	0xf1160000
    5058:	0500000b 	bltz	t0,5088 <__isr_vec_space+0x5068>
    505c:	06270123 	aclr	0x0,291(s1)
    5060:	16000000 	bnez	s0,5064 <__isr_vec_space+0x5044>
    5064:	00000aaa 	0xaaa
    5068:	28012405 	slti	at,zero,9221
    506c:	04000000 	bltz	zero,5070 <__isr_vec_space+0x5050>
    5070:	000b8416 	0xb8416
    5074:	01250500 	0x1250500
    5078:	0000062d 	0x62d
    507c:	040f0008 	0x40f0008
    5080:	000005f2 	tlt	zero,zero,0x17
    5084:	05e6040f 	0x5e6040f
    5088:	62190000 	0x62190000
    508c:	0e000009 	jal	8000024 <__memory_size+0x7fe0824>
    5090:	68013d05 	0x68013d05
    5094:	16000006 	bnez	s0,50b0 <__isr_vec_space+0x5090>
    5098:	00000c37 	0xc37
    509c:	68013e05 	0x68013e05
    50a0:	00000006 	srlv	zero,zero,zero
    50a4:	000c6416 	0xc6416
    50a8:	013f0500 	0x13f0500
    50ac:	00000668 	0x668
    50b0:	01ed1606 	0x1ed1606
    50b4:	40050000 	mfc0	a1,c0_index
    50b8:	00004b01 	0x4b01
    50bc:	08000c00 	j	3000 <__isr_vec_space+0x2fe0>
    50c0:	0000004b 	0x4b
    50c4:	00000678 	0x678
    50c8:	0000c309 	0xc309
    50cc:	1a000200 	blez	s0,58d0 <__isr_vec_space+0x58b0>
    50d0:	025805d0 	0x25805d0
    50d4:	00000779 	0x779
    50d8:	000cba16 	0xcba16
    50dc:	025a0500 	0x25a0500
    50e0:	0000008d 	break	0x0,0x2
    50e4:	0c6a1600 	jal	1a85800 <__memory_size+0x1a66000>
    50e8:	5b050000 	0x5b050000
    50ec:	00054602 	srl	t0,a1,0x18
    50f0:	c6160400 	lwc1	$f22,1024(s0)
    50f4:	0500000a 	bltz	t0,5120 <__isr_vec_space+0x5100>
    50f8:	0779025c 	0x779025c
    50fc:	16080000 	bne	s0,t0,5100 <__isr_vec_space+0x50e0>
    5100:	00000d12 	0xd12
    5104:	77025d05 	jalx	c097414 <__memory_size+0xc077c14>
    5108:	24000001 	li	zero,1
    510c:	000a6916 	0xa6916
    5110:	025e0500 	0x25e0500
    5114:	00000028 	0x28
    5118:	0bec1648 	j	fb05920 <__memory_size+0xfae6120>
    511c:	5f050000 	0x5f050000
    5120:	00005902 	srl	t3,zero,0x4
    5124:	28165000 	slti	s6,zero,20480
    5128:	0500000d 	bltz	t0,5160 <__isr_vec_space+0x5140>
    512c:	06330260 	bgezall	s1,5ab0 <__isr_vec_space+0x5a90>
    5130:	16580000 	bne	s2,t8,5134 <__isr_vec_space+0x5114>
    5134:	00000bf7 	0xbf7
    5138:	eb026105 	swc2	$2,24837(t8)
    513c:	68000000 	0x68000000
    5140:	000d2d16 	0xd2d16
    5144:	02620500 	0x2620500
    5148:	000000eb 	0xeb
    514c:	09ad1670 	j	6b459c0 <__memory_size+0x6b261c0>
    5150:	63050000 	0x63050000
    5154:	0000eb02 	srl	sp,zero,0xc
    5158:	e5167800 	swc1	$f22,30720(t0)
    515c:	0500000c 	bltz	t0,5190 <__isr_vec_space+0x5170>
    5160:	07890264 	tgeiu	gp,612
    5164:	16800000 	bnez	s4,5168 <__isr_vec_space+0x5148>
    5168:	00000aba 	0xaba
    516c:	99026505 	lwr	v0,25861(t0)
    5170:	88000007 	lwl	zero,7(zero)
    5174:	000c8816 	0xc8816
    5178:	02660500 	0x2660500
    517c:	00000028 	0x28
    5180:	0a2f16a0 	j	8bc5a80 <__memory_size+0x8ba6280>
    5184:	67050000 	0x67050000
    5188:	0000eb02 	srl	sp,zero,0xc
    518c:	9e16a400 	0x9e16a400
    5190:	05000009 	bltz	t0,51b8 <__isr_vec_space+0x5198>
    5194:	00eb0268 	0xeb0268
    5198:	16ac0000 	bne	s5,t4,519c <__isr_vec_space+0x517c>
    519c:	00000a1e 	0xa1e
    51a0:	eb026905 	swc2	$2,26885(t8)
    51a4:	b4000000 	0xb4000000
    51a8:	00097516 	0x97516
    51ac:	026a0500 	0x26a0500
    51b0:	000000eb 	0xeb
    51b4:	098416bc 	j	6105af0 <__memory_size+0x60e62f0>
    51b8:	6b050000 	0x6b050000
    51bc:	0000eb02 	srl	sp,zero,0xc
    51c0:	6a16c400 	0x6a16c400
    51c4:	0500000b 	bltz	t0,51f4 <__isr_vec_space+0x51d4>
    51c8:	0028026c 	0x28026c
    51cc:	00cc0000 	0xcc0000
    51d0:	00054c08 	0x54c08
    51d4:	00078900 	sll	s1,a3,0x4
    51d8:	00c30900 	0xc30900
    51dc:	00190000 	sll	zero,t9,0x0
    51e0:	00054c08 	0x54c08
    51e4:	00079900 	sll	s3,a3,0x4
    51e8:	00c30900 	0xc30900
    51ec:	00070000 	sll	zero,a3,0x0
    51f0:	00054c08 	0x54c08
    51f4:	0007a900 	sll	s5,a3,0x4
    51f8:	00c30900 	0xc30900
    51fc:	00170000 	sll	zero,s7,0x0
    5200:	7105f01a 	udi10	t0,a1,s8,0x0
    5204:	0007cd02 	srl	t9,a3,0x14
    5208:	0b011600 	j	c045800 <__memory_size+0xc026000>
    520c:	74050000 	jalx	140000 <__memory_size+0x120800>
    5210:	0007cd02 	srl	t9,a3,0x14
    5214:	dc160000 	ldc3	$22,0(zero)
    5218:	0500000c 	bltz	t0,524c <__isr_vec_space+0x522c>
    521c:	07dd0275 	0x7dd0275
    5220:	00780000 	0x780000
    5224:	0002c008 	0x2c008
    5228:	0007dd00 	sll	k1,a3,0x14
    522c:	00c30900 	0xc30900
    5230:	001d0000 	sll	zero,sp,0x0
    5234:	00008d08 	0x8d08
    5238:	0007ed00 	sll	sp,a3,0x14
    523c:	00c30900 	0xc30900
    5240:	001d0000 	sll	zero,sp,0x0
    5244:	5605f01b 	bnel	s0,a1,12b4 <__isr_vec_space+0x1294>
    5248:	00080f02 	srl	at,t0,0x1c
    524c:	0c301c00 	jal	c07000 <__memory_size+0xbe7800>
    5250:	6d050000 	0x6d050000
    5254:	00067802 	srl	t7,a2,0x0
    5258:	0cff1c00 	jal	3fc7000 <__memory_size+0x3fa7800>
    525c:	76050000 	jalx	8140000 <__memory_size+0x8120800>
    5260:	0007a902 	srl	s5,a3,0x4
    5264:	4c080000 	lwxc1	$f0,t0(zero)
    5268:	1f000005 	bgtz	t8,5280 <__isr_vec_space+0x5260>
    526c:	09000008 	j	4000020 <__memory_size+0x3fe0820>
    5270:	000000c3 	sra	zero,zero,0x3
    5274:	2a1d0018 	slti	sp,s0,24
    5278:	14000008 	bnez	zero,529c <__isr_vec_space+0x527c>
    527c:	0000040e 	0x40e
    5280:	1f040f00 	0x1f040f00
    5284:	0f000008 	jal	c000020 <__memory_size+0xbfe0820>
    5288:	00016104 	0x16104
    528c:	08411d00 	j	1047400 <__memory_size+0x1027c00>
    5290:	28140000 	slti	s4,zero,0
    5294:	00000000 	nop
    5298:	0847040f 	j	11c103c <__memory_size+0x11a183c>
    529c:	040f0000 	0x40f0000
    52a0:	00000836 	tne	zero,zero,0x20
    52a4:	0005e608 	0x5e608
    52a8:	00085d00 	sll	t3,t0,0x14
    52ac:	00c30900 	0xc30900
    52b0:	00020000 	sll	zero,v0,0x0
    52b4:	000b231e 	0xb231e
    52b8:	e0420100 	sc	v0,256(v0)
    52bc:	80800023 	lb	zero,35(a0)
    52c0:	01000001 	movf	zero,t0,$fcc0
    52c4:	00091e9c 	0x91e9c
    52c8:	0eb71f00 	jal	adc7c00 <__memory_size+0xada8400>
    52cc:	42010000 	c0	0x10000
    52d0:	00000028 	0x28
    52d4:	0000142f 	0x142f
    52d8:	01006420 	0x1006420
    52dc:	00010142 	srl	zero,at,0x5
    52e0:	00145b00 	sll	t3,s4,0xc
    52e4:	00702100 	0x702100
    52e8:	027e4501 	0x27e4501
    52ec:	14870000 	bne	a0,a3,52f0 <__isr_vec_space+0x52d0>
    52f0:	e5220000 	swc1	$f2,0(t1)
    52f4:	0100000d 	break	0x100
    52f8:	00091e46 	0x91e46
    52fc:	0014a600 	sll	s4,s4,0x18
    5300:	09e22200 	j	7888800 <__memory_size+0x7869000>
    5304:	47010000 	bz.b	$w1,5308 <__isr_vec_space+0x52e8>
    5308:	00000924 	0x924
    530c:	000014cf 	0x14cf
    5310:	01006e21 	0x1006e21
    5314:	00002848 	0x2848
    5318:	0014f600 	sll	s8,s4,0x18
    531c:	00692100 	0x692100
    5320:	00284901 	0x284901
    5324:	15090000 	bne	t0,t1,5328 <__isr_vec_space+0x5308>
    5328:	66210000 	0x66210000
    532c:	4a01006e 	c2	0x1006e
    5330:	00000294 	0x294
    5334:	0000153e 	0x153e
    5338:	000deb23 	0xdeb23
    533c:	24510100 	addiu	s1,v0,256
    5340:	000000d8 	0xd8
    5344:	0000090d 	break	0x0,0x24
    5348:	646e6921 	0x646e6921
    534c:	285e0100 	slti	s8,v0,256
    5350:	67000000 	0x67000000
    5354:	25000015 	addiu	zero,t0,21
    5358:	8000251c 	lb	zero,9500(zero)
    535c:	02540126 	0x2540126
    5360:	00000086 	0x86
    5364:	0024f027 	nor	s8,at,a0
    5368:	00094780 	sll	t0,t1,0x1e
    536c:	54012600 	bnel	zero,at,eb70 <__isr_vec_space+0xeb50>
    5370:	00008002 	srl	s0,zero,0x0
    5374:	7e040f00 	ext	a0,s0,0x1c,0x2
    5378:	0f000002 	jal	c000008 <__memory_size+0xbfe0808>
    537c:	0001f004 	sllv	s8,at,zero
    5380:	0df32800 	jal	7cca000 <__memory_size+0x7caa800>
    5384:	0e010000 	jal	8040000 <__memory_size+0x8020800>
    5388:	00000028 	0x28
    538c:	0c952900 	jal	254a400 <__memory_size+0x252ac00>
    5390:	fb050000 	sdc2	$5,0(t8)
    5394:	00094202 	srl	t0,t1,0x8
    5398:	040e1800 	tnei	zero,6144
    539c:	9e2a0000 	0x9e2a0000
    53a0:	06000006 	bltz	s0,53bc <__isr_vec_space+0x539c>
    53a4:	01011455 	0x1011455
    53a8:	00000000 	nop
    53ac:	00000122 	0x122
    53b0:	18080004 	0x18080004
    53b4:	01040000 	0x1040000
    53b8:	00000ec3 	sra	at,zero,0x1b
    53bc:	000e5401 	0xe5401
    53c0:	00256000 	0x256000
    53c4:	00008880 	sll	s1,zero,0x2
    53c8:	001cc100 	sll	t8,gp,0x4
    53cc:	06010200 	bgez	s0,5bd0 <__isr_vec_space+0x5bb0>
    53d0:	0000031a 	0x31a
    53d4:	18080102 	0x18080102
    53d8:	02000003 	0x2000003
    53dc:	03260502 	0x3260502
    53e0:	02020000 	0x2020000
    53e4:	00028207 	0x28207
    53e8:	033f0300 	0x33f0300
    53ec:	37020000 	ori	v0,t8,0x0
    53f0:	00000048 	0x48
    53f4:	cb050402 	lwc2	$5,1026(t8)
    53f8:	02000001 	movf	zero,s0,$fcc0
    53fc:	01a20704 	0x1a20704
    5400:	08020000 	j	80000 <__memory_size+0x60800>
    5404:	0001c605 	0x1c605
    5408:	07080200 	tgei	t8,512
    540c:	0000019d 	0x19d
    5410:	00034103 	sra	t0,v1,0x4
    5414:	3d410300 	0x3d410300
    5418:	04000000 	bltz	zero,541c <__isr_vec_space+0x53fc>
    541c:	6e690504 	0x6e690504
    5420:	04020074 	bltzl	zero,55f4 <__isr_vec_space+0x55d4>
    5424:	0001a707 	0x1a707
    5428:	07040200 	0x7040200
    542c:	000002e8 	0x2e8
    5430:	21080102 	addi	t0,t0,258
    5434:	05000003 	bltz	t0,5444 <__isr_vec_space+0x5424>
    5438:	00000ebc 	0xebc
    543c:	25603c01 	addiu	zero,t3,15361
    5440:	00888000 	0x888000
    5444:	9c010000 	0x9c010000
    5448:	000000f3 	tltu	zero,zero,0x3
    544c:	000eb206 	0xeb206
    5450:	643c0100 	0x643c0100
    5454:	85000000 	lh	zero,0(t0)
    5458:	07000015 	bltz	t8,54b0 <__isr_vec_space+0x5490>
    545c:	00000f71 	tgeu	zero,zero,0x3d
    5460:	00643e01 	0x643e01
    5464:	54010000 	bnel	zero,at,5468 <__isr_vec_space+0x5448>
    5468:	00706f08 	0x706f08
    546c:	00643f01 	0x643f01
    5470:	69010000 	0x69010000
    5474:	74657208 	jalx	195c820 <__memory_size+0x193d020>
    5478:	64400100 	0x64400100
    547c:	01000000 	0x1000000
    5480:	25c00952 	addiu	zero,t6,2386
    5484:	01098000 	0x1098000
    5488:	00e90000 	0xe90000
    548c:	010a0000 	0x10a0000
    5490:	00830254 	0x830254
    5494:	25d80b00 	addiu	t8,t6,2816
    5498:	011a8000 	0x11a8000
    549c:	0c000000 	jal	0 <hardware_exit_hook>
    54a0:	00000084 	0x84
    54a4:	000000fe 	0xfe
    54a8:	600e000d 	0x600e000d
    54ac:	0100000f 	0x100000f
    54b0:	0000f338 	0xf338
    54b4:	0ea10f00 	jal	a843c00 <__memory_size+0xa824400>
    54b8:	34010000 	li	at,0x0
    54bc:	0000011a 	0x11a
    54c0:	00006410 	0x6410
    54c4:	76110000 	jalx	8440000 <__memory_size+0x8420800>
    54c8:	0100000f 	0x100000f
    54cc:	00006f33 	tltu	zero,zero,0x1bc
    54d0:	010b0000 	0x10b0000
    54d4:	00040000 	sll	zero,a0,0x0
    54d8:	000018f4 	teq	zero,zero,0x63
    54dc:	0ec30104 	jal	b0c0410 <__memory_size+0xb0a0c10>
    54e0:	88010000 	lwl	at,0(zero)
    54e4:	e800000f 	swc2	$0,15(zero)
    54e8:	4c800025 	0x4c800025
    54ec:	1b000000 	blez	t8,54f0 <__isr_vec_space+0x54d0>
    54f0:	0200001e 	0x200001e
    54f4:	031a0601 	0x31a0601
    54f8:	01020000 	0x1020000
    54fc:	00031808 	0x31808
    5500:	05020200 	bltzl	t0,5d04 <__isr_vec_space+0x5ce4>
    5504:	00000326 	0x326
    5508:	82070202 	lb	a3,514(s0)
    550c:	03000002 	0x3000002
    5510:	0000033f 	0x33f
    5514:	00483702 	0x483702
    5518:	04020000 	bltzl	zero,551c <__isr_vec_space+0x54fc>
    551c:	0001cb05 	0x1cb05
    5520:	07040200 	0x7040200
    5524:	000001a2 	0x1a2
    5528:	c6050802 	lwc1	$f5,2050(s0)
    552c:	02000001 	movf	zero,s0,$fcc0
    5530:	019d0708 	0x19d0708
    5534:	41030000 	mftc0	zero,c0_entrylo1
    5538:	03000003 	0x3000003
    553c:	00003d41 	0x3d41
    5540:	05040400 	0x5040400
    5544:	00746e69 	0x746e69
    5548:	a7070402 	sh	a3,1026(t8)
    554c:	02000001 	movf	zero,s0,$fcc0
    5550:	02e80704 	0x2e80704
    5554:	04050000 	0x4050000
    5558:	21080102 	addi	t0,t0,258
    555c:	06000003 	bltz	s0,556c <__isr_vec_space+0x554c>
    5560:	0000101e 	0x101e
    5564:	25e82701 	addiu	t0,t7,9985
    5568:	004c8000 	0x4c8000
    556c:	9c010000 	0x9c010000
    5570:	000000e7 	0xe7
    5574:	00101507 	0x101507
    5578:	e7270100 	swc1	$f7,256(t9)
    557c:	a3000000 	sb	zero,0(t8)
    5580:	07000015 	bltz	t8,55d8 <__isr_vec_space+0x55b8>
    5584:	00000ff5 	0xff5
    5588:	00e72701 	0xe72701
    558c:	15c10000 	bne	t6,at,5590 <__isr_vec_space+0x5570>
    5590:	6f080000 	0x6f080000
    5594:	29010070 	slti	at,t0,112
    5598:	00000064 	0x64
    559c:	0e096901 	jal	825a404 <__memory_size+0x823ac04>
    55a0:	01000010 	0x1000010
    55a4:	0000842a 	0x842a
    55a8:	09520100 	j	5480400 <__memory_size+0x5460c00>
    55ac:	00000fec 	0xfec
    55b0:	00842b01 	0x842b01
    55b4:	53010000 	beql	t8,at,55b8 <__isr_vec_space+0x5598>
    55b8:	84040a00 	lh	a0,2560(zero)
    55bc:	0b000000 	j	c000000 <__memory_size+0xbfe0800>
    55c0:	00000086 	0x86
    55c4:	000000f8 	0xf8
    55c8:	de0d000c 	ldc3	$13,12(s0)
    55cc:	0100000f 	0x100000f
    55d0:	0000ed23 	0xed23
    55d4:	10000d00 	b	89d8 <__isr_vec_space+0x89b8>
    55d8:	24010000 	li	at,0
    55dc:	000000ed 	0xed
    55e0:	0000e800 	sll	sp,zero,0x0
    55e4:	9f000200 	0x9f000200
    55e8:	04000019 	bltz	zero,5650 <__isr_vec_space+0x5630>
    55ec:	001f5d01 	0x1f5d01
    55f0:	00263400 	0x263400
    55f4:	0027f480 	0x27f480
    55f8:	63732f80 	0x63732f80
    55fc:	63746172 	0x63746172
    5600:	706d2f68 	lxhu	a1,v1,t5,3
    5604:	6f6a2f66 	0x6f6a2f66
    5608:	352f7362 	ori	t7,t1,0x7362
    560c:	35393334 	ori	t9,t1,0x3334
    5610:	3038342f 	andi	t8,at,0x342f
    5614:	322f3439 	andi	t7,s1,0x3439
    5618:	39313034 	xori	s1,t1,0x3034
    561c:	68732f38 	0x68732f38
    5620:	64657261 	0x64657261
    5624:	6363672f 	0x6363672f
    5628:	62696c2f 	0x62696c2f
    562c:	736f6c67 	0x736f6c67
    5630:	696d2f73 	0x696d2f73
    5634:	682f7370 	0x682f7370
    5638:	6d2f6c61 	0x6d2f6c61
    563c:	6c743233 	0x6c743233
    5640:	706f5f62 	s8ldd	xr13,v1,-41,ptn3
    5644:	00532e73 	tltu	v0,s3,0xb9
    5648:	7263732f 	0x7263732f
    564c:	68637461 	0x68637461
    5650:	66706d2f 	0x66706d2f
    5654:	626f6a2f 	0x626f6a2f
    5658:	34352f73 	ori	s5,at,0x2f73
    565c:	2f353933 	sltiu	s5,t9,14643
    5660:	39303834 	xori	s0,t1,0x3834
    5664:	34322f34 	ori	s2,at,0x2f34
    5668:	32363230 	andi	s6,s1,0x3230
    566c:	726f772f 	0x726f772f
    5670:	626f2f6b 	0x626f2f6b
    5674:	696d2d6a 	0x696d2d6a
    5678:	6d2d7370 	0x6d2d7370
    567c:	652d6974 	0x652d6974
    5680:	672f666c 	0x672f666c
    5684:	6d2f6363 	0x6d2f6363
    5688:	2d737069 	sltiu	s3,t3,28777
    568c:	2d69746d 	sltiu	t1,t3,29805
    5690:	2f666c65 	sltiu	a2,k1,27749
    5694:	7370696d 	s16sdi	xr5,k1,52,
    5698:	722d6c65 	s8sdi	xr1,s1,91,ptn3
    569c:	6f732d32 	0x6f732d32
    56a0:	6e2d7466 	0x6e2d7466
    56a4:	696c7765 	0x696c7765
    56a8:	696c2f62 	0x696c2f62
    56ac:	696c2f62 	0x696c2f62
    56b0:	6f6c6762 	0x6f6c6762
    56b4:	6d2f7373 	0x6d2f7373
    56b8:	00737069 	0x737069
    56bc:	20554e47 	addi	s5,v0,20039
    56c0:	32205341 	andi	zero,s1,0x5341
    56c4:	2e34322e 	sltiu	s4,s1,12846
    56c8:	01003039 	0x1003039
    56cc:	0000ea80 	sll	sp,zero,0xa
    56d0:	b3000200 	0xb3000200
    56d4:	04000019 	bltz	zero,573c <__isr_vec_space+0x571c>
    56d8:	00204e01 	0x204e01
    56dc:	0000f800 	sll	ra,zero,0x0
    56e0:	63732f00 	0x63732f00
    56e4:	63746172 	0x63746172
    56e8:	706d2f68 	lxhu	a1,v1,t5,3
    56ec:	6f6a2f66 	0x6f6a2f66
    56f0:	352f7362 	ori	t7,t1,0x7362
    56f4:	35393334 	ori	t9,t1,0x3334
    56f8:	3038342f 	andi	t8,at,0x342f
    56fc:	322f3439 	andi	t7,s1,0x3439
    5700:	39313034 	xori	s1,t1,0x3034
    5704:	68732f38 	0x68732f38
    5708:	64657261 	0x64657261
    570c:	6363672f 	0x6363672f
    5710:	62696c2f 	0x62696c2f
    5714:	736f6c67 	0x736f6c67
    5718:	696d2f73 	0x696d2f73
    571c:	682f7370 	0x682f7370
    5720:	6d2f6c61 	0x6d2f6c61
    5724:	5f737069 	0x5f737069
    5728:	70637865 	s8sdi	xr1,v1,-34,ptn0
    572c:	6e655f74 	0x6e655f74
    5730:	2e797274 	sltiu	t9,s3,29300
    5734:	732f0053 	s32stdv	xr1,t9,t7,0
    5738:	74617263 	jalx	185c98c <__memory_size+0x183d18c>
    573c:	6d2f6863 	0x6d2f6863
    5740:	6a2f6670 	0x6a2f6670
    5744:	2f73626f 	sltiu	s3,k1,25199
    5748:	39333435 	xori	s3,t1,0x3435
    574c:	38342f35 	xori	s4,at,0x2f35
    5750:	2f343930 	sltiu	s4,t9,14640
    5754:	32303432 	andi	s0,s1,0x3432
    5758:	772f3236 	jalx	cbcc8d8 <__memory_size+0xcbad0d8>
    575c:	2f6b726f 	sltiu	t3,k1,29295
    5760:	2d6a626f 	sltiu	t2,t3,25199
    5764:	7370696d 	s16sdi	xr5,k1,52,
    5768:	69746d2d 	0x69746d2d
    576c:	666c652d 	0x666c652d
    5770:	6363672f 	0x6363672f
    5774:	70696d2f 	0x70696d2f
    5778:	746d2d73 	jalx	1b4b5cc <__memory_size+0x1b2bdcc>
    577c:	6c652d69 	0x6c652d69
    5780:	696d2f66 	0x696d2f66
    5784:	6c657370 	0x6c657370
    5788:	2d32722d 	sltiu	s2,t1,29229
    578c:	74666f73 	jalx	199bdcc <__memory_size+0x197c5cc>
    5790:	77656e2d 	jalx	d95b8b4 <__memory_size+0xd93c0b4>
    5794:	2f62696c 	sltiu	v0,k1,26988
    5798:	2f62696c 	sltiu	v0,k1,26988
    579c:	6762696c 	0x6762696c
    57a0:	73736f6c 	s16ldi	xr13,k1,438,ptn2
    57a4:	70696d2f 	0x70696d2f
    57a8:	4e470073 	c3	0x470073
    57ac:	53412055 	beql	k0,at,d904 <__isr_vec_space+0xd8e4>
    57b0:	322e3220 	andi	t6,s1,0x3220
    57b4:	30392e34 	andi	t9,at,0x2e34
    57b8:	8b800100 	lwl	zero,256(gp)
    57bc:	0400000b 	bltz	zero,57ec <__isr_vec_space+0x57cc>
    57c0:	0019c500 	sll	t8,t9,0x14
    57c4:	c3010400 	ll	at,1024(t8)
    57c8:	0100000e 	0x100000e
    57cc:	000010b1 	tgeu	zero,zero,0x42
    57d0:	800027f4 	lb	zero,10228(zero)
    57d4:	000007ac 	0x7ac
    57d8:	00002164 	0x2164
    57dc:	00017202 	srl	t6,at,0x8
    57e0:	2cd40200 	sltiu	s4,a2,512
    57e4:	03000000 	0x3000000
    57e8:	01a20704 	0x1a20704
    57ec:	04040000 	0x4040000
    57f0:	746e6905 	jalx	1b9a414 <__memory_size+0x1b7ac14>
    57f4:	05040300 	0x5040300
    57f8:	000001cb 	0x1cb
    57fc:	1a060103 	0x1a060103
    5800:	03000003 	0x3000003
    5804:	03180801 	movf	at,t8,$fcc6
    5808:	02030000 	0x2030000
    580c:	00032605 	0x32605
    5810:	07020300 	bltzl	t8,6414 <__isr_vec_space+0x63f4>
    5814:	00000282 	srl	zero,zero,0xa
    5818:	00033f02 	srl	a3,v1,0x1c
    581c:	3a370300 	xori	s7,s1,0x300
    5820:	02000000 	0x2000000
    5824:	0000021b 	0x21b
    5828:	002c3803 	0x2c3803
    582c:	08030000 	j	c0000 <__memory_size+0xa0800>
    5830:	0001c605 	0x1c605
    5834:	07080300 	tgei	t8,768
    5838:	0000019d 	0x19d
    583c:	a7070403 	sh	a3,1027(t8)
    5840:	03000001 	movf	zero,t8,$fcc0
    5844:	02e80704 	0x2e80704
    5848:	01030000 	0x1030000
    584c:	00032108 	0x32108
    5850:	9c040500 	0x9c040500
    5854:	06000000 	bltz	s0,5858 <__isr_vec_space+0x5838>
    5858:	0000008f 	sync	0x2
    585c:	00a70405 	0xa70405
    5860:	08070000 	j	1c0000 <__memory_size+0x1a0800>
    5864:	00001083 	sra	v0,zero,0x2
    5868:	81039604 	lb	v1,-27132(t0)
    586c:	08000000 	j	0 <hardware_exit_hook>
    5870:	00001082 	srl	v0,zero,0x2
    5874:	33039704 	andi	v1,t8,0x9704
    5878:	02000000 	0x2000000
    587c:	00000341 	0x341
    5880:	005d4105 	0x5d4105
    5884:	1d020000 	0x1d020000
    5888:	05000002 	bltz	t0,5894 <__isr_vec_space+0x5874>
    588c:	00006842 	srl	t5,zero,0x1
    5890:	067c0900 	0x67c0900
    5894:	000153ec 	0x153ec
    5898:	74610a00 	jalx	1842800 <__memory_size+0x1823000>
    589c:	a8ee0600 	swl	t6,1536(a3)
    58a0:	00000000 	nop
    58a4:	0600760a 	bltz	s0,230d0 <__memory_size+0x38d0>
    58a8:	000153ef 	0x153ef
    58ac:	610a0400 	0x610a0400
    58b0:	63f40600 	0x63f40600
    58b4:	0c000001 	jal	4 <ABIFlags_gpr_size>
    58b8:	0600740a 	bltz	s0,228e4 <__memory_size+0x30e4>
    58bc:	000173f5 	0x173f5
    58c0:	730a1c00 	0x730a1c00
    58c4:	73f70600 	0x73f70600
    58c8:	3c000001 	lui	zero,0x1
    58cc:	0032740a 	0x32740a
    58d0:	0153f806 	srlv	ra,s3,t2
    58d4:	0a5c0000 	j	9700000 <__memory_size+0x96e0800>
    58d8:	f906006b 	sdc2	$6,107(t0)
    58dc:	00000153 	0x153
    58e0:	70670a64 	s8ldi	xr9,v1,-62,ptn1
    58e4:	a8fa0600 	swl	k0,1536(a3)
    58e8:	6c000000 	0x6c000000
    58ec:	0070730a 	0x70730a
    58f0:	00a8fb06 	0xa8fb06
    58f4:	0a700000 	j	9c00000 <__memory_size+0x9be0800>
    58f8:	06007066 	bltz	s0,21a94 <__memory_size+0x2294>
    58fc:	0000a8fc 	0xa8fc
    5900:	720a7400 	0x720a7400
    5904:	fd060061 	sdc3	$6,97(t0)
    5908:	000000a8 	0xa8
    590c:	a80b0078 	swl	t3,120(zero)
    5910:	63000000 	0x63000000
    5914:	0c000001 	jal	4 <ABIFlags_gpr_size>
    5918:	00000088 	0x88
    591c:	a80b0001 	swl	t3,1(zero)
    5920:	73000000 	madd	t8,zero
    5924:	0c000001 	jal	4 <ABIFlags_gpr_size>
    5928:	00000088 	0x88
    592c:	a80b0003 	swl	t3,3(zero)
    5930:	83000000 	lb	zero,0(t8)
    5934:	0c000001 	jal	4 <ABIFlags_gpr_size>
    5938:	00000088 	0x88
    593c:	7c0d0007 	0x7c0d0007
    5940:	019aea06 	0x19aea06
    5944:	d60e0000 	ldc1	$f14,0(s0)
    5948:	0f000000 	jal	c000000 <__memory_size+0xbfe0800>
    594c:	ff060072 	sdc3	$6,114(t8)
    5950:	0000019a 	0x19a
    5954:	00a80b00 	0xa80b00
    5958:	01aa0000 	0x1aa0000
    595c:	880c0000 	lwl	t4,0(zero)
    5960:	1e000000 	bgtz	s0,5964 <__isr_vec_space+0x5944>
    5964:	07cc1000 	teqi	s8,4096
    5968:	06a00000 	bltz	s5,596c <__isr_vec_space+0x594c>
    596c:	000230e8 	0x230e8
    5970:	01831100 	0x1831100
    5974:	12000000 	beqz	s0,5978 <__isr_vec_space+0x5958>
    5978:	00637065 	0x637065
    597c:	a8010206 	swl	at,518(zero)
    5980:	7c000000 	ext	zero,zero,0x0,0x1
    5984:	0007de13 	0x7de13
    5988:	01030600 	0x1030600
    598c:	000000a8 	0xa8
    5990:	69681280 	0x69681280
    5994:	01040600 	0x1040600
    5998:	000000a8 	0xa8
    599c:	6f6c1284 	0x6f6c1284
    59a0:	01050600 	0x1050600
    59a4:	000000a8 	0xa8
    59a8:	03021388 	0x3021388
    59ac:	07060000 	0x7060000
    59b0:	00025701 	0x25701
    59b4:	cc138c00 	pref	0x13,-29696(zero)
    59b8:	06000005 	bltz	s0,59d0 <__isr_vec_space+0x59b0>
    59bc:	00cb010a 	0xcb010a
    59c0:	13900000 	beq	gp,s0,59c4 <__isr_vec_space+0x59a4>
    59c4:	00000787 	0x787
    59c8:	cb010c06 	lwc2	$1,3078(t8)
    59cc:	94000000 	lhu	zero,0(zero)
    59d0:	00080d13 	0x80d13
    59d4:	010d0600 	0x10d0600
    59d8:	000000cb 	0xcb
    59dc:	08031398 	j	c4e60 <__memory_size+0xa5660>
    59e0:	0e060000 	jal	8180000 <__memory_size+0x8160800>
    59e4:	0000cb01 	0xcb01
    59e8:	14009c00 	bnez	zero,fffec9ec <__flash_start+0x403ec9ec>
    59ec:	0000078d 	break	0x0,0x1e
    59f0:	01110608 	0x1110608
    59f4:	00000257 	0x257
    59f8:	00646912 	0x646912
    59fc:	a8011306 	swl	at,4870(zero)
    5a00:	00000000 	nop
    5a04:	000bf213 	0xbf213
    5a08:	01140600 	0x1140600
    5a0c:	00000257 	0x257
    5a10:	04050004 	0x4050004
    5a14:	00000230 	tge	zero,zero,0x8
    5a18:	0a040803 	j	810200c <__memory_size+0x80e280c>
    5a1c:	03000002 	0x3000002
    5a20:	03120404 	0x3120404
    5a24:	a9150000 	swl	s5,0(t0)
    5a28:	01000010 	0x1000010
    5a2c:	02c50131 	tgeu	s6,a1,0x4
    5a30:	70160000 	madd	zero,s6
    5a34:	01006572 	tlt	t0,zero,0x195
    5a38:	00009631 	tgeu	zero,zero,0x258
    5a3c:	0c471700 	jal	11c5c00 <__memory_size+0x11a6400>
    5a40:	31010000 	andi	at,t0,0x0
    5a44:	000000a8 	0xa8
    5a48:	00110817 	0x110817
    5a4c:	33310100 	andi	s1,t9,0x100
    5a50:	17000000 	bnez	t8,5a54 <__isr_vec_space+0x5a34>
    5a54:	0000107d 	0x107d
    5a58:	00963101 	0x963101
    5a5c:	62180000 	0x62180000
    5a60:	01006675 	0x1006675
    5a64:	0002c533 	tltu	zero,v0,0x314
    5a68:	10701900 	beq	v1,s0,be6c <__isr_vec_space+0xbe4c>
    5a6c:	34010000 	li	at,0x0
    5a70:	00000033 	tltu	zero,zero
    5a74:	78646918 	0x78646918
    5a78:	33350100 	andi	s5,t9,0x100
    5a7c:	00000000 	nop
    5a80:	00008f0b 	0x8f0b
    5a84:	0002d400 	sll	k0,v0,0x10
    5a88:	00881a00 	0x881a00
    5a8c:	1b000000 	blez	t8,5a90 <__isr_vec_space+0x5a70>
    5a90:	0000026b 	0x26b
    5a94:	800027f4 	lb	zero,10228(zero)
    5a98:	000000c0 	ehb
    5a9c:	039c9c01 	0x39c9c01
    5aa0:	771c0000 	jalx	c700000 <__memory_size+0xc6e0800>
    5aa4:	df000002 	ldc3	$0,2(t8)
    5aa8:	1c000015 	bgtz	zero,5b00 <__isr_vec_space+0x5ae0>
    5aac:	00000282 	srl	zero,zero,0xa
    5ab0:	0000160b 	0x160b
    5ab4:	0002981c 	0x2981c
    5ab8:	00163700 	sll	a2,s6,0x1c
    5abc:	02a31d00 	0x2a31d00
    5ac0:	039c0000 	0x39c0000
    5ac4:	16630000 	bne	s3,v1,5ac8 <__isr_vec_space+0x5aa8>
    5ac8:	ae1e0000 	sw	s8,0(s0)
    5acc:	9b000002 	lwr	zero,2(t8)
    5ad0:	1e000016 	bgtz	s0,5b2c <__isr_vec_space+0x5b0c>
    5ad4:	000002b9 	0x2b9
    5ad8:	000016df 	0x16df
    5adc:	00028d1f 	0x28d1f
    5ae0:	20200800 	addi	zero,at,2048
    5ae4:	0b800028 	j	e0000a0 <__memory_size+0xdfe08a0>
    5ae8:	3b00000b 	xori	zero,t8,0xb
    5aec:	21000003 	addi	zero,t0,3
    5af0:	81025401 	lb	v0,21505(t0)
    5af4:	30200000 	andi	zero,at,0x0
    5af8:	20800028 	addi	zero,a0,40
    5afc:	5400000b 	bnezl	zero,5b2c <__isr_vec_space+0x5b0c>
    5b00:	21000003 	addi	zero,t0,3
    5b04:	81025501 	lb	v0,21761(t0)
    5b08:	54012100 	bnel	zero,at,df0c <__isr_vec_space+0xdeec>
    5b0c:	20003101 	addi	zero,zero,12545
    5b10:	8000287c 	lb	zero,10364(zero)
    5b14:	00000b20 	0xb20
    5b18:	00000372 	tlt	zero,zero,0xd
    5b1c:	01560121 	0x1560121
    5b20:	55012138 	bnel	t0,at,e004 <__isr_vec_space+0xdfe4>
    5b24:	21689102 	addi	t0,t3,-28414
    5b28:	31015401 	andi	at,t0,0x5401
    5b2c:	288c2000 	slti	t4,a0,8192
    5b30:	0b0b8000 	j	c2e0000 <__memory_size+0xc2c0800>
    5b34:	03860000 	0x3860000
    5b38:	01210000 	0x1210000
    5b3c:	00800254 	0x800254
    5b40:	289c2200 	slti	gp,a0,8704
    5b44:	0b208000 	j	c820000 <__memory_size+0xc800800>
    5b48:	01210000 	0x1210000
    5b4c:	00800255 	0x800255
    5b50:	01540121 	0x1540121
    5b54:	0b000031 	j	c0000c4 <__memory_size+0xbfe08c4>
    5b58:	0000008f 	sync	0x2
    5b5c:	000003ad 	0x3ad
    5b60:	00008823 	negu	s1,zero
    5b64:	00370100 	0x370100
    5b68:	00102d24 	0x102d24
    5b6c:	b4430100 	0xb4430100
    5b70:	08800028 	j	20000a0 <__memory_size+0x1fe08a0>
    5b74:	01000000 	0x1000000
    5b78:	00040f9c 	0x40f9c
    5b7c:	72702500 	0x72702500
    5b80:	43010065 	c0	0x1010065
    5b84:	00000096 	0x96
    5b88:	000016fe 	0x16fe
    5b8c:	000c4726 	0xc4726
    5b90:	a8430100 	swl	v1,256(v0)
    5b94:	1f000000 	bgtz	t8,5b98 <__isr_vec_space+0x5b78>
    5b98:	26000017 	addiu	zero,s0,23
    5b9c:	0000107d 	0x107d
    5ba0:	00964301 	0x964301
    5ba4:	17400000 	bnez	k0,5ba8 <__isr_vec_space+0x5b88>
    5ba8:	bc270000 	cache	0x7,0(at)
    5bac:	d4800028 	ldc1	$f0,40(a0)
    5bb0:	21000002 	addi	zero,t0,2
    5bb4:	f3035601 	0xf3035601
    5bb8:	01215601 	0x1215601
    5bbc:	01f30355 	0x1f30355
    5bc0:	54012155 	bnel	zero,at,e118 <__isr_vec_space+0xe0f8>
    5bc4:	5401f303 	bnel	zero,at,27d4 <__isr_vec_space+0x27b4>
    5bc8:	55280000 	bnel	t1,t0,5bcc <__isr_vec_space+0x5bac>
    5bcc:	01000010 	0x1000010
    5bd0:	0028bc59 	0x28bc59
    5bd4:	0006e480 	sll	gp,a2,0x12
    5bd8:	e49c0100 	swc1	$f28,256(a0)
    5bdc:	2500000a 	addiu	zero,t0,10
    5be0:	00787463 	0x787463
    5be4:	0ae45901 	j	b916404 <__memory_size+0xb8f6c04>
    5be8:	17610000 	bne	k1,at,5bec <__isr_vec_space+0x5bcc>
    5bec:	a2260000 	sb	a2,0(s1)
    5bf0:	01000007 	srav	zero,zero,t0
    5bf4:	00003359 	0x3359
    5bf8:	001a3d00 	sll	a3,k0,0x14
    5bfc:	2ab82900 	slti	t8,s5,10496
    5c00:	00048000 	sll	s0,a0,0x0
    5c04:	045f0000 	synci	0(v0)
    5c08:	5f2a0000 	0x5f2a0000
    5c0c:	0100725f 	0x100725f
    5c10:	000081b2 	tlt	zero,zero,0x206
    5c14:	001c8400 	sll	s0,gp,0x10
    5c18:	c8290000 	lwc2	$9,0(at)
    5c1c:	0480002a 	bltz	a0,5cc8 <__isr_vec_space+0x5ca8>
    5c20:	7c000000 	ext	zero,zero,0x0,0x1
    5c24:	2a000004 	slti	zero,s0,4
    5c28:	00725f5f 	0x725f5f
    5c2c:	0081b301 	0x81b301
    5c30:	1c970000 	0x1c970000
    5c34:	29000000 	slti	zero,t0,0
    5c38:	80002adc 	lb	zero,10972(zero)
    5c3c:	00000018 	mult	zero,zero
    5c40:	000004ce 	0x4ce
    5c44:	0072732a 	0x72732a
    5c48:	0081b501 	0x81b501
    5c4c:	1caa0000 	0x1caa0000
    5c50:	dc290000 	ldc3	$9,0(at)
    5c54:	0480002a 	bltz	a0,5d00 <__isr_vec_space+0x5ce0>
    5c58:	b4000000 	0xb4000000
    5c5c:	2a000004 	slti	zero,s0,4
    5c60:	00725f5f 	0x725f5f
    5c64:	0081b501 	0x81b501
    5c68:	1cc90000 	0x1cc90000
    5c6c:	2b000000 	slti	zero,t8,0
    5c70:	80002ae8 	lb	zero,10984(zero)
    5c74:	00000004 	sllv	zero,zero,zero
    5c78:	725f5f2a 	s16ldd	xr12,s2,-82,ptn3
    5c7c:	81b80100 	lb	t8,256(t5)
    5c80:	aa000000 	swl	zero,0(s0)
    5c84:	0000001c 	0x1c
    5c88:	2b142900 	slti	s4,t8,10496
    5c8c:	00048000 	sll	s0,a0,0x0
    5c90:	04eb0000 	tltiu	a3,0
    5c94:	5f2a0000 	0x5f2a0000
    5c98:	0100725f 	0x100725f
    5c9c:	000081c2 	srl	s0,zero,0x7
    5ca0:	001cdc00 	sll	k1,gp,0x10
    5ca4:	24290000 	addiu	t1,at,0
    5ca8:	0480002b 	bltz	a0,5d58 <__isr_vec_space+0x5d38>
    5cac:	08000000 	j	0 <hardware_exit_hook>
    5cb0:	2a000005 	slti	zero,s0,5
    5cb4:	00725f5f 	0x725f5f
    5cb8:	0081c301 	0x81c301
    5cbc:	1cef0000 	0x1cef0000
    5cc0:	29000000 	slti	zero,t0,0
    5cc4:	80002b38 	lb	zero,11064(zero)
    5cc8:	00000018 	mult	zero,zero
    5ccc:	0000055a 	0x55a
    5cd0:	0072732a 	0x72732a
    5cd4:	0081c501 	0x81c501
    5cd8:	1d020000 	0x1d020000
    5cdc:	38290000 	xori	t1,at,0x0
    5ce0:	0480002b 	bltz	a0,5d90 <__isr_vec_space+0x5d70>
    5ce4:	40000000 	mfc0	zero,c0_index
    5ce8:	2a000005 	slti	zero,s0,5
    5cec:	00725f5f 	0x725f5f
    5cf0:	0081c501 	0x81c501
    5cf4:	1d210000 	0x1d210000
    5cf8:	2b000000 	slti	zero,t8,0
    5cfc:	80002b44 	lb	zero,11076(zero)
    5d00:	00000004 	sllv	zero,zero,zero
    5d04:	725f5f2a 	s16ldd	xr12,s2,-82,ptn3
    5d08:	81c80100 	lb	t0,256(t6)
    5d0c:	02000000 	0x2000000
    5d10:	0000001d 	0x1d
    5d14:	29382000 	slti	t8,t1,8192
    5d18:	03ad8000 	0x3ad8000
    5d1c:	056d0000 	0x56d0000
    5d20:	01210000 	0x1210000
    5d24:	00300156 	0x300156
    5d28:	0029682c 	0x29682c
    5d2c:	000b2080 	sll	a0,t3,0x2
    5d30:	29c82c00 	slti	t0,t6,11264
    5d34:	0b208000 	j	c820000 <__memory_size+0xc800800>
    5d38:	182d0000 	0x182d0000
    5d3c:	3f80002a 	0x3f80002a
    5d40:	9400000b 	lhu	zero,11(zero)
    5d44:	21000005 	addi	zero,t0,5
    5d48:	f3035401 	0xf3035401
    5d4c:	2c005401 	sltiu	zero,zero,21505
    5d50:	80002a38 	lb	zero,10808(zero)
    5d54:	00000b55 	0xb55
    5d58:	002a5c2d 	0x2a5c2d
    5d5c:	000b6180 	sll	t4,t3,0x6
    5d60:	0005b200 	sll	s6,a1,0x8
    5d64:	54012100 	bnel	zero,at,e168 <__isr_vec_space+0xe148>
    5d68:	5401f303 	bnel	zero,at,2978 <__isr_vec_space+0x2958>
    5d6c:	2c4c2000 	sltiu	t4,v0,8192
    5d70:	03ad8000 	0x3ad8000
    5d74:	05c90000 	tgeiu	t6,0
    5d78:	01210000 	0x1210000
    5d7c:	48030556 	0x48030556
    5d80:	00800039 	0x800039
    5d84:	002c6820 	add	t5,at,t4
    5d88:	0003ad80 	sll	s5,v1,0x16
    5d8c:	0005ee00 	sll	sp,a1,0x18
    5d90:	56012100 	bnel	s0,at,e194 <__isr_vec_space+0xe174>
    5d94:	397c0305 	xori	gp,t3,0x305
    5d98:	01218000 	0x1218000
    5d9c:	21300155 	addi	s0,t1,341
    5da0:	03055401 	0x3055401
    5da4:	80003974 	lb	zero,14708(zero)
    5da8:	2c7c2000 	sltiu	gp,v1,8192
    5dac:	03ad8000 	0x3ad8000
    5db0:	060e0000 	tnei	s0,0
    5db4:	01210000 	0x1210000
    5db8:	7c030556 	0x7c030556
    5dbc:	21800039 	addi	zero,t4,57
    5dc0:	03055401 	0x3055401
    5dc4:	80003980 	lb	zero,14720(zero)
    5dc8:	2c902000 	sltiu	s0,a0,8192
    5dcc:	03ad8000 	0x3ad8000
    5dd0:	062e0000 	tnei	s1,0
    5dd4:	01210000 	0x1210000
    5dd8:	7c030556 	0x7c030556
    5ddc:	21800039 	addi	zero,t4,57
    5de0:	03055401 	0x3055401
    5de4:	80003988 	lb	zero,14728(zero)
    5de8:	2ca42000 	sltiu	a0,a1,8192
    5dec:	03ad8000 	0x3ad8000
    5df0:	064e0000 	tnei	s2,0
    5df4:	01210000 	0x1210000
    5df8:	48030556 	0x48030556
    5dfc:	21800039 	addi	zero,t4,57
    5e00:	03055401 	0x3055401
    5e04:	80003990 	lb	zero,14736(zero)
    5e08:	2cb82000 	sltiu	t8,a1,8192
    5e0c:	03ad8000 	0x3ad8000
    5e10:	066e0000 	tnei	s3,0
    5e14:	01210000 	0x1210000
    5e18:	7c030556 	0x7c030556
    5e1c:	21800039 	addi	zero,t4,57
    5e20:	03055401 	0x3055401
    5e24:	80003998 	lb	zero,14744(zero)
    5e28:	2ccc2000 	sltiu	t4,a2,8192
    5e2c:	03ad8000 	0x3ad8000
    5e30:	068e0000 	tnei	s4,0
    5e34:	01210000 	0x1210000
    5e38:	7c030556 	0x7c030556
    5e3c:	21800039 	addi	zero,t4,57
    5e40:	03055401 	0x3055401
    5e44:	800039a0 	lb	zero,14752(zero)
    5e48:	2ce02000 	sltiu	zero,a3,8192
    5e4c:	03ad8000 	0x3ad8000
    5e50:	06ae0000 	tnei	s5,0
    5e54:	01210000 	0x1210000
    5e58:	7c030556 	0x7c030556
    5e5c:	21800039 	addi	zero,t4,57
    5e60:	03055401 	0x3055401
    5e64:	800039a8 	lb	zero,14760(zero)
    5e68:	2cf42000 	sltiu	s4,a3,8192
    5e6c:	03ad8000 	0x3ad8000
    5e70:	06ce0000 	tnei	s6,0
    5e74:	01210000 	0x1210000
    5e78:	48030556 	0x48030556
    5e7c:	21800039 	addi	zero,t4,57
    5e80:	03055401 	0x3055401
    5e84:	800039b0 	lb	zero,14768(zero)
    5e88:	2d082000 	sltiu	t0,t0,8192
    5e8c:	03ad8000 	0x3ad8000
    5e90:	06ee0000 	tnei	s7,0
    5e94:	01210000 	0x1210000
    5e98:	7c030556 	0x7c030556
    5e9c:	21800039 	addi	zero,t4,57
    5ea0:	03055401 	0x3055401
    5ea4:	800039b8 	lb	zero,14776(zero)
    5ea8:	2d1c2000 	sltiu	gp,t0,8192
    5eac:	03ad8000 	0x3ad8000
    5eb0:	070e0000 	tnei	t8,0
    5eb4:	01210000 	0x1210000
    5eb8:	7c030556 	0x7c030556
    5ebc:	21800039 	addi	zero,t4,57
    5ec0:	03055401 	0x3055401
    5ec4:	800039c0 	lb	zero,14784(zero)
    5ec8:	2d302000 	sltiu	s0,t1,8192
    5ecc:	03ad8000 	0x3ad8000
    5ed0:	072e0000 	tnei	t9,0
    5ed4:	01210000 	0x1210000
    5ed8:	7c030556 	0x7c030556
    5edc:	21800039 	addi	zero,t4,57
    5ee0:	03055401 	0x3055401
    5ee4:	800039c8 	lb	zero,14792(zero)
    5ee8:	2d442000 	sltiu	a0,t2,8192
    5eec:	03ad8000 	0x3ad8000
    5ef0:	074e0000 	tnei	k0,0
    5ef4:	01210000 	0x1210000
    5ef8:	48030556 	0x48030556
    5efc:	21800039 	addi	zero,t4,57
    5f00:	03055401 	0x3055401
    5f04:	800039d0 	lb	zero,14800(zero)
    5f08:	2d582000 	sltiu	t8,t2,8192
    5f0c:	03ad8000 	0x3ad8000
    5f10:	076e0000 	tnei	k1,0
    5f14:	01210000 	0x1210000
    5f18:	7c030556 	0x7c030556
    5f1c:	21800039 	addi	zero,t4,57
    5f20:	03055401 	0x3055401
    5f24:	800039d8 	lb	zero,14808(zero)
    5f28:	2d6c2000 	sltiu	t4,t3,8192
    5f2c:	03ad8000 	0x3ad8000
    5f30:	078e0000 	tnei	gp,0
    5f34:	01210000 	0x1210000
    5f38:	7c030556 	0x7c030556
    5f3c:	21800039 	addi	zero,t4,57
    5f40:	03055401 	0x3055401
    5f44:	800039e0 	lb	zero,14816(zero)
    5f48:	2d802000 	sltiu	zero,t4,8192
    5f4c:	03ad8000 	0x3ad8000
    5f50:	07ae0000 	tnei	sp,0
    5f54:	01210000 	0x1210000
    5f58:	7c030556 	0x7c030556
    5f5c:	21800039 	addi	zero,t4,57
    5f60:	03055401 	0x3055401
    5f64:	800039e8 	lb	zero,14824(zero)
    5f68:	2d942000 	sltiu	s4,t4,8192
    5f6c:	03ad8000 	0x3ad8000
    5f70:	07ce0000 	tnei	s8,0
    5f74:	01210000 	0x1210000
    5f78:	48030556 	0x48030556
    5f7c:	21800039 	addi	zero,t4,57
    5f80:	03055401 	0x3055401
    5f84:	800039f0 	lb	zero,14832(zero)
    5f88:	2da82000 	sltiu	t0,t5,8192
    5f8c:	03ad8000 	0x3ad8000
    5f90:	07ee0000 	tnei	ra,0
    5f94:	01210000 	0x1210000
    5f98:	7c030556 	0x7c030556
    5f9c:	21800039 	addi	zero,t4,57
    5fa0:	03055401 	0x3055401
    5fa4:	800039f8 	lb	zero,14840(zero)
    5fa8:	2dbc2000 	sltiu	gp,t5,8192
    5fac:	03ad8000 	0x3ad8000
    5fb0:	080e0000 	j	380000 <__memory_size+0x360800>
    5fb4:	01210000 	0x1210000
    5fb8:	7c030556 	0x7c030556
    5fbc:	21800039 	addi	zero,t4,57
    5fc0:	03055401 	0x3055401
    5fc4:	80003a00 	lb	zero,14848(zero)
    5fc8:	2dd02000 	sltiu	s0,t6,8192
    5fcc:	03ad8000 	0x3ad8000
    5fd0:	082e0000 	j	b80000 <__memory_size+0xb60800>
    5fd4:	01210000 	0x1210000
    5fd8:	7c030556 	0x7c030556
    5fdc:	21800039 	addi	zero,t4,57
    5fe0:	03055401 	0x3055401
    5fe4:	80003a08 	lb	zero,14856(zero)
    5fe8:	2de42000 	sltiu	a0,t7,8192
    5fec:	03ad8000 	0x3ad8000
    5ff0:	084e0000 	j	1380000 <__memory_size+0x1360800>
    5ff4:	01210000 	0x1210000
    5ff8:	48030556 	0x48030556
    5ffc:	21800039 	addi	zero,t4,57
    6000:	03055401 	0x3055401
    6004:	80003a10 	lb	zero,14864(zero)
    6008:	2df82000 	sltiu	t8,t7,8192
    600c:	03ad8000 	0x3ad8000
    6010:	086e0000 	j	1b80000 <__memory_size+0x1b60800>
    6014:	01210000 	0x1210000
    6018:	7c030556 	0x7c030556
    601c:	21800039 	addi	zero,t4,57
    6020:	03055401 	0x3055401
    6024:	80003a18 	lb	zero,14872(zero)
    6028:	2e0c2000 	sltiu	t4,s0,8192
    602c:	03ad8000 	0x3ad8000
    6030:	088e0000 	j	2380000 <__memory_size+0x2360800>
    6034:	01210000 	0x1210000
    6038:	7c030556 	0x7c030556
    603c:	21800039 	addi	zero,t4,57
    6040:	03055401 	0x3055401
    6044:	80003a20 	lb	zero,14880(zero)
    6048:	2e202000 	sltiu	zero,s1,8192
    604c:	03ad8000 	0x3ad8000
    6050:	08ae0000 	j	2b80000 <__memory_size+0x2b60800>
    6054:	01210000 	0x1210000
    6058:	7c030556 	0x7c030556
    605c:	21800039 	addi	zero,t4,57
    6060:	03055401 	0x3055401
    6064:	80003a28 	lb	zero,14888(zero)
    6068:	2e342000 	sltiu	s4,s1,8192
    606c:	03ad8000 	0x3ad8000
    6070:	08ce0000 	j	3380000 <__memory_size+0x3360800>
    6074:	01210000 	0x1210000
    6078:	48030556 	0x48030556
    607c:	21800039 	addi	zero,t4,57
    6080:	03055401 	0x3055401
    6084:	80003a30 	lb	zero,14896(zero)
    6088:	2e482000 	sltiu	t0,s2,8192
    608c:	03ad8000 	0x3ad8000
    6090:	08ee0000 	j	3b80000 <__memory_size+0x3b60800>
    6094:	01210000 	0x1210000
    6098:	7c030556 	0x7c030556
    609c:	21800039 	addi	zero,t4,57
    60a0:	03055401 	0x3055401
    60a4:	80003a38 	lb	zero,14904(zero)
    60a8:	2e5c2000 	sltiu	gp,s2,8192
    60ac:	03ad8000 	0x3ad8000
    60b0:	090e0000 	j	4380000 <__memory_size+0x4360800>
    60b4:	01210000 	0x1210000
    60b8:	7c030556 	0x7c030556
    60bc:	21800039 	addi	zero,t4,57
    60c0:	03055401 	0x3055401
    60c4:	80003a40 	lb	zero,14912(zero)
    60c8:	2e702000 	sltiu	s0,s3,8192
    60cc:	03ad8000 	0x3ad8000
    60d0:	092e0000 	j	4b80000 <__memory_size+0x4b60800>
    60d4:	01210000 	0x1210000
    60d8:	7c030556 	0x7c030556
    60dc:	21800039 	addi	zero,t4,57
    60e0:	03055401 	0x3055401
    60e4:	80003a48 	lb	zero,14920(zero)
    60e8:	2e842000 	sltiu	a0,s4,8192
    60ec:	03ad8000 	0x3ad8000
    60f0:	094e0000 	j	5380000 <__memory_size+0x5360800>
    60f4:	01210000 	0x1210000
    60f8:	48030556 	0x48030556
    60fc:	21800039 	addi	zero,t4,57
    6100:	03055401 	0x3055401
    6104:	80003a50 	lb	zero,14928(zero)
    6108:	2e982000 	sltiu	t8,s4,8192
    610c:	03ad8000 	0x3ad8000
    6110:	096e0000 	j	5b80000 <__memory_size+0x5b60800>
    6114:	01210000 	0x1210000
    6118:	7c030556 	0x7c030556
    611c:	21800039 	addi	zero,t4,57
    6120:	03055401 	0x3055401
    6124:	80003a58 	lb	zero,14936(zero)
    6128:	2eac2000 	sltiu	t4,s5,8192
    612c:	03ad8000 	0x3ad8000
    6130:	098e0000 	j	6380000 <__memory_size+0x6360800>
    6134:	01210000 	0x1210000
    6138:	7c030556 	0x7c030556
    613c:	21800039 	addi	zero,t4,57
    6140:	03055401 	0x3055401
    6144:	80003a60 	lb	zero,14944(zero)
    6148:	2ec02000 	sltiu	zero,s6,8192
    614c:	03ad8000 	0x3ad8000
    6150:	09ae0000 	j	6b80000 <__memory_size+0x6b60800>
    6154:	01210000 	0x1210000
    6158:	7c030556 	0x7c030556
    615c:	21800039 	addi	zero,t4,57
    6160:	03055401 	0x3055401
    6164:	80003a68 	lb	zero,14952(zero)
    6168:	2ed42000 	sltiu	s4,s6,8192
    616c:	03ad8000 	0x3ad8000
    6170:	09ce0000 	j	7380000 <__memory_size+0x7360800>
    6174:	01210000 	0x1210000
    6178:	48030556 	0x48030556
    617c:	21800039 	addi	zero,t4,57
    6180:	03055401 	0x3055401
    6184:	80003a70 	lb	zero,14960(zero)
    6188:	2ee82000 	sltiu	t0,s7,8192
    618c:	03ad8000 	0x3ad8000
    6190:	09ee0000 	j	7b80000 <__memory_size+0x7b60800>
    6194:	01210000 	0x1210000
    6198:	7c030556 	0x7c030556
    619c:	21800039 	addi	zero,t4,57
    61a0:	03055401 	0x3055401
    61a4:	80003a78 	lb	zero,14968(zero)
    61a8:	2efc2000 	sltiu	gp,s7,8192
    61ac:	03ad8000 	0x3ad8000
    61b0:	0a0e0000 	j	8380000 <__memory_size+0x8360800>
    61b4:	01210000 	0x1210000
    61b8:	48030556 	0x48030556
    61bc:	21800039 	addi	zero,t4,57
    61c0:	03055401 	0x3055401
    61c4:	80003a80 	lb	zero,14976(zero)
    61c8:	2f102000 	sltiu	s0,t8,8192
    61cc:	03ad8000 	0x3ad8000
    61d0:	0a2e0000 	j	8b80000 <__memory_size+0x8b60800>
    61d4:	01210000 	0x1210000
    61d8:	48030556 	0x48030556
    61dc:	21800039 	addi	zero,t4,57
    61e0:	03055401 	0x3055401
    61e4:	80003a88 	lb	zero,14984(zero)
    61e8:	2f242000 	sltiu	a0,t9,8192
    61ec:	03ad8000 	0x3ad8000
    61f0:	0a4e0000 	j	9380000 <__memory_size+0x9360800>
    61f4:	01210000 	0x1210000
    61f8:	48030556 	0x48030556
    61fc:	21800039 	addi	zero,t4,57
    6200:	03055401 	0x3055401
    6204:	80003a94 	lb	zero,14996(zero)
    6208:	2f382000 	sltiu	t8,t9,8192
    620c:	02d48000 	0x2d48000
    6210:	0a6e0000 	j	9b80000 <__memory_size+0x9b60800>
    6214:	01210000 	0x1210000
    6218:	48030556 	0x48030556
    621c:	21800039 	addi	zero,t4,57
    6220:	03055401 	0x3055401
    6224:	80003aa0 	lb	zero,15008(zero)
    6228:	2f4c2000 	sltiu	t4,k0,8192
    622c:	02d48000 	0x2d48000
    6230:	0a8e0000 	j	a380000 <__memory_size+0xa360800>
    6234:	01210000 	0x1210000
    6238:	48030556 	0x48030556
    623c:	21800039 	addi	zero,t4,57
    6240:	03055401 	0x3055401
    6244:	80003aac 	lb	zero,15020(zero)
    6248:	2f602000 	sltiu	zero,k1,8192
    624c:	02d48000 	0x2d48000
    6250:	0aae0000 	j	ab80000 <__memory_size+0xab60800>
    6254:	01210000 	0x1210000
    6258:	48030556 	0x48030556
    625c:	21800039 	addi	zero,t4,57
    6260:	03055401 	0x3055401
    6264:	80003ab8 	lb	zero,15032(zero)
    6268:	2f742000 	sltiu	s4,k1,8192
    626c:	02d48000 	0x2d48000
    6270:	0ace0000 	j	b380000 <__memory_size+0xb360800>
    6274:	01210000 	0x1210000
    6278:	48030556 	0x48030556
    627c:	21800039 	addi	zero,t4,57
    6280:	03055401 	0x3055401
    6284:	80003ac4 	lb	zero,15044(zero)
    6288:	2f802200 	sltiu	zero,gp,8704
    628c:	0b778000 	j	dde0000 <__memory_size+0xddc0800>
    6290:	01210000 	0x1210000
    6294:	21300155 	addi	s0,t1,341
    6298:	80025401 	lb	v0,21505(zero)
    629c:	05000000 	bltz	t0,62a0 <__isr_vec_space+0x6280>
    62a0:	0001aa04 	0x1aa04
    62a4:	008f0b00 	0x8f0b00
    62a8:	0af50000 	j	bd40000 <__memory_size+0xbd20800>
    62ac:	002e0000 	0x2e0000
    62b0:	000f602f 	0xf602f
    62b4:	ea290100 	swc2	$9,256(s1)
    62b8:	2f00000a 	sltiu	zero,t8,10
    62bc:	00001099 	0x1099
    62c0:	0aea2a01 	j	ba8a804 <__memory_size+0xba6b004>
    62c4:	76300000 	jalx	8c00000 <__memory_size+0x8be0800>
    62c8:	07000010 	bltz	t8,630c <__isr_vec_space+0x62ec>
    62cc:	00002121 	0x2121
    62d0:	000b2000 	sll	a0,t3,0x0
    62d4:	00963100 	0x963100
    62d8:	30000000 	andi	zero,zero,0x0
    62dc:	00000af1 	tgeu	zero,zero,0x2b
    62e0:	0033bd08 	0x33bd08
    62e4:	0b3f0000 	j	cfc0000 <__memory_size+0xcfa0800>
    62e8:	33310000 	andi	s1,t9,0x0
    62ec:	31000000 	andi	zero,t0,0x0
    62f0:	000000a1 	0xa1
    62f4:	00002131 	tgeu	zero,zero,0x84
    62f8:	34320000 	ori	s2,at,0x0
    62fc:	06000010 	bltz	s0,6340 <__isr_vec_space+0x6320>
    6300:	0033019f 	0x33019f
    6304:	0b550000 	j	d540000 <__memory_size+0xd520800>
    6308:	e4310000 	swc1	$f17,0(at)
    630c:	0000000a 	movz	zero,zero,zero
    6310:	000f7633 	tltu	zero,t7,0x1d8
    6314:	019d0600 	0x19d0600
    6318:	00000033 	tltu	zero,zero
    631c:	00104632 	tlt	zero,s0,0x118
    6320:	01900600 	0x1900600
    6324:	00000033 	tltu	zero,zero
    6328:	00000b77 	0xb77
    632c:	000ae431 	tgeu	zero,t2,0x390
    6330:	89340000 	lwl	s4,0(t1)
    6334:	06000010 	bltz	s0,6378 <__isr_vec_space+0x6358>
    6338:	00c00194 	0xc00194
    633c:	e4310000 	swc1	$f17,0(at)
    6340:	3100000a 	andi	zero,t0,0xa
    6344:	000000c0 	ehb
    6348:	00f10000 	0xf10000
    634c:	00020000 	sll	zero,v0,0x0
    6350:	00001c6a 	0x1c6a
    6354:	24870104 	addiu	a3,a0,260
    6358:	2fa00000 	sltiu	zero,sp,0
    635c:	30508000 	andi	s0,v0,0x8000
    6360:	732f8000 	s32madd	xr0,xr0,t9,t7
    6364:	74617263 	jalx	185c98c <__memory_size+0x183d18c>
    6368:	6d2f6863 	0x6d2f6863
    636c:	6a2f6670 	0x6a2f6670
    6370:	2f73626f 	sltiu	s3,k1,25199
    6374:	39333435 	xori	s3,t1,0x3435
    6378:	38342f35 	xori	s4,at,0x2f35
    637c:	2f343930 	sltiu	s4,t9,14640
    6380:	31303432 	andi	s0,t1,0x3432
    6384:	732f3839 	0x732f3839
    6388:	65726168 	0x65726168
    638c:	63672f64 	0x63672f64
    6390:	696c2f63 	0x696c2f63
    6394:	6f6c6762 	0x6f6c6762
    6398:	6d2f7373 	0x6d2f7373
    639c:	2f737069 	sltiu	s3,k1,28777
    63a0:	2f6c6168 	sltiu	t4,k1,24936
    63a4:	7370696d 	s16sdi	xr5,k1,52,
    63a8:	6378655f 	0x6378655f
    63ac:	725f7470 	d32sll	xr1,xr13,xr13,xr7,9
    63b0:	73696765 	s8sdi	xr13,k1,89,ptn2
    63b4:	2e726574 	sltiu	s2,s3,25972
    63b8:	732f0053 	s32stdv	xr1,t9,t7,0
    63bc:	74617263 	jalx	185c98c <__memory_size+0x183d18c>
    63c0:	6d2f6863 	0x6d2f6863
    63c4:	6a2f6670 	0x6a2f6670
    63c8:	2f73626f 	sltiu	s3,k1,25199
    63cc:	39333435 	xori	s3,t1,0x3435
    63d0:	38342f35 	xori	s4,at,0x2f35
    63d4:	2f343930 	sltiu	s4,t9,14640
    63d8:	32303432 	andi	s0,s1,0x3432
    63dc:	772f3236 	jalx	cbcc8d8 <__memory_size+0xcbad0d8>
    63e0:	2f6b726f 	sltiu	t3,k1,29295
    63e4:	2d6a626f 	sltiu	t2,t3,25199
    63e8:	7370696d 	s16sdi	xr5,k1,52,
    63ec:	69746d2d 	0x69746d2d
    63f0:	666c652d 	0x666c652d
    63f4:	6363672f 	0x6363672f
    63f8:	70696d2f 	0x70696d2f
    63fc:	746d2d73 	jalx	1b4b5cc <__memory_size+0x1b2bdcc>
    6400:	6c652d69 	0x6c652d69
    6404:	696d2f66 	0x696d2f66
    6408:	6c657370 	0x6c657370
    640c:	2d32722d 	sltiu	s2,t1,29229
    6410:	74666f73 	jalx	199bdcc <__memory_size+0x197c5cc>
    6414:	77656e2d 	jalx	d95b8b4 <__memory_size+0xd93c0b4>
    6418:	2f62696c 	sltiu	v0,k1,26988
    641c:	2f62696c 	sltiu	v0,k1,26988
    6420:	6762696c 	0x6762696c
    6424:	73736f6c 	s16ldi	xr13,k1,438,ptn2
    6428:	70696d2f 	0x70696d2f
    642c:	4e470073 	c3	0x470073
    6430:	53412055 	beql	k0,at,e588 <__isr_vec_space+0xe568>
    6434:	322e3220 	andi	t6,s1,0x3220
    6438:	30392e34 	andi	t9,at,0x2e34
    643c:	ed800100 	swc3	$0,256(t4)
    6440:	02000000 	0x2000000
    6444:	001c7e00 	sll	t7,gp,0x18
    6448:	31010400 	andi	at,t0,0x400
    644c:	50000025 	beqzl	zero,64e4 <__isr_vec_space+0x64c4>
    6450:	cc800030 	pref	0x0,48(a0)
    6454:	2f800032 	sltiu	zero,gp,50
    6458:	61726373 	0x61726373
    645c:	2f686374 	sltiu	t0,k1,25460
    6460:	2f66706d 	sltiu	a2,k1,28781
    6464:	73626f6a 	s16ldd	xr13,k1,310,ptn0
    6468:	3334352f 	andi	s4,t9,0x352f
    646c:	342f3539 	ori	t7,at,0x3539
    6470:	34393038 	ori	t9,at,0x3038
    6474:	3034322f 	andi	s4,at,0x322f
    6478:	2f383931 	sltiu	t8,t9,14641
    647c:	72616873 	d32sar	xr1,xr10,xr5,xr8,9
    6480:	672f6465 	0x672f6465
    6484:	6c2f6363 	0x6c2f6363
    6488:	6c676269 	0x6c676269
    648c:	2f73736f 	sltiu	s3,k1,29551
    6490:	7370696d 	s16sdi	xr5,k1,52,
    6494:	6c61682f 	0x6c61682f
    6498:	70696d2f 	0x70696d2f
    649c:	78655f73 	0x78655f73
    64a0:	5f747063 	0x5f747063
    64a4:	746f6f62 	jalx	1bdbd88 <__memory_size+0x1bbc588>
    64a8:	2f00532e 	sltiu	zero,t8,21294
    64ac:	61726373 	0x61726373
    64b0:	2f686374 	sltiu	t0,k1,25460
    64b4:	2f66706d 	sltiu	a2,k1,28781
    64b8:	73626f6a 	s16ldd	xr13,k1,310,ptn0
    64bc:	3334352f 	andi	s4,t9,0x352f
    64c0:	342f3539 	ori	t7,at,0x3539
    64c4:	34393038 	ori	t9,at,0x3038
    64c8:	3034322f 	andi	s4,at,0x322f
    64cc:	2f323632 	sltiu	s2,t9,13874
    64d0:	6b726f77 	0x6b726f77
    64d4:	6a626f2f 	0x6a626f2f
    64d8:	70696d2d 	s16sdi	xr4,v1,182,ptn1
    64dc:	746d2d73 	jalx	1b4b5cc <__memory_size+0x1b2bdcc>
    64e0:	6c652d69 	0x6c652d69
    64e4:	63672f66 	0x63672f66
    64e8:	696d2f63 	0x696d2f63
    64ec:	6d2d7370 	0x6d2d7370
    64f0:	652d6974 	0x652d6974
    64f4:	6d2f666c 	0x6d2f666c
    64f8:	65737069 	0x65737069
    64fc:	32722d6c 	andi	s2,s3,0x2d6c
    6500:	666f732d 	0x666f732d
    6504:	656e2d74 	0x656e2d74
    6508:	62696c77 	0x62696c77
    650c:	62696c2f 	0x62696c2f
    6510:	62696c2f 	0x62696c2f
    6514:	736f6c67 	0x736f6c67
    6518:	696d2f73 	0x696d2f73
    651c:	47007370 	bz.b	$w0,232e0 <__memory_size+0x3ae0>
    6520:	4120554e 	0x4120554e
    6524:	2e322053 	sltiu	s2,s1,8275
    6528:	392e3432 	xori	t6,t1,0x3432
    652c:	80010030 	lb	at,48(zero)
    6530:	0000006a 	0x6a
    6534:	1c920004 	0x1c920004
    6538:	01040000 	0x1040000
    653c:	00000899 	0x899
    6540:	00110f01 	0x110f01
    6544:	00264c00 	0x264c00
    6548:	05040200 	0x5040200
    654c:	000001cb 	0x1cb
    6550:	a2070402 	sb	a3,1026(s0)
    6554:	03000001 	movf	zero,t8,$fcc0
    6558:	6e690504 	0x6e690504
    655c:	01020074 	teq	t0,v0,0x1
    6560:	00031a06 	0x31a06
    6564:	08010200 	j	40800 <__memory_size+0x21000>
    6568:	00000318 	0x318
    656c:	26050202 	addiu	a1,s0,514
    6570:	02000003 	0x2000003
    6574:	02820702 	0x2820702
    6578:	08020000 	j	80000 <__memory_size+0x60800>
    657c:	0001c605 	0x1c605
    6580:	07080200 	tgei	t8,512
    6584:	0000019d 	0x19d
    6588:	a7070402 	sh	a3,1026(t8)
    658c:	02000001 	movf	zero,s0,$fcc0
    6590:	02e80704 	0x2e80704
    6594:	01020000 	0x1020000
    6598:	00032108 	0x32108
    659c:	017a0000 	0x17a0000
    65a0:	00040000 	sll	zero,a0,0x0
    65a4:	00001cb6 	tne	zero,zero,0x72
    65a8:	0ec30104 	jal	b0c0410 <__memory_size+0xb0a0c10>
    65ac:	70010000 	madd	zero,at
    65b0:	e8000011 	swc2	$0,17(zero)
    65b4:	50800032 	beqzl	a0,6680 <__isr_vec_space+0x6660>
    65b8:	69000000 	0x69000000
    65bc:	02000026 	xor	zero,s0,zero
    65c0:	031a0601 	0x31a0601
    65c4:	01020000 	0x1020000
    65c8:	00031808 	0x31808
    65cc:	05020200 	bltzl	t0,6dd0 <__isr_vec_space+0x6db0>
    65d0:	00000326 	0x326
    65d4:	82070202 	lb	a3,514(s0)
    65d8:	03000002 	0x3000002
    65dc:	0000033f 	0x33f
    65e0:	00483702 	0x483702
    65e4:	04020000 	bltzl	zero,65e8 <__isr_vec_space+0x65c8>
    65e8:	0001cb05 	0x1cb05
    65ec:	021b0300 	0x21b0300
    65f0:	38020000 	xori	v0,zero,0x0
    65f4:	0000005a 	0x5a
    65f8:	a2070402 	sb	a3,1026(s0)
    65fc:	02000001 	movf	zero,s0,$fcc0
    6600:	01c60508 	0x1c60508
    6604:	08020000 	j	80000 <__memory_size+0x60800>
    6608:	00019d07 	0x19d07
    660c:	03410300 	0x3410300
    6610:	41030000 	mftc0	zero,c0_entrylo1
    6614:	0000003d 	0x3d
    6618:	00021d03 	sra	v1,v0,0x14
    661c:	4f420300 	lwxc1	$f12,v0(k0)
    6620:	04000000 	bltz	zero,6624 <__isr_vec_space+0x6604>
    6624:	6e690504 	0x6e690504
    6628:	04020074 	bltzl	zero,67fc <__isr_vec_space+0x67dc>
    662c:	0001a707 	0x1a707
    6630:	01720300 	0x1720300
    6634:	d4040000 	ldc1	$f4,0(zero)
    6638:	0000005a 	0x5a
    663c:	e8070402 	swc2	$7,1026(zero)
    6640:	02000002 	0x2000002
    6644:	03210801 	movt	at,t9,$fcc0
    6648:	f1050000 	0xf1050000
    664c:	0100000a 	movz	zero,t0,zero
    6650:	00008534 	teq	zero,zero,0x214
    6654:	0032e800 	0x32e800
    6658:	00005080 	sll	t2,zero,0x2
    665c:	609c0100 	0x609c0100
    6660:	06000001 	bltz	s0,6668 <__isr_vec_space+0x6648>
    6664:	01006466 	0x1006466
    6668:	00008534 	teq	zero,zero,0x214
    666c:	001d3400 	sll	a2,sp,0x10
    6670:	75620600 	jalx	5881800 <__memory_size+0x5862000>
    6674:	34010066 	li	at,0x66
    6678:	00000160 	0x160
    667c:	00001d55 	0x1d55
    6680:	000c3f07 	0xc3f07
    6684:	93340100 	lbu	s4,256(t9)
    6688:	76000000 	jalx	8000000 <__memory_size+0x7fe0800>
    668c:	0800001d 	j	74 <__isr_vec_space+0x54>
    6690:	00000f71 	tgeu	zero,zero,0x3d
    6694:	006f3601 	0x6f3601
    6698:	54010000 	bnel	zero,at,669c <__isr_vec_space+0x667c>
    669c:	00116b08 	0x116b08
    66a0:	60370100 	0x60370100
    66a4:	01000001 	movf	zero,t0,$fcc0
    66a8:	11be0855 	beq	t5,s8,8800 <__isr_vec_space+0x87e0>
    66ac:	38010000 	xori	at,zero,0x0
    66b0:	0000006f 	0x6f
    66b4:	6f095601 	0x6f095601
    66b8:	39010070 	xori	at,t0,0x70
    66bc:	0000006f 	0x6f
    66c0:	72096901 	0x72096901
    66c4:	01007465 	0x1007465
    66c8:	00006f3a 	0x6f3a
    66cc:	08520100 	j	1480400 <__memory_size+0x1460c00>
    66d0:	00001161 	0x1161
    66d4:	006f3b01 	0x6f3b01
    66d8:	53010000 	beql	t8,at,66dc <__isr_vec_space+0x66bc>
    66dc:	0033100a 	movz	v0,at,s3
    66e0:	00001480 	sll	v0,zero,0x12
    66e4:	11cb0800 	beq	t6,t3,86e8 <__isr_vec_space+0x86c8>
    66e8:	47010000 	bz.b	$w1,66ec <__isr_vec_space+0x66cc>
    66ec:	00000167 	0x167
    66f0:	0b709102 	j	dc24408 <__memory_size+0xdc04c08>
    66f4:	8000331c 	lb	zero,13084(zero)
    66f8:	0000016c 	0x16c
    66fc:	040c0000 	teqi	zero,0
    6700:	00000166 	0x166
    6704:	007a0e0d 	break	0x7a,0x38
    6708:	c30f0000 	ll	t7,0(t8)
    670c:	05000011 	bltz	t0,6754 <__isr_vec_space+0x6734>
    6710:	0001770f 	0x1770f
    6714:	85040c00 	lh	a0,3072(t0)
    6718:	00000000 	nop
    671c:	000002ac 	0x2ac
    6720:	1d7f0004 	0x1d7f0004
    6724:	01040000 	0x1040000
    6728:	00000ec3 	sra	at,zero,0x1b
    672c:	0011d501 	0x11d501
    6730:	00333800 	0x333800
    6734:	00001480 	sll	v0,zero,0x12
    6738:	00284800 	0x284800
    673c:	06010200 	bgez	s0,6f40 <__isr_vec_space+0x6f20>
    6740:	0000031a 	0x31a
    6744:	18080102 	0x18080102
    6748:	02000003 	0x2000003
    674c:	03260502 	0x3260502
    6750:	02020000 	0x2020000
    6754:	00028207 	0x28207
    6758:	033f0300 	0x33f0300
    675c:	37020000 	ori	v0,t8,0x0
    6760:	00000048 	0x48
    6764:	cb050402 	lwc2	$5,1026(t8)
    6768:	03000001 	movf	zero,t8,$fcc0
    676c:	0000021b 	0x21b
    6770:	005a3802 	0x5a3802
    6774:	04020000 	bltzl	zero,6778 <__isr_vec_space+0x6758>
    6778:	0001a207 	0x1a207
    677c:	05080200 	tgei	t0,512
    6780:	000001c6 	0x1c6
    6784:	9d070802 	0x9d070802
    6788:	03000001 	movf	zero,t8,$fcc0
    678c:	00000341 	0x341
    6790:	003d4103 	0x3d4103
    6794:	1d030000 	0x1d030000
    6798:	03000002 	0x3000002
    679c:	00004f42 	srl	t1,zero,0x1d
    67a0:	05040400 	0x5040400
    67a4:	00746e69 	0x746e69
    67a8:	a7070402 	sh	a3,1026(t8)
    67ac:	05000001 	bltz	t0,67b4 <__isr_vec_space+0x6794>
    67b0:	00001083 	sra	v0,zero,0x2
    67b4:	8c039604 	lw	v1,-27132(zero)
    67b8:	06000000 	bltz	s0,67bc <__isr_vec_space+0x679c>
    67bc:	1cec057c 	0x1cec057c
    67c0:	07000001 	bltz	t8,67c8 <__isr_vec_space+0x67a8>
    67c4:	05007461 	bltz	t0,2394c <__memory_size+0x414c>
    67c8:	000093ee 	0x93ee
    67cc:	76070000 	jalx	81c0000 <__memory_size+0x81a0800>
    67d0:	1cef0500 	0x1cef0500
    67d4:	04000001 	bltz	zero,67dc <__isr_vec_space+0x67bc>
    67d8:	05006107 	bltz	t0,1ebf8 <__isr_vec_space+0x1ebd8>
    67dc:	000133f4 	teq	zero,at,0xcf
    67e0:	74070c00 	jalx	1c3000 <__memory_size+0x1a3800>
    67e4:	43f50500 	c0	0x1f50500
    67e8:	1c000001 	bgtz	zero,67f0 <__isr_vec_space+0x67d0>
    67ec:	05007307 	bltz	t0,2340c <__memory_size+0x3c0c>
    67f0:	000143f7 	0x143f7
    67f4:	74073c00 	jalx	1cf000 <__memory_size+0x1af800>
    67f8:	f8050032 	sdc2	$5,50(zero)
    67fc:	0000011c 	0x11c
    6800:	006b075c 	0x6b075c
    6804:	011cf905 	0x11cf905
    6808:	07640000 	0x7640000
    680c:	05007067 	bltz	t0,229ac <__memory_size+0x31ac>
    6810:	000093fa 	0x93fa
    6814:	73076c00 	0x73076c00
    6818:	fb050070 	sdc2	$5,112(t8)
    681c:	00000093 	0x93
    6820:	70660770 	d32sll	xr13,xr1,xr8,xr9,1
    6824:	93fc0500 	lbu	gp,1280(ra)
    6828:	74000000 	jalx	0 <hardware_exit_hook>
    682c:	00617207 	0x617207
    6830:	0093fd05 	0x93fd05
    6834:	00780000 	0x780000
    6838:	00009308 	0x9308
    683c:	00012c00 	sll	a1,at,0x10
    6840:	012c0900 	0x12c0900
    6844:	00010000 	sll	zero,at,0x0
    6848:	e8070402 	swc2	$7,1026(zero)
    684c:	08000002 	j	8 <ABIFlags_isa_ext>
    6850:	00000093 	0x93
    6854:	00000143 	sra	zero,zero,0x5
    6858:	00012c09 	0x12c09
    685c:	08000300 	j	c00 <__isr_vec_space+0xbe0>
    6860:	00000093 	0x93
    6864:	00000153 	0x153
    6868:	00012c09 	0x12c09
    686c:	0a000700 	j	8001c00 <__memory_size+0x7fe2400>
    6870:	6aea057c 	0x6aea057c
    6874:	0b000001 	j	c000004 <__memory_size+0xbfe0804>
    6878:	0000009f 	0x9f
    687c:	0500720c 	bltz	t0,230b0 <__memory_size+0x38b0>
    6880:	00016aff 	0x16aff
    6884:	93080000 	lbu	t0,0(t8)
    6888:	7a000000 	nori.b	$w0,$w0,0x0
    688c:	09000001 	j	4000004 <__memory_size+0x3fe0804>
    6890:	0000012c 	0x12c
    6894:	cc0d001e 	pref	0xd,30(zero)
    6898:	a0000007 	sb	zero,7(zero)
    689c:	0200e805 	lsa	sp,s0,zero,0x1
    68a0:	530e0000 	beql	t8,t6,68a4 <__isr_vec_space+0x6884>
    68a4:	00000001 	movf	zero,zero,$fcc0
    68a8:	6370650f 	0x6370650f
    68ac:	01020500 	0x1020500
    68b0:	00000093 	0x93
    68b4:	07de107c 	0x7de107c
    68b8:	03050000 	0x3050000
    68bc:	00009301 	0x9301
    68c0:	680f8000 	0x680f8000
    68c4:	04050069 	0x4050069
    68c8:	00009301 	0x9301
    68cc:	6c0f8400 	0x6c0f8400
    68d0:	0505006f 	0x505006f
    68d4:	00009301 	0x9301
    68d8:	02108800 	0x2108800
    68dc:	05000003 	bltz	t0,68ec <__isr_vec_space+0x68cc>
    68e0:	02270107 	0x2270107
    68e4:	108c0000 	beq	a0,t4,68e8 <__isr_vec_space+0x68c8>
    68e8:	000005cc 	syscall	0x17
    68ec:	7a010a05 	0x7a010a05
    68f0:	90000000 	lbu	zero,0(zero)
    68f4:	00078710 	0x78710
    68f8:	010c0500 	0x10c0500
    68fc:	0000007a 	0x7a
    6900:	080d1094 	j	344250 <__memory_size+0x324a50>
    6904:	0d050000 	jal	4140000 <__memory_size+0x4120800>
    6908:	00007a01 	0x7a01
    690c:	03109800 	0x3109800
    6910:	05000008 	bltz	t0,6934 <__isr_vec_space+0x6914>
    6914:	007a010e 	0x7a010e
    6918:	009c0000 	0x9c0000
    691c:	00078d11 	0x78d11
    6920:	11050800 	beq	t0,a1,8924 <__isr_vec_space+0x8904>
    6924:	00022701 	0x22701
    6928:	64690f00 	0x64690f00
    692c:	01130500 	0x1130500
    6930:	00000093 	0x93
    6934:	0bf21000 	j	fc84000 <__memory_size+0xfc64800>
    6938:	14050000 	bne	zero,a1,693c <__isr_vec_space+0x691c>
    693c:	00022701 	0x22701
    6940:	12000400 	beqz	s0,7944 <__isr_vec_space+0x7924>
    6944:	00020004 	sllv	zero,v0,zero
    6948:	08010200 	j	40800 <__memory_size+0x21000>
    694c:	00000321 	0x321
    6950:	0a040802 	j	8102008 <__memory_size+0x80e2808>
    6954:	02000002 	0x2000002
    6958:	03120404 	0x3120404
    695c:	89130000 	lwl	s3,0(t0)
    6960:	01000010 	0x1000010
    6964:	00006f34 	teq	zero,zero,0x1bc
    6968:	00333800 	0x333800
    696c:	00001480 	sll	v0,zero,0x12
    6970:	a99c0100 	swl	gp,256(t4)
    6974:	14000002 	bnez	zero,6980 <__isr_vec_space+0x6960>
    6978:	00787463 	0x787463
    697c:	02a93401 	0x2a93401
    6980:	54010000 	bnel	zero,at,6984 <__isr_vec_space+0x6964>
    6984:	69626114 	0x69626114
    6988:	6f340100 	0x6f340100
    698c:	01000000 	0x1000000
    6990:	0f711555 	jal	dc45554 <__memory_size+0xdc25d54>
    6994:	36010000 	ori	at,s0,0x0
    6998:	000002a9 	0x2a9
    699c:	6b155401 	0x6b155401
    69a0:	01000011 	mthi	t0
    69a4:	00006f37 	0x6f37
    69a8:	16550100 	bne	s2,s5,6dac <__isr_vec_space+0x6d8c>
    69ac:	0100706f 	0x100706f
    69b0:	00006f38 	0x6f38
    69b4:	16690100 	bne	s3,t1,6db8 <__isr_vec_space+0x6d98>
    69b8:	00746572 	tlt	v1,s4,0x195
    69bc:	006f3901 	0x6f3901
    69c0:	52010000 	beql	s0,at,69c4 <__isr_vec_space+0x69a4>
    69c4:	7a041200 	nori.b	$w8,$w2,0x4
    69c8:	00000001 	movf	zero,zero,$fcc0
    69cc:	000002b2 	tlt	zero,zero,0xa
    69d0:	1ea70004 	0x1ea70004
    69d4:	01040000 	0x1040000
    69d8:	00000ec3 	sra	at,zero,0x1b
    69dc:	00122701 	0x122701
    69e0:	00334c00 	0x334c00
    69e4:	00004480 	sll	t0,zero,0x12
    69e8:	0029dc00 	0x29dc00
    69ec:	07040200 	0x7040200
    69f0:	000001a2 	0x1a2
    69f4:	a7070402 	sh	a3,1026(t8)
    69f8:	02000001 	movf	zero,s0,$fcc0
    69fc:	019d0708 	0x19d0708
    6a00:	83030000 	lb	v1,0(t8)
    6a04:	02000010 	0x2000010
    6a08:	00280396 	0x280396
    6a0c:	04040000 	0x4040000
    6a10:	746e6905 	jalx	1b9a414 <__memory_size+0x1b7ac14>
    6a14:	06010200 	bgez	s0,7218 <__isr_vec_space+0x71f8>
    6a18:	0000031a 	0x31a
    6a1c:	18080102 	0x18080102
    6a20:	02000003 	0x2000003
    6a24:	03260502 	0x3260502
    6a28:	02020000 	0x2020000
    6a2c:	00028207 	0x28207
    6a30:	05040200 	0x5040200
    6a34:	000001cb 	0x1cb
    6a38:	00021b05 	0x21b05
    6a3c:	21380300 	addi	t8,t1,768
    6a40:	02000000 	0x2000000
    6a44:	01c60508 	0x1c60508
    6a48:	1d050000 	0x1d050000
    6a4c:	04000002 	bltz	zero,6a58 <__isr_vec_space+0x6a38>
    6a50:	00006c42 	srl	t5,zero,0x11
    6a54:	057c0600 	0x57c0600
    6a58:	000106ec 	0x106ec
    6a5c:	74610700 	jalx	1841c00 <__memory_size+0x1822400>
    6a60:	36ee0500 	ori	t6,s7,0x500
    6a64:	00000000 	nop
    6a68:	05007607 	bltz	t0,24288 <__memory_size+0x4a88>
    6a6c:	000106ef 	0x106ef
    6a70:	61070400 	0x61070400
    6a74:	1df40500 	0x1df40500
    6a78:	0c000001 	jal	4 <ABIFlags_gpr_size>
    6a7c:	05007407 	bltz	t0,23a9c <__memory_size+0x429c>
    6a80:	00012df5 	0x12df5
    6a84:	73071c00 	0x73071c00
    6a88:	2df70500 	sltiu	s7,t7,1280
    6a8c:	3c000001 	lui	zero,0x1
    6a90:	00327407 	0x327407
    6a94:	0106f805 	lsa	ra,t0,a2,0x1
    6a98:	075c0000 	0x75c0000
    6a9c:	f905006b 	sdc2	$5,107(t0)
    6aa0:	00000106 	0x106
    6aa4:	70670764 	s8ldi	xr13,v1,-63,ptn1
    6aa8:	36fa0500 	ori	k0,s7,0x500
    6aac:	6c000000 	0x6c000000
    6ab0:	00707307 	0x707307
    6ab4:	0036fb05 	0x36fb05
    6ab8:	07700000 	bltzal	k1,6abc <__isr_vec_space+0x6a9c>
    6abc:	05007066 	bltz	t0,22c58 <__memory_size+0x3458>
    6ac0:	000036fc 	0x36fc
    6ac4:	72077400 	0x72077400
    6ac8:	fd050061 	sdc3	$5,97(t0)
    6acc:	00000036 	tne	zero,zero
    6ad0:	36080078 	ori	t0,s0,0x78
    6ad4:	16000000 	bnez	s0,6ad8 <__isr_vec_space+0x6ab8>
    6ad8:	09000001 	j	4000004 <__memory_size+0x3fe0804>
    6adc:	00000116 	0x116
    6ae0:	04020001 	bltzl	zero,6ae8 <__isr_vec_space+0x6ac8>
    6ae4:	0002e807 	srav	sp,v0,zero
    6ae8:	00360800 	0x360800
    6aec:	012d0000 	0x12d0000
    6af0:	16090000 	bne	s0,t1,6af4 <__isr_vec_space+0x6ad4>
    6af4:	03000001 	movf	zero,t8,$fcc0
    6af8:	00360800 	0x360800
    6afc:	013d0000 	0x13d0000
    6b00:	16090000 	bne	s0,t1,6b04 <__isr_vec_space+0x6ae4>
    6b04:	07000001 	bltz	t8,6b0c <__isr_vec_space+0x6aec>
    6b08:	057c0a00 	0x57c0a00
    6b0c:	000154ea 	0x154ea
    6b10:	00890b00 	0x890b00
    6b14:	720c0000 	madd	s0,t4
    6b18:	54ff0500 	bnel	a3,ra,7f1c <__isr_vec_space+0x7efc>
    6b1c:	00000001 	movf	zero,zero,$fcc0
    6b20:	00003608 	0x3608
    6b24:	00016400 	sll	t4,at,0x10
    6b28:	01160900 	0x1160900
    6b2c:	001e0000 	sll	zero,s8,0x0
    6b30:	0007cc0d 	break	0x7,0x330
    6b34:	e805a000 	swc2	$5,-24576(zero)
    6b38:	000001ea 	0x1ea
    6b3c:	00013d0e 	0x13d0e
    6b40:	650f0000 	0x650f0000
    6b44:	05006370 	bltz	t0,1f908 <__memory_size+0x108>
    6b48:	00360102 	ror	zero,s6,0x4
    6b4c:	107c0000 	beq	v1,gp,6b50 <__isr_vec_space+0x6b30>
    6b50:	000007de 	0x7de
    6b54:	36010305 	ori	at,s0,0x305
    6b58:	80000000 	lb	zero,0(zero)
    6b5c:	0069680f 	0x69680f
    6b60:	36010405 	ori	at,s0,0x405
    6b64:	84000000 	lh	zero,0(zero)
    6b68:	006f6c0f 	0x6f6c0f
    6b6c:	36010505 	ori	at,s0,0x505
    6b70:	88000000 	lwl	zero,0(zero)
    6b74:	00030210 	0x30210
    6b78:	01070500 	0x1070500
    6b7c:	00000211 	0x211
    6b80:	05cc108c 	teqi	t6,4236
    6b84:	0a050000 	j	8140000 <__memory_size+0x8120800>
    6b88:	00007e01 	0x7e01
    6b8c:	87109000 	lh	s0,-28672(t8)
    6b90:	05000007 	bltz	t0,6bb0 <__isr_vec_space+0x6b90>
    6b94:	007e010c 	syscall	0x1f804
    6b98:	10940000 	beq	a0,s4,6b9c <__isr_vec_space+0x6b7c>
    6b9c:	0000080d 	break	0x0,0x20
    6ba0:	7e010d05 	0x7e010d05
    6ba4:	98000000 	lwr	zero,0(zero)
    6ba8:	00080310 	0x80310
    6bac:	010e0500 	0x10e0500
    6bb0:	0000007e 	0x7e
    6bb4:	8d11009c 	lw	s1,156(t0)
    6bb8:	08000007 	j	1c <ABIFlags_flags2+0x8>
    6bbc:	11011105 	beq	t0,at,afd4 <__isr_vec_space+0xafb4>
    6bc0:	0f000002 	jal	c000008 <__memory_size+0xbfe0808>
    6bc4:	05006469 	bltz	t0,1fd6c <__memory_size+0x56c>
    6bc8:	00360113 	0x360113
    6bcc:	10000000 	b	6bd0 <__isr_vec_space+0x6bb0>
    6bd0:	00000bf2 	tlt	zero,zero,0x2f
    6bd4:	11011405 	beq	t0,at,bbec <__isr_vec_space+0xbbcc>
    6bd8:	04000002 	bltz	zero,6be4 <__isr_vec_space+0x6bc4>
    6bdc:	ea041200 	swc2	$4,4608(s0)
    6be0:	02000001 	movf	zero,s0,$fcc0
    6be4:	03210801 	movt	at,t9,$fcc0
    6be8:	08020000 	j	80000 <__memory_size+0x60800>
    6bec:	00020a04 	0x20a04
    6bf0:	04040200 	0x4040200
    6bf4:	00000312 	0x312
    6bf8:	00104613 	0x104613
    6bfc:	42230100 	c0	0x230100
    6c00:	4c000000 	lwxc1	$f0,zero(zero)
    6c04:	44800033 	0x44800033
    6c08:	01000000 	0x1000000
    6c0c:	0002af9c 	0x2af9c
    6c10:	74631400 	jalx	18c5000 <__memory_size+0x18a5800>
    6c14:	23010078 	addi	at,t8,120
    6c18:	000002af 	0x2af
    6c1c:	00001d97 	0x1d97
    6c20:	000f7115 	0xf7115
    6c24:	36250100 	ori	a1,s1,0x100
    6c28:	01000000 	0x1000000
    6c2c:	116b1554 	beq	t3,t3,c180 <__isr_vec_space+0xc160>
    6c30:	26010000 	addiu	at,s0,0
    6c34:	00000036 	tne	zero,zero
    6c38:	be155501 	cache	0x15,21761(s0)
    6c3c:	01000011 	mthi	t0
    6c40:	00003627 	0x3627
    6c44:	15560100 	bne	t2,s6,7048 <__isr_vec_space+0x7028>
    6c48:	00001282 	srl	v0,zero,0xa
    6c4c:	00362801 	0x362801
    6c50:	57010000 	bnel	t8,at,6c54 <__isr_vec_space+0x6c34>
    6c54:	00706f16 	0x706f16
    6c58:	00362901 	0x362901
    6c5c:	69010000 	0x69010000
    6c60:	00127815 	0x127815
    6c64:	362a0100 	ori	t2,s1,0x100
    6c68:	01000000 	0x1000000
    6c6c:	127d1552 	beq	s3,sp,c1b8 <__isr_vec_space+0xc198>
    6c70:	2b010000 	slti	at,t8,0
    6c74:	00000036 	tne	zero,zero
    6c78:	12005301 	beqz	s0,1b880 <__isr_vec_space+0x1b860>
    6c7c:	00016404 	0x16404
    6c80:	08810000 	j	2040000 <__memory_size+0x2020800>
    6c84:	00040000 	sll	zero,a0,0x0
    6c88:	00001fcf 	0x1fcf
    6c8c:	08990104 	j	2640410 <__memory_size+0x2620c10>
    6c90:	87010000 	lh	at,0(t8)
    6c94:	90000012 	lbu	zero,18(zero)
    6c98:	0c800033 	jal	20000cc <__memory_size+0x1fe08cc>
    6c9c:	7b000000 	xori.b	$w0,$w0,0x0
    6ca0:	0200002b 	sltu	zero,s0,zero
    6ca4:	6e690504 	0x6e690504
    6ca8:	04030074 	bgezl	zero,6e7c <__isr_vec_space+0x6e5c>
    6cac:	0001cb05 	0x1cb05
    6cb0:	07040300 	0x7040300
    6cb4:	000001a2 	0x1a2
    6cb8:	1a060103 	0x1a060103
    6cbc:	03000003 	0x3000003
    6cc0:	03180801 	movf	at,t8,$fcc6
    6cc4:	02030000 	0x2030000
    6cc8:	00032605 	0x32605
    6ccc:	07020300 	bltzl	t8,78d0 <__isr_vec_space+0x78b0>
    6cd0:	00000282 	srl	zero,zero,0xa
    6cd4:	c6050803 	lwc1	$f5,2051(s0)
    6cd8:	03000001 	movf	zero,t8,$fcc0
    6cdc:	019d0708 	0x19d0708
    6ce0:	49040000 	bc2f	$cc1,6ce4 <__isr_vec_space+0x6cc4>
    6ce4:	0200000b 	movn	zero,s0,zero
    6ce8:	00002107 	0x2107
    6cec:	0b1c0400 	j	c701000 <__memory_size+0xc6e1800>
    6cf0:	10030000 	beq	zero,v1,6cf4 <__isr_vec_space+0x6cd4>
    6cf4:	00000028 	0x28
    6cf8:	000c5304 	0xc5304
    6cfc:	28270300 	slti	a3,at,768
    6d00:	05000000 	bltz	t0,6d04 <__isr_vec_space+0x6ce4>
    6d04:	00000ae1 	0xae1
    6d08:	8d016104 	lw	at,24836(t0)
    6d0c:	03000000 	0x3000000
    6d10:	01a70704 	0x1a70704
    6d14:	04060000 	0x4060000
    6d18:	00b34a03 	0xb34a03
    6d1c:	db070000 	ldc2	$7,0(t8)
    6d20:	0300000a 	movz	zero,t8,zero
    6d24:	0000814c 	syscall	0x205
    6d28:	0a8d0700 	j	a341c00 <__memory_size+0xa322400>
    6d2c:	4d030000 	lwxc1	$f0,v1(t0)
    6d30:	000000b3 	tltu	zero,zero,0x2
    6d34:	003d0800 	0x3d0800
    6d38:	00c30000 	0xc30000
    6d3c:	c3090000 	ll	t1,0(t8)
    6d40:	03000000 	0x3000000
    6d44:	07040300 	0x7040300
    6d48:	000002e8 	0x2e8
    6d4c:	4703080a 	bz.b	$w3,8d78 <__isr_vec_space+0x8d58>
    6d50:	000000eb 	0xeb
    6d54:	000c3d0b 	0xc3d0b
    6d58:	21490300 	addi	t1,t2,768
    6d5c:	00000000 	nop
    6d60:	000c450b 	0xc450b
    6d64:	944e0300 	lhu	t6,768(v0)
    6d68:	04000000 	bltz	zero,6d6c <__isr_vec_space+0x6d4c>
    6d6c:	0b3e0400 	j	cf81000 <__memory_size+0xcf61800>
    6d70:	4f030000 	lwxc1	$f0,v1(t8)
    6d74:	000000ca 	0xca
    6d78:	000a5004 	sllv	t2,t2,zero
    6d7c:	60530300 	0x60530300
    6d80:	0c000000 	jal	0 <hardware_exit_hook>
    6d84:	0c800404 	jal	2001010 <__memory_size+0x1fe1810>
    6d88:	16050000 	bne	s0,a1,6d8c <__isr_vec_space+0x6d6c>
    6d8c:	0000002f 	0x2f
    6d90:	000a610d 	break	0xa,0x184
    6d94:	2d051800 	sltiu	a1,t0,6144
    6d98:	00000161 	0x161
    6d9c:	000bf10b 	0xbf10b
    6da0:	612f0500 	0x612f0500
    6da4:	00000001 	movf	zero,zero,$fcc0
    6da8:	006b5f0e 	0x6b5f0e
    6dac:	00213005 	lsa	a2,at,at,0x1
    6db0:	0b040000 	j	c100000 <__memory_size+0xc0e0800>
    6db4:	00000c28 	0xc28
    6db8:	00213005 	lsa	a2,at,at,0x1
    6dbc:	0b080000 	j	c200000 <__memory_size+0xc1e0800>
    6dc0:	00000a4a 	0xa4a
    6dc4:	00213005 	lsa	a2,at,at,0x1
    6dc8:	0b0c0000 	j	c300000 <__memory_size+0xc2e0800>
    6dcc:	00000cc7 	0xcc7
    6dd0:	00213005 	lsa	a2,at,at,0x1
    6dd4:	0e100000 	jal	8400000 <__memory_size+0x83e0800>
    6dd8:	0500785f 	bltz	t0,24f58 <__memory_size+0x5758>
    6ddc:	00016731 	tgeu	zero,at,0x19c
    6de0:	0f001400 	jal	c005000 <__memory_size+0xbfe5800>
    6de4:	00010e04 	0x10e04
    6de8:	01030800 	0x1030800
    6dec:	01770000 	0x1770000
    6df0:	c3090000 	ll	t1,0(t8)
    6df4:	00000000 	nop
    6df8:	0a880d00 	j	a203400 <__memory_size+0xa1e3c00>
    6dfc:	05240000 	0x5240000
    6e00:	0001f035 	0x1f035
    6e04:	09bb0b00 	j	6ec2c00 <__memory_size+0x6ea3400>
    6e08:	37050000 	ori	a1,t8,0x0
    6e0c:	00000021 	move	zero,zero
    6e10:	0c5b0b00 	jal	16c2c00 <__memory_size+0x16a3400>
    6e14:	38050000 	xori	a1,zero,0x0
    6e18:	00000021 	move	zero,zero
    6e1c:	09ca0b04 	j	7282c10 <__memory_size+0x7263410>
    6e20:	39050000 	xori	a1,t0,0x0
    6e24:	00000021 	move	zero,zero
    6e28:	0b5b0b08 	j	d6c2c20 <__memory_size+0xd6a3420>
    6e2c:	3a050000 	xori	a1,s0,0x0
    6e30:	00000021 	move	zero,zero
    6e34:	0b080b0c 	j	c202c30 <__memory_size+0xc1e3430>
    6e38:	3b050000 	xori	a1,t8,0x0
    6e3c:	00000021 	move	zero,zero
    6e40:	0af70b10 	j	bdc2c40 <__memory_size+0xbda3440>
    6e44:	3c050000 	lui	a1,0x0
    6e48:	00000021 	move	zero,zero
    6e4c:	0ccc0b14 	jal	3302c50 <__memory_size+0x32e3450>
    6e50:	3d050000 	0x3d050000
    6e54:	00000021 	move	zero,zero
    6e58:	0b730b18 	j	dcc2c60 <__memory_size+0xdca3460>
    6e5c:	3e050000 	0x3e050000
    6e60:	00000021 	move	zero,zero
    6e64:	0d070b1c 	jal	41c2c70 <__memory_size+0x41a3470>
    6e68:	3f050000 	0x3f050000
    6e6c:	00000021 	move	zero,zero
    6e70:	d9100020 	ldc2	$16,32(t0)
    6e74:	08000009 	j	24 <__isr_vec_space+0x4>
    6e78:	30480501 	andi	t0,v0,0x501
    6e7c:	0b000002 	j	c000008 <__memory_size+0xbfe0808>
    6e80:	00000a3d 	0xa3d
    6e84:	02304905 	0x2304905
    6e88:	0b000000 	j	c000000 <__memory_size+0xbfe0800>
    6e8c:	00000956 	0x956
    6e90:	02304a05 	0x2304a05
    6e94:	11800000 	beqz	t4,6e98 <__isr_vec_space+0x6e78>
    6e98:	00000c77 	0xc77
    6e9c:	01034c05 	0x1034c05
    6ea0:	01000000 	0x1000000
    6ea4:	0009fe11 	0x9fe11
    6ea8:	034f0500 	0x34f0500
    6eac:	04000001 	bltz	zero,6eb4 <__isr_vec_space+0x6e94>
    6eb0:	01080001 	movf	zero,t0,$fcc2
    6eb4:	40000001 	mfc0	zero,c0_mvpcontrol
    6eb8:	09000002 	j	4000008 <__memory_size+0x3fe0808>
    6ebc:	000000c3 	sra	zero,zero,0x3
    6ec0:	4e10001f 	c3	0x10001f
    6ec4:	90000009 	lbu	zero,9(zero)
    6ec8:	7e5b0501 	0x7e5b0501
    6ecc:	0b000002 	j	c000008 <__memory_size+0xbfe0808>
    6ed0:	00000bf1 	tgeu	zero,zero,0x2f
    6ed4:	027e5c05 	0x27e5c05
    6ed8:	0b000000 	j	c000000 <__memory_size+0xbfe0800>
    6edc:	00000c09 	jalr.hb	at,zero
    6ee0:	00215d05 	0x215d05
    6ee4:	0b040000 	j	c100000 <__memory_size+0xc0e0800>
    6ee8:	00000a45 	0xa45
    6eec:	02845f05 	0x2845f05
    6ef0:	0b080000 	j	c200000 <__memory_size+0xc1e0800>
    6ef4:	000009d9 	0x9d9
    6ef8:	01f06005 	lsa	t4,t7,s0,0x1
    6efc:	00880000 	0x880000
    6f00:	0240040f 	0x240040f
    6f04:	94080000 	lhu	t0,0(zero)
    6f08:	94000002 	lhu	zero,2(zero)
    6f0c:	09000002 	j	4000008 <__memory_size+0x3fe0808>
    6f10:	000000c3 	sra	zero,zero,0x3
    6f14:	040f001f 	0x40f001f
    6f18:	0000029a 	0x29a
    6f1c:	0b7d0d12 	j	df43448 <__memory_size+0xdf23c48>
    6f20:	05080000 	tgei	t0,0
    6f24:	0002c073 	tltu	zero,v0,0x301
    6f28:	10180b00 	beq	zero,t8,9b2c <__isr_vec_space+0x9b0c>
    6f2c:	74050000 	jalx	140000 <__memory_size+0x120800>
    6f30:	000002c0 	sll	zero,zero,0xb
    6f34:	07690b00 	tgeiu	k1,2816
    6f38:	75050000 	jalx	4140000 <__memory_size+0x4120800>
    6f3c:	00000021 	move	zero,zero
    6f40:	040f0004 	0x40f0004
    6f44:	0000003d 	0x3d
    6f48:	000bdb0d 	break	0xb,0x36c
    6f4c:	b3056800 	0xb3056800
    6f50:	000003f0 	tge	zero,zero,0xf
    6f54:	00705f0e 	0x705f0e
    6f58:	02c0b405 	0x2c0b405
    6f5c:	0e000000 	jal	8000000 <__memory_size+0x7fe0800>
    6f60:	0500725f 	bltz	t0,238e0 <__memory_size+0x40e0>
    6f64:	000021b5 	0x21b5
    6f68:	5f0e0400 	0x5f0e0400
    6f6c:	b6050077 	0xb6050077
    6f70:	00000021 	move	zero,zero
    6f74:	09f70b08 	j	7dc2c20 <__memory_size+0x7da3420>
    6f78:	b7050000 	0xb7050000
    6f7c:	00000044 	0x44
    6f80:	0aa40b0c 	j	a902c30 <__memory_size+0xa8e3430>
    6f84:	b8050000 	swr	a1,0(zero)
    6f88:	00000044 	0x44
    6f8c:	625f0e0e 	0x625f0e0e
    6f90:	b9050066 	swr	a1,102(t0)
    6f94:	0000029b 	0x29b
    6f98:	09950b10 	j	6542c40 <__memory_size+0x6523440>
    6f9c:	ba050000 	swr	a1,0(s0)
    6fa0:	00000021 	move	zero,zero
    6fa4:	09e70b18 	j	79c2c60 <__memory_size+0x79a3460>
    6fa8:	c1050000 	ll	a1,0(t0)
    6fac:	00000101 	0x101
    6fb0:	0a780b1c 	j	9e02c70 <__memory_size+0x9de3470>
    6fb4:	c3050000 	ll	a1,0(t8)
    6fb8:	00000553 	0x553
    6fbc:	0af00b20 	j	bc02c80 <__memory_size+0xbbe3480>
    6fc0:	c5050000 	lwc1	$f5,0(t0)
    6fc4:	00000582 	srl	zero,zero,0x16
    6fc8:	0c4d0b24 	jal	1342c90 <__memory_size+0x1323490>
    6fcc:	c8050000 	lwc2	$5,0(zero)
    6fd0:	000005a6 	0x5a6
    6fd4:	0d210b28 	jal	4842ca0 <__memory_size+0x48234a0>
    6fd8:	c9050000 	lwc2	$5,0(t0)
    6fdc:	000005c0 	sll	zero,zero,0x17
    6fe0:	755f0e2c 	jalx	57c38b0 <__memory_size+0x57a40b0>
    6fe4:	cc050062 	pref	0x5,98(zero)
    6fe8:	0000029b 	0x29b
    6fec:	755f0e30 	jalx	57c38c0 <__memory_size+0x57a40c0>
    6ff0:	cd050070 	pref	0x5,112(t0)
    6ff4:	000002c0 	sll	zero,zero,0xb
    6ff8:	755f0e38 	jalx	57c38e0 <__memory_size+0x57a40e0>
    6ffc:	ce050072 	pref	0x5,114(s0)
    7000:	00000021 	move	zero,zero
    7004:	09c40b3c 	j	7102cf0 <__memory_size+0x70e34f0>
    7008:	d1050000 	0xd1050000
    700c:	000005c6 	0x5c6
    7010:	0cf90b40 	jal	3e42d00 <__memory_size+0x3e23500>
    7014:	d2050000 	0xd2050000
    7018:	000005d6 	0x5d6
    701c:	6c5f0e43 	0x6c5f0e43
    7020:	d5050062 	ldc1	$f5,98(t0)
    7024:	0000029b 	0x29b
    7028:	0a0d0b44 	j	8342d10 <__memory_size+0x8323510>
    702c:	d8050000 	ldc2	$5,0(zero)
    7030:	00000021 	move	zero,zero
    7034:	05fa0b4c 	0x5fa0b4c
    7038:	d9050000 	ldc2	$5,0(t0)
    703c:	0000006b 	0x6b
    7040:	0d460b50 	jal	5182d40 <__memory_size+0x5163540>
    7044:	dc050000 	ldc3	$5,0(zero)
    7048:	0000040e 	0x40e
    704c:	0dfb0b54 	jal	7ec2d50 <__memory_size+0x7ea3550>
    7050:	e0050000 	sc	a1,0(zero)
    7054:	000000f6 	tne	zero,zero,0x3
    7058:	0be30b58 	j	f8c2d60 <__memory_size+0xf8a3560>
    705c:	e2050000 	sc	a1,0(s0)
    7060:	000000eb 	0xeb
    7064:	0ae80b5c 	j	ba02d70 <__memory_size+0xb9e3570>
    7068:	e3050000 	sc	a1,0(t8)
    706c:	00000021 	move	zero,zero
    7070:	21130064 	addi	s3,t0,100
    7074:	0e000000 	jal	8000000 <__memory_size+0x7fe0800>
    7078:	14000004 	bnez	zero,708c <__isr_vec_space+0x706c>
    707c:	0000040e 	0x40e
    7080:	00010114 	0x10114
    7084:	05461400 	0x5461400
    7088:	21140000 	addi	s4,t0,0
    708c:	00000000 	nop
    7090:	0414040f 	0x414040f
    7094:	30150000 	andi	s5,zero,0x0
    7098:	2800000c 	slti	zero,zero,12
    709c:	02390504 	0x2390504
    70a0:	00000546 	0x546
    70a4:	0011c416 	0x11c416
    70a8:	023b0500 	0x23b0500
    70ac:	00000021 	move	zero,zero
    70b0:	0a061600 	j	8185800 <__memory_size+0x8166000>
    70b4:	40050000 	mfc0	a1,c0_index
    70b8:	00062d02 	srl	a1,a2,0x14
    70bc:	94160400 	lhu	s6,1024(zero)
    70c0:	0500000a 	bltz	t0,70ec <__isr_vec_space+0x70cc>
    70c4:	062d0240 	0x62d0240
    70c8:	16080000 	bne	s0,t0,70cc <__isr_vec_space+0x70ac>
    70cc:	00000a59 	0xa59
    70d0:	2d024005 	sltiu	v0,t0,16389
    70d4:	0c000006 	jal	18 <ABIFlags_flags2+0x4>
    70d8:	000c0416 	0xc0416
    70dc:	02420500 	0x2420500
    70e0:	00000021 	move	zero,zero
    70e4:	096a1610 	j	5a85840 <__memory_size+0x5a66040>
    70e8:	43050000 	c0	0x1050000
    70ec:	00080f02 	srl	at,t0,0x1c
    70f0:	a8161400 	swl	s6,5120(zero)
    70f4:	0500000c 	bltz	t0,7128 <__isr_vec_space+0x7108>
    70f8:	00210245 	0x210245
    70fc:	16300000 	bne	s1,s0,7100 <__isr_vec_space+0x70e0>
    7100:	00000c0e 	0xc0e
    7104:	77024605 	jalx	c091814 <__memory_size+0xc072014>
    7108:	34000005 	li	zero,0x5
    710c:	000b1116 	0xb1116
    7110:	02480500 	0x2480500
    7114:	00000021 	move	zero,zero
    7118:	0c1e1638 	jal	7858e0 <__memory_size+0x7660e0>
    711c:	4a050000 	c2	0x50000
    7120:	00082a02 	srl	a1,t0,0x8
    7124:	d3163c00 	0xd3163c00
    7128:	0500000a 	bltz	t0,7154 <__isr_vec_space+0x7134>
    712c:	0161024d 	break	0x161,0x9
    7130:	16400000 	bnez	s2,7134 <__isr_vec_space+0x7114>
    7134:	00000a7e 	0xa7e
    7138:	21024e05 	addi	v0,t0,19973
    713c:	44000000 	mfc1	zero,$f0
    7140:	000d3b16 	0xd3b16
    7144:	024f0500 	0x24f0500
    7148:	00000161 	0x161
    714c:	0b341648 	j	cd05920 <__memory_size+0xcce6120>
    7150:	50050000 	beql	zero,a1,7154 <__isr_vec_space+0x7134>
    7154:	00083002 	srl	a2,t0,0x0
    7158:	9c164c00 	0x9c164c00
    715c:	0500000a 	bltz	t0,7188 <__isr_vec_space+0x7168>
    7160:	00210253 	0x210253
    7164:	16500000 	bne	s2,s0,7168 <__isr_vec_space+0x7148>
    7168:	00000a16 	0xa16
    716c:	46025405 	c1	0x25405
    7170:	54000005 	bnezl	zero,7188 <__isr_vec_space+0x7168>
    7174:	000b6516 	0xb6516
    7178:	02770500 	0x2770500
    717c:	000007ed 	0x7ed
    7180:	094e1758 	j	5385d60 <__memory_size+0x5366560>
    7184:	7b050000 	xori.b	$w0,$w0,0x5
    7188:	00027e02 	srl	t7,v0,0x18
    718c:	17014800 	bne	t8,at,19190 <__isr_vec_space+0x19170>
    7190:	00000ab1 	tgeu	zero,zero,0x2a
    7194:	40027c05 	0x40027c05
    7198:	4c000002 	mfc3	zero,$0,2
    719c:	0cef1701 	jal	3bc5c04 <__memory_size+0x3ba6404>
    71a0:	80050000 	lb	a1,0(zero)
    71a4:	00084102 	srl	t0,t0,0x4
    71a8:	1702dc00 	bne	t8,v0,ffffe1ac <__flash_start+0x403fe1ac>
    71ac:	000009ef 	0x9ef
    71b0:	f2028505 	0xf2028505
    71b4:	e0000005 	sc	zero,5(zero)
    71b8:	09d41702 	j	7505c08 <__memory_size+0x74e6408>
    71bc:	86050000 	lh	a1,0(s0)
    71c0:	00084d02 	srl	t1,t0,0x14
    71c4:	0002ec00 	sll	sp,v0,0x10
    71c8:	054c040f 	teqi	t2,1039
    71cc:	01030000 	0x1030000
    71d0:	00032108 	0x32108
    71d4:	f0040f00 	0xf0040f00
    71d8:	13000003 	beqz	t8,71e8 <__isr_vec_space+0x71c8>
    71dc:	00000021 	move	zero,zero
    71e0:	00000577 	0x577
    71e4:	00040e14 	0x40e14
    71e8:	01011400 	0x1011400
    71ec:	77140000 	jalx	c500000 <__memory_size+0xc4e0800>
    71f0:	14000005 	bnez	zero,7208 <__isr_vec_space+0x71e8>
    71f4:	00000021 	move	zero,zero
    71f8:	7d040f00 	ext	a0,t0,0x1c,0x2
    71fc:	18000005 	blez	zero,7214 <__isr_vec_space+0x71f4>
    7200:	0000054c 	syscall	0x15
    7204:	0559040f 	0x559040f
    7208:	76130000 	jalx	84c0000 <__memory_size+0x84a0800>
    720c:	a6000000 	sh	zero,0(s0)
    7210:	14000005 	bnez	zero,7228 <__isr_vec_space+0x7208>
    7214:	0000040e 	0x40e
    7218:	00010114 	0x10114
    721c:	00761400 	0x761400
    7220:	21140000 	addi	s4,t0,0
    7224:	00000000 	nop
    7228:	0588040f 	tgei	t4,1039
    722c:	21130000 	addi	s3,t0,0
    7230:	c0000000 	ll	zero,0(zero)
    7234:	14000005 	bnez	zero,724c <__isr_vec_space+0x722c>
    7238:	0000040e 	0x40e
    723c:	00010114 	0x10114
    7240:	040f0000 	0x40f0000
    7244:	000005ac 	0x5ac
    7248:	00003d08 	0x3d08
    724c:	0005d600 	sll	k0,a1,0x18
    7250:	00c30900 	0xc30900
    7254:	00020000 	sll	zero,v0,0x0
    7258:	00003d08 	0x3d08
    725c:	0005e600 	sll	gp,a1,0x18
    7260:	00c30900 	0xc30900
    7264:	00000000 	nop
    7268:	000b8a05 	0xb8a05
    726c:	011d0500 	0x11d0500
    7270:	000002c6 	0x2c6
    7274:	000cd619 	0xcd619
    7278:	21050c00 	addi	a1,t0,3072
    727c:	00062701 	0x62701
    7280:	0bf11600 	j	fc45800 <__memory_size+0xfc26000>
    7284:	23050000 	addi	a1,t8,0
    7288:	00062701 	0x62701
    728c:	aa160000 	swl	s6,0(s0)
    7290:	0500000a 	bltz	t0,72bc <__isr_vec_space+0x729c>
    7294:	00210124 	0x210124
    7298:	16040000 	bne	s0,a0,729c <__isr_vec_space+0x727c>
    729c:	00000b84 	0xb84
    72a0:	2d012505 	sltiu	at,t0,9477
    72a4:	08000006 	j	18 <ABIFlags_flags2+0x4>
    72a8:	f2040f00 	0xf2040f00
    72ac:	0f000005 	jal	c000014 <__memory_size+0xbfe0814>
    72b0:	0005e604 	0x5e604
    72b4:	09621900 	j	5886400 <__memory_size+0x5866c00>
    72b8:	050e0000 	tnei	t0,0
    72bc:	0668013d 	tgei	s3,317
    72c0:	37160000 	ori	s6,t8,0x0
    72c4:	0500000c 	bltz	t0,72f8 <__isr_vec_space+0x72d8>
    72c8:	0668013e 	tgei	s3,318
    72cc:	16000000 	bnez	s0,72d0 <__isr_vec_space+0x72b0>
    72d0:	00000c64 	0xc64
    72d4:	68013f05 	0x68013f05
    72d8:	06000006 	bltz	s0,72f4 <__isr_vec_space+0x72d4>
    72dc:	0001ed16 	0x1ed16
    72e0:	01400500 	0x1400500
    72e4:	0000004b 	0x4b
    72e8:	4b08000c 	c2	0x108000c
    72ec:	78000000 	andi.b	$w0,$w0,0x0
    72f0:	09000006 	j	4000018 <__memory_size+0x3fe0818>
    72f4:	000000c3 	sra	zero,zero,0x3
    72f8:	d01a0002 	0xd01a0002
    72fc:	79025805 	0x79025805
    7300:	16000007 	bnez	s0,7320 <__isr_vec_space+0x7300>
    7304:	00000cba 	0xcba
    7308:	8d025a05 	lw	v0,23045(t0)
    730c:	00000000 	nop
    7310:	000c6a16 	0xc6a16
    7314:	025b0500 	0x25b0500
    7318:	00000546 	0x546
    731c:	0ac61604 	j	b185810 <__memory_size+0xb166010>
    7320:	5c050000 	0x5c050000
    7324:	00077902 	srl	t7,a3,0x4
    7328:	12160800 	beq	s0,s6,932c <__isr_vec_space+0x930c>
    732c:	0500000d 	bltz	t0,7364 <__isr_vec_space+0x7344>
    7330:	0177025d 	0x177025d
    7334:	16240000 	bne	s1,a0,7338 <__isr_vec_space+0x7318>
    7338:	00000a69 	0xa69
    733c:	21025e05 	addi	v0,t0,24069
    7340:	48000000 	mfc2	zero,$0
    7344:	000bec16 	0xbec16
    7348:	025f0500 	0x25f0500
    734c:	00000059 	0x59
    7350:	0d281650 	jal	4a05940 <__memory_size+0x49e6140>
    7354:	60050000 	0x60050000
    7358:	00063302 	srl	a2,a2,0xc
    735c:	f7165800 	sdc1	$f22,22528(t8)
    7360:	0500000b 	bltz	t0,7390 <__isr_vec_space+0x7370>
    7364:	00eb0261 	0xeb0261
    7368:	16680000 	bne	s3,t0,736c <__isr_vec_space+0x734c>
    736c:	00000d2d 	0xd2d
    7370:	eb026205 	swc2	$2,25093(t8)
    7374:	70000000 	madd	zero,zero
    7378:	0009ad16 	0x9ad16
    737c:	02630500 	0x2630500
    7380:	000000eb 	0xeb
    7384:	0ce51678 	jal	39459e0 <__memory_size+0x39261e0>
    7388:	64050000 	0x64050000
    738c:	00078902 	srl	s1,a3,0x4
    7390:	ba168000 	swr	s6,-32768(s0)
    7394:	0500000a 	bltz	t0,73c0 <__isr_vec_space+0x73a0>
    7398:	07990265 	0x7990265
    739c:	16880000 	bne	s4,t0,73a0 <__isr_vec_space+0x7380>
    73a0:	00000c88 	0xc88
    73a4:	21026605 	addi	v0,t0,26117
    73a8:	a0000000 	sb	zero,0(zero)
    73ac:	000a2f16 	0xa2f16
    73b0:	02670500 	0x2670500
    73b4:	000000eb 	0xeb
    73b8:	099e16a4 	j	6785a90 <__memory_size+0x6766290>
    73bc:	68050000 	0x68050000
    73c0:	0000eb02 	srl	sp,zero,0xc
    73c4:	1e16ac00 	0x1e16ac00
    73c8:	0500000a 	bltz	t0,73f4 <__isr_vec_space+0x73d4>
    73cc:	00eb0269 	0xeb0269
    73d0:	16b40000 	bne	s5,s4,73d4 <__isr_vec_space+0x73b4>
    73d4:	00000975 	0x975
    73d8:	eb026a05 	swc2	$2,27141(t8)
    73dc:	bc000000 	cache	0x0,0(zero)
    73e0:	00098416 	0x98416
    73e4:	026b0500 	0x26b0500
    73e8:	000000eb 	0xeb
    73ec:	0b6a16c4 	j	da85b10 <__memory_size+0xda66310>
    73f0:	6c050000 	0x6c050000
    73f4:	00002102 	srl	a0,zero,0x4
    73f8:	0800cc00 	j	33000 <__memory_size+0x13800>
    73fc:	0000054c 	syscall	0x15
    7400:	00000789 	0x789
    7404:	0000c309 	0xc309
    7408:	08001900 	j	6400 <__isr_vec_space+0x63e0>
    740c:	0000054c 	syscall	0x15
    7410:	00000799 	0x799
    7414:	0000c309 	0xc309
    7418:	08000700 	j	1c00 <__isr_vec_space+0x1be0>
    741c:	0000054c 	syscall	0x15
    7420:	000007a9 	0x7a9
    7424:	0000c309 	0xc309
    7428:	1a001700 	blez	s0,d02c <__isr_vec_space+0xd00c>
    742c:	027105f0 	tge	s3,s1,0x17
    7430:	000007cd 	break	0x0,0x1f
    7434:	000b0116 	0xb0116
    7438:	02740500 	0x2740500
    743c:	000007cd 	break	0x0,0x1f
    7440:	0cdc1600 	jal	3705800 <__memory_size+0x36e6000>
    7444:	75050000 	jalx	4140000 <__memory_size+0x4120800>
    7448:	0007dd02 	srl	k1,a3,0x14
    744c:	08007800 	j	1e000 <__isr_vec_space+0x1dfe0>
    7450:	000002c0 	sll	zero,zero,0xb
    7454:	000007dd 	0x7dd
    7458:	0000c309 	0xc309
    745c:	08001d00 	j	7400 <__isr_vec_space+0x73e0>
    7460:	0000008d 	break	0x0,0x2
    7464:	000007ed 	0x7ed
    7468:	0000c309 	0xc309
    746c:	1b001d00 	blez	t8,e870 <__isr_vec_space+0xe850>
    7470:	025605f0 	tge	s2,s6,0x17
    7474:	0000080f 	0x80f
    7478:	000c301c 	0xc301c
    747c:	026d0500 	0x26d0500
    7480:	00000678 	0x678
    7484:	000cff1c 	0xcff1c
    7488:	02760500 	0x2760500
    748c:	000007a9 	0x7a9
    7490:	054c0800 	teqi	t2,2048
    7494:	081f0000 	j	7c0000 <__memory_size+0x7a0800>
    7498:	c3090000 	ll	t1,0(t8)
    749c:	18000000 	blez	zero,74a0 <__isr_vec_space+0x7480>
    74a0:	082a1d00 	j	a87400 <__memory_size+0xa67c00>
    74a4:	0e140000 	jal	8500000 <__memory_size+0x84e0800>
    74a8:	00000004 	sllv	zero,zero,zero
    74ac:	081f040f 	j	7c103c <__memory_size+0x7a183c>
    74b0:	040f0000 	0x40f0000
    74b4:	00000161 	0x161
    74b8:	0008411d 	0x8411d
    74bc:	00211400 	0x211400
    74c0:	0f000000 	jal	c000000 <__memory_size+0xbfe0800>
    74c4:	00084704 	0x84704
    74c8:	36040f00 	ori	a0,s0,0xf00
    74cc:	08000008 	j	20 <__isr_vec_space>
    74d0:	000005e6 	0x5e6
    74d4:	0000085d 	0x85d
    74d8:	0000c309 	0xc309
    74dc:	1e000200 	bgtz	s0,7ce0 <__isr_vec_space+0x7cc0>
    74e0:	000011c3 	sra	v0,zero,0x7
    74e4:	08720f06 	j	1c83c18 <__memory_size+0x1c64418>
    74e8:	33900000 	andi	s0,gp,0x0
    74ec:	000c8000 	sll	s0,t4,0x0
    74f0:	9c010000 	0x9c010000
    74f4:	0021040f 	0x21040f
    74f8:	9c1f0000 	0x9c1f0000
    74fc:	0500000c 	bltz	t0,7530 <__isr_vec_space+0x7510>
    7500:	040e02fa 	tnei	zero,762
    7504:	Address 0x0000000000007504 is out of bounds.


Disassembly of section .debug_abbrev:

00000000 <.debug_abbrev>:
       0:	10001101 	b	4408 <__isr_vec_space+0x43e8>
       4:	12011106 	beq	s0,at,4420 <__isr_vec_space+0x4400>
       8:	1b080301 	0x1b080301
       c:	13082508 	beq	t8,t0,9430 <__isr_vec_space+0x9410>
      10:	00000005 	lsa	zero,zero,zero,0x1
      14:	10001101 	b	441c <__isr_vec_space+0x43fc>
      18:	12011106 	beq	s0,at,4434 <__isr_vec_space+0x4414>
      1c:	1b080301 	0x1b080301
      20:	13082508 	beq	t8,t0,9444 <__isr_vec_space+0x9424>
      24:	00000005 	lsa	zero,zero,zero,0x1
      28:	10001101 	b	4430 <__isr_vec_space+0x4410>
      2c:	12011106 	beq	s0,at,4448 <__isr_vec_space+0x4428>
      30:	1b080301 	0x1b080301
      34:	13082508 	beq	t8,t0,9458 <__isr_vec_space+0x9438>
      38:	00000005 	lsa	zero,zero,zero,0x1
      3c:	25011101 	addiu	at,t0,4353
      40:	030b130e 	0x30b130e
      44:	110e1b0e 	beq	t0,t6,6c80 <__isr_vec_space+0x6c60>
      48:	10061201 	beq	zero,a2,4850 <__isr_vec_space+0x4830>
      4c:	02000017 	0x2000017
      50:	193f012e 	0x193f012e
      54:	0b3a0e03 	j	ce8380c <__memory_size+0xce6400c>
      58:	19270b3b 	0x19270b3b
      5c:	06120111 	bltzall	s0,4a4 <__isr_vec_space+0x484>
      60:	42971840 	c0	0x971840
      64:	00130119 	0x130119
      68:	00050300 	sll	zero,a1,0xc
      6c:	0b3a0e03 	j	ce8380c <__memory_size+0xce6400c>
      70:	13490b3b 	beq	k0,t1,2d60 <__isr_vec_space+0x2d40>
      74:	00001802 	srl	v1,zero,0x0
      78:	03003404 	0x3003404
      7c:	3b0b3a0e 	xori	t3,t8,0x3a0e
      80:	1c13490b 	0x1c13490b
      84:	0500000d 	bltz	t0,bc <__isr_vec_space+0x9c>
      88:	0b0b0024 	j	c2c0090 <__memory_size+0xc2a0890>
      8c:	08030b3e 	j	c2cf8 <__memory_size+0xa34f8>
      90:	0f060000 	jal	c180000 <__memory_size+0xc160800>
      94:	490b0b00 	bc2tl	$cc2,2c98 <__isr_vec_space+0x2c78>
      98:	07000013 	bltz	t8,e8 <__isr_vec_space+0xc8>
      9c:	13490035 	beq	k0,t1,174 <__isr_vec_space+0x154>
      a0:	2e080000 	sltiu	t0,s0,0
      a4:	03193f01 	0x3193f01
      a8:	3b0b3a0e 	xori	t3,t8,0x3a0e
      ac:	1201110b 	beq	s0,at,44dc <__isr_vec_space+0x44bc>
      b0:	97184006 	lhu	t8,16390(t8)
      b4:	13011942 	beq	t8,at,65c0 <__isr_vec_space+0x65a0>
      b8:	34090000 	li	t1,0x0
      bc:	3a080300 	xori	t0,s0,0x300
      c0:	490b3b0b 	bc2tl	$cc2,ecf0 <__isr_vec_space+0xecd0>
      c4:	00180213 	0x180213
      c8:	00240a00 	0x240a00
      cc:	0b3e0b0b 	j	cf82c2c <__memory_size+0xcf6342c>
      d0:	00000e03 	sra	at,zero,0x18
      d4:	0300050b 	0x300050b
      d8:	3b0b3a08 	xori	t3,t8,0x3a08
      dc:	0213490b 	0x213490b
      e0:	0c000017 	jal	5c <__isr_vec_space+0x3c>
      e4:	0e030034 	jal	80c00d0 <__memory_size+0x80a08d0>
      e8:	0b3b0b3a 	j	cec2ce8 <__memory_size+0xcea34e8>
      ec:	18021349 	0x18021349
      f0:	340d0000 	li	t5,0x0
      f4:	3a0e0300 	xori	t6,s0,0x300
      f8:	490b3b0b 	bc2tl	$cc2,ed28 <__isr_vec_space+0xed08>
      fc:	00170213 	0x170213
     100:	82890e00 	lb	t1,3584(s4)
     104:	01110001 	movt	zero,t0,$fcc4
     108:	00001331 	tgeu	zero,zero,0x4c
     10c:	0300050f 	0x300050f
     110:	3b0b3a0e 	xori	t3,t8,0x3a0e
     114:	0213490b 	0x213490b
     118:	10000017 	b	178 <__isr_vec_space+0x158>
     11c:	01018289 	0x1018289
     120:	13310111 	beq	t9,s1,568 <__isr_vec_space+0x548>
     124:	8a110000 	lwl	s1,0(s0)
     128:	02000182 	0x2000182
     12c:	18429118 	0x18429118
     130:	34120000 	li	s2,0x0
     134:	3a0e0300 	xori	t6,s0,0x300
     138:	490b3b0b 	bc2tl	$cc2,ed68 <__isr_vec_space+0xed48>
     13c:	02193f13 	0x2193f13
     140:	00000018 	mult	zero,zero
     144:	25011101 	addiu	at,t0,4353
     148:	030b130e 	0x30b130e
     14c:	110e1b0e 	beq	t0,t6,6d88 <__isr_vec_space+0x6d68>
     150:	10061201 	beq	zero,a2,4958 <__isr_vec_space+0x4938>
     154:	02000017 	0x2000017
     158:	0b0b0024 	j	c2c0090 <__memory_size+0xc2a0890>
     15c:	0e030b3e 	jal	80c2cf8 <__memory_size+0x80a34f8>
     160:	24030000 	li	v1,0
     164:	3e0b0b00 	0x3e0b0b00
     168:	0008030b 	0x8030b
     16c:	00160400 	sll	zero,s6,0x10
     170:	0b3a0e03 	j	ce8380c <__memory_size+0xce6400c>
     174:	13490b3b 	beq	k0,t1,2e64 <__isr_vec_space+0x2e44>
     178:	01050000 	0x1050000
     17c:	01134901 	0x1134901
     180:	06000013 	bltz	s0,1d0 <__isr_vec_space+0x1b0>
     184:	13490021 	beq	k0,t1,20c <__isr_vec_space+0x1ec>
     188:	00000b2f 	0xb2f
     18c:	0b000f07 	j	c003c1c <__memory_size+0xbfe441c>
     190:	0800000b 	j	2c <__isr_vec_space+0xc>
     194:	0b0b000f 	j	c2c003c <__memory_size+0xc2a083c>
     198:	00001349 	0x1349
     19c:	49002609 	bc2f	99c4 <__isr_vec_space+0x99a4>
     1a0:	0a000013 	j	800004c <__memory_size+0x7fe084c>
     1a4:	0e030104 	jal	80c0410 <__memory_size+0x80a0c10>
     1a8:	0b3a0b0b 	j	ce82c2c <__memory_size+0xce6342c>
     1ac:	13010b3b 	beq	t8,at,2e9c <__isr_vec_space+0x2e7c>
     1b0:	280b0000 	slti	t3,zero,0
     1b4:	1c0e0300 	0x1c0e0300
     1b8:	0c00000d 	jal	34 <__isr_vec_space+0x14>
     1bc:	0e030113 	jal	80c044c <__memory_size+0x80a0c4c>
     1c0:	0b3a0b0b 	j	ce82c2c <__memory_size+0xce6342c>
     1c4:	13010b3b 	beq	t8,at,2eb4 <__isr_vec_space+0x2e94>
     1c8:	0d0d0000 	jal	4340000 <__memory_size+0x4320800>
     1cc:	3a0e0300 	xori	t6,s0,0x300
     1d0:	490b3b0b 	bc2tl	$cc2,ee00 <__isr_vec_space+0xede0>
     1d4:	000b3813 	0xb3813
     1d8:	000d0e00 	sll	at,t5,0x18
     1dc:	0b3a0803 	j	ce8200c <__memory_size+0xce6280c>
     1e0:	13490b3b 	beq	k0,t1,2ed0 <__isr_vec_space+0x2eb0>
     1e4:	00000b38 	0xb38
     1e8:	4900350f 	bc2f	d628 <__isr_vec_space+0xd608>
     1ec:	10000013 	b	23c <__isr_vec_space+0x21c>
     1f0:	0e030013 	jal	80c004c <__memory_size+0x80a084c>
     1f4:	0000193c 	0x193c
     1f8:	03012e11 	0x3012e11
     1fc:	3b0b3a0e 	xori	t3,t8,0x3a0e
     200:	2019270b 	addi	t9,zero,9995
     204:	0013010b 	0x13010b
     208:	00051200 	sll	v0,a1,0x8
     20c:	0b3a0e03 	j	ce8380c <__memory_size+0xce6400c>
     210:	13490b3b 	beq	k0,t1,2f00 <__isr_vec_space+0x2ee0>
     214:	2e130000 	sltiu	s3,s0,0
     218:	3a0e0301 	xori	t6,s0,0x301
     21c:	270b3b0b 	addiu	t3,t8,15115
     220:	12011119 	beq	s0,at,4688 <__isr_vec_space+0x4668>
     224:	97184006 	lhu	t8,16390(t8)
     228:	13011942 	beq	t8,at,6734 <__isr_vec_space+0x6714>
     22c:	05140000 	0x5140000
     230:	3a080300 	xori	t0,s0,0x300
     234:	490b3b0b 	bc2tl	$cc2,ee64 <__isr_vec_space+0xee44>
     238:	00170213 	0x170213
     23c:	82891500 	lb	t1,5376(s4)
     240:	01110101 	0x1110101
     244:	00001331 	tgeu	zero,zero,0x4c
     248:	01828a16 	0x1828a16
     24c:	91180200 	lbu	t8,512(t0)
     250:	00001842 	srl	v1,zero,0x1
     254:	03012e17 	0x3012e17
     258:	3b0b3a0e 	xori	t3,t8,0x3a0e
     25c:	4919270b 	bc2t	$cc6,9e8c <__isr_vec_space+0x9e6c>
     260:	12011113 	beq	s0,at,46b0 <__isr_vec_space+0x4690>
     264:	97184006 	lhu	t8,16390(t8)
     268:	13011942 	beq	t8,at,6774 <__isr_vec_space+0x6754>
     26c:	34180000 	li	t8,0x0
     270:	3a0e0300 	xori	t6,s0,0x300
     274:	490b3b0b 	bc2tl	$cc2,eea4 <__isr_vec_space+0xee84>
     278:	00170213 	0x170213
     27c:	82891900 	lb	t1,6400(s4)
     280:	01110101 	0x1110101
     284:	13011331 	beq	t8,at,4f4c <__isr_vec_space+0x4f2c>
     288:	2e1a0000 	sltiu	k0,s0,0
     28c:	03193f01 	0x3193f01
     290:	3b0b3a0e 	xori	t3,t8,0x3a0e
     294:	4919270b 	bc2t	$cc6,9ec4 <__isr_vec_space+0x9ea4>
     298:	12011113 	beq	s0,at,46e8 <__isr_vec_space+0x46c8>
     29c:	97184006 	lhu	t8,16390(t8)
     2a0:	13011942 	beq	t8,at,67ac <__isr_vec_space+0x678c>
     2a4:	051b0000 	0x51b0000
     2a8:	3a0e0300 	xori	t6,s0,0x300
     2ac:	490b3b0b 	bc2tl	$cc2,eedc <__isr_vec_space+0xeebc>
     2b0:	00170213 	0x170213
     2b4:	012e1c00 	0x12e1c00
     2b8:	0e03193f 	jal	80c64fc <__memory_size+0x80a6cfc>
     2bc:	0b3b0b3a 	j	cec2ce8 <__memory_size+0xcea34e8>
     2c0:	0b201927 	j	c80649c <__memory_size+0xc7e6c9c>
     2c4:	00001301 	0x1301
     2c8:	31012e1d 	andi	at,t0,0x2e1d
     2cc:	12011113 	beq	s0,at,471c <__isr_vec_space+0x46fc>
     2d0:	97184006 	lhu	t8,16390(t8)
     2d4:	13011942 	beq	t8,at,67e0 <__isr_vec_space+0x67c0>
     2d8:	051e0000 	0x51e0000
     2dc:	02133100 	0x2133100
     2e0:	1f000018 	bgtz	t8,344 <__isr_vec_space+0x324>
     2e4:	193f012e 	0x193f012e
     2e8:	0b3a0e03 	j	ce8380c <__memory_size+0xce6400c>
     2ec:	19270b3b 	0x19270b3b
     2f0:	06120111 	bltzall	s0,738 <__isr_vec_space+0x718>
     2f4:	42971840 	c0	0x971840
     2f8:	00130119 	0x130119
     2fc:	010b2000 	0x10b2000
     300:	06120111 	bltzall	s0,748 <__isr_vec_space+0x728>
     304:	34210000 	ori	at,at,0x0
     308:	3a0e0300 	xori	t6,s0,0x300
     30c:	490b3b0b 	bc2tl	$cc2,ef3c <__isr_vec_space+0xef1c>
     310:	22000013 	addi	zero,s0,19
     314:	1331011d 	beq	t9,s1,78c <__isr_vec_space+0x76c>
     318:	06120111 	bltzall	s0,760 <__isr_vec_space+0x740>
     31c:	0b590b58 	j	d642d60 <__memory_size+0xd623560>
     320:	00001301 	0x1301
     324:	31000523 	andi	zero,t0,0x523
     328:	00170213 	0x170213
     32c:	82892400 	lb	t1,9216(s4)
     330:	01110001 	movt	zero,t0,$fcc4
     334:	00001331 	tgeu	zero,zero,0x4c
     338:	03012e25 	0x3012e25
     33c:	3b0b3a0e 	xori	t3,t8,0x3a0e
     340:	4919270b 	bc2t	$cc6,9f70 <__isr_vec_space+0x9f50>
     344:	010b2013 	0x10b2013
     348:	26000013 	addiu	zero,s0,19
     34c:	08030034 	j	c00d0 <__memory_size+0xa08d0>
     350:	0b3b0b3a 	j	cec2ce8 <__memory_size+0xcea34e8>
     354:	17021349 	bne	t8,v0,507c <__isr_vec_space+0x505c>
     358:	0a270000 	j	89c0000 <__memory_size+0x89a0800>
     35c:	3a0e0300 	xori	t6,s0,0x300
     360:	110b3b0b 	beq	t0,t3,ef90 <__isr_vec_space+0xef70>
     364:	28000001 	slti	zero,zero,1
     368:	1331011d 	beq	t9,s1,7e0 <__isr_vec_space+0x7c0>
     36c:	06120111 	bltzall	s0,7b4 <__isr_vec_space+0x794>
     370:	0b590b58 	j	d642d60 <__memory_size+0xd623560>
     374:	15290000 	bne	t1,t1,378 <__isr_vec_space+0x358>
     378:	01192701 	0x1192701
     37c:	2a000013 	slti	zero,s0,19
     380:	13490005 	beq	k0,t1,398 <__isr_vec_space+0x378>
     384:	342b0000 	ori	t3,at,0x0
     388:	3a080300 	xori	t0,s0,0x300
     38c:	490b3b0b 	bc2tl	$cc2,efbc <__isr_vec_space+0xef9c>
     390:	2c000013 	sltiu	zero,zero,19
     394:	1755010b 	bne	k0,s5,7c4 <__isr_vec_space+0x7a4>
     398:	00001301 	0x1301
     39c:	3f012e2d 	0x3f012e2d
     3a0:	3a0e0319 	xori	t6,s0,0x319
     3a4:	490b3b0b 	bc2tl	$cc2,efd4 <__isr_vec_space+0xefb4>
     3a8:	01193c13 	0x1193c13
     3ac:	2e000013 	sltiu	zero,s0,19
     3b0:	00000018 	mult	zero,zero
     3b4:	0300342f 	0x300342f
     3b8:	3b0b3a0e 	xori	t3,t8,0x3a0e
     3bc:	0213490b 	0x213490b
     3c0:	30000018 	andi	zero,zero,0x18
     3c4:	0e030034 	jal	80c00d0 <__memory_size+0x80a08d0>
     3c8:	0b3b0b3a 	j	cec2ce8 <__memory_size+0xcea34e8>
     3cc:	193f1349 	0x193f1349
     3d0:	00001802 	srl	v1,zero,0x0
     3d4:	03003431 	tgeu	t8,zero,0xd0
     3d8:	3b0b3a08 	xori	t3,t8,0x3a08
     3dc:	3f13490b 	0x3f13490b
     3e0:	00180219 	0x180219
     3e4:	012e3200 	0x12e3200
     3e8:	0e03193f 	jal	80c64fc <__memory_size+0x80a6cfc>
     3ec:	0b3b0b3a 	j	cec2ce8 <__memory_size+0xcea34e8>
     3f0:	193c1927 	0x193c1927
     3f4:	00001301 	0x1301
     3f8:	3f012e33 	0x3f012e33
     3fc:	3a0e0319 	xori	t6,s0,0x319
     400:	270b3b0b 	addiu	t3,t8,15115
     404:	3c134919 	lui	s3,0x4919
     408:	00130119 	0x130119
     40c:	012e3400 	0x12e3400
     410:	0e03193f 	jal	80c64fc <__memory_size+0x80a6cfc>
     414:	0b3b0b3a 	j	cec2ce8 <__memory_size+0xcea34e8>
     418:	193c1349 	0x193c1349
     41c:	01000000 	0x1000000
     420:	0e250111 	jal	8940444 <__memory_size+0x8920c44>
     424:	0e030b13 	jal	80c2c4c <__memory_size+0x80a344c>
     428:	01110e1b 	0x1110e1b
     42c:	17100612 	bne	t8,s0,1c78 <__isr_vec_space+0x1c58>
     430:	24020000 	li	v0,0
     434:	3e0b0b00 	0x3e0b0b00
     438:	000e030b 	0xe030b
     43c:	00240300 	0x240300
     440:	0b3e0b0b 	j	cf82c2c <__memory_size+0xcf6342c>
     444:	00000803 	sra	at,zero,0x0
     448:	03001604 	0x3001604
     44c:	3b0b3a0e 	xori	t3,t8,0x3a0e
     450:	0013490b 	0x13490b
     454:	01010500 	0x1010500
     458:	13011349 	beq	t8,at,5180 <__isr_vec_space+0x5160>
     45c:	21060000 	addi	a2,t0,0
     460:	2f134900 	sltiu	s3,t8,18688
     464:	0700000b 	bltz	t8,494 <__isr_vec_space+0x474>
     468:	0e030104 	jal	80c0410 <__memory_size+0x80a0c10>
     46c:	0b3a0b0b 	j	ce82c2c <__memory_size+0xce6342c>
     470:	13010b3b 	beq	t8,at,3160 <__isr_vec_space+0x3140>
     474:	28080000 	slti	t0,zero,0
     478:	1c0e0300 	0x1c0e0300
     47c:	0900000d 	j	4000034 <__memory_size+0x3fe0834>
     480:	0e030113 	jal	80c044c <__memory_size+0x80a0c4c>
     484:	0b3a0b0b 	j	ce82c2c <__memory_size+0xce6342c>
     488:	13010b3b 	beq	t8,at,3178 <__isr_vec_space+0x3158>
     48c:	0d0a0000 	jal	4280000 <__memory_size+0x4260800>
     490:	3a0e0300 	xori	t6,s0,0x300
     494:	490b3b0b 	bc2tl	$cc2,f0c4 <__isr_vec_space+0xf0a4>
     498:	000b3813 	0xb3813
     49c:	000f0b00 	sll	at,t7,0xc
     4a0:	13490b0b 	beq	k0,t1,30d0 <__isr_vec_space+0x30b0>
     4a4:	0d0c0000 	jal	4300000 <__memory_size+0x42e0800>
     4a8:	3a080300 	xori	t0,s0,0x300
     4ac:	490b3b0b 	bc2tl	$cc2,f0dc <__isr_vec_space+0xf0bc>
     4b0:	000b3813 	0xb3813
     4b4:	00350d00 	0x350d00
     4b8:	00001349 	0x1349
     4bc:	0300130e 	0x300130e
     4c0:	00193c0e 	0x193c0e
     4c4:	012e0f00 	0x12e0f00
     4c8:	0e03193f 	jal	80c64fc <__memory_size+0x80a6cfc>
     4cc:	0b3b0b3a 	j	cec2ce8 <__memory_size+0xcea34e8>
     4d0:	01111927 	0x1111927
     4d4:	18400612 	blez	v0,1d20 <__isr_vec_space+0x1d00>
     4d8:	01194297 	0x1194297
     4dc:	10000013 	b	52c <__isr_vec_space+0x50c>
     4e0:	0e030005 	jal	80c0014 <__memory_size+0x80a0814>
     4e4:	0b3b0b3a 	j	cec2ce8 <__memory_size+0xcea34e8>
     4e8:	18021349 	0x18021349
     4ec:	34110000 	li	s1,0x0
     4f0:	3a0e0300 	xori	t6,s0,0x300
     4f4:	490b3b0b 	bc2tl	$cc2,f124 <__isr_vec_space+0xf104>
     4f8:	12000013 	beqz	s0,548 <__isr_vec_space+0x528>
     4fc:	08030034 	j	c00d0 <__memory_size+0xa08d0>
     500:	0b3b0b3a 	j	cec2ce8 <__memory_size+0xcea34e8>
     504:	17021349 	bne	t8,v0,522c <__isr_vec_space+0x520c>
     508:	34130000 	li	s3,0x0
     50c:	3a0e0300 	xori	t6,s0,0x300
     510:	490b3b0b 	bc2tl	$cc2,f140 <__isr_vec_space+0xf120>
     514:	00170213 	0x170213
     518:	010b1400 	0x10b1400
     51c:	06120111 	bltzall	s0,964 <__isr_vec_space+0x944>
     520:	00001301 	0x1301
     524:	3f012e15 	0x3f012e15
     528:	3a0e0319 	xori	t6,s0,0x319
     52c:	490b3b0b 	bc2tl	$cc2,f15c <__isr_vec_space+0xf13c>
     530:	01193c13 	0x1193c13
     534:	16000013 	bnez	s0,584 <__isr_vec_space+0x564>
     538:	00000018 	mult	zero,zero
     53c:	01828917 	0x1828917
     540:	31011101 	andi	at,t0,0x1101
     544:	18000013 	blez	zero,594 <__isr_vec_space+0x574>
     548:	0001828a 	0x1828a
     54c:	42911802 	c0	0x911802
     550:	19000018 	blez	t0,5b4 <__isr_vec_space+0x594>
     554:	00018289 	0x18289
     558:	13310111 	beq	t9,s1,9a0 <__isr_vec_space+0x980>
     55c:	341a0000 	li	k0,0x0
     560:	3a0e0300 	xori	t6,s0,0x300
     564:	490b3b0b 	bc2tl	$cc2,f194 <__isr_vec_space+0xf174>
     568:	02193f13 	0x2193f13
     56c:	1b000018 	blez	t8,5d0 <__isr_vec_space+0x5b0>
     570:	0e030034 	jal	80c00d0 <__memory_size+0x80a08d0>
     574:	0b3b0b3a 	j	cec2ce8 <__memory_size+0xcea34e8>
     578:	193f1349 	0x193f1349
     57c:	0000193c 	0x193c
     580:	3f012e1c 	0x3f012e1c
     584:	3a0e0319 	xori	t6,s0,0x319
     588:	270b3b0b 	addiu	t3,t8,15115
     58c:	00193c19 	0x193c19
     590:	00051d00 	sll	v1,a1,0x14
     594:	00001349 	0x1349
     598:	01110100 	0x1110100
     59c:	0b130e25 	j	c4c3894 <__memory_size+0xc4a4094>
     5a0:	0e1b0e03 	jal	86c380c <__memory_size+0x86a400c>
     5a4:	06120111 	bltzall	s0,9ec <__isr_vec_space+0x9cc>
     5a8:	00001710 	0x1710
     5ac:	0b002402 	j	c009008 <__memory_size+0xbfe9808>
     5b0:	030b3e0b 	0x30b3e0b
     5b4:	0300000e 	0x300000e
     5b8:	0b0b0024 	j	c2c0090 <__memory_size+0xc2a0890>
     5bc:	08030b3e 	j	c2cf8 <__memory_size+0xa34f8>
     5c0:	16040000 	bne	s0,a0,5c4 <__isr_vec_space+0x5a4>
     5c4:	3a0e0300 	xori	t6,s0,0x300
     5c8:	490b3b0b 	bc2tl	$cc2,f1f8 <__isr_vec_space+0xf1d8>
     5cc:	05000013 	bltz	t0,61c <__isr_vec_space+0x5fc>
     5d0:	193f012e 	0x193f012e
     5d4:	0b3a0e03 	j	ce8380c <__memory_size+0xce6400c>
     5d8:	13490b3b 	beq	k0,t1,32c8 <__isr_vec_space+0x32a8>
     5dc:	06120111 	bltzall	s0,a24 <__isr_vec_space+0xa04>
     5e0:	42971840 	c0	0x971840
     5e4:	00130119 	0x130119
     5e8:	00340600 	0x340600
     5ec:	0b3a0e03 	j	ce8380c <__memory_size+0xce6400c>
     5f0:	13490b3b 	beq	k0,t1,32e0 <__isr_vec_space+0x32c0>
     5f4:	00001702 	srl	v0,zero,0x1c
     5f8:	3f012e07 	0x3f012e07
     5fc:	3a0e0319 	xori	t6,s0,0x319
     600:	270b3b0b 	addiu	t3,t8,15115
     604:	12011119 	beq	s0,at,4a6c <__isr_vec_space+0x4a4c>
     608:	97184006 	lhu	t8,16390(t8)
     60c:	13011942 	beq	t8,at,6b18 <__isr_vec_space+0x6af8>
     610:	05080000 	tgei	t0,0
     614:	3a080300 	xori	t0,s0,0x300
     618:	490b3b0b 	bc2tl	$cc2,f248 <__isr_vec_space+0xf228>
     61c:	00180213 	0x180213
     620:	012e0900 	0x12e0900
     624:	0e03193f 	jal	80c64fc <__memory_size+0x80a6cfc>
     628:	0b3b0b3a 	j	cec2ce8 <__memory_size+0xcea34e8>
     62c:	06120111 	bltzall	s0,a74 <__isr_vec_space+0xa54>
     630:	42971840 	c0	0x971840
     634:	00130119 	0x130119
     638:	00340a00 	0x340a00
     63c:	0b3a0803 	j	ce8200c <__memory_size+0xce6280c>
     640:	13490b3b 	beq	k0,t1,3330 <__isr_vec_space+0x3310>
     644:	00001702 	srl	v0,zero,0x1c
     648:	0182890b 	0x182890b
     64c:	31011101 	andi	at,t0,0x1101
     650:	0c000013 	jal	4c <__isr_vec_space+0x2c>
     654:	0001828a 	0x1828a
     658:	42911802 	c0	0x911802
     65c:	0d000018 	jal	4000060 <__memory_size+0x3fe0860>
     660:	193f002e 	0x193f002e
     664:	0b3a0e03 	j	ce8380c <__memory_size+0xce6400c>
     668:	19270b3b 	0x19270b3b
     66c:	01111349 	0x1111349
     670:	18400612 	blez	v0,1ebc <__isr_vec_space+0x1e9c>
     674:	00194297 	0x194297
     678:	01010e00 	0x1010e00
     67c:	13011349 	beq	t8,at,53a4 <__isr_vec_space+0x5384>
     680:	210f0000 	addi	t7,t0,0
     684:	2f134900 	sltiu	s3,t8,18688
     688:	1000000b 	b	6b8 <__isr_vec_space+0x698>
     68c:	0e030034 	jal	80c00d0 <__memory_size+0x80a08d0>
     690:	0b3b0b3a 	j	cec2ce8 <__memory_size+0xcea34e8>
     694:	193f1349 	0x193f1349
     698:	00001802 	srl	v1,zero,0x0
     69c:	01110100 	0x1110100
     6a0:	0b130e25 	j	c4c3894 <__memory_size+0xc4a4094>
     6a4:	0e1b0e03 	jal	86c380c <__memory_size+0x86a400c>
     6a8:	06120111 	bltzall	s0,af0 <__isr_vec_space+0xad0>
     6ac:	00001710 	0x1710
     6b0:	0b002402 	j	c009008 <__memory_size+0xbfe9808>
     6b4:	030b3e0b 	0x30b3e0b
     6b8:	0300000e 	0x300000e
     6bc:	0b0b0024 	j	c2c0090 <__memory_size+0xc2a0890>
     6c0:	08030b3e 	j	c2cf8 <__memory_size+0xa34f8>
     6c4:	16040000 	bne	s0,a0,6c8 <__isr_vec_space+0x6a8>
     6c8:	3a0e0300 	xori	t6,s0,0x300
     6cc:	490b3b0b 	bc2tl	$cc2,f2fc <__isr_vec_space+0xf2dc>
     6d0:	05000013 	bltz	t0,720 <__isr_vec_space+0x700>
     6d4:	0e030104 	jal	80c0410 <__memory_size+0x80a0c10>
     6d8:	0b3a0b0b 	j	ce82c2c <__memory_size+0xce6342c>
     6dc:	13010b3b 	beq	t8,at,33cc <__isr_vec_space+0x33ac>
     6e0:	28060000 	slti	a2,zero,0
     6e4:	1c0e0300 	0x1c0e0300
     6e8:	0700000d 	bltz	t8,720 <__isr_vec_space+0x700>
     6ec:	193f012e 	0x193f012e
     6f0:	0b3a0e03 	j	ce8380c <__memory_size+0xce6400c>
     6f4:	19270b3b 	0x19270b3b
     6f8:	06120111 	bltzall	s0,b40 <__isr_vec_space+0xb20>
     6fc:	42971840 	c0	0x971840
     700:	00130119 	0x130119
     704:	00050800 	sll	at,a1,0x0
     708:	0b3a0803 	j	ce8200c <__memory_size+0xce6280c>
     70c:	13490b3b 	beq	k0,t1,33fc <__isr_vec_space+0x33dc>
     710:	00001702 	srl	v0,zero,0x1c
     714:	03000509 	0x3000509
     718:	3b0b3a08 	xori	t3,t8,0x3a08
     71c:	0213490b 	0x213490b
     720:	0a000018 	j	8000060 <__memory_size+0x7fe0860>
     724:	0e030034 	jal	80c00d0 <__memory_size+0x80a08d0>
     728:	0b3b0b3a 	j	cec2ce8 <__memory_size+0xcea34e8>
     72c:	061c1349 	0x61c1349
     730:	0f0b0000 	jal	c2c0000 <__memory_size+0xc2a0800>
     734:	490b0b00 	bc2tl	$cc2,3338 <__isr_vec_space+0x3318>
     738:	0c000013 	jal	4c <__isr_vec_space+0x2c>
     73c:	08030034 	j	c00d0 <__memory_size+0xa08d0>
     740:	0b3b0b3a 	j	cec2ce8 <__memory_size+0xcea34e8>
     744:	17021349 	bne	t8,v0,546c <__isr_vec_space+0x544c>
     748:	340d0000 	li	t5,0x0
     74c:	3a0e0300 	xori	t6,s0,0x300
     750:	490b3b0b 	bc2tl	$cc2,f380 <__isr_vec_space+0xf360>
     754:	00170213 	0x170213
     758:	82890e00 	lb	t1,3584(s4)
     75c:	01110101 	0x1110101
     760:	00001331 	tgeu	zero,zero,0x4c
     764:	01828a0f 	0x1828a0f
     768:	91180200 	lbu	t8,512(t0)
     76c:	00001842 	srl	v1,zero,0x1
     770:	3f012e10 	0x3f012e10
     774:	3a0e0319 	xori	t6,s0,0x319
     778:	270b3b0b 	addiu	t3,t8,15115
     77c:	20134919 	addi	s3,zero,18713
     780:	0013010b 	0x13010b
     784:	00051100 	sll	v0,a1,0x4
     788:	0b3a0e03 	j	ce8380c <__memory_size+0xce6400c>
     78c:	13490b3b 	beq	k0,t1,347c <__isr_vec_space+0x345c>
     790:	2e120000 	sltiu	s2,s0,0
     794:	11133101 	beq	t0,s3,cb9c <__isr_vec_space+0xcb7c>
     798:	40061201 	0x40061201
     79c:	19429718 	0x19429718
     7a0:	00001301 	0x1301
     7a4:	31000513 	andi	zero,t0,0x513
     7a8:	00180213 	0x180213
     7ac:	00051400 	sll	v0,a1,0x10
     7b0:	0b3a0803 	j	ce8200c <__memory_size+0xce6280c>
     7b4:	13490b3b 	beq	k0,t1,34a4 <__isr_vec_space+0x3484>
     7b8:	2e150000 	sltiu	s5,s0,0
     7bc:	03193f01 	0x3193f01
     7c0:	3b0b3a0e 	xori	t3,t8,0x3a0e
     7c4:	4919270b 	bc2t	$cc6,a3f4 <__isr_vec_space+0xa3d4>
     7c8:	12011113 	beq	s0,at,4c18 <__isr_vec_space+0x4bf8>
     7cc:	97184006 	lhu	t8,16390(t8)
     7d0:	13011942 	beq	t8,at,6cdc <__isr_vec_space+0x6cbc>
     7d4:	05160000 	0x5160000
     7d8:	3a0e0300 	xori	t6,s0,0x300
     7dc:	490b3b0b 	bc2tl	$cc2,f40c <__isr_vec_space+0xf3ec>
     7e0:	00170213 	0x170213
     7e4:	00341700 	0x341700
     7e8:	0b3a0803 	j	ce8200c <__memory_size+0xce6280c>
     7ec:	13490b3b 	beq	k0,t1,34dc <__isr_vec_space+0x34bc>
     7f0:	1d180000 	0x1d180000
     7f4:	11133101 	beq	t0,s3,cbfc <__isr_vec_space+0xcbdc>
     7f8:	58061201 	0x58061201
     7fc:	010b590b 	0x10b590b
     800:	19000013 	blez	t0,850 <__isr_vec_space+0x830>
     804:	13310005 	beq	t9,s1,81c <__isr_vec_space+0x7fc>
     808:	00001702 	srl	v0,zero,0x1c
     80c:	31011d1a 	andi	at,t0,0x1d1a
     810:	55015213 	bnel	t0,at,15060 <__isr_vec_space+0x15040>
     814:	590b5817 	0x590b5817
     818:	1b00000b 	blez	t8,848 <__isr_vec_space+0x828>
     81c:	1331011d 	beq	t9,s1,c94 <__isr_vec_space+0xc74>
     820:	17550152 	bne	k0,s5,d6c <__isr_vec_space+0xd4c>
     824:	0b590b58 	j	d642d60 <__memory_size+0xd623560>
     828:	00001301 	0x1301
     82c:	11010b1c 	beq	t0,at,34a0 <__isr_vec_space+0x3480>
     830:	00061201 	0x61201
     834:	00341d00 	0x341d00
     838:	0b3a0e03 	j	ce8380c <__memory_size+0xce6400c>
     83c:	13490b3b 	beq	k0,t1,352c <__isr_vec_space+0x350c>
     840:	00000d1c 	0xd1c
     844:	0300341e 	0x300341e
     848:	3b0b3a0e 	xori	t3,t8,0x3a0e
     84c:	0213490b 	0x213490b
     850:	1f000018 	bgtz	t8,8b4 <__isr_vec_space+0x894>
     854:	00018289 	0x18289
     858:	13310111 	beq	t9,s1,ca0 <__isr_vec_space+0xc80>
     85c:	05200000 	bltz	t1,860 <__isr_vec_space+0x840>
     860:	3a0e0300 	xori	t6,s0,0x300
     864:	490b3b0b 	bc2tl	$cc2,f494 <__isr_vec_space+0xf474>
     868:	00180213 	0x180213
     86c:	012e2100 	0x12e2100
     870:	0e03193f 	jal	80c64fc <__memory_size+0x80a6cfc>
     874:	053b0b3a 	0x53b0b3a
     878:	01111927 	0x1111927
     87c:	18400612 	blez	v0,20c8 <__isr_vec_space+0x20a8>
     880:	01194297 	0x1194297
     884:	22000013 	addi	zero,s0,19
     888:	0e030005 	jal	80c0014 <__memory_size+0x80a0814>
     88c:	053b0b3a 	0x53b0b3a
     890:	17021349 	bne	t8,v0,55b8 <__isr_vec_space+0x5598>
     894:	34230000 	ori	v1,at,0x0
     898:	3a0e0300 	xori	t6,s0,0x300
     89c:	49053b0b 	bc2t	$cc1,f4cc <__isr_vec_space+0xf4ac>
     8a0:	00170213 	0x170213
     8a4:	00342400 	0x342400
     8a8:	0b3a0803 	j	ce8200c <__memory_size+0xce6280c>
     8ac:	1349053b 	beq	k0,t1,1d9c <__isr_vec_space+0x1d7c>
     8b0:	00001702 	srl	v0,zero,0x1c
     8b4:	3f012e25 	0x3f012e25
     8b8:	3a0e0319 	xori	t6,s0,0x319
     8bc:	27053b0b 	addiu	a1,t8,15115
     8c0:	11134919 	beq	t0,s3,12d28 <__isr_vec_space+0x12d08>
     8c4:	40061201 	0x40061201
     8c8:	19429718 	0x19429718
     8cc:	00001301 	0x1301
     8d0:	03000526 	0x3000526
     8d4:	3b0b3a08 	xori	t3,t8,0x3a08
     8d8:	02134905 	0x2134905
     8dc:	27000017 	addiu	zero,t8,23
     8e0:	0e030034 	jal	80c00d0 <__memory_size+0x80a08d0>
     8e4:	053b0b3a 	0x53b0b3a
     8e8:	00001349 	0x1349
     8ec:	55010b28 	bnel	t0,at,3590 <__isr_vec_space+0x3570>
     8f0:	00130117 	0x130117
     8f4:	011d2900 	0x11d2900
     8f8:	01111331 	tgeu	t0,s1,0x4c
     8fc:	0b580612 	j	d601848 <__memory_size+0xd5e2048>
     900:	13010559 	beq	t8,at,1e68 <__isr_vec_space+0x1e48>
     904:	052a0000 	tlti	t1,0
     908:	00133100 	sll	a2,s3,0x4
     90c:	00052b00 	sll	a1,a1,0xc
     910:	0b3a0e03 	j	ce8380c <__memory_size+0xce6400c>
     914:	1349053b 	beq	k0,t1,1e04 <__isr_vec_space+0x1de4>
     918:	00001802 	srl	v1,zero,0x0
     91c:	0300342c 	0x300342c
     920:	3b0b3a0e 	xori	t3,t8,0x3a0e
     924:	02134905 	0x2134905
     928:	2d000018 	sltiu	zero,t0,24
     92c:	08030034 	j	c00d0 <__memory_size+0xa08d0>
     930:	053b0b3a 	0x53b0b3a
     934:	00001349 	0x1349
     938:	0300342e 	0x300342e
     93c:	3b0b3a08 	xori	t3,t8,0x3a08
     940:	02134905 	0x2134905
     944:	2f000018 	sltiu	zero,t8,24
     948:	1331011d 	beq	t9,s1,dc0 <__isr_vec_space+0xda0>
     94c:	17550152 	bne	k0,s5,e98 <__isr_vec_space+0xe78>
     950:	05590b58 	0x5590b58
     954:	34300000 	ori	s0,at,0x0
     958:	3a0e0300 	xori	t6,s0,0x300
     95c:	490b3b0b 	bc2tl	$cc2,f58c <__isr_vec_space+0xf56c>
     960:	3c193f13 	lui	t9,0x3f13
     964:	31000019 	andi	zero,t0,0x19
     968:	0e030034 	jal	80c00d0 <__memory_size+0x80a08d0>
     96c:	0b3b0b3a 	j	cec2ce8 <__memory_size+0xcea34e8>
     970:	193f1349 	0x193f1349
     974:	00001802 	srl	v1,zero,0x0
     978:	49010132 	bc2t	e44 <__isr_vec_space+0xe24>
     97c:	00130113 	0x130113
     980:	00213300 	0x213300
     984:	0b2f1349 	j	cbc4d24 <__memory_size+0xcba5524>
     988:	01000000 	0x1000000
     98c:	0e250111 	jal	8940444 <__memory_size+0x8920c44>
     990:	0e030b13 	jal	80c2c4c <__memory_size+0x80a344c>
     994:	01110e1b 	0x1110e1b
     998:	17100612 	bne	t8,s0,21e4 <__isr_vec_space+0x21c4>
     99c:	24020000 	li	v0,0
     9a0:	3e0b0b00 	0x3e0b0b00
     9a4:	000e030b 	0xe030b
     9a8:	00240300 	0x240300
     9ac:	0b3e0b0b 	j	cf82c2c <__memory_size+0xcf6342c>
     9b0:	00000803 	sra	at,zero,0x0
     9b4:	03001604 	0x3001604
     9b8:	3b0b3a0e 	xori	t3,t8,0x3a0e
     9bc:	0013490b 	0x13490b
     9c0:	000f0500 	sll	zero,t7,0x14
     9c4:	00000b0b 	0xb0b
     9c8:	03010406 	0x3010406
     9cc:	3a0b0b0e 	xori	t3,s0,0xb0e
     9d0:	010b3b0b 	0x10b3b0b
     9d4:	07000013 	bltz	t8,a24 <__isr_vec_space+0xa04>
     9d8:	0e030028 	jal	80c00a0 <__memory_size+0x80a08a0>
     9dc:	00000d1c 	0xd1c
     9e0:	3f012e08 	0x3f012e08
     9e4:	3a0e0319 	xori	t6,s0,0x319
     9e8:	270b3b0b 	addiu	t3,t8,15115
     9ec:	20134919 	addi	s3,zero,18713
     9f0:	0013010b 	0x13010b
     9f4:	00050900 	sll	at,a1,0x4
     9f8:	0b3a0e03 	j	ce8380c <__memory_size+0xce6400c>
     9fc:	13490b3b 	beq	k0,t1,36ec <__isr_vec_space+0x36cc>
     a00:	2e0a0000 	sltiu	t2,s0,0
     a04:	11133101 	beq	t0,s3,ce0c <__isr_vec_space+0xcdec>
     a08:	40061201 	0x40061201
     a0c:	19429718 	0x19429718
     a10:	00001301 	0x1301
     a14:	3100050b 	andi	zero,t0,0x50b
     a18:	00180213 	0x180213
     a1c:	012e0c00 	0x12e0c00
     a20:	0e03193f 	jal	80c64fc <__memory_size+0x80a6cfc>
     a24:	0b3b0b3a 	j	cec2ce8 <__memory_size+0xcea34e8>
     a28:	01111927 	0x1111927
     a2c:	18400612 	blez	v0,2278 <__isr_vec_space+0x2258>
     a30:	01194297 	0x1194297
     a34:	0d000013 	jal	400004c <__memory_size+0x3fe084c>
     a38:	00018289 	0x18289
     a3c:	13310111 	beq	t9,s1,e84 <__isr_vec_space+0xe64>
     a40:	2e0e0000 	sltiu	t6,s0,0
     a44:	03193f01 	0x3193f01
     a48:	3b0b3a0e 	xori	t3,t8,0x3a0e
     a4c:	4919270b 	bc2t	$cc6,a67c <__isr_vec_space+0xa65c>
     a50:	12011113 	beq	s0,at,4ea0 <__isr_vec_space+0x4e80>
     a54:	97184006 	lhu	t8,16390(t8)
     a58:	13011942 	beq	t8,at,6f64 <__isr_vec_space+0x6f44>
     a5c:	050f0000 	0x50f0000
     a60:	3a080300 	xori	t0,s0,0x300
     a64:	490b3b0b 	bc2tl	$cc2,f694 <__isr_vec_space+0xf674>
     a68:	00170213 	0x170213
     a6c:	00051000 	sll	v0,a1,0x0
     a70:	0b3a0e03 	j	ce8380c <__memory_size+0xce6400c>
     a74:	13490b3b 	beq	k0,t1,3764 <__isr_vec_space+0x3744>
     a78:	00001702 	srl	v0,zero,0x1c
     a7c:	55010b11 	bnel	t0,at,36c4 <__isr_vec_space+0x36a4>
     a80:	00130117 	0x130117
     a84:	00341200 	0x341200
     a88:	0b3a0e03 	j	ce8380c <__memory_size+0xce6400c>
     a8c:	13490b3b 	beq	k0,t1,377c <__isr_vec_space+0x375c>
     a90:	00001702 	srl	v0,zero,0x1c
     a94:	03003413 	0x3003413
     a98:	3b0b3a08 	xori	t3,t8,0x3a08
     a9c:	0213490b 	0x213490b
     aa0:	14000017 	bnez	zero,b00 <__isr_vec_space+0xae0>
     aa4:	01018289 	0x1018289
     aa8:	13310111 	beq	t9,s1,ef0 <__isr_vec_space+0xed0>
     aac:	00001301 	0x1301
     ab0:	01828a15 	0x1828a15
     ab4:	91180200 	lbu	t8,512(t0)
     ab8:	00001842 	srl	v1,zero,0x1
     abc:	01828916 	0x1828916
     ac0:	31011101 	andi	at,t0,0x1101
     ac4:	17000013 	bnez	t8,b14 <__isr_vec_space+0xaf4>
     ac8:	0111010b 	0x111010b
     acc:	00000612 	0x612
     ad0:	11010b18 	beq	t0,at,3734 <__isr_vec_space+0x3714>
     ad4:	01061201 	0x1061201
     ad8:	19000013 	blez	t0,b28 <__isr_vec_space+0xb08>
     adc:	0e030034 	jal	80c00d0 <__memory_size+0x80a08d0>
     ae0:	0b3b0b3a 	j	cec2ce8 <__memory_size+0xcea34e8>
     ae4:	193f1349 	0x193f1349
     ae8:	00001802 	srl	v1,zero,0x0
     aec:	0b000f1a 	j	c003c68 <__memory_size+0xbfe4468>
     af0:	0013490b 	0x13490b
     af4:	01011b00 	0x1011b00
     af8:	13011349 	beq	t8,at,5820 <__isr_vec_space+0x5800>
     afc:	211c0000 	addi	gp,t0,0
     b00:	2f134900 	sltiu	s3,t8,18688
     b04:	1d00000b 	bgtz	t0,b34 <__isr_vec_space+0xb14>
     b08:	08030034 	j	c00d0 <__memory_size+0xa08d0>
     b0c:	0b3b0b3a 	j	cec2ce8 <__memory_size+0xcea34e8>
     b10:	193f1349 	0x193f1349
     b14:	00001802 	srl	v1,zero,0x0
     b18:	3f012e1e 	0x3f012e1e
     b1c:	3a0e0319 	xori	t6,s0,0x319
     b20:	3c0b3b0b 	lui	t3,0x3b0b
     b24:	00130119 	0x130119
     b28:	00181f00 	sll	v1,t8,0x1c
     b2c:	2e200000 	sltiu	zero,s1,0
     b30:	03193f00 	0x3193f00
     b34:	3b0b3a0e 	xori	t3,t8,0x3a0e
     b38:	3c19270b 	lui	t9,0x270b
     b3c:	21000019 	addi	zero,t0,25
     b40:	193f012e 	0x193f012e
     b44:	0b3a0e03 	j	ce8380c <__memory_size+0xce6400c>
     b48:	13490b3b 	beq	k0,t1,3838 <__isr_vec_space+0x3818>
     b4c:	1301193c 	beq	t8,at,7040 <__isr_vec_space+0x7020>
     b50:	2e220000 	sltiu	v0,s1,0
     b54:	03193f01 	0x3193f01
     b58:	3b0b3a0e 	xori	t3,t8,0x3a0e
     b5c:	4919270b 	bc2t	$cc6,a78c <__isr_vec_space+0xa76c>
     b60:	01193c13 	0x1193c13
     b64:	23000013 	addi	zero,t8,19
     b68:	13490005 	beq	k0,t1,b80 <__isr_vec_space+0xb60>
     b6c:	2e240000 	sltiu	a0,s1,0
     b70:	03193f00 	0x3193f00
     b74:	3b0b3a0e 	xori	t3,t8,0x3a0e
     b78:	4919270b 	bc2t	$cc6,a7a8 <__isr_vec_space+0xa788>
     b7c:	00193c13 	0x193c13
     b80:	012e2500 	0x12e2500
     b84:	0e03193f 	jal	80c64fc <__memory_size+0x80a6cfc>
     b88:	0b3b0b3a 	j	cec2ce8 <__memory_size+0xcea34e8>
     b8c:	193c1927 	0x193c1927
     b90:	00001301 	0x1301
     b94:	3f012e26 	0x3f012e26
     b98:	3a0e0319 	xori	t6,s0,0x319
     b9c:	270b3b0b 	addiu	t3,t8,15115
     ba0:	00193c19 	0x193c19
     ba4:	11010000 	beq	t0,at,ba8 <__isr_vec_space+0xb88>
     ba8:	130e2501 	beq	t8,t6,9fb0 <__isr_vec_space+0x9f90>
     bac:	1b0e030b 	0x1b0e030b
     bb0:	1201110e 	beq	s0,at,4fec <__isr_vec_space+0x4fcc>
     bb4:	00171006 	srlv	v0,s7,zero
     bb8:	00240200 	0x240200
     bbc:	0b3e0b0b 	j	cf82c2c <__memory_size+0xcf6342c>
     bc0:	00000e03 	sra	at,zero,0x18
     bc4:	0b002403 	j	c00900c <__memory_size+0xbfe980c>
     bc8:	030b3e0b 	0x30b3e0b
     bcc:	04000008 	bltz	zero,bf0 <__isr_vec_space+0xbd0>
     bd0:	0e030016 	jal	80c0058 <__memory_size+0x80a0858>
     bd4:	0b3b0b3a 	j	cec2ce8 <__memory_size+0xcea34e8>
     bd8:	00001349 	0x1349
     bdc:	0b000f05 	j	c003c14 <__memory_size+0xbfe4414>
     be0:	0600000b 	bltz	s0,c10 <__isr_vec_space+0xbf0>
     be4:	193f012e 	0x193f012e
     be8:	0b3a0e03 	j	ce8380c <__memory_size+0xce6400c>
     bec:	13490b3b 	beq	k0,t1,38dc <__isr_vec_space+0x38bc>
     bf0:	06120111 	bltzall	s0,1038 <__isr_vec_space+0x1018>
     bf4:	42971840 	c0	0x971840
     bf8:	00130119 	0x130119
     bfc:	00340700 	0x340700
     c00:	0b3a0e03 	j	ce8380c <__memory_size+0xce6400c>
     c04:	13490b3b 	beq	k0,t1,38f4 <__isr_vec_space+0x38d4>
     c08:	34080000 	li	t0,0x0
     c0c:	3a0e0300 	xori	t6,s0,0x300
     c10:	490b3b0b 	bc2tl	$cc2,f840 <__isr_vec_space+0xf820>
     c14:	00180213 	0x180213
     c18:	00340900 	0x340900
     c1c:	0b3a0803 	j	ce8200c <__memory_size+0xce6280c>
     c20:	13490b3b 	beq	k0,t1,3910 <__isr_vec_space+0x38f0>
     c24:	00001702 	srl	v0,zero,0x1c
     c28:	0182890a 	0x182890a
     c2c:	31011100 	andi	at,t0,0x1100
     c30:	0b000013 	j	c00004c <__memory_size+0xbfe084c>
     c34:	01018289 	0x1018289
     c38:	13310111 	beq	t9,s1,1080 <__isr_vec_space+0x1060>
     c3c:	00001301 	0x1301
     c40:	01828a0c 	syscall	0x60a28
     c44:	91180200 	lbu	t8,512(t0)
     c48:	00001842 	srl	v1,zero,0x1
     c4c:	0182890d 	break	0x182,0x224
     c50:	31011101 	andi	at,t0,0x1101
     c54:	0e000013 	jal	800004c <__memory_size+0x7fe084c>
     c58:	13490101 	beq	k0,t1,1060 <__isr_vec_space+0x1040>
     c5c:	00001301 	0x1301
     c60:	4900210f 	bc2f	90a0 <__isr_vec_space+0x9080>
     c64:	000b2f13 	0xb2f13
     c68:	000f1000 	sll	v0,t7,0x0
     c6c:	13490b0b 	beq	k0,t1,389c <__isr_vec_space+0x387c>
     c70:	34110000 	li	s1,0x0
     c74:	3a0e0300 	xori	t6,s0,0x300
     c78:	490b3b0b 	bc2tl	$cc2,f8a8 <__isr_vec_space+0xf888>
     c7c:	00170213 	0x170213
     c80:	002e1200 	0x2e1200
     c84:	0e03193f 	jal	80c64fc <__memory_size+0x80a6cfc>
     c88:	0b3b0b3a 	j	cec2ce8 <__memory_size+0xcea34e8>
     c8c:	01111349 	0x1111349
     c90:	18400612 	blez	v0,24dc <__isr_vec_space+0x24bc>
     c94:	00194297 	0x194297
     c98:	002e1300 	0x2e1300
     c9c:	0e03193f 	jal	80c64fc <__memory_size+0x80a6cfc>
     ca0:	0b3b0b3a 	j	cec2ce8 <__memory_size+0xcea34e8>
     ca4:	06120111 	bltzall	s0,10ec <__isr_vec_space+0x10cc>
     ca8:	42971840 	c0	0x971840
     cac:	14000019 	bnez	zero,d14 <__isr_vec_space+0xcf4>
     cb0:	0e030034 	jal	80c00d0 <__memory_size+0x80a08d0>
     cb4:	0b3b0b3a 	j	cec2ce8 <__memory_size+0xcea34e8>
     cb8:	193f1349 	0x193f1349
     cbc:	00001802 	srl	v1,zero,0x0
     cc0:	03003415 	0x3003415
     cc4:	3b0b3a08 	xori	t3,t8,0x3a08
     cc8:	3f13490b 	0x3f13490b
     ccc:	00180219 	0x180219
     cd0:	012e1600 	0x12e1600
     cd4:	0e03193f 	jal	80c64fc <__memory_size+0x80a6cfc>
     cd8:	0b3b0b3a 	j	cec2ce8 <__memory_size+0xcea34e8>
     cdc:	13491927 	beq	k0,t1,717c <__isr_vec_space+0x715c>
     ce0:	1301193c 	beq	t8,at,71d4 <__isr_vec_space+0x71b4>
     ce4:	05170000 	0x5170000
     ce8:	00134900 	sll	t1,s3,0x4
     cec:	012e1800 	0x12e1800
     cf0:	0e03193f 	jal	80c64fc <__memory_size+0x80a6cfc>
     cf4:	0b3b0b3a 	j	cec2ce8 <__memory_size+0xcea34e8>
     cf8:	193c1927 	0x193c1927
     cfc:	00001301 	0x1301
     d00:	3f012e19 	0x3f012e19
     d04:	3a0e0319 	xori	t6,s0,0x319
     d08:	270b3b0b 	addiu	t3,t8,15115
     d0c:	00193c19 	0x193c19
     d10:	11010000 	beq	t0,at,d14 <__isr_vec_space+0xcf4>
     d14:	130e2501 	beq	t8,t6,a11c <__isr_vec_space+0xa0fc>
     d18:	1b0e030b 	0x1b0e030b
     d1c:	1201110e 	beq	s0,at,5158 <__isr_vec_space+0x5138>
     d20:	00171006 	srlv	v0,s7,zero
     d24:	00240200 	0x240200
     d28:	0b3e0b0b 	j	cf82c2c <__memory_size+0xcf6342c>
     d2c:	00000e03 	sra	at,zero,0x18
     d30:	03001603 	0x3001603
     d34:	3b0b3a0e 	xori	t3,t8,0x3a0e
     d38:	0013490b 	0x13490b
     d3c:	00160400 	sll	zero,s6,0x10
     d40:	0b3a0e03 	j	ce8380c <__memory_size+0xce6400c>
     d44:	1349053b 	beq	k0,t1,2234 <__isr_vec_space+0x2214>
     d48:	24050000 	li	a1,0
     d4c:	3e0b0b00 	0x3e0b0b00
     d50:	0008030b 	0x8030b
     d54:	01130600 	0x1130600
     d58:	0b3a0b0b 	j	ce82c2c <__memory_size+0xce6342c>
     d5c:	13010b3b 	beq	t8,at,3a4c <__isr_vec_space+0x3a2c>
     d60:	0d070000 	jal	41c0000 <__memory_size+0x41a0800>
     d64:	3a080300 	xori	t0,s0,0x300
     d68:	490b3b0b 	bc2tl	$cc2,f998 <__isr_vec_space+0xf978>
     d6c:	000b3813 	0xb3813
     d70:	01010800 	0x1010800
     d74:	13011349 	beq	t8,at,5a9c <__isr_vec_space+0x5a7c>
     d78:	21090000 	addi	t1,t0,0
     d7c:	2f134900 	sltiu	s3,t8,18688
     d80:	0a00000b 	j	800002c <__memory_size+0x7fe082c>
     d84:	0b0b0117 	j	c2c045c <__memory_size+0xc2a0c5c>
     d88:	0b3b0b3a 	j	cec2ce8 <__memory_size+0xcea34e8>
     d8c:	00001301 	0x1301
     d90:	49000d0b 	bc2f	41c0 <__isr_vec_space+0x41a0>
     d94:	0c000013 	jal	4c <__isr_vec_space+0x2c>
     d98:	0803000d 	j	c0034 <__memory_size+0xa0834>
     d9c:	0b3b0b3a 	j	cec2ce8 <__memory_size+0xcea34e8>
     da0:	00001349 	0x1349
     da4:	0301130d 	break	0x301,0x4c
     da8:	3a0b0b0e 	xori	t3,s0,0xb0e
     dac:	010b3b0b 	0x10b3b0b
     db0:	0e000013 	jal	800004c <__memory_size+0x7fe084c>
     db4:	1349000d 	beq	k0,t1,dec <__isr_vec_space+0xdcc>
     db8:	00000b38 	0xb38
     dbc:	03000d0f 	0x3000d0f
     dc0:	3b0b3a08 	xori	t3,t8,0x3a08
     dc4:	38134905 	xori	s3,zero,0x4905
     dc8:	1000000b 	b	df8 <__isr_vec_space+0xdd8>
     dcc:	0e03000d 	jal	80c0034 <__memory_size+0x80a0834>
     dd0:	053b0b3a 	0x53b0b3a
     dd4:	0b381349 	j	ce04d24 <__memory_size+0xcde5524>
     dd8:	13110000 	beq	t8,s1,ddc <__isr_vec_space+0xdbc>
     ddc:	0b0e0301 	j	c380c04 <__memory_size+0xc361404>
     de0:	3b0b3a0b 	xori	t3,t8,0x3a0b
     de4:	00130105 	0x130105
     de8:	000f1200 	sll	v0,t7,0x8
     dec:	13490b0b 	beq	k0,t1,3a1c <__isr_vec_space+0x39fc>
     df0:	0f130000 	jal	c4c0000 <__memory_size+0xc4a0800>
     df4:	000b0b00 	sll	at,t3,0xc
     df8:	01041400 	0x1041400
     dfc:	0b0b0e03 	j	c2c380c <__memory_size+0xc2a400c>
     e00:	0b3b0b3a 	j	cec2ce8 <__memory_size+0xcea34e8>
     e04:	00001301 	0x1301
     e08:	03002815 	0x3002815
     e0c:	000d1c0e 	0xd1c0e
     e10:	000d1600 	sll	v0,t5,0x18
     e14:	0b3a0e03 	j	ce8380c <__memory_size+0xce6400c>
     e18:	13490b3b 	beq	k0,t1,3b08 <__isr_vec_space+0x3ae8>
     e1c:	00000b38 	0xb38
     e20:	49003517 	bc2f	e280 <__isr_vec_space+0xe260>
     e24:	18000013 	blez	zero,e74 <__isr_vec_space+0xe54>
     e28:	0e030013 	jal	80c004c <__memory_size+0x80a084c>
     e2c:	0000193c 	0x193c
     e30:	3f012e19 	0x3f012e19
     e34:	3a0e0319 	xori	t6,s0,0x319
     e38:	110b3b0b 	beq	t0,t3,fa68 <__isr_vec_space+0xfa48>
     e3c:	40061201 	0x40061201
     e40:	19429718 	0x19429718
     e44:	00001301 	0x1301
     e48:	0300341a 	0x300341a
     e4c:	3b0b3a08 	xori	t3,t8,0x3a08
     e50:	0213490b 	0x213490b
     e54:	1b000017 	blez	t8,eb4 <__isr_vec_space+0xe94>
     e58:	0111010b 	0x111010b
     e5c:	13010612 	beq	t8,at,26a8 <__isr_vec_space+0x2688>
     e60:	341c0000 	li	gp,0x0
     e64:	3a0e0300 	xori	t6,s0,0x300
     e68:	490b3b0b 	bc2tl	$cc2,fa98 <__isr_vec_space+0xfa78>
     e6c:	00170213 	0x170213
     e70:	82891d00 	lb	t1,7424(s4)
     e74:	01110001 	movt	zero,t0,$fcc4
     e78:	00001331 	tgeu	zero,zero,0x4c
     e7c:	0300341e 	0x300341e
     e80:	3b0b3a0e 	xori	t3,t8,0x3a0e
     e84:	0013490b 	0x13490b
     e88:	82891f00 	lb	t1,7936(s4)
     e8c:	01110101 	0x1110101
     e90:	00001331 	tgeu	zero,zero,0x4c
     e94:	01828a20 	0x1828a20
     e98:	91180200 	lbu	t8,512(t0)
     e9c:	00001842 	srl	v1,zero,0x1
     ea0:	3f012e21 	0x3f012e21
     ea4:	3a0e0319 	xori	t6,s0,0x319
     ea8:	490b3b0b 	bc2tl	$cc2,fad8 <__isr_vec_space+0xfab8>
     eac:	12011113 	beq	s0,at,52fc <__isr_vec_space+0x52dc>
     eb0:	97184006 	lhu	t8,16390(t8)
     eb4:	13011942 	beq	t8,at,73c0 <__isr_vec_space+0x73a0>
     eb8:	2e220000 	sltiu	v0,s1,0
     ebc:	03193f01 	0x3193f01
     ec0:	3b0b3a0e 	xori	t3,t8,0x3a0e
     ec4:	3c13490b 	lui	s3,0x490b
     ec8:	00130119 	0x130119
     ecc:	00182300 	sll	a0,t8,0xc
     ed0:	2e240000 	sltiu	a0,s1,0
     ed4:	03193f01 	0x3193f01
     ed8:	3b0b3a0e 	xori	t3,t8,0x3a0e
     edc:	11192705 	beq	t0,t9,aaf4 <__isr_vec_space+0xaad4>
     ee0:	40061201 	0x40061201
     ee4:	19429718 	0x19429718
     ee8:	00001301 	0x1301
     eec:	03000525 	0x3000525
     ef0:	3b0b3a08 	xori	t3,t8,0x3a08
     ef4:	0213490b 	0x213490b
     ef8:	26000017 	addiu	zero,s0,23
     efc:	0e030005 	jal	80c0014 <__memory_size+0x80a0814>
     f00:	0b3b0b3a 	j	cec2ce8 <__memory_size+0xcea34e8>
     f04:	17021349 	bne	t8,v0,5c2c <__isr_vec_space+0x5c0c>
     f08:	0b270000 	j	c9c0000 <__memory_size+0xc9a0800>
     f0c:	12011101 	beq	s0,at,5314 <__isr_vec_space+0x52f4>
     f10:	28000006 	slti	zero,zero,6
     f14:	08030034 	j	c00d0 <__memory_size+0xa08d0>
     f18:	0b3b0b3a 	j	cec2ce8 <__memory_size+0xcea34e8>
     f1c:	00001349 	0x1349
     f20:	01828929 	0x1828929
     f24:	31011101 	andi	at,t0,0x1101
     f28:	00130113 	0x130113
     f2c:	00342a00 	0x342a00
     f30:	0b3a0e03 	j	ce8380c <__memory_size+0xce6400c>
     f34:	13490b3b 	beq	k0,t1,3c24 <__isr_vec_space+0x3c04>
     f38:	1802193f 	0x1802193f
     f3c:	2e2b0000 	sltiu	t3,s1,0
     f40:	03193f01 	0x3193f01
     f44:	3b0b3a0e 	xori	t3,t8,0x3a0e
     f48:	3c19270b 	lui	t9,0x270b
     f4c:	00130119 	0x130119
     f50:	00052c00 	sll	a1,a1,0x10
     f54:	00001349 	0x1349
     f58:	3f012e2d 	0x3f012e2d
     f5c:	3a0e0319 	xori	t6,s0,0x319
     f60:	3c0b3b0b 	lui	t3,0x3b0b
     f64:	00130119 	0x130119
     f68:	002e2e00 	0x2e2e00
     f6c:	0e03193f 	jal	80c64fc <__memory_size+0x80a6cfc>
     f70:	0b3b0b3a 	j	cec2ce8 <__memory_size+0xcea34e8>
     f74:	193c1927 	0x193c1927
     f78:	2e2f0000 	sltiu	t7,s1,0
     f7c:	03193f01 	0x3193f01
     f80:	3b0b3a0e 	xori	t3,t8,0x3a0e
     f84:	4919270b 	bc2t	$cc6,abb4 <__isr_vec_space+0xab94>
     f88:	01193c13 	0x1193c13
     f8c:	30000013 	andi	zero,zero,0x13
     f90:	193f012e 	0x193f012e
     f94:	0b3a0e03 	j	ce8380c <__memory_size+0xce6400c>
     f98:	1927053b 	0x1927053b
     f9c:	0000193c 	0x193c
     fa0:	01110100 	0x1110100
     fa4:	0b130e25 	j	c4c3894 <__memory_size+0xc4a4094>
     fa8:	01110e03 	0x1110e03
     fac:	17100612 	bne	t8,s0,27f8 <__isr_vec_space+0x27d8>
     fb0:	24020000 	li	v0,0
     fb4:	3e0b0b00 	0x3e0b0b00
     fb8:	000e030b 	0xe030b
     fbc:	00240300 	0x240300
     fc0:	0b3e0b0b 	j	cf82c2c <__memory_size+0xcf6342c>
     fc4:	00000803 	sra	at,zero,0x0
     fc8:	0b000f04 	j	c003c10 <__memory_size+0xbfe4410>
     fcc:	0500000b 	bltz	t0,ffc <__isr_vec_space+0xfdc>
     fd0:	0b0b000f 	j	c2c003c <__memory_size+0xc2a083c>
     fd4:	00001349 	0x1349
     fd8:	27001506 	addiu	zero,t8,5382
     fdc:	07000019 	bltz	t8,1044 <__isr_vec_space+0x1024>
     fe0:	0e030104 	jal	80c0410 <__memory_size+0x80a0c10>
     fe4:	0b3a0b0b 	j	ce82c2c <__memory_size+0xce6342c>
     fe8:	13010b3b 	beq	t8,at,3cd8 <__isr_vec_space+0x3cb8>
     fec:	28080000 	slti	t0,zero,0
     ff0:	1c0e0300 	0x1c0e0300
     ff4:	0900000d 	j	4000034 <__memory_size+0x3fe0834>
     ff8:	193f012e 	0x193f012e
     ffc:	0b3a0e03 	j	ce8380c <__memory_size+0xce6400c>
    1000:	19270b3b 	0x19270b3b
    1004:	01111349 	0x1111349
    1008:	18400612 	blez	v0,2854 <__isr_vec_space+0x2834>
    100c:	01194297 	0x1194297
    1010:	0a000013 	j	800004c <__memory_size+0x7fe084c>
    1014:	08030005 	j	c0014 <__memory_size+0xa0814>
    1018:	0b3b0b3a 	j	cec2ce8 <__memory_size+0xcea34e8>
    101c:	17021349 	bne	t8,v0,5d44 <__isr_vec_space+0x5d24>
    1020:	890b0000 	lwl	t3,0(t0)
    1024:	11010182 	beq	t0,at,1630 <__isr_vec_space+0x1610>
    1028:	00133101 	0x133101
    102c:	828a0c00 	lb	t2,3072(s4)
    1030:	18020001 	0x18020001
    1034:	00184291 	0x184291
    1038:	012e0d00 	0x12e0d00
    103c:	0e03193f 	jal	80c64fc <__memory_size+0x80a6cfc>
    1040:	0b3b0b3a 	j	cec2ce8 <__memory_size+0xcea34e8>
    1044:	13491927 	beq	k0,t1,74e4 <__isr_vec_space+0x74c4>
    1048:	0000193c 	0x193c
    104c:	4900050e 	bc2f	2488 <__isr_vec_space+0x2468>
    1050:	00000013 	mtlo	zero
    1054:	25011101 	addiu	at,t0,4353
    1058:	030b130e 	0x30b130e
    105c:	1201110e 	beq	s0,at,5498 <__isr_vec_space+0x5478>
    1060:	00171006 	srlv	v0,s7,zero
    1064:	00240200 	0x240200
    1068:	0b3e0b0b 	j	cf82c2c <__memory_size+0xcf6342c>
    106c:	00000e03 	sra	at,zero,0x18
    1070:	0b002403 	j	c00900c <__memory_size+0xbfe980c>
    1074:	030b3e0b 	0x30b3e0b
    1078:	04000008 	bltz	zero,109c <__isr_vec_space+0x107c>
    107c:	0e030016 	jal	80c0058 <__memory_size+0x80a0858>
    1080:	0b3b0b3a 	j	cec2ce8 <__memory_size+0xcea34e8>
    1084:	00001349 	0x1349
    1088:	03001605 	0x3001605
    108c:	3b0b3a0e 	xori	t3,t8,0x3a0e
    1090:	00134905 	0x134905
    1094:	01170600 	0x1170600
    1098:	0b3a0b0b 	j	ce82c2c <__memory_size+0xce6342c>
    109c:	13010b3b 	beq	t8,at,3d8c <__isr_vec_space+0x3d6c>
    10a0:	0d070000 	jal	41c0000 <__memory_size+0x41a0800>
    10a4:	3a0e0300 	xori	t6,s0,0x300
    10a8:	490b3b0b 	bc2tl	$cc2,fcd8 <__isr_vec_space+0xfcb8>
    10ac:	08000013 	j	4c <__isr_vec_space+0x2c>
    10b0:	13490101 	beq	k0,t1,14b8 <__isr_vec_space+0x1498>
    10b4:	00001301 	0x1301
    10b8:	49002109 	bc2f	94e0 <__isr_vec_space+0x94c0>
    10bc:	000b2f13 	0xb2f13
    10c0:	01130a00 	0x1130a00
    10c4:	0b3a0b0b 	j	ce82c2c <__memory_size+0xce6342c>
    10c8:	13010b3b 	beq	t8,at,3db8 <__isr_vec_space+0x3d98>
    10cc:	0d0b0000 	jal	42c0000 <__memory_size+0x42a0800>
    10d0:	3a0e0300 	xori	t6,s0,0x300
    10d4:	490b3b0b 	bc2tl	$cc2,fd04 <__isr_vec_space+0xfce4>
    10d8:	000b3813 	0xb3813
    10dc:	000f0c00 	sll	at,t7,0x10
    10e0:	00000b0b 	0xb0b
    10e4:	0301130d 	break	0x301,0x4c
    10e8:	3a0b0b0e 	xori	t3,s0,0xb0e
    10ec:	010b3b0b 	0x10b3b0b
    10f0:	0e000013 	jal	800004c <__memory_size+0x7fe084c>
    10f4:	0803000d 	j	c0034 <__memory_size+0xa0834>
    10f8:	0b3b0b3a 	j	cec2ce8 <__memory_size+0xcea34e8>
    10fc:	0b381349 	j	ce04d24 <__memory_size+0xcde5524>
    1100:	0f0f0000 	jal	c3c0000 <__memory_size+0xc3a0800>
    1104:	490b0b00 	bc2tl	$cc2,3d08 <__isr_vec_space+0x3ce8>
    1108:	10000013 	b	1158 <__isr_vec_space+0x1138>
    110c:	0e030113 	jal	80c044c <__memory_size+0x80a0c4c>
    1110:	0b3a050b 	j	ce8142c <__memory_size+0xce61c2c>
    1114:	13010b3b 	beq	t8,at,3e04 <__isr_vec_space+0x3de4>
    1118:	0d110000 	jal	4440000 <__memory_size+0x4420800>
    111c:	3a0e0300 	xori	t6,s0,0x300
    1120:	490b3b0b 	bc2tl	$cc2,fd50 <__isr_vec_space+0xfd30>
    1124:	00053813 	0x53813
    1128:	00151200 	sll	v0,s5,0x8
    112c:	00001927 	0x1927
    1130:	27011513 	addiu	at,t8,5395
    1134:	01134919 	0x1134919
    1138:	14000013 	bnez	zero,1188 <__isr_vec_space+0x1168>
    113c:	13490005 	beq	k0,t1,1154 <__isr_vec_space+0x1134>
    1140:	13150000 	beq	t8,s5,1144 <__isr_vec_space+0x1124>
    1144:	0b0e0301 	j	c380c04 <__memory_size+0xc361404>
    1148:	3b0b3a05 	xori	t3,t8,0x3a05
    114c:	00130105 	0x130105
    1150:	000d1600 	sll	v0,t5,0x18
    1154:	0b3a0e03 	j	ce8380c <__memory_size+0xce6400c>
    1158:	1349053b 	beq	k0,t1,2648 <__isr_vec_space+0x2628>
    115c:	00000b38 	0xb38
    1160:	03000d17 	0x3000d17
    1164:	3b0b3a0e 	xori	t3,t8,0x3a0e
    1168:	38134905 	xori	s3,zero,0x4905
    116c:	18000005 	blez	zero,1184 <__isr_vec_space+0x1164>
    1170:	13490026 	beq	k0,t1,120c <__isr_vec_space+0x11ec>
    1174:	13190000 	beq	t8,t9,1178 <__isr_vec_space+0x1158>
    1178:	0b0e0301 	j	c380c04 <__memory_size+0xc361404>
    117c:	3b0b3a0b 	xori	t3,t8,0x3a0b
    1180:	00130105 	0x130105
    1184:	01131a00 	0x1131a00
    1188:	0b3a0b0b 	j	ce82c2c <__memory_size+0xce6342c>
    118c:	1301053b 	beq	t8,at,267c <__isr_vec_space+0x265c>
    1190:	171b0000 	bne	t8,k1,1194 <__isr_vec_space+0x1174>
    1194:	3a0b0b01 	xori	t3,s0,0xb01
    1198:	01053b0b 	0x1053b0b
    119c:	1c000013 	bgtz	zero,11ec <__isr_vec_space+0x11cc>
    11a0:	0e03000d 	jal	80c0034 <__memory_size+0x80a0834>
    11a4:	053b0b3a 	0x53b0b3a
    11a8:	00001349 	0x1349
    11ac:	2701151d 	addiu	at,t8,5405
    11b0:	00130119 	0x130119
    11b4:	012e1e00 	0x12e1e00
    11b8:	0e03193f 	jal	80c64fc <__memory_size+0x80a6cfc>
    11bc:	0b3b0b3a 	j	cec2ce8 <__memory_size+0xcea34e8>
    11c0:	01111927 	0x1111927
    11c4:	18400612 	blez	v0,2a10 <__isr_vec_space+0x29f0>
    11c8:	01194296 	0x1194296
    11cc:	1f000013 	bgtz	t8,121c <__isr_vec_space+0x11fc>
    11d0:	0e030005 	jal	80c0014 <__memory_size+0x80a0814>
    11d4:	0b3b0b3a 	j	cec2ce8 <__memory_size+0xcea34e8>
    11d8:	17021349 	bne	t8,v0,5f00 <__isr_vec_space+0x5ee0>
    11dc:	89200000 	lwl	zero,0(t1)
    11e0:	11010182 	beq	t0,at,17ec <__isr_vec_space+0x17cc>
    11e4:	01133101 	0x1133101
    11e8:	21000013 	addi	zero,t0,19
    11ec:	0001828a 	0x1828a
    11f0:	42911802 	c0	0x911802
    11f4:	22000018 	addi	zero,s0,24
    11f8:	01018289 	0x1018289
    11fc:	13310111 	beq	t9,s1,1644 <__isr_vec_space+0x1624>
    1200:	34230000 	ori	v1,at,0x0
    1204:	3a0e0300 	xori	t6,s0,0x300
    1208:	49053b0b 	bc2t	$cc1,fe38 <__isr_vec_space+0xfe18>
    120c:	3c193f13 	lui	t9,0x3f13
    1210:	24000019 	li	zero,25
    1214:	193f012e 	0x193f012e
    1218:	0b3a0e03 	j	ce8380c <__memory_size+0xce6400c>
    121c:	19270b3b 	0x19270b3b
    1220:	1301193c 	beq	t8,at,7714 <__isr_vec_space+0x76f4>
    1224:	2e250000 	sltiu	a1,s1,0
    1228:	03193f01 	0x3193f01
    122c:	3b0b3a0e 	xori	t3,t8,0x3a0e
    1230:	3c19270b 	lui	t9,0x270b
    1234:	00000019 	multu	zero,zero
    1238:	25011101 	addiu	at,t0,4353
    123c:	030b130e 	0x30b130e
    1240:	0017100e 	0x17100e
    1244:	00240200 	0x240200
    1248:	0b3e0b0b 	j	cf82c2c <__memory_size+0xcf6342c>
    124c:	00000e03 	sra	at,zero,0x18
    1250:	0b002403 	j	c00900c <__memory_size+0xbfe980c>
    1254:	030b3e0b 	0x30b3e0b
    1258:	04000008 	bltz	zero,127c <__isr_vec_space+0x125c>
    125c:	0e030016 	jal	80c0058 <__memory_size+0x80a0858>
    1260:	0b3b0b3a 	j	cec2ce8 <__memory_size+0xcea34e8>
    1264:	00001349 	0x1349
    1268:	03001605 	0x3001605
    126c:	3b0b3a0e 	xori	t3,t8,0x3a0e
    1270:	00134905 	0x134905
    1274:	01170600 	0x1170600
    1278:	0b3a0b0b 	j	ce82c2c <__memory_size+0xce6342c>
    127c:	13010b3b 	beq	t8,at,3f6c <__isr_vec_space+0x3f4c>
    1280:	0d070000 	jal	41c0000 <__memory_size+0x41a0800>
    1284:	3a0e0300 	xori	t6,s0,0x300
    1288:	490b3b0b 	bc2tl	$cc2,feb8 <__isr_vec_space+0xfe98>
    128c:	08000013 	j	4c <__isr_vec_space+0x2c>
    1290:	13490101 	beq	k0,t1,1698 <__isr_vec_space+0x1678>
    1294:	00001301 	0x1301
    1298:	49002109 	bc2f	96c0 <__isr_vec_space+0x96a0>
    129c:	000b2f13 	0xb2f13
    12a0:	01130a00 	0x1130a00
    12a4:	0b3a0b0b 	j	ce82c2c <__memory_size+0xce6342c>
    12a8:	13010b3b 	beq	t8,at,3f98 <__isr_vec_space+0x3f78>
    12ac:	0d0b0000 	jal	42c0000 <__memory_size+0x42a0800>
    12b0:	3a0e0300 	xori	t6,s0,0x300
    12b4:	490b3b0b 	bc2tl	$cc2,fee4 <__isr_vec_space+0xfec4>
    12b8:	000b3813 	0xb3813
    12bc:	000f0c00 	sll	at,t7,0x10
    12c0:	00000b0b 	0xb0b
    12c4:	0301130d 	break	0x301,0x4c
    12c8:	3a0b0b0e 	xori	t3,s0,0xb0e
    12cc:	010b3b0b 	0x10b3b0b
    12d0:	0e000013 	jal	800004c <__memory_size+0x7fe084c>
    12d4:	0803000d 	j	c0034 <__memory_size+0xa0834>
    12d8:	0b3b0b3a 	j	cec2ce8 <__memory_size+0xcea34e8>
    12dc:	0b381349 	j	ce04d24 <__memory_size+0xcde5524>
    12e0:	0f0f0000 	jal	c3c0000 <__memory_size+0xc3a0800>
    12e4:	490b0b00 	bc2tl	$cc2,3ee8 <__isr_vec_space+0x3ec8>
    12e8:	10000013 	b	1338 <__isr_vec_space+0x1318>
    12ec:	0e030113 	jal	80c044c <__memory_size+0x80a0c4c>
    12f0:	0b3a050b 	j	ce8142c <__memory_size+0xce61c2c>
    12f4:	13010b3b 	beq	t8,at,3fe4 <__isr_vec_space+0x3fc4>
    12f8:	0d110000 	jal	4440000 <__memory_size+0x4420800>
    12fc:	3a0e0300 	xori	t6,s0,0x300
    1300:	490b3b0b 	bc2tl	$cc2,ff30 <__isr_vec_space+0xff10>
    1304:	00053813 	0x53813
    1308:	00151200 	sll	v0,s5,0x8
    130c:	00001927 	0x1927
    1310:	27011513 	addiu	at,t8,5395
    1314:	01134919 	0x1134919
    1318:	14000013 	bnez	zero,1368 <__isr_vec_space+0x1348>
    131c:	13490005 	beq	k0,t1,1334 <__isr_vec_space+0x1314>
    1320:	13150000 	beq	t8,s5,1324 <__isr_vec_space+0x1304>
    1324:	0b0e0301 	j	c380c04 <__memory_size+0xc361404>
    1328:	3b0b3a05 	xori	t3,t8,0x3a05
    132c:	00130105 	0x130105
    1330:	000d1600 	sll	v0,t5,0x18
    1334:	0b3a0e03 	j	ce8380c <__memory_size+0xce6400c>
    1338:	1349053b 	beq	k0,t1,2828 <__isr_vec_space+0x2808>
    133c:	00000b38 	0xb38
    1340:	03000d17 	0x3000d17
    1344:	3b0b3a0e 	xori	t3,t8,0x3a0e
    1348:	38134905 	xori	s3,zero,0x4905
    134c:	18000005 	blez	zero,1364 <__isr_vec_space+0x1344>
    1350:	13490026 	beq	k0,t1,13ec <__isr_vec_space+0x13cc>
    1354:	13190000 	beq	t8,t9,1358 <__isr_vec_space+0x1338>
    1358:	0b0e0301 	j	c380c04 <__memory_size+0xc361404>
    135c:	3b0b3a0b 	xori	t3,t8,0x3a0b
    1360:	00130105 	0x130105
    1364:	01131a00 	0x1131a00
    1368:	0b3a0b0b 	j	ce82c2c <__memory_size+0xce6342c>
    136c:	1301053b 	beq	t8,at,285c <__isr_vec_space+0x283c>
    1370:	171b0000 	bne	t8,k1,1374 <__isr_vec_space+0x1354>
    1374:	3a0b0b01 	xori	t3,s0,0xb01
    1378:	01053b0b 	0x1053b0b
    137c:	1c000013 	bgtz	zero,13cc <__isr_vec_space+0x13ac>
    1380:	0e03000d 	jal	80c0034 <__memory_size+0x80a0834>
    1384:	053b0b3a 	0x53b0b3a
    1388:	00001349 	0x1349
    138c:	2701151d 	addiu	at,t8,5405
    1390:	00130119 	0x130119
    1394:	00341e00 	0x341e00
    1398:	0b3a0e03 	j	ce8380c <__memory_size+0xce6400c>
    139c:	13490b3b 	beq	k0,t1,408c <__isr_vec_space+0x406c>
    13a0:	00001802 	srl	v1,zero,0x0
    13a4:	0300341f 	0x300341f
    13a8:	3b0b3a0e 	xori	t3,t8,0x3a0e
    13ac:	3f134905 	0x3f134905
    13b0:	00180219 	0x180219
    13b4:	11010000 	beq	t0,at,13b8 <__isr_vec_space+0x1398>
    13b8:	11061000 	beq	t0,a2,53bc <__isr_vec_space+0x539c>
    13bc:	03011201 	0x3011201
    13c0:	25081b08 	addiu	t0,t0,6920
    13c4:	00051308 	0x51308
    13c8:	11010000 	beq	t0,at,13cc <__isr_vec_space+0x13ac>
    13cc:	11061000 	beq	t0,a2,53d0 <__isr_vec_space+0x53b0>
    13d0:	03011201 	0x3011201
    13d4:	25081b08 	addiu	t0,t0,6920
    13d8:	00051308 	0x51308
    13dc:	11010000 	beq	t0,at,13e0 <__isr_vec_space+0x13c0>
    13e0:	130e2501 	beq	t8,t6,a7e8 <__isr_vec_space+0xa7c8>
    13e4:	110e030b 	beq	t0,t6,2014 <__isr_vec_space+0x1ff4>
    13e8:	10061201 	beq	zero,a2,5bf0 <__isr_vec_space+0x5bd0>
    13ec:	02000017 	0x2000017
    13f0:	0b0b0024 	j	c2c0090 <__memory_size+0xc2a0890>
    13f4:	0e030b3e 	jal	80c2cf8 <__memory_size+0x80a34f8>
    13f8:	16030000 	bne	s0,v1,13fc <__isr_vec_space+0x13dc>
    13fc:	3a0e0300 	xori	t6,s0,0x300
    1400:	490b3b0b 	bc2tl	$cc2,10030 <__isr_vec_space+0x10010>
    1404:	04000013 	bltz	zero,1454 <__isr_vec_space+0x1434>
    1408:	0b0b0024 	j	c2c0090 <__memory_size+0xc2a0890>
    140c:	08030b3e 	j	c2cf8 <__memory_size+0xa34f8>
    1410:	16050000 	bne	s0,a1,1414 <__isr_vec_space+0x13f4>
    1414:	3a0e0300 	xori	t6,s0,0x300
    1418:	49053b0b 	bc2t	$cc1,10048 <__isr_vec_space+0x10028>
    141c:	06000013 	bltz	s0,146c <__isr_vec_space+0x144c>
    1420:	0b0b0117 	j	c2c045c <__memory_size+0xc2a0c5c>
    1424:	0b3b0b3a 	j	cec2ce8 <__memory_size+0xcea34e8>
    1428:	00001301 	0x1301
    142c:	03000d07 	0x3000d07
    1430:	3b0b3a0e 	xori	t3,t8,0x3a0e
    1434:	0013490b 	0x13490b
    1438:	01010800 	0x1010800
    143c:	13011349 	beq	t8,at,6164 <__isr_vec_space+0x6144>
    1440:	21090000 	addi	t1,t0,0
    1444:	2f134900 	sltiu	s3,t8,18688
    1448:	0a00000b 	j	800002c <__memory_size+0x7fe082c>
    144c:	0b0b0113 	j	c2c044c <__memory_size+0xc2a0c4c>
    1450:	0b3b0b3a 	j	cec2ce8 <__memory_size+0xcea34e8>
    1454:	00001301 	0x1301
    1458:	03000d0b 	0x3000d0b
    145c:	3b0b3a0e 	xori	t3,t8,0x3a0e
    1460:	3813490b 	xori	s3,zero,0x490b
    1464:	0c00000b 	jal	2c <__isr_vec_space+0xc>
    1468:	0b0b000f 	j	c2c003c <__memory_size+0xc2a083c>
    146c:	130d0000 	beq	t8,t5,1470 <__isr_vec_space+0x1450>
    1470:	0b0e0301 	j	c380c04 <__memory_size+0xc361404>
    1474:	3b0b3a0b 	xori	t3,t8,0x3a0b
    1478:	0013010b 	0x13010b
    147c:	000d0e00 	sll	at,t5,0x18
    1480:	0b3a0803 	j	ce8200c <__memory_size+0xce6280c>
    1484:	13490b3b 	beq	k0,t1,4174 <__isr_vec_space+0x4154>
    1488:	00000b38 	0xb38
    148c:	0b000f0f 	j	c003c3c <__memory_size+0xbfe443c>
    1490:	0013490b 	0x13490b
    1494:	01131000 	0x1131000
    1498:	050b0e03 	tltiu	t0,3587
    149c:	0b3b0b3a 	j	cec2ce8 <__memory_size+0xcea34e8>
    14a0:	00001301 	0x1301
    14a4:	03000d11 	0x3000d11
    14a8:	3b0b3a0e 	xori	t3,t8,0x3a0e
    14ac:	3813490b 	xori	s3,zero,0x490b
    14b0:	12000005 	beqz	s0,14c8 <__isr_vec_space+0x14a8>
    14b4:	19270015 	0x19270015
    14b8:	15130000 	bne	t0,s3,14bc <__isr_vec_space+0x149c>
    14bc:	49192701 	bc2t	$cc6,b0c4 <__isr_vec_space+0xb0a4>
    14c0:	00130113 	0x130113
    14c4:	00051400 	sll	v0,a1,0x10
    14c8:	00001349 	0x1349
    14cc:	03011315 	0x3011315
    14d0:	3a050b0e 	xori	a1,s0,0xb0e
    14d4:	01053b0b 	0x1053b0b
    14d8:	16000013 	bnez	s0,1528 <__isr_vec_space+0x1508>
    14dc:	0e03000d 	jal	80c0034 <__memory_size+0x80a0834>
    14e0:	053b0b3a 	0x53b0b3a
    14e4:	0b381349 	j	ce04d24 <__memory_size+0xcde5524>
    14e8:	0d170000 	jal	45c0000 <__memory_size+0x45a0800>
    14ec:	3a0e0300 	xori	t6,s0,0x300
    14f0:	49053b0b 	bc2t	$cc1,10120 <__isr_vec_space+0x10100>
    14f4:	00053813 	0x53813
    14f8:	00261800 	0x261800
    14fc:	00001349 	0x1349
    1500:	03011319 	0x3011319
    1504:	3a0b0b0e 	xori	t3,s0,0xb0e
    1508:	01053b0b 	0x1053b0b
    150c:	1a000013 	blez	s0,155c <__isr_vec_space+0x153c>
    1510:	0b0b0113 	j	c2c044c <__memory_size+0xc2a0c4c>
    1514:	053b0b3a 	0x53b0b3a
    1518:	00001301 	0x1301
    151c:	0b01171b 	j	c045c6c <__memory_size+0xc02646c>
    1520:	3b0b3a0b 	xori	t3,t8,0x3a0b
    1524:	00130105 	0x130105
    1528:	000d1c00 	sll	v1,t5,0x10
    152c:	0b3a0e03 	j	ce8380c <__memory_size+0xce6400c>
    1530:	1349053b 	beq	k0,t1,2a20 <__isr_vec_space+0x2a00>
    1534:	151d0000 	bne	t0,sp,1538 <__isr_vec_space+0x1518>
    1538:	01192701 	0x1192701
    153c:	1e000013 	bgtz	s0,158c <__isr_vec_space+0x156c>
    1540:	0e030104 	jal	80c0410 <__memory_size+0x80a0c10>
    1544:	0b3a0b0b 	j	ce82c2c <__memory_size+0xce6342c>
    1548:	13010b3b 	beq	t8,at,4238 <__isr_vec_space+0x4218>
    154c:	281f0000 	slti	ra,zero,0
    1550:	1c0e0300 	0x1c0e0300
    1554:	2000000d 	addi	zero,zero,13
    1558:	193f012e 	0x193f012e
    155c:	0b3a0e03 	j	ce8380c <__memory_size+0xce6400c>
    1560:	19270b3b 	0x19270b3b
    1564:	01111349 	0x1111349
    1568:	18400612 	blez	v0,2db4 <__isr_vec_space+0x2d94>
    156c:	01194297 	0x1194297
    1570:	21000013 	addi	zero,t0,19
    1574:	0e030005 	jal	80c0014 <__memory_size+0x80a0814>
    1578:	0b3b0b3a 	j	cec2ce8 <__memory_size+0xcea34e8>
    157c:	17021349 	bne	t8,v0,62a4 <__isr_vec_space+0x6284>
    1580:	05220000 	bltzl	t1,1584 <__isr_vec_space+0x1564>
    1584:	3a080300 	xori	t0,s0,0x300
    1588:	490b3b0b 	bc2tl	$cc2,101b8 <__isr_vec_space+0x10198>
    158c:	00170213 	0x170213
    1590:	00342300 	0x342300
    1594:	0b3a0e03 	j	ce8380c <__memory_size+0xce6400c>
    1598:	13490b3b 	beq	k0,t1,4288 <__isr_vec_space+0x4268>
    159c:	00001702 	srl	v0,zero,0x1c
    15a0:	03003424 	0x3003424
    15a4:	3b0b3a08 	xori	t3,t8,0x3a08
    15a8:	0213490b 	0x213490b
    15ac:	25000017 	addiu	zero,t0,23
    15b0:	01018289 	0x1018289
    15b4:	13310111 	beq	t9,s1,19fc <__isr_vec_space+0x19dc>
    15b8:	8a260000 	lwl	a2,0(s1)
    15bc:	02000182 	0x2000182
    15c0:	18429118 	0x18429118
    15c4:	34270000 	ori	a3,at,0x0
    15c8:	3a0e0300 	xori	t6,s0,0x300
    15cc:	49053b0b 	bc2t	$cc1,101fc <__isr_vec_space+0x101dc>
    15d0:	3c193f13 	lui	t9,0x3f13
    15d4:	28000019 	slti	zero,zero,25
    15d8:	193f012e 	0x193f012e
    15dc:	0b3a0e03 	j	ce8380c <__memory_size+0xce6400c>
    15e0:	19270b3b 	0x19270b3b
    15e4:	193c1349 	0x193c1349
    15e8:	01000000 	0x1000000
    15ec:	0e250111 	jal	8940444 <__memory_size+0x8920c44>
    15f0:	0e030b13 	jal	80c2c4c <__memory_size+0x80a344c>
    15f4:	06120111 	bltzall	s0,1a3c <__isr_vec_space+0x1a1c>
    15f8:	00001710 	0x1710
    15fc:	0b002402 	j	c009008 <__memory_size+0xbfe9808>
    1600:	030b3e0b 	0x30b3e0b
    1604:	0300000e 	0x300000e
    1608:	0b0b0024 	j	c2c0090 <__memory_size+0xc2a0890>
    160c:	08030b3e 	j	c2cf8 <__memory_size+0xa34f8>
    1610:	16040000 	bne	s0,a0,1614 <__isr_vec_space+0x15f4>
    1614:	3a0e0300 	xori	t6,s0,0x300
    1618:	490b3b0b 	bc2tl	$cc2,10248 <__isr_vec_space+0x10228>
    161c:	05000013 	bltz	t0,166c <__isr_vec_space+0x164c>
    1620:	0e030016 	jal	80c0058 <__memory_size+0x80a0858>
    1624:	053b0b3a 	0x53b0b3a
    1628:	00001349 	0x1349
    162c:	0b011706 	j	c045c18 <__memory_size+0xc026418>
    1630:	3b0b3a0b 	xori	t3,t8,0x3a0b
    1634:	0013010b 	0x13010b
    1638:	000d0700 	sll	zero,t5,0x1c
    163c:	0b3a0e03 	j	ce8380c <__memory_size+0xce6400c>
    1640:	13490b3b 	beq	k0,t1,4330 <__isr_vec_space+0x4310>
    1644:	01080000 	0x1080000
    1648:	01134901 	0x1134901
    164c:	09000013 	j	400004c <__memory_size+0x3fe084c>
    1650:	13490021 	beq	k0,t1,16d8 <__isr_vec_space+0x16b8>
    1654:	00000b2f 	0xb2f
    1658:	0b01130a 	j	c044c28 <__memory_size+0xc025428>
    165c:	3b0b3a0b 	xori	t3,t8,0x3a0b
    1660:	0013010b 	0x13010b
    1664:	000d0b00 	sll	at,t5,0xc
    1668:	0b3a0e03 	j	ce8380c <__memory_size+0xce6400c>
    166c:	13490b3b 	beq	k0,t1,435c <__isr_vec_space+0x433c>
    1670:	00000b38 	0xb38
    1674:	0b000f0c 	j	c003c30 <__memory_size+0xbfe4430>
    1678:	0d00000b 	jal	400002c <__memory_size+0x3fe082c>
    167c:	0e030113 	jal	80c044c <__memory_size+0x80a0c4c>
    1680:	0b3a0b0b 	j	ce82c2c <__memory_size+0xce6342c>
    1684:	13010b3b 	beq	t8,at,4374 <__isr_vec_space+0x4354>
    1688:	0d0e0000 	jal	4380000 <__memory_size+0x4360800>
    168c:	3a080300 	xori	t0,s0,0x300
    1690:	490b3b0b 	bc2tl	$cc2,102c0 <__isr_vec_space+0x102a0>
    1694:	000b3813 	0xb3813
    1698:	000f0f00 	sll	at,t7,0x1c
    169c:	13490b0b 	beq	k0,t1,42cc <__isr_vec_space+0x42ac>
    16a0:	13100000 	beq	t8,s0,16a4 <__isr_vec_space+0x1684>
    16a4:	0b0e0301 	j	c380c04 <__memory_size+0xc361404>
    16a8:	3b0b3a05 	xori	t3,t8,0x3a05
    16ac:	0013010b 	0x13010b
    16b0:	000d1100 	sll	v0,t5,0x4
    16b4:	0b3a0e03 	j	ce8380c <__memory_size+0xce6400c>
    16b8:	13490b3b 	beq	k0,t1,43a8 <__isr_vec_space+0x4388>
    16bc:	00000538 	0x538
    16c0:	27001512 	addiu	zero,t8,5394
    16c4:	13000019 	beqz	t8,172c <__isr_vec_space+0x170c>
    16c8:	19270115 	0x19270115
    16cc:	13011349 	beq	t8,at,63f4 <__isr_vec_space+0x63d4>
    16d0:	05140000 	0x5140000
    16d4:	00134900 	sll	t1,s3,0x4
    16d8:	01131500 	0x1131500
    16dc:	050b0e03 	tltiu	t0,3587
    16e0:	053b0b3a 	0x53b0b3a
    16e4:	00001301 	0x1301
    16e8:	03000d16 	0x3000d16
    16ec:	3b0b3a0e 	xori	t3,t8,0x3a0e
    16f0:	38134905 	xori	s3,zero,0x4905
    16f4:	1700000b 	bnez	t8,1724 <__isr_vec_space+0x1704>
    16f8:	0e03000d 	jal	80c0034 <__memory_size+0x80a0834>
    16fc:	053b0b3a 	0x53b0b3a
    1700:	05381349 	0x5381349
    1704:	26180000 	addiu	t8,s0,0
    1708:	00134900 	sll	t1,s3,0x4
    170c:	01131900 	0x1131900
    1710:	0b0b0e03 	j	c2c380c <__memory_size+0xc2a400c>
    1714:	053b0b3a 	0x53b0b3a
    1718:	00001301 	0x1301
    171c:	0b01131a 	j	c044c68 <__memory_size+0xc025468>
    1720:	3b0b3a0b 	xori	t3,t8,0x3a0b
    1724:	00130105 	0x130105
    1728:	01171b00 	0x1171b00
    172c:	0b3a0b0b 	j	ce82c2c <__memory_size+0xce6342c>
    1730:	1301053b 	beq	t8,at,2c20 <__isr_vec_space+0x2c00>
    1734:	0d1c0000 	jal	4700000 <__memory_size+0x46e0800>
    1738:	3a0e0300 	xori	t6,s0,0x300
    173c:	49053b0b 	bc2t	$cc1,1036c <__isr_vec_space+0x1034c>
    1740:	1d000013 	bgtz	t0,1790 <__isr_vec_space+0x1770>
    1744:	19270115 	0x19270115
    1748:	00001301 	0x1301
    174c:	3f012e1e 	0x3f012e1e
    1750:	3a0e0319 	xori	t6,s0,0x319
    1754:	270b3b0b 	addiu	t3,t8,15115
    1758:	12011119 	beq	s0,at,5bc0 <__isr_vec_space+0x5ba0>
    175c:	96184006 	lhu	t8,16390(s0)
    1760:	13011942 	beq	t8,at,7c6c <__isr_vec_space+0x7c4c>
    1764:	051f0000 	synci	0(t0)
    1768:	3a0e0300 	xori	t6,s0,0x300
    176c:	490b3b0b 	bc2tl	$cc2,1039c <__isr_vec_space+0x1037c>
    1770:	00170213 	0x170213
    1774:	00052000 	sll	a0,a1,0x0
    1778:	0b3a0803 	j	ce8200c <__memory_size+0xce6280c>
    177c:	13490b3b 	beq	k0,t1,446c <__isr_vec_space+0x444c>
    1780:	00001702 	srl	v0,zero,0x1c
    1784:	03003421 	0x3003421
    1788:	3b0b3a08 	xori	t3,t8,0x3a08
    178c:	0213490b 	0x213490b
    1790:	22000017 	addi	zero,s0,23
    1794:	0e030034 	jal	80c00d0 <__memory_size+0x80a08d0>
    1798:	0b3b0b3a 	j	cec2ce8 <__memory_size+0xcea34e8>
    179c:	17021349 	bne	t8,v0,64c4 <__isr_vec_space+0x64a4>
    17a0:	0a230000 	j	88c0000 <__memory_size+0x88a0800>
    17a4:	3a0e0300 	xori	t6,s0,0x300
    17a8:	000b3b0b 	0xb3b0b
    17ac:	010b2400 	0x10b2400
    17b0:	13011755 	beq	t8,at,7508 <__isr_vec_space+0x74e8>
    17b4:	89250000 	lwl	a1,0(t1)
    17b8:	11010182 	beq	t0,at,1dc4 <__isr_vec_space+0x1da4>
    17bc:	26000001 	addiu	zero,s0,1
    17c0:	0001828a 	0x1828a
    17c4:	42911802 	c0	0x911802
    17c8:	27000018 	addiu	zero,t8,24
    17cc:	01018289 	0x1018289
    17d0:	13310111 	beq	t9,s1,1c18 <__isr_vec_space+0x1bf8>
    17d4:	34280000 	ori	t0,at,0x0
    17d8:	3a0e0300 	xori	t6,s0,0x300
    17dc:	490b3b0b 	bc2tl	$cc2,1040c <__isr_vec_space+0x103ec>
    17e0:	000b1c13 	0xb1c13
    17e4:	00342900 	0x342900
    17e8:	0b3a0e03 	j	ce8380c <__memory_size+0xce6400c>
    17ec:	1349053b 	beq	k0,t1,2cdc <__isr_vec_space+0x2cbc>
    17f0:	193c193f 	0x193c193f
    17f4:	2e2a0000 	sltiu	t2,s1,0
    17f8:	03193f01 	0x3193f01
    17fc:	3b0b3a0e 	xori	t3,t8,0x3a0e
    1800:	3c19270b 	lui	t9,0x270b
    1804:	00000019 	multu	zero,zero
    1808:	25011101 	addiu	at,t0,4353
    180c:	030b130e 	0x30b130e
    1810:	1201110e 	beq	s0,at,5c4c <__isr_vec_space+0x5c2c>
    1814:	00171006 	srlv	v0,s7,zero
    1818:	00240200 	0x240200
    181c:	0b3e0b0b 	j	cf82c2c <__memory_size+0xcf6342c>
    1820:	00000e03 	sra	at,zero,0x18
    1824:	03001603 	0x3001603
    1828:	3b0b3a0e 	xori	t3,t8,0x3a0e
    182c:	0013490b 	0x13490b
    1830:	00240400 	0x240400
    1834:	0b3e0b0b 	j	cf82c2c <__memory_size+0xcf6342c>
    1838:	00000803 	sra	at,zero,0x0
    183c:	3f012e05 	0x3f012e05
    1840:	3a0e0319 	xori	t6,s0,0x319
    1844:	270b3b0b 	addiu	t3,t8,15115
    1848:	12011119 	beq	s0,at,5cb0 <__isr_vec_space+0x5c90>
    184c:	97184006 	lhu	t8,16390(t8)
    1850:	13011942 	beq	t8,at,7d5c <__isr_vec_space+0x7d3c>
    1854:	05060000 	0x5060000
    1858:	3a0e0300 	xori	t6,s0,0x300
    185c:	490b3b0b 	bc2tl	$cc2,1048c <__isr_vec_space+0x1046c>
    1860:	00170213 	0x170213
    1864:	00340700 	0x340700
    1868:	0b3a0e03 	j	ce8380c <__memory_size+0xce6400c>
    186c:	13490b3b 	beq	k0,t1,455c <__isr_vec_space+0x453c>
    1870:	00001802 	srl	v1,zero,0x0
    1874:	03003408 	0x3003408
    1878:	3b0b3a08 	xori	t3,t8,0x3a08
    187c:	0213490b 	0x213490b
    1880:	09000018 	j	4000060 <__memory_size+0x3fe0860>
    1884:	01018289 	0x1018289
    1888:	13310111 	beq	t9,s1,1cd0 <__isr_vec_space+0x1cb0>
    188c:	00001301 	0x1301
    1890:	01828a0a 	0x1828a0a
    1894:	91180200 	lbu	t8,512(t0)
    1898:	00001842 	srl	v1,zero,0x1
    189c:	0182890b 	0x182890b
    18a0:	31011100 	andi	at,t0,0x1100
    18a4:	0c000013 	jal	4c <__isr_vec_space+0x2c>
    18a8:	13490101 	beq	k0,t1,1cb0 <__isr_vec_space+0x1c90>
    18ac:	00001301 	0x1301
    18b0:	0000210d 	break	0x0,0x84
    18b4:	00340e00 	0x340e00
    18b8:	0b3a0e03 	j	ce8380c <__memory_size+0xce6400c>
    18bc:	13490b3b 	beq	k0,t1,45ac <__isr_vec_space+0x458c>
    18c0:	193c193f 	0x193c193f
    18c4:	2e0f0000 	sltiu	t7,s0,0
    18c8:	03193f01 	0x3193f01
    18cc:	3b0b3a0e 	xori	t3,t8,0x3a0e
    18d0:	3c19270b 	lui	t9,0x270b
    18d4:	00130119 	0x130119
    18d8:	00051000 	sll	v0,a1,0x0
    18dc:	00001349 	0x1349
    18e0:	3f002e11 	0x3f002e11
    18e4:	3a0e0319 	xori	t6,s0,0x319
    18e8:	270b3b0b 	addiu	t3,t8,15115
    18ec:	3c134919 	lui	s3,0x4919
    18f0:	00000019 	multu	zero,zero
    18f4:	25011101 	addiu	at,t0,4353
    18f8:	030b130e 	0x30b130e
    18fc:	1201110e 	beq	s0,at,5d38 <__isr_vec_space+0x5d18>
    1900:	00171006 	srlv	v0,s7,zero
    1904:	00240200 	0x240200
    1908:	0b3e0b0b 	j	cf82c2c <__memory_size+0xcf6342c>
    190c:	00000e03 	sra	at,zero,0x18
    1910:	03001603 	0x3001603
    1914:	3b0b3a0e 	xori	t3,t8,0x3a0e
    1918:	0013490b 	0x13490b
    191c:	00240400 	0x240400
    1920:	0b3e0b0b 	j	cf82c2c <__memory_size+0xcf6342c>
    1924:	00000803 	sra	at,zero,0x0
    1928:	0b000f05 	j	c003c14 <__memory_size+0xbfe4414>
    192c:	0600000b 	bltz	s0,195c <__isr_vec_space+0x193c>
    1930:	193f012e 	0x193f012e
    1934:	0b3a0e03 	j	ce8380c <__memory_size+0xce6400c>
    1938:	19270b3b 	0x19270b3b
    193c:	06120111 	bltzall	s0,1d84 <__isr_vec_space+0x1d64>
    1940:	42971840 	c0	0x971840
    1944:	00130119 	0x130119
    1948:	00050700 	sll	zero,a1,0x1c
    194c:	0b3a0e03 	j	ce8380c <__memory_size+0xce6400c>
    1950:	13490b3b 	beq	k0,t1,4640 <__isr_vec_space+0x4620>
    1954:	00001702 	srl	v0,zero,0x1c
    1958:	03003408 	0x3003408
    195c:	3b0b3a08 	xori	t3,t8,0x3a08
    1960:	0213490b 	0x213490b
    1964:	09000018 	j	4000060 <__memory_size+0x3fe0860>
    1968:	0e030034 	jal	80c00d0 <__memory_size+0x80a08d0>
    196c:	0b3b0b3a 	j	cec2ce8 <__memory_size+0xcea34e8>
    1970:	18021349 	0x18021349
    1974:	0f0a0000 	jal	c280000 <__memory_size+0xc260800>
    1978:	490b0b00 	bc2tl	$cc2,457c <__isr_vec_space+0x455c>
    197c:	0b000013 	j	c00004c <__memory_size+0xbfe084c>
    1980:	13490101 	beq	k0,t1,1d88 <__isr_vec_space+0x1d68>
    1984:	00001301 	0x1301
    1988:	0000210c 	syscall	0x84
    198c:	00340d00 	0x340d00
    1990:	0b3a0e03 	j	ce8380c <__memory_size+0xce6400c>
    1994:	13490b3b 	beq	k0,t1,4684 <__isr_vec_space+0x4664>
    1998:	193c193f 	0x193c193f
    199c:	01000000 	0x1000000
    19a0:	06100011 	bltzal	s0,19e8 <__isr_vec_space+0x19c8>
    19a4:	01120111 	0x1120111
    19a8:	081b0803 	j	6c200c <__memory_size+0x6a280c>
    19ac:	05130825 	bgezall	t0,3a44 <__isr_vec_space+0x3a24>
    19b0:	01000000 	0x1000000
    19b4:	06100011 	bltzal	s0,19fc <__isr_vec_space+0x19dc>
    19b8:	08030655 	j	c1954 <__memory_size+0xa2154>
    19bc:	0825081b 	j	94206c <__memory_size+0x92286c>
    19c0:	00000513 	0x513
    19c4:	01110100 	0x1110100
    19c8:	0b130e25 	j	c4c3894 <__memory_size+0xc4a4094>
    19cc:	01110e03 	0x1110e03
    19d0:	17100612 	bne	t8,s0,321c <__isr_vec_space+0x31fc>
    19d4:	16020000 	bne	s0,v0,19d8 <__isr_vec_space+0x19b8>
    19d8:	3a0e0300 	xori	t6,s0,0x300
    19dc:	490b3b0b 	bc2tl	$cc2,1060c <__isr_vec_space+0x105ec>
    19e0:	03000013 	mtlo	t8
    19e4:	0b0b0024 	j	c2c0090 <__memory_size+0xc2a0890>
    19e8:	0e030b3e 	jal	80c2cf8 <__memory_size+0x80a34f8>
    19ec:	24040000 	li	a0,0
    19f0:	3e0b0b00 	0x3e0b0b00
    19f4:	0008030b 	0x8030b
    19f8:	000f0500 	sll	zero,t7,0x14
    19fc:	13490b0b 	beq	k0,t1,462c <__isr_vec_space+0x460c>
    1a00:	26060000 	addiu	a2,s0,0
    1a04:	00134900 	sll	t1,s3,0x4
    1a08:	00260700 	0x260700
    1a0c:	16080000 	bne	s0,t0,1a10 <__isr_vec_space+0x19f0>
    1a10:	3a0e0300 	xori	t6,s0,0x300
    1a14:	49053b0b 	bc2t	$cc1,10644 <__isr_vec_space+0x10624>
    1a18:	09000013 	j	400004c <__memory_size+0x3fe084c>
    1a1c:	0b0b0113 	j	c2c044c <__memory_size+0xc2a0c4c>
    1a20:	0b3b0b3a 	j	cec2ce8 <__memory_size+0xcea34e8>
    1a24:	00001301 	0x1301
    1a28:	03000d0a 	0x3000d0a
    1a2c:	3b0b3a08 	xori	t3,t8,0x3a08
    1a30:	3813490b 	xori	s3,zero,0x490b
    1a34:	0b00000b 	j	c00002c <__memory_size+0xbfe082c>
    1a38:	13490101 	beq	k0,t1,1e40 <__isr_vec_space+0x1e20>
    1a3c:	00001301 	0x1301
    1a40:	4900210c 	bc2f	9e74 <__isr_vec_space+0x9e54>
    1a44:	000b2f13 	0xb2f13
    1a48:	01170d00 	0x1170d00
    1a4c:	0b3a0b0b 	j	ce82c2c <__memory_size+0xce6342c>
    1a50:	13010b3b 	beq	t8,at,4740 <__isr_vec_space+0x4720>
    1a54:	0d0e0000 	jal	4380000 <__memory_size+0x4360800>
    1a58:	00134900 	sll	t1,s3,0x4
    1a5c:	000d0f00 	sll	at,t5,0x1c
    1a60:	0b3a0803 	j	ce8200c <__memory_size+0xce6280c>
    1a64:	13490b3b 	beq	k0,t1,4754 <__isr_vec_space+0x4734>
    1a68:	13100000 	beq	t8,s0,1a6c <__isr_vec_space+0x1a4c>
    1a6c:	0b0e0301 	j	c380c04 <__memory_size+0xc361404>
    1a70:	3b0b3a0b 	xori	t3,t8,0x3a0b
    1a74:	0013010b 	0x13010b
    1a78:	000d1100 	sll	v0,t5,0x4
    1a7c:	0b381349 	j	ce04d24 <__memory_size+0xcde5524>
    1a80:	0d120000 	jal	4480000 <__memory_size+0x4460800>
    1a84:	3a080300 	xori	t0,s0,0x300
    1a88:	49053b0b 	bc2t	$cc1,106b8 <__isr_vec_space+0x10698>
    1a8c:	000b3813 	0xb3813
    1a90:	000d1300 	sll	v0,t5,0xc
    1a94:	0b3a0e03 	j	ce8380c <__memory_size+0xce6400c>
    1a98:	1349053b 	beq	k0,t1,2f88 <__isr_vec_space+0x2f68>
    1a9c:	00000b38 	0xb38
    1aa0:	03011314 	0x3011314
    1aa4:	3a0b0b0e 	xori	t3,s0,0xb0e
    1aa8:	01053b0b 	0x1053b0b
    1aac:	15000013 	bnez	t0,1afc <__isr_vec_space+0x1adc>
    1ab0:	0e03012e 	jal	80c04b8 <__memory_size+0x80a0cb8>
    1ab4:	0b3b0b3a 	j	cec2ce8 <__memory_size+0xcea34e8>
    1ab8:	0b201927 	j	c80649c <__memory_size+0xc7e6c9c>
    1abc:	00001301 	0x1301
    1ac0:	03000516 	0x3000516
    1ac4:	3b0b3a08 	xori	t3,t8,0x3a08
    1ac8:	0013490b 	0x13490b
    1acc:	00051700 	sll	v0,a1,0x1c
    1ad0:	0b3a0e03 	j	ce8380c <__memory_size+0xce6400c>
    1ad4:	13490b3b 	beq	k0,t1,47c4 <__isr_vec_space+0x47a4>
    1ad8:	34180000 	li	t8,0x0
    1adc:	3a080300 	xori	t0,s0,0x300
    1ae0:	490b3b0b 	bc2tl	$cc2,10710 <__isr_vec_space+0x106f0>
    1ae4:	19000013 	blez	t0,1b34 <__isr_vec_space+0x1b14>
    1ae8:	0e030034 	jal	80c00d0 <__memory_size+0x80a08d0>
    1aec:	0b3b0b3a 	j	cec2ce8 <__memory_size+0xcea34e8>
    1af0:	00001349 	0x1349
    1af4:	4900211a 	bc2f	9f60 <__isr_vec_space+0x9f40>
    1af8:	1b000013 	blez	t8,1b48 <__isr_vec_space+0x1b28>
    1afc:	1331012e 	beq	t9,s1,1fb8 <__isr_vec_space+0x1f98>
    1b00:	06120111 	bltzall	s0,1f48 <__isr_vec_space+0x1f28>
    1b04:	42971840 	c0	0x971840
    1b08:	00130119 	0x130119
    1b0c:	00051c00 	sll	v1,a1,0x10
    1b10:	17021331 	bne	t8,v0,67d8 <__isr_vec_space+0x67b8>
    1b14:	341d0000 	li	sp,0x0
    1b18:	49133100 	bc2tl	$cc4,df1c <__isr_vec_space+0xdefc>
    1b1c:	00170213 	0x170213
    1b20:	00341e00 	0x341e00
    1b24:	17021331 	bne	t8,v0,67ec <__isr_vec_space+0x67cc>
    1b28:	051f0000 	synci	0(t0)
    1b2c:	1c133100 	0x1c133100
    1b30:	2000000b 	addi	zero,zero,11
    1b34:	01018289 	0x1018289
    1b38:	13310111 	beq	t9,s1,1f80 <__isr_vec_space+0x1f60>
    1b3c:	00001301 	0x1301
    1b40:	01828a21 	0x1828a21
    1b44:	91180200 	lbu	t8,512(t0)
    1b48:	00001842 	srl	v1,zero,0x1
    1b4c:	01828922 	0x1828922
    1b50:	31011101 	andi	at,t0,0x1101
    1b54:	23000013 	addi	zero,t8,19
    1b58:	13490021 	beq	k0,t1,1be0 <__isr_vec_space+0x1bc0>
    1b5c:	0000182f 	0x182f
    1b60:	03012e24 	0x3012e24
    1b64:	3b0b3a0e 	xori	t3,t8,0x3a0e
    1b68:	1119270b 	beq	t0,t9,b798 <__isr_vec_space+0xb778>
    1b6c:	40061201 	0x40061201
    1b70:	19429718 	0x19429718
    1b74:	00001301 	0x1301
    1b78:	03000525 	0x3000525
    1b7c:	3b0b3a08 	xori	t3,t8,0x3a08
    1b80:	0213490b 	0x213490b
    1b84:	26000017 	addiu	zero,s0,23
    1b88:	0e030005 	jal	80c0014 <__memory_size+0x80a0814>
    1b8c:	0b3b0b3a 	j	cec2ce8 <__memory_size+0xcea34e8>
    1b90:	17021349 	bne	t8,v0,68b8 <__isr_vec_space+0x6898>
    1b94:	89270000 	lwl	a3,0(t1)
    1b98:	11010182 	beq	t0,at,21a4 <__isr_vec_space+0x2184>
    1b9c:	19429501 	0x19429501
    1ba0:	00001331 	tgeu	zero,zero,0x4c
    1ba4:	3f012e28 	0x3f012e28
    1ba8:	3a0e0319 	xori	t6,s0,0x319
    1bac:	270b3b0b 	addiu	t3,t8,15115
    1bb0:	12011119 	beq	s0,at,6018 <__isr_vec_space+0x5ff8>
    1bb4:	97184006 	lhu	t8,16390(t8)
    1bb8:	13011942 	beq	t8,at,80c4 <__isr_vec_space+0x80a4>
    1bbc:	0b290000 	j	ca40000 <__memory_size+0xca20800>
    1bc0:	12011101 	beq	s0,at,5fc8 <__isr_vec_space+0x5fa8>
    1bc4:	00130106 	0x130106
    1bc8:	00342a00 	0x342a00
    1bcc:	0b3a0803 	j	ce8200c <__memory_size+0xce6280c>
    1bd0:	13490b3b 	beq	k0,t1,48c0 <__isr_vec_space+0x48a0>
    1bd4:	00001702 	srl	v0,zero,0x1c
    1bd8:	11010b2b 	beq	t0,at,4888 <__isr_vec_space+0x4868>
    1bdc:	00061201 	0x61201
    1be0:	82892c00 	lb	t1,11264(s4)
    1be4:	01110001 	movt	zero,t0,$fcc4
    1be8:	00001331 	tgeu	zero,zero,0x4c
    1bec:	0182892d 	0x182892d
    1bf0:	95011101 	lhu	at,4353(t0)
    1bf4:	13311942 	beq	t9,s1,8100 <__isr_vec_space+0x80e0>
    1bf8:	00001301 	0x1301
    1bfc:	0000212e 	0x212e
    1c00:	00342f00 	0x342f00
    1c04:	0b3a0e03 	j	ce8380c <__memory_size+0xce6400c>
    1c08:	13490b3b 	beq	k0,t1,48f8 <__isr_vec_space+0x48d8>
    1c0c:	193c193f 	0x193c193f
    1c10:	2e300000 	sltiu	s0,s1,0
    1c14:	03193f01 	0x3193f01
    1c18:	3b0b3a0e 	xori	t3,t8,0x3a0e
    1c1c:	4919270b 	bc2t	$cc6,b84c <__isr_vec_space+0xb82c>
    1c20:	01193c13 	0x1193c13
    1c24:	31000013 	andi	zero,t0,0x13
    1c28:	13490005 	beq	k0,t1,1c40 <__isr_vec_space+0x1c20>
    1c2c:	2e320000 	sltiu	s2,s1,0
    1c30:	03193f01 	0x3193f01
    1c34:	3b0b3a0e 	xori	t3,t8,0x3a0e
    1c38:	49192705 	bc2t	$cc6,b850 <__isr_vec_space+0xb830>
    1c3c:	01193c13 	0x1193c13
    1c40:	33000013 	andi	zero,t8,0x13
    1c44:	193f002e 	0x193f002e
    1c48:	0b3a0e03 	j	ce8380c <__memory_size+0xce6400c>
    1c4c:	1927053b 	0x1927053b
    1c50:	193c1349 	0x193c1349
    1c54:	2e340000 	sltiu	s4,s1,0
    1c58:	03193f01 	0x3193f01
    1c5c:	3b0b3a0e 	xori	t3,t8,0x3a0e
    1c60:	49192705 	bc2t	$cc6,b878 <__isr_vec_space+0xb858>
    1c64:	00193c13 	0x193c13
    1c68:	11010000 	beq	t0,at,1c6c <__isr_vec_space+0x1c4c>
    1c6c:	11061000 	beq	t0,a2,5c70 <__isr_vec_space+0x5c50>
    1c70:	03011201 	0x3011201
    1c74:	25081b08 	addiu	t0,t0,6920
    1c78:	00051308 	0x51308
    1c7c:	11010000 	beq	t0,at,1c80 <__isr_vec_space+0x1c60>
    1c80:	11061000 	beq	t0,a2,5c84 <__isr_vec_space+0x5c64>
    1c84:	03011201 	0x3011201
    1c88:	25081b08 	addiu	t0,t0,6920
    1c8c:	00051308 	0x51308
    1c90:	11010000 	beq	t0,at,1c94 <__isr_vec_space+0x1c74>
    1c94:	130e2501 	beq	t8,t6,b09c <__isr_vec_space+0xb07c>
    1c98:	100e030b 	beq	zero,t6,28c8 <__isr_vec_space+0x28a8>
    1c9c:	02000017 	0x2000017
    1ca0:	0b0b0024 	j	c2c0090 <__memory_size+0xc2a0890>
    1ca4:	0e030b3e 	jal	80c2cf8 <__memory_size+0x80a34f8>
    1ca8:	24030000 	li	v1,0
    1cac:	3e0b0b00 	0x3e0b0b00
    1cb0:	0008030b 	0x8030b
    1cb4:	11010000 	beq	t0,at,1cb8 <__isr_vec_space+0x1c98>
    1cb8:	130e2501 	beq	t8,t6,b0c0 <__isr_vec_space+0xb0a0>
    1cbc:	110e030b 	beq	t0,t6,28ec <__isr_vec_space+0x28cc>
    1cc0:	10061201 	beq	zero,a2,64c8 <__isr_vec_space+0x64a8>
    1cc4:	02000017 	0x2000017
    1cc8:	0b0b0024 	j	c2c0090 <__memory_size+0xc2a0890>
    1ccc:	0e030b3e 	jal	80c2cf8 <__memory_size+0x80a34f8>
    1cd0:	16030000 	bne	s0,v1,1cd4 <__isr_vec_space+0x1cb4>
    1cd4:	3a0e0300 	xori	t6,s0,0x300
    1cd8:	490b3b0b 	bc2tl	$cc2,10908 <__isr_vec_space+0x108e8>
    1cdc:	04000013 	bltz	zero,1d2c <__isr_vec_space+0x1d0c>
    1ce0:	0b0b0024 	j	c2c0090 <__memory_size+0xc2a0890>
    1ce4:	08030b3e 	j	c2cf8 <__memory_size+0xa34f8>
    1ce8:	2e050000 	sltiu	a1,s0,0
    1cec:	03193f01 	0x3193f01
    1cf0:	3b0b3a0e 	xori	t3,t8,0x3a0e
    1cf4:	4919270b 	bc2t	$cc6,b924 <__isr_vec_space+0xb904>
    1cf8:	12011113 	beq	s0,at,6148 <__isr_vec_space+0x6128>
    1cfc:	97184006 	lhu	t8,16390(t8)
    1d00:	13011942 	beq	t8,at,820c <__isr_vec_space+0x81ec>
    1d04:	05060000 	0x5060000
    1d08:	3a080300 	xori	t0,s0,0x300
    1d0c:	490b3b0b 	bc2tl	$cc2,1093c <__isr_vec_space+0x1091c>
    1d10:	00170213 	0x170213
    1d14:	00050700 	sll	zero,a1,0x1c
    1d18:	0b3a0e03 	j	ce8380c <__memory_size+0xce6400c>
    1d1c:	13490b3b 	beq	k0,t1,4a0c <__isr_vec_space+0x49ec>
    1d20:	00001702 	srl	v0,zero,0x1c
    1d24:	03003408 	0x3003408
    1d28:	3b0b3a0e 	xori	t3,t8,0x3a0e
    1d2c:	0213490b 	0x213490b
    1d30:	09000018 	j	4000060 <__memory_size+0x3fe0860>
    1d34:	08030034 	j	c00d0 <__memory_size+0xa08d0>
    1d38:	0b3b0b3a 	j	cec2ce8 <__memory_size+0xcea34e8>
    1d3c:	18021349 	0x18021349
    1d40:	0b0a0000 	j	c280000 <__memory_size+0xc260800>
    1d44:	12011101 	beq	s0,at,614c <__isr_vec_space+0x612c>
    1d48:	0b000006 	j	c000018 <__memory_size+0xbfe0818>
    1d4c:	00018289 	0x18289
    1d50:	13310111 	beq	t9,s1,2198 <__isr_vec_space+0x2178>
    1d54:	0f0c0000 	jal	c300000 <__memory_size+0xc2e0800>
    1d58:	490b0b00 	bc2tl	$cc2,495c <__isr_vec_space+0x493c>
    1d5c:	0d000013 	jal	400004c <__memory_size+0x3fe084c>
    1d60:	00000026 	xor	zero,zero,zero
    1d64:	4900350e 	bc2f	f1a0 <__isr_vec_space+0xf180>
    1d68:	0f000013 	jal	c00004c <__memory_size+0xbfe084c>
    1d6c:	193f002e 	0x193f002e
    1d70:	0b3a0e03 	j	ce8380c <__memory_size+0xce6400c>
    1d74:	19270b3b 	0x19270b3b
    1d78:	193c1349 	0x193c1349
    1d7c:	01000000 	0x1000000
    1d80:	0e250111 	jal	8940444 <__memory_size+0x8920c44>
    1d84:	0e030b13 	jal	80c2c4c <__memory_size+0x80a344c>
    1d88:	06120111 	bltzall	s0,21d0 <__isr_vec_space+0x21b0>
    1d8c:	00001710 	0x1710
    1d90:	0b002402 	j	c009008 <__memory_size+0xbfe9808>
    1d94:	030b3e0b 	0x30b3e0b
    1d98:	0300000e 	0x300000e
    1d9c:	0e030016 	jal	80c0058 <__memory_size+0x80a0858>
    1da0:	0b3b0b3a 	j	cec2ce8 <__memory_size+0xcea34e8>
    1da4:	00001349 	0x1349
    1da8:	0b002404 	j	c009010 <__memory_size+0xbfe9810>
    1dac:	030b3e0b 	0x30b3e0b
    1db0:	05000008 	bltz	t0,1dd4 <__isr_vec_space+0x1db4>
    1db4:	0e030016 	jal	80c0058 <__memory_size+0x80a0858>
    1db8:	053b0b3a 	0x53b0b3a
    1dbc:	00001349 	0x1349
    1dc0:	0b011306 	j	c044c18 <__memory_size+0xc025418>
    1dc4:	3b0b3a0b 	xori	t3,t8,0x3a0b
    1dc8:	0013010b 	0x13010b
    1dcc:	000d0700 	sll	zero,t5,0x1c
    1dd0:	0b3a0803 	j	ce8200c <__memory_size+0xce6280c>
    1dd4:	13490b3b 	beq	k0,t1,4ac4 <__isr_vec_space+0x4aa4>
    1dd8:	00000b38 	0xb38
    1ddc:	49010108 	bc2t	2200 <__isr_vec_space+0x21e0>
    1de0:	00130113 	0x130113
    1de4:	00210900 	0x210900
    1de8:	0b2f1349 	j	cbc4d24 <__memory_size+0xcba5524>
    1dec:	170a0000 	bne	t8,t2,1df0 <__isr_vec_space+0x1dd0>
    1df0:	3a0b0b01 	xori	t3,s0,0xb01
    1df4:	010b3b0b 	0x10b3b0b
    1df8:	0b000013 	j	c00004c <__memory_size+0xbfe084c>
    1dfc:	1349000d 	beq	k0,t1,1e34 <__isr_vec_space+0x1e14>
    1e00:	0d0c0000 	jal	4300000 <__memory_size+0x42e0800>
    1e04:	3a080300 	xori	t0,s0,0x300
    1e08:	490b3b0b 	bc2tl	$cc2,10a38 <__isr_vec_space+0x10a18>
    1e0c:	0d000013 	jal	400004c <__memory_size+0x3fe084c>
    1e10:	0e030113 	jal	80c044c <__memory_size+0x80a0c4c>
    1e14:	0b3a0b0b 	j	ce82c2c <__memory_size+0xce6342c>
    1e18:	13010b3b 	beq	t8,at,4b08 <__isr_vec_space+0x4ae8>
    1e1c:	0d0e0000 	jal	4380000 <__memory_size+0x4360800>
    1e20:	38134900 	xori	s3,zero,0x4900
    1e24:	0f00000b 	jal	c00002c <__memory_size+0xbfe082c>
    1e28:	0803000d 	j	c0034 <__memory_size+0xa0834>
    1e2c:	053b0b3a 	0x53b0b3a
    1e30:	0b381349 	j	ce04d24 <__memory_size+0xcde5524>
    1e34:	0d100000 	jal	4400000 <__memory_size+0x43e0800>
    1e38:	3a0e0300 	xori	t6,s0,0x300
    1e3c:	49053b0b 	bc2t	$cc1,10a6c <__isr_vec_space+0x10a4c>
    1e40:	000b3813 	0xb3813
    1e44:	01131100 	0x1131100
    1e48:	0b0b0e03 	j	c2c380c <__memory_size+0xc2a400c>
    1e4c:	053b0b3a 	0x53b0b3a
    1e50:	00001301 	0x1301
    1e54:	0b000f12 	j	c003c48 <__memory_size+0xbfe4448>
    1e58:	0013490b 	0x13490b
    1e5c:	012e1300 	0x12e1300
    1e60:	0e03193f 	jal	80c64fc <__memory_size+0x80a6cfc>
    1e64:	0b3b0b3a 	j	cec2ce8 <__memory_size+0xcea34e8>
    1e68:	13491927 	beq	k0,t1,8308 <__isr_vec_space+0x82e8>
    1e6c:	06120111 	bltzall	s0,22b4 <__isr_vec_space+0x2294>
    1e70:	42971840 	c0	0x971840
    1e74:	00130119 	0x130119
    1e78:	00051400 	sll	v0,a1,0x10
    1e7c:	0b3a0803 	j	ce8200c <__memory_size+0xce6280c>
    1e80:	13490b3b 	beq	k0,t1,4b70 <__isr_vec_space+0x4b50>
    1e84:	00001802 	srl	v1,zero,0x0
    1e88:	03003415 	0x3003415
    1e8c:	3b0b3a0e 	xori	t3,t8,0x3a0e
    1e90:	0213490b 	0x213490b
    1e94:	16000018 	bnez	s0,1ef8 <__isr_vec_space+0x1ed8>
    1e98:	08030034 	j	c00d0 <__memory_size+0xa08d0>
    1e9c:	0b3b0b3a 	j	cec2ce8 <__memory_size+0xcea34e8>
    1ea0:	18021349 	0x18021349
    1ea4:	01000000 	0x1000000
    1ea8:	0e250111 	jal	8940444 <__memory_size+0x8920c44>
    1eac:	0e030b13 	jal	80c2c4c <__memory_size+0x80a344c>
    1eb0:	06120111 	bltzall	s0,22f8 <__isr_vec_space+0x22d8>
    1eb4:	00001710 	0x1710
    1eb8:	0b002402 	j	c009008 <__memory_size+0xbfe9808>
    1ebc:	030b3e0b 	0x30b3e0b
    1ec0:	0300000e 	0x300000e
    1ec4:	0e030016 	jal	80c0058 <__memory_size+0x80a0858>
    1ec8:	053b0b3a 	0x53b0b3a
    1ecc:	00001349 	0x1349
    1ed0:	0b002404 	j	c009010 <__memory_size+0xbfe9810>
    1ed4:	030b3e0b 	0x30b3e0b
    1ed8:	05000008 	bltz	t0,1efc <__isr_vec_space+0x1edc>
    1edc:	0e030016 	jal	80c0058 <__memory_size+0x80a0858>
    1ee0:	0b3b0b3a 	j	cec2ce8 <__memory_size+0xcea34e8>
    1ee4:	00001349 	0x1349
    1ee8:	0b011306 	j	c044c18 <__memory_size+0xc025418>
    1eec:	3b0b3a0b 	xori	t3,t8,0x3a0b
    1ef0:	0013010b 	0x13010b
    1ef4:	000d0700 	sll	zero,t5,0x1c
    1ef8:	0b3a0803 	j	ce8200c <__memory_size+0xce6280c>
    1efc:	13490b3b 	beq	k0,t1,4bec <__isr_vec_space+0x4bcc>
    1f00:	00000b38 	0xb38
    1f04:	49010108 	bc2t	2328 <__isr_vec_space+0x2308>
    1f08:	00130113 	0x130113
    1f0c:	00210900 	0x210900
    1f10:	0b2f1349 	j	cbc4d24 <__memory_size+0xcba5524>
    1f14:	170a0000 	bne	t8,t2,1f18 <__isr_vec_space+0x1ef8>
    1f18:	3a0b0b01 	xori	t3,s0,0xb01
    1f1c:	010b3b0b 	0x10b3b0b
    1f20:	0b000013 	j	c00004c <__memory_size+0xbfe084c>
    1f24:	1349000d 	beq	k0,t1,1f5c <__isr_vec_space+0x1f3c>
    1f28:	0d0c0000 	jal	4300000 <__memory_size+0x42e0800>
    1f2c:	3a080300 	xori	t0,s0,0x300
    1f30:	490b3b0b 	bc2tl	$cc2,10b60 <__isr_vec_space+0x10b40>
    1f34:	0d000013 	jal	400004c <__memory_size+0x3fe084c>
    1f38:	0e030113 	jal	80c044c <__memory_size+0x80a0c4c>
    1f3c:	0b3a0b0b 	j	ce82c2c <__memory_size+0xce6342c>
    1f40:	13010b3b 	beq	t8,at,4c30 <__isr_vec_space+0x4c10>
    1f44:	0d0e0000 	jal	4380000 <__memory_size+0x4360800>
    1f48:	38134900 	xori	s3,zero,0x4900
    1f4c:	0f00000b 	jal	c00002c <__memory_size+0xbfe082c>
    1f50:	0803000d 	j	c0034 <__memory_size+0xa0834>
    1f54:	053b0b3a 	0x53b0b3a
    1f58:	0b381349 	j	ce04d24 <__memory_size+0xcde5524>
    1f5c:	0d100000 	jal	4400000 <__memory_size+0x43e0800>
    1f60:	3a0e0300 	xori	t6,s0,0x300
    1f64:	49053b0b 	bc2t	$cc1,10b94 <__isr_vec_space+0x10b74>
    1f68:	000b3813 	0xb3813
    1f6c:	01131100 	0x1131100
    1f70:	0b0b0e03 	j	c2c380c <__memory_size+0xc2a400c>
    1f74:	053b0b3a 	0x53b0b3a
    1f78:	00001301 	0x1301
    1f7c:	0b000f12 	j	c003c48 <__memory_size+0xbfe4448>
    1f80:	0013490b 	0x13490b
    1f84:	012e1300 	0x12e1300
    1f88:	0e03193f 	jal	80c64fc <__memory_size+0x80a6cfc>
    1f8c:	0b3b0b3a 	j	cec2ce8 <__memory_size+0xcea34e8>
    1f90:	13491927 	beq	k0,t1,8430 <__isr_vec_space+0x8410>
    1f94:	06120111 	bltzall	s0,23dc <__isr_vec_space+0x23bc>
    1f98:	42971840 	c0	0x971840
    1f9c:	00130119 	0x130119
    1fa0:	00051400 	sll	v0,a1,0x10
    1fa4:	0b3a0803 	j	ce8200c <__memory_size+0xce6280c>
    1fa8:	13490b3b 	beq	k0,t1,4c98 <__isr_vec_space+0x4c78>
    1fac:	00001702 	srl	v0,zero,0x1c
    1fb0:	03003415 	0x3003415
    1fb4:	3b0b3a0e 	xori	t3,t8,0x3a0e
    1fb8:	0213490b 	0x213490b
    1fbc:	16000018 	bnez	s0,2020 <__isr_vec_space+0x2000>
    1fc0:	08030034 	j	c00d0 <__memory_size+0xa08d0>
    1fc4:	0b3b0b3a 	j	cec2ce8 <__memory_size+0xcea34e8>
    1fc8:	18021349 	0x18021349
    1fcc:	01000000 	0x1000000
    1fd0:	0e250111 	jal	8940444 <__memory_size+0x8920c44>
    1fd4:	0e030b13 	jal	80c2c4c <__memory_size+0x80a344c>
    1fd8:	06120111 	bltzall	s0,2420 <__isr_vec_space+0x2400>
    1fdc:	00001710 	0x1710
    1fe0:	0b002402 	j	c009008 <__memory_size+0xbfe9808>
    1fe4:	030b3e0b 	0x30b3e0b
    1fe8:	03000008 	jr	t8
    1fec:	0b0b0024 	j	c2c0090 <__memory_size+0xc2a0890>
    1ff0:	0e030b3e 	jal	80c2cf8 <__memory_size+0x80a34f8>
    1ff4:	16040000 	bne	s0,a0,1ff8 <__isr_vec_space+0x1fd8>
    1ff8:	3a0e0300 	xori	t6,s0,0x300
    1ffc:	490b3b0b 	bc2tl	$cc2,10c2c <__isr_vec_space+0x10c0c>
    2000:	05000013 	bltz	t0,2050 <__isr_vec_space+0x2030>
    2004:	0e030016 	jal	80c0058 <__memory_size+0x80a0858>
    2008:	053b0b3a 	0x53b0b3a
    200c:	00001349 	0x1349
    2010:	0b011706 	j	c045c18 <__memory_size+0xc026418>
    2014:	3b0b3a0b 	xori	t3,t8,0x3a0b
    2018:	0013010b 	0x13010b
    201c:	000d0700 	sll	zero,t5,0x1c
    2020:	0b3a0e03 	j	ce8380c <__memory_size+0xce6400c>
    2024:	13490b3b 	beq	k0,t1,4d14 <__isr_vec_space+0x4cf4>
    2028:	01080000 	0x1080000
    202c:	01134901 	0x1134901
    2030:	09000013 	j	400004c <__memory_size+0x3fe084c>
    2034:	13490021 	beq	k0,t1,20bc <__isr_vec_space+0x209c>
    2038:	00000b2f 	0xb2f
    203c:	0b01130a 	j	c044c28 <__memory_size+0xc025428>
    2040:	3b0b3a0b 	xori	t3,t8,0x3a0b
    2044:	0013010b 	0x13010b
    2048:	000d0b00 	sll	at,t5,0xc
    204c:	0b3a0e03 	j	ce8380c <__memory_size+0xce6400c>
    2050:	13490b3b 	beq	k0,t1,4d40 <__isr_vec_space+0x4d20>
    2054:	00000b38 	0xb38
    2058:	0b000f0c 	j	c003c30 <__memory_size+0xbfe4430>
    205c:	0d00000b 	jal	400002c <__memory_size+0x3fe082c>
    2060:	0e030113 	jal	80c044c <__memory_size+0x80a0c4c>
    2064:	0b3a0b0b 	j	ce82c2c <__memory_size+0xce6342c>
    2068:	13010b3b 	beq	t8,at,4d58 <__isr_vec_space+0x4d38>
    206c:	0d0e0000 	jal	4380000 <__memory_size+0x4360800>
    2070:	3a080300 	xori	t0,s0,0x300
    2074:	490b3b0b 	bc2tl	$cc2,10ca4 <__isr_vec_space+0x10c84>
    2078:	000b3813 	0xb3813
    207c:	000f0f00 	sll	at,t7,0x1c
    2080:	13490b0b 	beq	k0,t1,4cb0 <__isr_vec_space+0x4c90>
    2084:	13100000 	beq	t8,s0,2088 <__isr_vec_space+0x2068>
    2088:	0b0e0301 	j	c380c04 <__memory_size+0xc361404>
    208c:	3b0b3a05 	xori	t3,t8,0x3a05
    2090:	0013010b 	0x13010b
    2094:	000d1100 	sll	v0,t5,0x4
    2098:	0b3a0e03 	j	ce8380c <__memory_size+0xce6400c>
    209c:	13490b3b 	beq	k0,t1,4d8c <__isr_vec_space+0x4d6c>
    20a0:	00000538 	0x538
    20a4:	27001512 	addiu	zero,t8,5394
    20a8:	13000019 	beqz	t8,2110 <__isr_vec_space+0x20f0>
    20ac:	19270115 	0x19270115
    20b0:	13011349 	beq	t8,at,6dd8 <__isr_vec_space+0x6db8>
    20b4:	05140000 	0x5140000
    20b8:	00134900 	sll	t1,s3,0x4
    20bc:	01131500 	0x1131500
    20c0:	050b0e03 	tltiu	t0,3587
    20c4:	053b0b3a 	0x53b0b3a
    20c8:	00001301 	0x1301
    20cc:	03000d16 	0x3000d16
    20d0:	3b0b3a0e 	xori	t3,t8,0x3a0e
    20d4:	38134905 	xori	s3,zero,0x4905
    20d8:	1700000b 	bnez	t8,2108 <__isr_vec_space+0x20e8>
    20dc:	0e03000d 	jal	80c0034 <__memory_size+0x80a0834>
    20e0:	053b0b3a 	0x53b0b3a
    20e4:	05381349 	0x5381349
    20e8:	26180000 	addiu	t8,s0,0
    20ec:	00134900 	sll	t1,s3,0x4
    20f0:	01131900 	0x1131900
    20f4:	0b0b0e03 	j	c2c380c <__memory_size+0xc2a400c>
    20f8:	053b0b3a 	0x53b0b3a
    20fc:	00001301 	0x1301
    2100:	0b01131a 	j	c044c68 <__memory_size+0xc025468>
    2104:	3b0b3a0b 	xori	t3,t8,0x3a0b
    2108:	00130105 	0x130105
    210c:	01171b00 	0x1171b00
    2110:	0b3a0b0b 	j	ce82c2c <__memory_size+0xce6342c>
    2114:	1301053b 	beq	t8,at,3604 <__isr_vec_space+0x35e4>
    2118:	0d1c0000 	jal	4700000 <__memory_size+0x46e0800>
    211c:	3a0e0300 	xori	t6,s0,0x300
    2120:	49053b0b 	bc2t	$cc1,10d50 <__isr_vec_space+0x10d30>
    2124:	1d000013 	bgtz	t0,2174 <__isr_vec_space+0x2154>
    2128:	19270115 	0x19270115
    212c:	00001301 	0x1301
    2130:	3f002e1e 	0x3f002e1e
    2134:	3a0e0319 	xori	t6,s0,0x319
    2138:	270b3b0b 	addiu	t3,t8,15115
    213c:	11134919 	beq	t0,s3,145a4 <__isr_vec_space+0x14584>
    2140:	40061201 	0x40061201
    2144:	19429718 	0x19429718
    2148:	341f0000 	li	ra,0x0
    214c:	3a0e0300 	xori	t6,s0,0x300
    2150:	49053b0b 	bc2t	$cc1,10d80 <__isr_vec_space+0x10d60>
    2154:	3c193f13 	lui	t9,0x3f13
    2158:	00000019 	multu	zero,zero

Disassembly of section .debug_line:

00000000 <.debug_line>:
       0:	000000f5 	0xf5
       4:	005f0002 	0x5f0002
       8:	01010000 	0x1010000
       c:	000d0efb 	0xd0efb
      10:	01010101 	0x1010101
      14:	01000000 	0x1000000
      18:	2f010000 	sltiu	at,t8,0
      1c:	61726373 	0x61726373
      20:	2f686374 	sltiu	t0,k1,25460
      24:	2f66706d 	sltiu	a2,k1,28781
      28:	73626f6a 	s16ldd	xr13,k1,310,ptn0
      2c:	3334352f 	andi	s4,t9,0x352f
      30:	342f3539 	ori	t7,at,0x3539
      34:	34393038 	ori	t9,at,0x3038
      38:	3034322f 	andi	s4,at,0x322f
      3c:	2f383931 	sltiu	t8,t9,14641
      40:	72616873 	d32sar	xr1,xr10,xr5,xr8,9
      44:	672f6465 	0x672f6465
      48:	6c2f6363 	0x6c2f6363
      4c:	6c676269 	0x6c676269
      50:	2f73736f 	sltiu	s3,k1,29551
      54:	7370696d 	s16sdi	xr5,k1,52,
      58:	6c61682f 	0x6c61682f
      5c:	72630000 	madd	s3,v1
      60:	532e3074 	beql	t9,t6,c234 <__isr_vec_space+0xc214>
      64:	00000100 	sll	zero,zero,0x4
      68:	02050000 	0x2050000
      6c:	80000200 	lb	zero,512(zero)
      70:	0100cd03 	0x100cd03
      74:	834a2103 	lb	t2,8451(k0)
      78:	bb194b4b 	swr	t9,19275(t8)
      7c:	85834b83 	lh	v1,19331(t4)
      80:	83504b4b 	lb	s0,19275(k0)
      84:	4b854e83 	c2	0x1854e83
      88:	4b83134b 	c2	0x183134b
      8c:	4d83134c 	0x4d83134c
      90:	83134b4b 	lb	s3,19275(t8)
      94:	134b4b4d 	beq	k0,t3,12dcc <__isr_vec_space+0x12dac>
      98:	4b4b4d83 	c2	0x14b4d83
      9c:	4b4d8313 	c2	0x14d8313
      a0:	4b83134b 	c2	0x183134b
      a4:	5188144d 	beql	t4,t0,51dc <__isr_vec_space+0x51bc>
      a8:	83834d4b 	lb	v1,19787(gp)
      ac:	0384bb50 	0x384bb50
      b0:	83bb4a0b 	lb	k1,18955(sp)
      b4:	85134b84 	lh	s3,19332(t0)
      b8:	4b848483 	c2	0x1848483
      bc:	4b83854b 	c2	0x183854b
      c0:	0f034b4f 	jal	c0d2d3c <__memory_size+0xc0b353c>
      c4:	8483bb01 	lh	v1,-17663(a0)
      c8:	83848383 	lb	a0,-31869(gp)
      cc:	85820a03 	lh	v0,2563(t4)
      d0:	4e4b4b83 	c3	0x4b4b83
      d4:	84858383 	lh	a1,-31869(a0)
      d8:	83864b85 	lb	a2,19333(gp)
      dc:	4b858383 	c2	0x1858383
      e0:	4d4b4b4b 	0x4d4b4b4b
      e4:	19031385 	0x19031385
      e8:	11038382 	beq	t0,v1,fffe0ef4 <__flash_start+0x403e0ef4>
      ec:	8683834a 	lh	v1,-31926(s4)
      f0:	4b851583 	c2	0x1851583
      f4:	01000802 	0x1000802
      f8:	00003801 	movf	a3,zero,$fcc0
      fc:	23000200 	addi	zero,t8,512
     100:	01000000 	0x1000000
     104:	0d0efb01 	jal	43bec04 <__memory_size+0x439f404>
     108:	01010100 	0x1010100
     10c:	00000001 	movf	zero,zero,$fcc0
     110:	01000001 	movf	zero,t0,$fcc0
     114:	746f6f62 	jalx	1bdbd88 <__memory_size+0x1bbc588>
     118:	75640000 	jalx	5900000 <__memory_size+0x58e0800>
     11c:	2e796d6d 	sltiu	t9,s3,28013
     120:	00010053 	0x10053
     124:	05000000 	bltz	t0,128 <__isr_vec_space+0x108>
     128:	00063c02 	srl	a3,a2,0x10
     12c:	01390380 	0x1390380
     130:	01000402 	0x1000402
     134:	00005101 	0x5101
     138:	27000200 	addiu	zero,t8,512
     13c:	01000000 	0x1000000
     140:	0d0efb01 	jal	43bec04 <__memory_size+0x439f404>
     144:	01010100 	0x1010100
     148:	00000001 	movf	zero,zero,$fcc0
     14c:	01000001 	movf	zero,t0,$fcc0
     150:	636f7270 	0x636f7270
     154:	00737365 	0x737365
     158:	69777300 	0x69777300
     15c:	2e686374 	sltiu	t0,s3,25460
     160:	00010053 	0x10053
     164:	05000000 	bltz	t0,168 <__isr_vec_space+0x148>
     168:	00064002 	srl	t0,a2,0x0
     16c:	4b4b1980 	c2	0x14b1980
     170:	4b4b4b4b 	c2	0x14b4b4b
     174:	4b4b4b4b 	c2	0x14b4b4b
     178:	4b4b4b4c 	c2	0x14b4b4c
     17c:	4b4b4b4b 	c2	0x14b4b4b
     180:	4c4c4b4b 	0x4c4c4b4b
     184:	0008024c 	syscall	0x2009
     188:	00970101 	0x970101
     18c:	00020000 	sll	zero,v0,0x0
     190:	0000001e 	0x1e
     194:	0efb0101 	jal	bec0404 <__memory_size+0xbea0c04>
     198:	0101000d 	break	0x101
     19c:	00000101 	0x101
     1a0:	00000100 	sll	zero,zero,0x4
     1a4:	65640001 	0x65640001
     1a8:	2e677562 	sltiu	a3,s3,30050
     1ac:	00000063 	0x63
     1b0:	05000000 	bltz	t0,1b4 <__isr_vec_space+0x194>
     1b4:	0006c002 	srl	t8,a2,0x0
     1b8:	00c50380 	0xc50380
     1bc:	4cf51401 	0x4cf51401
     1c0:	03040200 	0x3040200
     1c4:	06ac0806 	teqi	s5,2054
     1c8:	03132402 	0x3132402
     1cc:	86827fb7 	lh	v0,32695(s4)
     1d0:	00858683 	0x858683
     1d4:	47020402 	bz.b	$w2,11e0 <__isr_vec_space+0x11c0>
     1d8:	02040200 	0x2040200
     1dc:	0200e508 	0x200e508
     1e0:	00830204 	0x830204
     1e4:	4b020402 	c2	0x1020402
     1e8:	02040200 	0x2040200
     1ec:	040200bb 	bltzl	zero,4dc <__isr_vec_space+0x4bc>
     1f0:	0200f302 	0x200f302
     1f4:	004b0204 	0x4b0204
     1f8:	bb020402 	swr	v0,1026(t8)
     1fc:	01040200 	0x1040200
     200:	f4068206 	sdc1	$f6,-32250(zero)
     204:	03bc84f4 	teq	sp,gp,0x213
     208:	4c84820d 	0x4c84820d
     20c:	bb83bb83 	swr	v1,-17533(gp)
     210:	bb83bb83 	swr	v1,-17533(gp)
     214:	bb83bb83 	swr	v1,-17533(gp)
     218:	bc83bb83 	cache	0x3,-17533(a0)
     21c:	bb83bc83 	swr	v1,-17277(gp)
     220:	01000c02 	0x1000c02
     224:	0002b301 	0x2b301
     228:	1d000200 	bgtz	t0,a2c <__isr_vec_space+0xa0c>
     22c:	01000002 	0x1000002
     230:	0d0efb01 	jal	43bec04 <__memory_size+0x439f404>
     234:	01010100 	0x1010100
     238:	00000001 	movf	zero,zero,$fcc0
     23c:	01000001 	movf	zero,t0,$fcc0
     240:	636f7270 	0x636f7270
     244:	00737365 	0x737365
     248:	6e692f2e 	0x6e692f2e
     24c:	64756c63 	0x64756c63
     250:	696c2f65 	0x696c2f65
     254:	3a630062 	xori	v1,s3,0x62
     258:	6f72705c 	0x6f72705c
     25c:	7e617267 	0x7e617267
     260:	6d695c31 	0x6d695c31
     264:	6e696761 	0x6e696761
     268:	745c317e 	jalx	170c5f8 <__memory_size+0x16ecdf8>
     26c:	636c6f6f 	0x636c6f6f
     270:	5c317e68 	0x5c317e68
     274:	7370696d 	s16sdi	xr5,k1,52,
     278:	69746d2d 	0x69746d2d
     27c:	666c652d 	0x666c652d
     280:	3130325c 	andi	s0,t1,0x325c
     284:	35302e36 	ori	s0,t1,0x2e36
     288:	5c33302d 	0x5c33302d
     28c:	7370696d 	s16sdi	xr5,k1,52,
     290:	69746d2d 	0x69746d2d
     294:	666c652d 	0x666c652d
     298:	636e695c 	0x636e695c
     29c:	6564756c 	0x6564756c
     2a0:	63616d5c 	0x63616d5c
     2a4:	656e6968 	0x656e6968
     2a8:	5c3a6300 	0x5c3a6300
     2ac:	676f7270 	0x676f7270
     2b0:	317e6172 	andi	s8,t3,0x6172
     2b4:	616d695c 	0x616d695c
     2b8:	7e6e6967 	0x7e6e6967
     2bc:	6f745c31 	0x6f745c31
     2c0:	68636c6f 	0x68636c6f
     2c4:	6d5c317e 	0x6d5c317e
     2c8:	2d737069 	sltiu	s3,t3,28777
     2cc:	2d69746d 	sltiu	t1,t3,29805
     2d0:	5c666c65 	0x5c666c65
     2d4:	36313032 	ori	s1,s1,0x3032
     2d8:	2d35302e 	sltiu	s5,t1,12334
     2dc:	6d5c3330 	0x6d5c3330
     2e0:	2d737069 	sltiu	s3,t3,28777
     2e4:	2d69746d 	sltiu	t1,t3,29805
     2e8:	5c666c65 	0x5c666c65
     2ec:	6c636e69 	0x6c636e69
     2f0:	00656475 	0x656475
     2f4:	705c3a63 	s8std	xr9,v0,14,
     2f8:	72676f72 	0x72676f72
     2fc:	5c317e61 	0x5c317e61
     300:	67616d69 	0x67616d69
     304:	317e6e69 	andi	s8,t3,0x6e69
     308:	6f6f745c 	0x6f6f745c
     30c:	7e68636c 	0x7e68636c
     310:	696d5c31 	0x696d5c31
     314:	6d2d7370 	0x6d2d7370
     318:	652d6974 	0x652d6974
     31c:	325c666c 	andi	gp,s2,0x666c
     320:	2e363130 	sltiu	s6,s1,12592
     324:	302d3530 	andi	t5,at,0x3530
     328:	696c5c33 	0x696c5c33
     32c:	63675c62 	0x63675c62
     330:	696d5c63 	0x696d5c63
     334:	6d2d7370 	0x6d2d7370
     338:	652d6974 	0x652d6974
     33c:	345c666c 	ori	gp,v0,0x666c
     340:	322e392e 	andi	t6,s1,0x392e
     344:	636e695c 	0x636e695c
     348:	6564756c 	0x6564756c
     34c:	5c3a6300 	0x5c3a6300
     350:	676f7270 	0x676f7270
     354:	317e6172 	andi	s8,t3,0x6172
     358:	616d695c 	0x616d695c
     35c:	7e6e6967 	0x7e6e6967
     360:	6f745c31 	0x6f745c31
     364:	68636c6f 	0x68636c6f
     368:	6d5c317e 	0x6d5c317e
     36c:	2d737069 	sltiu	s3,t3,28777
     370:	2d69746d 	sltiu	t1,t3,29805
     374:	5c666c65 	0x5c666c65
     378:	36313032 	ori	s1,s1,0x3032
     37c:	2d35302e 	sltiu	s5,t1,12334
     380:	6d5c3330 	0x6d5c3330
     384:	2d737069 	sltiu	s3,t3,28777
     388:	2d69746d 	sltiu	t1,t3,29805
     38c:	5c666c65 	0x5c666c65
     390:	6c636e69 	0x6c636e69
     394:	5c656475 	0x5c656475
     398:	00737973 	tltu	v1,s3,0x1e5
     39c:	6e692f2e 	0x6e692f2e
     3a0:	64756c63 	0x64756c63
     3a4:	2f2e0065 	sltiu	t6,t9,101
     3a8:	6c636e69 	0x6c636e69
     3ac:	2f656475 	sltiu	a1,k1,25717
     3b0:	6b736174 	0x6b736174
     3b4:	692f2e00 	0x692f2e00
     3b8:	756c636e 	jalx	5b18db8 <__memory_size+0x5af95b8>
     3bc:	6d2f6564 	0x6d2f6564
     3c0:	7000006d 	s16sdi	xr1,zero,0,ptn0
     3c4:	2e636f72 	sltiu	v1,s3,28530
     3c8:	00010063 	0x10063
     3cc:	73696c00 	0x73696c00
     3d0:	00682e74 	teq	v1,t0,0xb9
     3d4:	5f000002 	bgtzl	t8,3e0 <__isr_vec_space+0x3c0>
     3d8:	61666564 	0x61666564
     3dc:	5f746c75 	0x5f746c75
     3e0:	65707974 	0x65707974
     3e4:	00682e73 	tltu	v1,t0,0xb9
     3e8:	73000003 	0x73000003
     3ec:	6e696474 	0x6e696474
     3f0:	00682e74 	teq	v1,t0,0xb9
     3f4:	73000004 	msub	t8,zero
     3f8:	65646474 	0x65646474
     3fc:	00682e66 	0x682e66
     400:	74000005 	jalx	14 <ABIFlags_flags2>
     404:	73657079 	0x73657079
     408:	0600682e 	bltz	s0,1a4c4 <__isr_vec_space+0x1a4a4>
     40c:	79740000 	ori.b	$w0,$w0,0x74
     410:	2e736570 	sltiu	s3,s3,25968
     414:	00070068 	0x70068
     418:	6f727000 	0x6f727000
     41c:	00682e63 	0x682e63
     420:	76000008 	jalx	8000020 <__memory_size+0x7fe0820>
     424:	682e6d6d 	0x682e6d6d
     428:	00000900 	sll	at,zero,0x4
     42c:	75626564 	jalx	5899590 <__memory_size+0x5879d90>
     430:	00682e67 	0x682e67
     434:	73000007 	0x73000007
     438:	6e697274 	0x6e697274
     43c:	00682e67 	0x682e67
     440:	6d000007 	0x6d000007
     444:	00682e6d 	0x682e6d
     448:	00000009 	jalr	zero,zero
     44c:	bc020500 	cache	0x2,1280(zero)
     450:	03800008 	jr	gp
     454:	850100d6 	lh	at,214(t0)
     458:	7fb803bb 	0x7fb803bb
     45c:	8385bbba 	lb	a1,-17478(gp)
     460:	4c4b4b83 	0x4c4b4b83
     464:	4108f8f4 	0x4108f8f4
     468:	3d083d08 	0x3d083d08
     46c:	134008f3 	beqz	k0,283c <__isr_vec_space+0x281c>
     470:	f4820c03 	sdc1	$f2,3075(a0)
     474:	03ba7203 	0x3ba7203
     478:	bd844a12 	cache	0x4,18962(t4)
     47c:	6703bb83 	0x6703bb83
     480:	4a1d03ba 	c2	0x1d03ba
     484:	3c081903 	lui	t0,0x1903
     488:	08bcb108 	j	2f2c420 <__memory_size+0x2f0cc20>
     48c:	83868477 	lb	a2,-31625(gp)
     490:	4a58034c 	c2	0x58034c
     494:	4bf22b03 	c2	0x1f22b03
     498:	03020485 	0x3020485
     49c:	034a7fa7 	0x34a7fa7
     4a0:	4b4b8278 	c2	0x14b8278
     4a4:	0301044b 	0x301044b
     4a8:	bb4a00e1 	swr	t2,225(k0)
     4ac:	24024e84 	li	v0,20100
     4b0:	03020415 	0x3020415
     4b4:	83ba7f8b 	lb	k0,32651(sp)
     4b8:	f9030104 	sdc2	$3,260(t0)
     4bc:	bdbb4a00 	cache	0x1b,18944(t5)
     4c0:	834b834b 	lb	t3,-31925(k0)
     4c4:	bbf384bb 	swr	s3,-31557(ra)
     4c8:	08bb834b 	j	2ee0d2c <__memory_size+0x2ec152c>
     4cc:	f5f48341 	sdc1	$f20,-31935(t7)
     4d0:	f37e85f6 	0xf37e85f6
     4d4:	02838483 	0x2838483
     4d8:	01010008 	0x1010008
     4dc:	000001a9 	0x1a9
     4e0:	01780002 	0x1780002
     4e4:	01010000 	0x1010000
     4e8:	000d0efb 	0xd0efb
     4ec:	01010101 	0x1010101
     4f0:	01000000 	0x1000000
     4f4:	73010000 	madd	t8,at
     4f8:	64656863 	0x64656863
     4fc:	00656c75 	0x656c75
     500:	705c3a63 	s8std	xr9,v0,14,
     504:	72676f72 	0x72676f72
     508:	5c317e61 	0x5c317e61
     50c:	67616d69 	0x67616d69
     510:	317e6e69 	andi	s8,t3,0x6e69
     514:	6f6f745c 	0x6f6f745c
     518:	7e68636c 	0x7e68636c
     51c:	696d5c31 	0x696d5c31
     520:	6d2d7370 	0x6d2d7370
     524:	652d6974 	0x652d6974
     528:	325c666c 	andi	gp,s2,0x666c
     52c:	2e363130 	sltiu	s6,s1,12592
     530:	302d3530 	andi	t5,at,0x3530
     534:	696d5c33 	0x696d5c33
     538:	6d2d7370 	0x6d2d7370
     53c:	652d6974 	0x652d6974
     540:	695c666c 	0x695c666c
     544:	756c636e 	jalx	5b18db8 <__memory_size+0x5af95b8>
     548:	6d5c6564 	0x6d5c6564
     54c:	69686361 	0x69686361
     550:	6300656e 	0x6300656e
     554:	72705c3a 	0x72705c3a
     558:	6172676f 	0x6172676f
     55c:	695c317e 	0x695c317e
     560:	6967616d 	0x6967616d
     564:	5c317e6e 	0x5c317e6e
     568:	6c6f6f74 	0x6c6f6f74
     56c:	317e6863 	andi	s8,t3,0x6863
     570:	70696d5c 	udi12	v1,t1,t5,0x15
     574:	746d2d73 	jalx	1b4b5cc <__memory_size+0x1b2bdcc>
     578:	6c652d69 	0x6c652d69
     57c:	30325c66 	andi	s2,at,0x5c66
     580:	302e3631 	andi	t6,at,0x3631
     584:	33302d35 	andi	s0,t9,0x2d35
     588:	70696d5c 	udi12	v1,t1,t5,0x15
     58c:	746d2d73 	jalx	1b4b5cc <__memory_size+0x1b2bdcc>
     590:	6c652d69 	0x6c652d69
     594:	6e695c66 	0x6e695c66
     598:	64756c63 	0x64756c63
     59c:	3a630065 	xori	v1,s3,0x65
     5a0:	6f72705c 	0x6f72705c
     5a4:	7e617267 	0x7e617267
     5a8:	6d695c31 	0x6d695c31
     5ac:	6e696761 	0x6e696761
     5b0:	745c317e 	jalx	170c5f8 <__memory_size+0x16ecdf8>
     5b4:	636c6f6f 	0x636c6f6f
     5b8:	5c317e68 	0x5c317e68
     5bc:	7370696d 	s16sdi	xr5,k1,52,
     5c0:	69746d2d 	0x69746d2d
     5c4:	666c652d 	0x666c652d
     5c8:	3130325c 	andi	s0,t1,0x325c
     5cc:	35302e36 	ori	s0,t1,0x2e36
     5d0:	5c33302d 	0x5c33302d
     5d4:	7370696d 	s16sdi	xr5,k1,52,
     5d8:	69746d2d 	0x69746d2d
     5dc:	666c652d 	0x666c652d
     5e0:	636e695c 	0x636e695c
     5e4:	6564756c 	0x6564756c
     5e8:	7379735c 	udi12	k1,t9,t6,0xd
     5ec:	692f2e00 	0x692f2e00
     5f0:	756c636e 	jalx	5b18db8 <__memory_size+0x5af95b8>
     5f4:	2e006564 	sltiu	zero,s0,25956
     5f8:	636e692f 	0x636e692f
     5fc:	6564756c 	0x6564756c
     600:	7361742f 	0x7361742f
     604:	7300006b 	s16std	xr1,t8,0,ptn0
     608:	64656863 	0x64656863
     60c:	0100632e 	0x100632e
     610:	645f0000 	0x645f0000
     614:	75616665 	jalx	5859994 <__memory_size+0x583a194>
     618:	745f746c 	jalx	17dd1b0 <__memory_size+0x17bd9b0>
     61c:	73657079 	0x73657079
     620:	0200682e 	0x200682e
     624:	74730000 	jalx	1cc0000 <__memory_size+0x1ca0800>
     628:	746e6964 	jalx	1b9a590 <__memory_size+0x1b7ad90>
     62c:	0300682e 	0x300682e
     630:	79740000 	ori.b	$w0,$w0,0x74
     634:	2e736570 	sltiu	s3,s3,25968
     638:	00040068 	0x40068
     63c:	70797400 	0x70797400
     640:	682e7365 	0x682e7365
     644:	00000500 	sll	zero,zero,0x14
     648:	636f7270 	0x636f7270
     64c:	0600682e 	bltz	s0,1a708 <__isr_vec_space+0x1a6e8>
     650:	65640000 	0x65640000
     654:	2e677562 	sltiu	a3,s3,30050
     658:	00050068 	0x50068
     65c:	05000000 	bltz	t0,660 <__isr_vec_space+0x640>
     660:	000bf002 	srl	s8,t3,0x0
     664:	03131780 	0x3131780
     668:	c03c0809 	ll	gp,2057(at)
     66c:	4e5248f1 	nmadd.d	$f3,$f18,$f9,$f18
     670:	50eebcf5 	beql	a3,t6,fffefa48 <__flash_start+0x403efa48>
     674:	01040200 	0x1040200
     678:	83820c03 	lb	v0,3075(gp)
     67c:	0385bb4d 	break	0x385,0x2ed
     680:	fa838277 	sdc2	$3,-32137(s4)
     684:	01000c02 	0x1000c02
     688:	00011e01 	0x11e01
     68c:	dd000200 	ldc3	$0,512(t0)
     690:	01000000 	0x1000000
     694:	0d0efb01 	jal	43bec04 <__memory_size+0x439f404>
     698:	01010100 	0x1010100
     69c:	00000001 	movf	zero,zero,$fcc0
     6a0:	01000001 	movf	zero,t0,$fcc0
     6a4:	705c3a63 	s8std	xr9,v0,14,
     6a8:	72676f72 	0x72676f72
     6ac:	5c317e61 	0x5c317e61
     6b0:	67616d69 	0x67616d69
     6b4:	317e6e69 	andi	s8,t3,0x6e69
     6b8:	6f6f745c 	0x6f6f745c
     6bc:	7e68636c 	0x7e68636c
     6c0:	696d5c31 	0x696d5c31
     6c4:	6d2d7370 	0x6d2d7370
     6c8:	652d6974 	0x652d6974
     6cc:	325c666c 	andi	gp,s2,0x666c
     6d0:	2e363130 	sltiu	s6,s1,12592
     6d4:	302d3530 	andi	t5,at,0x3530
     6d8:	696d5c33 	0x696d5c33
     6dc:	6d2d7370 	0x6d2d7370
     6e0:	652d6974 	0x652d6974
     6e4:	695c666c 	0x695c666c
     6e8:	756c636e 	jalx	5b18db8 <__memory_size+0x5af95b8>
     6ec:	6d5c6564 	0x6d5c6564
     6f0:	69686361 	0x69686361
     6f4:	6300656e 	0x6300656e
     6f8:	72705c3a 	0x72705c3a
     6fc:	6172676f 	0x6172676f
     700:	695c317e 	0x695c317e
     704:	6967616d 	0x6967616d
     708:	5c317e6e 	0x5c317e6e
     70c:	6c6f6f74 	0x6c6f6f74
     710:	317e6863 	andi	s8,t3,0x6863
     714:	70696d5c 	udi12	v1,t1,t5,0x15
     718:	746d2d73 	jalx	1b4b5cc <__memory_size+0x1b2bdcc>
     71c:	6c652d69 	0x6c652d69
     720:	30325c66 	andi	s2,at,0x5c66
     724:	302e3631 	andi	t6,at,0x3631
     728:	33302d35 	andi	s0,t9,0x2d35
     72c:	70696d5c 	udi12	v1,t1,t5,0x15
     730:	746d2d73 	jalx	1b4b5cc <__memory_size+0x1b2bdcc>
     734:	6c652d69 	0x6c652d69
     738:	6e695c66 	0x6e695c66
     73c:	64756c63 	0x64756c63
     740:	6d000065 	0x6d000065
     744:	6d702f6d 	0x6d702f6d
     748:	00632e6d 	0x632e6d
     74c:	5f000000 	bgtzl	t8,750 <__isr_vec_space+0x730>
     750:	61666564 	0x61666564
     754:	5f746c75 	0x5f746c75
     758:	65707974 	0x65707974
     75c:	00682e73 	tltu	v1,t0,0xb9
     760:	73000001 	maddu	t8,zero
     764:	6e696474 	0x6e696474
     768:	00682e74 	teq	v1,t0,0xb9
     76c:	00000002 	srl	zero,zero,0x0
     770:	b0020500 	0xb0020500
     774:	0380000c 	syscall	0xe0000
     778:	f515011b 	sdc1	$f21,283(t0)
     77c:	83847508 	lb	a0,29960(gp)
     780:	08f41585 	j	3d05614 <__memory_size+0x3ce5e14>
     784:	085e0375 	j	1780dd4 <__memory_size+0x17615d4>
     788:	be83f33c 	cache	0x3,-3268(s4)
     78c:	03040200 	0x3040200
     790:	04020084 	bltzl	zero,9a4 <__isr_vec_space+0x984>
     794:	02008303 	0x2008303
     798:	004b0304 	0x4b0304
     79c:	7e030402 	0x7e030402
     7a0:	08190388 	j	640e20 <__memory_size+0x621620>
     7a4:	0c02143c 	jal	850f0 <__memory_size+0x658f0>
     7a8:	f6010100 	sdc1	$f1,256(s0)
     7ac:	02000003 	0x2000003
     7b0:	0001d200 	sll	k0,at,0x8
     7b4:	fb010100 	sdc2	$1,256(t8)
     7b8:	01000d0e 	0x1000d0e
     7bc:	00010101 	0x10101
     7c0:	00010000 	sll	zero,at,0x0
     7c4:	3a630100 	xori	v1,s3,0x100
     7c8:	6f72705c 	0x6f72705c
     7cc:	7e617267 	0x7e617267
     7d0:	6d695c31 	0x6d695c31
     7d4:	6e696761 	0x6e696761
     7d8:	745c317e 	jalx	170c5f8 <__memory_size+0x16ecdf8>
     7dc:	636c6f6f 	0x636c6f6f
     7e0:	5c317e68 	0x5c317e68
     7e4:	7370696d 	s16sdi	xr5,k1,52,
     7e8:	69746d2d 	0x69746d2d
     7ec:	666c652d 	0x666c652d
     7f0:	3130325c 	andi	s0,t1,0x325c
     7f4:	35302e36 	ori	s0,t1,0x2e36
     7f8:	5c33302d 	0x5c33302d
     7fc:	7370696d 	s16sdi	xr5,k1,52,
     800:	69746d2d 	0x69746d2d
     804:	666c652d 	0x666c652d
     808:	636e695c 	0x636e695c
     80c:	6564756c 	0x6564756c
     810:	63616d5c 	0x63616d5c
     814:	656e6968 	0x656e6968
     818:	5c3a6300 	0x5c3a6300
     81c:	676f7270 	0x676f7270
     820:	317e6172 	andi	s8,t3,0x6172
     824:	616d695c 	0x616d695c
     828:	7e6e6967 	0x7e6e6967
     82c:	6f745c31 	0x6f745c31
     830:	68636c6f 	0x68636c6f
     834:	6d5c317e 	0x6d5c317e
     838:	2d737069 	sltiu	s3,t3,28777
     83c:	2d69746d 	sltiu	t1,t3,29805
     840:	5c666c65 	0x5c666c65
     844:	36313032 	ori	s1,s1,0x3032
     848:	2d35302e 	sltiu	s5,t1,12334
     84c:	6d5c3330 	0x6d5c3330
     850:	2d737069 	sltiu	s3,t3,28777
     854:	2d69746d 	sltiu	t1,t3,29805
     858:	5c666c65 	0x5c666c65
     85c:	6c636e69 	0x6c636e69
     860:	00656475 	0x656475
     864:	705c3a63 	s8std	xr9,v0,14,
     868:	72676f72 	0x72676f72
     86c:	5c317e61 	0x5c317e61
     870:	67616d69 	0x67616d69
     874:	317e6e69 	andi	s8,t3,0x6e69
     878:	6f6f745c 	0x6f6f745c
     87c:	7e68636c 	0x7e68636c
     880:	696d5c31 	0x696d5c31
     884:	6d2d7370 	0x6d2d7370
     888:	652d6974 	0x652d6974
     88c:	325c666c 	andi	gp,s2,0x666c
     890:	2e363130 	sltiu	s6,s1,12592
     894:	302d3530 	andi	t5,at,0x3530
     898:	696c5c33 	0x696c5c33
     89c:	63675c62 	0x63675c62
     8a0:	696d5c63 	0x696d5c63
     8a4:	6d2d7370 	0x6d2d7370
     8a8:	652d6974 	0x652d6974
     8ac:	345c666c 	ori	gp,v0,0x666c
     8b0:	322e392e 	andi	t6,s1,0x392e
     8b4:	636e695c 	0x636e695c
     8b8:	6564756c 	0x6564756c
     8bc:	5c3a6300 	0x5c3a6300
     8c0:	676f7270 	0x676f7270
     8c4:	317e6172 	andi	s8,t3,0x6172
     8c8:	616d695c 	0x616d695c
     8cc:	7e6e6967 	0x7e6e6967
     8d0:	6f745c31 	0x6f745c31
     8d4:	68636c6f 	0x68636c6f
     8d8:	6d5c317e 	0x6d5c317e
     8dc:	2d737069 	sltiu	s3,t3,28777
     8e0:	2d69746d 	sltiu	t1,t3,29805
     8e4:	5c666c65 	0x5c666c65
     8e8:	36313032 	ori	s1,s1,0x3032
     8ec:	2d35302e 	sltiu	s5,t1,12334
     8f0:	6d5c3330 	0x6d5c3330
     8f4:	2d737069 	sltiu	s3,t3,28777
     8f8:	2d69746d 	sltiu	t1,t3,29805
     8fc:	5c666c65 	0x5c666c65
     900:	6c636e69 	0x6c636e69
     904:	5c656475 	0x5c656475
     908:	00737973 	tltu	v1,s3,0x1e5
     90c:	6e692f2e 	0x6e692f2e
     910:	64756c63 	0x64756c63
     914:	2f2e0065 	sltiu	t6,t9,101
     918:	6c636e69 	0x6c636e69
     91c:	2f656475 	sltiu	a1,k1,25717
     920:	00006d6d 	0x6d6d
     924:	762f6d6d 	jalx	8bdb5b4 <__memory_size+0x8bbbdb4>
     928:	632e6d6d 	0x632e6d6d
     92c:	00000000 	nop
     930:	6665645f 	0x6665645f
     934:	746c7561 	jalx	1b1d584 <__memory_size+0x1afdd84>
     938:	7079745f 	udi15	v1,t9,t6,0x11
     93c:	682e7365 	0x682e7365
     940:	00000100 	sll	zero,zero,0x4
     944:	69647473 	0x69647473
     948:	682e746e 	0x682e746e
     94c:	00000200 	sll	zero,zero,0x8
     950:	64647473 	0x64647473
     954:	682e6665 	0x682e6665
     958:	00000300 	sll	zero,zero,0xc
     95c:	65707974 	0x65707974
     960:	00682e73 	tltu	v1,t0,0xb9
     964:	74000004 	jalx	10 <ABIFlags_flags1>
     968:	73657079 	0x73657079
     96c:	0500682e 	bltz	t0,1aa28 <__isr_vec_space+0x1aa08>
     970:	65640000 	0x65640000
     974:	2e677562 	sltiu	a3,s3,30050
     978:	00050068 	0x50068
     97c:	6d6d7600 	0x6d6d7600
     980:	0600682e 	bltz	s0,1aa3c <__isr_vec_space+0x1aa1c>
     984:	00000000 	nop
     988:	0d940205 	jal	6500814 <__memory_size+0x64e1014>
     98c:	e3038000 	sc	v1,-32768(t8)
     990:	03140100 	0x3140100
     994:	28027fab 	slti	v0,zero,32683
     998:	03b10801 	movt	at,sp,$fcc4
     99c:	7203f20e 	q16add	xr8,xr12,xr15,xr0,SA,WW
     9a0:	f3bb5282 	0xf3bb5282
     9a4:	02004008 	0x2004008
     9a8:	72030204 	0x72030204
     9ac:	0814034a 	j	500d28 <__memory_size+0x4e1528>
     9b0:	bdbc8474 	cache	0x1c,-31628(t5)
     9b4:	84bfbc84 	lh	ra,-17276(a1)
     9b8:	84847e84 	lh	a0,32388(a0)
     9bc:	08848446 	j	2121118 <__memory_size+0x2101918>
     9c0:	0e0348ab 	jal	80d22ac <__memory_size+0x80b2aac>
     9c4:	0200454a 	0x200454a
     9c8:	004b0304 	0x4b0304
     9cc:	4b030402 	c2	0x1030402
     9d0:	03040200 	0x3040200
     9d4:	0402004b 	bltzl	zero,b04 <__isr_vec_space+0xae4>
     9d8:	02004b03 	0x2004b03
     9dc:	004b0304 	0x4b0304
     9e0:	b5030402 	0xb5030402
     9e4:	e4081003 	swc1	$f8,4099(zero)
     9e8:	04020045 	bltzl	zero,b00 <__isr_vec_space+0xae0>
     9ec:	02004b03 	0x2004b03
     9f0:	004b0304 	0x4b0304
     9f4:	4b030402 	c2	0x1030402
     9f8:	03040200 	0x3040200
     9fc:	0402004b 	bltzl	zero,b2c <__isr_vec_space+0xb0c>
     a00:	02004b03 	0x2004b03
     a04:	03b50304 	0x3b50304
     a08:	45e40810 	bnz.v	$w4,2a4c <__isr_vec_space+0x2a2c>
     a0c:	03040200 	0x3040200
     a10:	0402004b 	bltzl	zero,b40 <__isr_vec_space+0xb20>
     a14:	02004b03 	0x2004b03
     a18:	004b0304 	0x4b0304
     a1c:	4b030402 	c2	0x1030402
     a20:	03040200 	0x3040200
     a24:	0402004b 	bltzl	zero,b54 <__isr_vec_space+0xb34>
     a28:	088ab503 	j	22ad40c <__memory_size+0x228dc0c>
     a2c:	280214eb 	slti	v0,zero,5355
     a30:	15841515 	bne	t4,a0,5e88 <__isr_vec_space+0x5e68>
     a34:	84bb1484 	lh	k1,5252(a1)
     a38:	03148415 	0x3148415
     a3c:	70034a14 	s32ldi	xr8,zero,840
     a40:	8272034a 	lb	s2,842(s3)
     a44:	3c081503 	lui	t0,0x1503
     a48:	03f26b03 	0x3f26b03
     a4c:	00f3ba15 	0xf3ba15
     a50:	03020402 	0x3020402
     a54:	0b038278 	j	c0e09e0 <__memory_size+0xc0c11e0>
     a58:	82750382 	lb	s5,898(s3)
     a5c:	03827203 	0x3827203
     a60:	0e03820e 	jal	80e0838 <__memory_size+0x80c1038>
     a64:	158415ba 	bne	t4,a0,6150 <__isr_vec_space+0x6130>
     a68:	4a5a0384 	c2	0x5a0384
     a6c:	03f22603 	0x3f22603
     a70:	2b038255 	slti	v1,t8,-32171
     a74:	4a5a0382 	c2	0x5a0382
     a78:	83822603 	lb	v0,9731(gp)
     a7c:	02040200 	0x2040200
     a80:	7a03887f 	0x7a03887f
     a84:	825c03ba 	lb	gp,954(s2)
     a88:	03822403 	0x3822403
     a8c:	83f5ba09 	lb	s5,-17911(ra)
     a90:	080c0384 	j	300e10 <__memory_size+0x2e1610>
     a94:	4cbe133c 	0x4cbe133c
     a98:	827fb503 	lb	ra,-19197(s3)
     a9c:	4a00cb03 	c2	0xcb03
     aa0:	b5037f85 	0xb5037f85
     aa4:	cb034a7f 	lwc2	$3,19071(t8)
     aa8:	4bbc4a00 	c2	0x1bc4a00
     aac:	040200f3 	bltzl	zero,e7c <__isr_vec_space+0xe5c>
     ab0:	827a0302 	lb	k0,770(s3)
     ab4:	063c0806 	0x63c0806
     ab8:	3c087103 	lui	t0,0x7103
     abc:	83bb8383 	lb	k1,-31869(sp)
     ac0:	8383bb83 	lb	v1,-17533(gp)
     ac4:	14ba1203 	bne	a1,k0,52d4 <__isr_vec_space+0x52b4>
     ac8:	49038484 	bc2tl	fffe1cdc <__flash_start+0x403e1cdc>
     acc:	4a3a0382 	c2	0x3a0382
     ad0:	7fa60384 	ins	a2,sp,0xe,0xfffffff3
     ad4:	00da0382 	0xda0382
     ad8:	7fa603f2 	0x7fa603f2
     adc:	da033c08 	ldc2	$3,15368(s0)
     ae0:	00838200 	0x838200
     ae4:	ef020402 	swc3	$2,1026(t8)
     ae8:	827a03c0 	lb	k0,960(s3)
     aec:	827fa803 	lb	ra,-22525(s3)
     af0:	8200d803 	lb	zero,-10237(s0)
     af4:	8419bcc1 	lh	t9,-17215(zero)
     af8:	08790817 	j	1e4205c <__memory_size+0x1e2285c>
     afc:	0402003a 	bltzl	zero,be8 <__isr_vec_space+0xbc8>
     b00:	06f20601 	bltzall	s7,2308 <__isr_vec_space+0x22e8>
     b04:	848a7208 	lh	t2,29192(a0)
     b08:	bcbcbc18 	cache	0x1c,-17384(a1)
     b0c:	84bb4cbc 	lh	k1,19644(a1)
     b10:	3b084d13 	xori	t0,t8,0x4d13
     b14:	04020083 	bltzl	zero,d24 <__isr_vec_space+0xd04>
     b18:	7ebeb902 	0x7ebeb902
     b1c:	1628024e 	bne	s1,t0,1458 <__isr_vec_space+0x1438>
     b20:	73084df4 	q16sll	xr7,xr3,xr1,xr2,12
     b24:	04020083 	bltzl	zero,d34 <__isr_vec_space+0xd14>
     b28:	0806b902 	j	1ae408 <__memory_size+0x18ec08>
     b2c:	bb4e063c 	swr	t6,1596(k0)
     b30:	02f4e508 	0x2f4e508
     b34:	4fbc1830 	nmadd.s	$f0,$f29,$f3,$f28
     b38:	844a7903 	lh	t2,30979(v0)
     b3c:	4a7ed903 	c2	0x7ed903
     b40:	4a01a703 	c2	0x1a703
     b44:	01040200 	0x1040200
     b48:	08068206 	j	1a0818 <__memory_size+0x181018>
     b4c:	03f5833d 	0x3f5833d
     b50:	03827ecf 	0x3827ecf
     b54:	088201b3 	j	20806cc <__memory_size+0x2060ecc>
     b58:	04020079 	bltzl	zero,d40 <__isr_vec_space+0xd20>
     b5c:	82720302 	lb	s2,770(s3)
     b60:	4bba1103 	c2	0x1ba1103
     b64:	13152c02 	beq	t8,s5,bb70 <__isr_vec_space+0xbb50>
     b68:	4a7eb603 	c2	0x7eb603
     b6c:	4a01ce03 	c2	0x1ce03
     b70:	827eb703 	lb	s8,-18685(s3)
     b74:	8201cb03 	lb	at,-13565(s0)
     b78:	7eb40383 	0x7eb40383
     b7c:	01cb0382 	0x1cb0382
     b80:	08bbbb82 	j	2eeee08 <__memory_size+0x2ecf608>
     b84:	4a79033d 	c2	0x79033d
     b88:	f3f3f351 	0xf3f3f351
     b8c:	040200bb 	bltzl	zero,e7c <__isr_vec_space+0xe5c>
     b90:	08770302 	j	1dc0c08 <__memory_size+0x1da1408>
     b94:	06f20674 	bltzall	s7,2568 <__isr_vec_space+0x2548>
     b98:	3c081103 	lui	t0,0x1103
     b9c:	83878584 	lb	a3,-31356(gp)
     ba0:	01000c02 	0x1000c02
     ba4:	00026601 	0x26601
     ba8:	cf000200 	pref	0x0,512(t8)
     bac:	01000001 	movf	zero,t0,$fcc0
     bb0:	0d0efb01 	jal	43bec04 <__memory_size+0x439f404>
     bb4:	01010100 	0x1010100
     bb8:	00000001 	movf	zero,zero,$fcc0
     bbc:	01000001 	movf	zero,t0,$fcc0
     bc0:	705c3a63 	s8std	xr9,v0,14,
     bc4:	72676f72 	0x72676f72
     bc8:	5c317e61 	0x5c317e61
     bcc:	67616d69 	0x67616d69
     bd0:	317e6e69 	andi	s8,t3,0x6e69
     bd4:	6f6f745c 	0x6f6f745c
     bd8:	7e68636c 	0x7e68636c
     bdc:	696d5c31 	0x696d5c31
     be0:	6d2d7370 	0x6d2d7370
     be4:	652d6974 	0x652d6974
     be8:	325c666c 	andi	gp,s2,0x666c
     bec:	2e363130 	sltiu	s6,s1,12592
     bf0:	302d3530 	andi	t5,at,0x3530
     bf4:	696d5c33 	0x696d5c33
     bf8:	6d2d7370 	0x6d2d7370
     bfc:	652d6974 	0x652d6974
     c00:	695c666c 	0x695c666c
     c04:	756c636e 	jalx	5b18db8 <__memory_size+0x5af95b8>
     c08:	6d5c6564 	0x6d5c6564
     c0c:	69686361 	0x69686361
     c10:	6300656e 	0x6300656e
     c14:	72705c3a 	0x72705c3a
     c18:	6172676f 	0x6172676f
     c1c:	695c317e 	0x695c317e
     c20:	6967616d 	0x6967616d
     c24:	5c317e6e 	0x5c317e6e
     c28:	6c6f6f74 	0x6c6f6f74
     c2c:	317e6863 	andi	s8,t3,0x6863
     c30:	70696d5c 	udi12	v1,t1,t5,0x15
     c34:	746d2d73 	jalx	1b4b5cc <__memory_size+0x1b2bdcc>
     c38:	6c652d69 	0x6c652d69
     c3c:	30325c66 	andi	s2,at,0x5c66
     c40:	302e3631 	andi	t6,at,0x3631
     c44:	33302d35 	andi	s0,t9,0x2d35
     c48:	70696d5c 	udi12	v1,t1,t5,0x15
     c4c:	746d2d73 	jalx	1b4b5cc <__memory_size+0x1b2bdcc>
     c50:	6c652d69 	0x6c652d69
     c54:	6e695c66 	0x6e695c66
     c58:	64756c63 	0x64756c63
     c5c:	3a630065 	xori	v1,s3,0x65
     c60:	6f72705c 	0x6f72705c
     c64:	7e617267 	0x7e617267
     c68:	6d695c31 	0x6d695c31
     c6c:	6e696761 	0x6e696761
     c70:	745c317e 	jalx	170c5f8 <__memory_size+0x16ecdf8>
     c74:	636c6f6f 	0x636c6f6f
     c78:	5c317e68 	0x5c317e68
     c7c:	7370696d 	s16sdi	xr5,k1,52,
     c80:	69746d2d 	0x69746d2d
     c84:	666c652d 	0x666c652d
     c88:	3130325c 	andi	s0,t1,0x325c
     c8c:	35302e36 	ori	s0,t1,0x2e36
     c90:	5c33302d 	0x5c33302d
     c94:	5c62696c 	0x5c62696c
     c98:	5c636367 	0x5c636367
     c9c:	7370696d 	s16sdi	xr5,k1,52,
     ca0:	69746d2d 	0x69746d2d
     ca4:	666c652d 	0x666c652d
     ca8:	392e345c 	xori	t6,t1,0x345c
     cac:	695c322e 	0x695c322e
     cb0:	756c636e 	jalx	5b18db8 <__memory_size+0x5af95b8>
     cb4:	63006564 	0x63006564
     cb8:	72705c3a 	0x72705c3a
     cbc:	6172676f 	0x6172676f
     cc0:	695c317e 	0x695c317e
     cc4:	6967616d 	0x6967616d
     cc8:	5c317e6e 	0x5c317e6e
     ccc:	6c6f6f74 	0x6c6f6f74
     cd0:	317e6863 	andi	s8,t3,0x6863
     cd4:	70696d5c 	udi12	v1,t1,t5,0x15
     cd8:	746d2d73 	jalx	1b4b5cc <__memory_size+0x1b2bdcc>
     cdc:	6c652d69 	0x6c652d69
     ce0:	30325c66 	andi	s2,at,0x5c66
     ce4:	302e3631 	andi	t6,at,0x3631
     ce8:	33302d35 	andi	s0,t9,0x2d35
     cec:	70696d5c 	udi12	v1,t1,t5,0x15
     cf0:	746d2d73 	jalx	1b4b5cc <__memory_size+0x1b2bdcc>
     cf4:	6c652d69 	0x6c652d69
     cf8:	6e695c66 	0x6e695c66
     cfc:	64756c63 	0x64756c63
     d00:	79735c65 	st.h	$w17,742(t3)
     d04:	2f2e0073 	sltiu	t6,t9,115
     d08:	6c636e69 	0x6c636e69
     d0c:	00656475 	0x656475
     d10:	6e692f2e 	0x6e692f2e
     d14:	64756c63 	0x64756c63
     d18:	6d6d2f65 	0x6d6d2f65
     d1c:	6d6d0000 	0x6d6d0000
     d20:	2e6d6d2f 	sltiu	t5,s3,27951
     d24:	00000063 	0x63
     d28:	65645f00 	0x65645f00
     d2c:	6c756166 	0x6c756166
     d30:	79745f74 	0x79745f74
     d34:	2e736570 	sltiu	s3,s3,25968
     d38:	00010068 	0x10068
     d3c:	64747300 	0x64747300
     d40:	2e746e69 	sltiu	s4,s3,28265
     d44:	00020068 	0x20068
     d48:	64747300 	0x64747300
     d4c:	2e666564 	sltiu	a2,s3,25956
     d50:	00030068 	0x30068
     d54:	70797400 	0x70797400
     d58:	682e7365 	0x682e7365
     d5c:	00000400 	sll	zero,zero,0x10
     d60:	65707974 	0x65707974
     d64:	00682e73 	tltu	v1,t0,0xb9
     d68:	76000005 	jalx	8000014 <__memory_size+0x7fe0814>
     d6c:	682e6d6d 	0x682e6d6d
     d70:	00000600 	sll	zero,zero,0x18
     d74:	2e6d6d70 	sltiu	t5,s3,28016
     d78:	00060068 	0x60068
     d7c:	05000000 	bltz	t0,d80 <__isr_vec_space+0xd60>
     d80:	00167402 	srl	t6,s6,0x10
     d84:	85141a80 	lh	s4,6784(t0)
     d88:	03040200 	0x3040200
     d8c:	02007608 	0x2007608
     d90:	004b0304 	0x4b0304
     d94:	80030402 	lb	v1,1026(zero)
     d98:	83838981 	lb	v1,-30335(gp)
     d9c:	081503bc 	j	540ef0 <__memory_size+0x5216f0>
     da0:	ba2503e4 	swr	a1,996(s1)
     da4:	3c085d03 	lui	t0,0x5d03
     da8:	83fa85bc 	lb	k0,-31300(ra)
     dac:	8587f6f7 	lh	a3,-2313(t4)
     db0:	44084888 	0x44084888
     db4:	00420883 	0x420883
     db8:	f3030402 	0xf3030402
     dbc:	03040200 	0x3040200
     dc0:	04020083 	bltzl	zero,fd0 <__isr_vec_space+0xfb0>
     dc4:	0a03f003 	j	80fc00c <__memory_size+0x80dc80c>
     dc8:	08750882 	j	1d42208 <__memory_size+0x1d22a08>
     dcc:	826c0376 	lb	t4,886(s3)
     dd0:	08160383 	j	580e0c <__memory_size+0x56160c>
     dd4:	14240274 	bne	at,a0,17a8 <__isr_vec_space+0x1788>
     dd8:	b9bbb208 	swr	k1,-19960(t5)
     ddc:	7608be83 	jalx	822fa0c <__memory_size+0x821020c>
     de0:	03040200 	0x3040200
     de4:	040200bc 	bltzl	zero,10d8 <__isr_vec_space+0x10b8>
     de8:	0200bb03 	0x200bb03
     dec:	00830304 	0x830304
     df0:	7e030402 	0x7e030402
     df4:	2c024bc2 	sltiu	v0,zero,19394
     df8:	7e848313 	0x7e848313
     dfc:	69034cc0 	0x69034cc0
     e00:	040200f2 	bltzl	zero,11cc <__isr_vec_space+0x11ac>
     e04:	1d034902 	0x1d034902
     e08:	200283ba 	addi	v0,zero,-31814
     e0c:	2f010100 	sltiu	at,t8,256
     e10:	02000002 	0x2000002
     e14:	0001de00 	sll	k1,at,0x18
     e18:	fb010100 	sdc2	$1,256(t8)
     e1c:	01000d0e 	0x1000d0e
     e20:	00010101 	0x10101
     e24:	00010000 	sll	zero,at,0x0
     e28:	3a630100 	xori	v1,s3,0x100
     e2c:	6f72705c 	0x6f72705c
     e30:	7e617267 	0x7e617267
     e34:	6d695c31 	0x6d695c31
     e38:	6e696761 	0x6e696761
     e3c:	745c317e 	jalx	170c5f8 <__memory_size+0x16ecdf8>
     e40:	636c6f6f 	0x636c6f6f
     e44:	5c317e68 	0x5c317e68
     e48:	7370696d 	s16sdi	xr5,k1,52,
     e4c:	69746d2d 	0x69746d2d
     e50:	666c652d 	0x666c652d
     e54:	3130325c 	andi	s0,t1,0x325c
     e58:	35302e36 	ori	s0,t1,0x2e36
     e5c:	5c33302d 	0x5c33302d
     e60:	7370696d 	s16sdi	xr5,k1,52,
     e64:	69746d2d 	0x69746d2d
     e68:	666c652d 	0x666c652d
     e6c:	636e695c 	0x636e695c
     e70:	6564756c 	0x6564756c
     e74:	63616d5c 	0x63616d5c
     e78:	656e6968 	0x656e6968
     e7c:	5c3a6300 	0x5c3a6300
     e80:	676f7270 	0x676f7270
     e84:	317e6172 	andi	s8,t3,0x6172
     e88:	616d695c 	0x616d695c
     e8c:	7e6e6967 	0x7e6e6967
     e90:	6f745c31 	0x6f745c31
     e94:	68636c6f 	0x68636c6f
     e98:	6d5c317e 	0x6d5c317e
     e9c:	2d737069 	sltiu	s3,t3,28777
     ea0:	2d69746d 	sltiu	t1,t3,29805
     ea4:	5c666c65 	0x5c666c65
     ea8:	36313032 	ori	s1,s1,0x3032
     eac:	2d35302e 	sltiu	s5,t1,12334
     eb0:	6d5c3330 	0x6d5c3330
     eb4:	2d737069 	sltiu	s3,t3,28777
     eb8:	2d69746d 	sltiu	t1,t3,29805
     ebc:	5c666c65 	0x5c666c65
     ec0:	6c636e69 	0x6c636e69
     ec4:	00656475 	0x656475
     ec8:	705c3a63 	s8std	xr9,v0,14,
     ecc:	72676f72 	0x72676f72
     ed0:	5c317e61 	0x5c317e61
     ed4:	67616d69 	0x67616d69
     ed8:	317e6e69 	andi	s8,t3,0x6e69
     edc:	6f6f745c 	0x6f6f745c
     ee0:	7e68636c 	0x7e68636c
     ee4:	696d5c31 	0x696d5c31
     ee8:	6d2d7370 	0x6d2d7370
     eec:	652d6974 	0x652d6974
     ef0:	325c666c 	andi	gp,s2,0x666c
     ef4:	2e363130 	sltiu	s6,s1,12592
     ef8:	302d3530 	andi	t5,at,0x3530
     efc:	696c5c33 	0x696c5c33
     f00:	63675c62 	0x63675c62
     f04:	696d5c63 	0x696d5c63
     f08:	6d2d7370 	0x6d2d7370
     f0c:	652d6974 	0x652d6974
     f10:	345c666c 	ori	gp,v0,0x666c
     f14:	322e392e 	andi	t6,s1,0x392e
     f18:	636e695c 	0x636e695c
     f1c:	6564756c 	0x6564756c
     f20:	5c3a6300 	0x5c3a6300
     f24:	676f7270 	0x676f7270
     f28:	317e6172 	andi	s8,t3,0x6172
     f2c:	616d695c 	0x616d695c
     f30:	7e6e6967 	0x7e6e6967
     f34:	6f745c31 	0x6f745c31
     f38:	68636c6f 	0x68636c6f
     f3c:	6d5c317e 	0x6d5c317e
     f40:	2d737069 	sltiu	s3,t3,28777
     f44:	2d69746d 	sltiu	t1,t3,29805
     f48:	5c666c65 	0x5c666c65
     f4c:	36313032 	ori	s1,s1,0x3032
     f50:	2d35302e 	sltiu	s5,t1,12334
     f54:	6d5c3330 	0x6d5c3330
     f58:	2d737069 	sltiu	s3,t3,28777
     f5c:	2d69746d 	sltiu	t1,t3,29805
     f60:	5c666c65 	0x5c666c65
     f64:	6c636e69 	0x6c636e69
     f68:	5c656475 	0x5c656475
     f6c:	00737973 	tltu	v1,s3,0x1e5
     f70:	6e692f2e 	0x6e692f2e
     f74:	64756c63 	0x64756c63
     f78:	2f2e0065 	sltiu	t6,t9,101
     f7c:	6c636e69 	0x6c636e69
     f80:	2f656475 	sltiu	a1,k1,25717
     f84:	00006d6d 	0x6d6d
     f88:	6d2f6d6d 	0x6d2f6d6d
     f8c:	65745f6d 	0x65745f6d
     f90:	632e7473 	0x632e7473
     f94:	00000000 	nop
     f98:	6665645f 	0x6665645f
     f9c:	746c7561 	jalx	1b1d584 <__memory_size+0x1afdd84>
     fa0:	7079745f 	udi15	v1,t9,t6,0x11
     fa4:	682e7365 	0x682e7365
     fa8:	00000100 	sll	zero,zero,0x4
     fac:	69647473 	0x69647473
     fb0:	682e746e 	0x682e746e
     fb4:	00000200 	sll	zero,zero,0x8
     fb8:	64647473 	0x64647473
     fbc:	682e6665 	0x682e6665
     fc0:	00000300 	sll	zero,zero,0xc
     fc4:	65707974 	0x65707974
     fc8:	00682e73 	tltu	v1,t0,0xb9
     fcc:	74000004 	jalx	10 <ABIFlags_flags1>
     fd0:	73657079 	0x73657079
     fd4:	0500682e 	bltz	t0,1b090 <__isr_vec_space+0x1b070>
     fd8:	6d760000 	0x6d760000
     fdc:	00682e6d 	0x682e6d
     fe0:	6d000006 	0x6d000006
     fe4:	00682e6d 	0x682e6d
     fe8:	64000006 	0x64000006
     fec:	67756265 	0x67756265
     ff0:	0500682e 	bltz	t0,1b0ac <__isr_vec_space+0x1b08c>
     ff4:	00000000 	nop
     ff8:	19840205 	0x19840205
     ffc:	02198000 	0x2198000
    1000:	5c021424 	0x5c021424
    1004:	02004917 	0x2004917
    1008:	3d080304 	0x3d080304
    100c:	03040200 	0x3040200
    1010:	3c0806b9 	lui	t0,0x6b9
    1014:	4c475006 	0x4c475006
    1018:	8583f5f3 	lh	v1,-2573(t4)
    101c:	83838389 	lb	v1,-31863(gp)
    1020:	02040200 	0x2040200
    1024:	03ba6c03 	0x3ba6c03
    1028:	4b838218 	c2	0x1838218
    102c:	f5142802 	sdc1	$f20,10242(t0)
    1030:	8383f3f3 	lb	v1,-3085(gp)
    1034:	85838383 	lh	v1,-31869(t4)
    1038:	84147608 	lh	s4,30216(zero)
    103c:	000c0214 	0xc0214
    1040:	02ca0101 	0x2ca0101
    1044:	00020000 	sll	zero,v0,0x0
    1048:	0000026a 	0x26a
    104c:	0efb0101 	jal	bec0404 <__memory_size+0xbea0c04>
    1050:	0101000d 	break	0x101
    1054:	00000101 	0x101
    1058:	00000100 	sll	zero,zero,0x4
    105c:	5c3a6301 	0x5c3a6301
    1060:	676f7270 	0x676f7270
    1064:	317e6172 	andi	s8,t3,0x6172
    1068:	616d695c 	0x616d695c
    106c:	7e6e6967 	0x7e6e6967
    1070:	6f745c31 	0x6f745c31
    1074:	68636c6f 	0x68636c6f
    1078:	6d5c317e 	0x6d5c317e
    107c:	2d737069 	sltiu	s3,t3,28777
    1080:	2d69746d 	sltiu	t1,t3,29805
    1084:	5c666c65 	0x5c666c65
    1088:	36313032 	ori	s1,s1,0x3032
    108c:	2d35302e 	sltiu	s5,t1,12334
    1090:	6d5c3330 	0x6d5c3330
    1094:	2d737069 	sltiu	s3,t3,28777
    1098:	2d69746d 	sltiu	t1,t3,29805
    109c:	5c666c65 	0x5c666c65
    10a0:	6c636e69 	0x6c636e69
    10a4:	5c656475 	0x5c656475
    10a8:	7370696d 	s16sdi	xr5,k1,52,
    10ac:	5c3a6300 	0x5c3a6300
    10b0:	676f7270 	0x676f7270
    10b4:	317e6172 	andi	s8,t3,0x6172
    10b8:	616d695c 	0x616d695c
    10bc:	7e6e6967 	0x7e6e6967
    10c0:	6f745c31 	0x6f745c31
    10c4:	68636c6f 	0x68636c6f
    10c8:	6d5c317e 	0x6d5c317e
    10cc:	2d737069 	sltiu	s3,t3,28777
    10d0:	2d69746d 	sltiu	t1,t3,29805
    10d4:	5c666c65 	0x5c666c65
    10d8:	36313032 	ori	s1,s1,0x3032
    10dc:	2d35302e 	sltiu	s5,t1,12334
    10e0:	6d5c3330 	0x6d5c3330
    10e4:	2d737069 	sltiu	s3,t3,28777
    10e8:	2d69746d 	sltiu	t1,t3,29805
    10ec:	5c666c65 	0x5c666c65
    10f0:	6c636e69 	0x6c636e69
    10f4:	5c656475 	0x5c656475
    10f8:	6863616d 	0x6863616d
    10fc:	00656e69 	0x656e69
    1100:	705c3a63 	s8std	xr9,v0,14,
    1104:	72676f72 	0x72676f72
    1108:	5c317e61 	0x5c317e61
    110c:	67616d69 	0x67616d69
    1110:	317e6e69 	andi	s8,t3,0x6e69
    1114:	6f6f745c 	0x6f6f745c
    1118:	7e68636c 	0x7e68636c
    111c:	696d5c31 	0x696d5c31
    1120:	6d2d7370 	0x6d2d7370
    1124:	652d6974 	0x652d6974
    1128:	325c666c 	andi	gp,s2,0x666c
    112c:	2e363130 	sltiu	s6,s1,12592
    1130:	302d3530 	andi	t5,at,0x3530
    1134:	696d5c33 	0x696d5c33
    1138:	6d2d7370 	0x6d2d7370
    113c:	652d6974 	0x652d6974
    1140:	695c666c 	0x695c666c
    1144:	756c636e 	jalx	5b18db8 <__memory_size+0x5af95b8>
    1148:	63006564 	0x63006564
    114c:	72705c3a 	0x72705c3a
    1150:	6172676f 	0x6172676f
    1154:	695c317e 	0x695c317e
    1158:	6967616d 	0x6967616d
    115c:	5c317e6e 	0x5c317e6e
    1160:	6c6f6f74 	0x6c6f6f74
    1164:	317e6863 	andi	s8,t3,0x6863
    1168:	70696d5c 	udi12	v1,t1,t5,0x15
    116c:	746d2d73 	jalx	1b4b5cc <__memory_size+0x1b2bdcc>
    1170:	6c652d69 	0x6c652d69
    1174:	30325c66 	andi	s2,at,0x5c66
    1178:	302e3631 	andi	t6,at,0x3631
    117c:	33302d35 	andi	s0,t9,0x2d35
    1180:	62696c5c 	0x62696c5c
    1184:	6363675c 	0x6363675c
    1188:	70696d5c 	udi12	v1,t1,t5,0x15
    118c:	746d2d73 	jalx	1b4b5cc <__memory_size+0x1b2bdcc>
    1190:	6c652d69 	0x6c652d69
    1194:	2e345c66 	sltiu	s4,s1,23654
    1198:	5c322e39 	0x5c322e39
    119c:	6c636e69 	0x6c636e69
    11a0:	00656475 	0x656475
    11a4:	705c3a63 	s8std	xr9,v0,14,
    11a8:	72676f72 	0x72676f72
    11ac:	5c317e61 	0x5c317e61
    11b0:	67616d69 	0x67616d69
    11b4:	317e6e69 	andi	s8,t3,0x6e69
    11b8:	6f6f745c 	0x6f6f745c
    11bc:	7e68636c 	0x7e68636c
    11c0:	696d5c31 	0x696d5c31
    11c4:	6d2d7370 	0x6d2d7370
    11c8:	652d6974 	0x652d6974
    11cc:	325c666c 	andi	gp,s2,0x666c
    11d0:	2e363130 	sltiu	s6,s1,12592
    11d4:	302d3530 	andi	t5,at,0x3530
    11d8:	696d5c33 	0x696d5c33
    11dc:	6d2d7370 	0x6d2d7370
    11e0:	652d6974 	0x652d6974
    11e4:	695c666c 	0x695c666c
    11e8:	756c636e 	jalx	5b18db8 <__memory_size+0x5af95b8>
    11ec:	735c6564 	s8ldi	xr5,k0,25,ptn7
    11f0:	2e007379 	sltiu	zero,s0,29561
    11f4:	636e692f 	0x636e692f
    11f8:	6564756c 	0x6564756c
    11fc:	692f2e00 	0x692f2e00
    1200:	756c636e 	jalx	5b18db8 <__memory_size+0x5af95b8>
    1204:	742f6564 	jalx	bd9590 <__memory_size+0xbb9d90>
    1208:	006b7361 	0x6b7361
    120c:	6e692f2e 	0x6e692f2e
    1210:	64756c63 	0x64756c63
    1214:	6d6d2f65 	0x6d6d2f65
    1218:	616d0000 	0x616d0000
    121c:	632e6e69 	0x632e6e69
    1220:	00000000 	nop
    1224:	7432336d 	jalx	c8cdb4 <__memory_size+0xc6d5b4>
    1228:	682e626c 	0x682e626c
    122c:	00000100 	sll	zero,zero,0x4
    1230:	6332336d 	0x6332336d
    1234:	00682e30 	tge	v1,t0,0xb8
    1238:	5f000001 	bgtzl	t8,1240 <__isr_vec_space+0x1220>
    123c:	61666564 	0x61666564
    1240:	5f746c75 	0x5f746c75
    1244:	65707974 	0x65707974
    1248:	00682e73 	tltu	v1,t0,0xb9
    124c:	73000002 	mul	zero,t8,zero
    1250:	6e696474 	0x6e696474
    1254:	00682e74 	teq	v1,t0,0xb9
    1258:	68000003 	0x68000003
    125c:	682e6c61 	0x682e6c61
    1260:	00000100 	sll	zero,zero,0x4
    1264:	64647473 	0x64647473
    1268:	682e6665 	0x682e6665
    126c:	00000400 	sll	zero,zero,0x10
    1270:	65707974 	0x65707974
    1274:	00682e73 	tltu	v1,t0,0xb9
    1278:	74000005 	jalx	14 <ABIFlags_flags2>
    127c:	73657079 	0x73657079
    1280:	0600682e 	bltz	s0,1b33c <__isr_vec_space+0x1b31c>
    1284:	72700000 	madd	s3,s0
    1288:	682e636f 	0x682e636f
    128c:	00000700 	sll	zero,zero,0x1c
    1290:	2e6d6d76 	sltiu	t5,s3,28022
    1294:	00080068 	0x80068
    1298:	6d6d7000 	0x6d6d7000
    129c:	0800682e 	j	1a0b8 <__isr_vec_space+0x1a098>
    12a0:	65640000 	0x65640000
    12a4:	2e677562 	sltiu	a3,s3,30050
    12a8:	00060068 	0x60068
    12ac:	2e6d6d00 	sltiu	t5,s3,27904
    12b0:	00080068 	0x80068
    12b4:	05000000 	bltz	t0,12b8 <__isr_vec_space+0x1298>
    12b8:	001b6c02 	srl	t5,k1,0x10
    12bc:	010f0380 	0x10f0380
    12c0:	04020088 	bltzl	zero,14e4 <__isr_vec_space+0x14c4>
    12c4:	0200bd03 	0x200bd03
    12c8:	00830304 	0x830304
    12cc:	83030402 	lb	v1,1026(t8)
    12d0:	03040200 	0x3040200
    12d4:	820a037f 	lb	t2,895(s0)
    12d8:	838487bc 	lb	a0,-30788(gp)
    12dc:	bcba0d03 	cache	0x1a,3331(a1)
    12e0:	00838683 	0x838683
    12e4:	83010402 	lb	at,1026(t8)
    12e8:	2802bcf9 	slti	v0,zero,-17159
    12ec:	bb84bb14 	swr	a0,-17644(gp)
    12f0:	be87bb85 	cache	0x7,-17531(s4)
    12f4:	bb864cbc 	swr	a2,19644(gp)
    12f8:	0883f383 	j	20fce0c <__memory_size+0x20dd60c>
    12fc:	83f38377 	lb	s3,-31881(ra)
    1300:	4b4bbef6 	c2	0x14bbef6
    1304:	1303464b 	beq	t8,v1,12c34 <__isr_vec_space+0x12c14>
    1308:	028584ba 	0x28584ba
    130c:	01010010 	0x1010010
    1310:	000000d7 	0xd7
    1314:	00be0002 	0xbe0002
    1318:	01010000 	0x1010000
    131c:	000d0efb 	0xd0efb
    1320:	01010101 	0x1010101
    1324:	01000000 	0x1000000
    1328:	2f010000 	sltiu	at,t8,0
    132c:	61726373 	0x61726373
    1330:	2f686374 	sltiu	t0,k1,25460
    1334:	2f66706d 	sltiu	a2,k1,28781
    1338:	73626f6a 	s16ldd	xr13,k1,310,ptn0
    133c:	3334352f 	andi	s4,t9,0x352f
    1340:	342f3539 	ori	t7,at,0x3539
    1344:	34393038 	ori	t9,at,0x3038
    1348:	3034322f 	andi	s4,at,0x322f
    134c:	2f383931 	sltiu	t8,t9,14641
    1350:	72616873 	d32sar	xr1,xr10,xr5,xr8,9
    1354:	672f6465 	0x672f6465
    1358:	6e2f6363 	0x6e2f6363
    135c:	696c7765 	0x696c7765
    1360:	696c2f62 	0x696c2f62
    1364:	732f6362 	s8ldd	xr13,t9,-40,ptn3
    1368:	696c6474 	0x696c6474
    136c:	732f0062 	s8ldd	xr1,t9,-64,ptn3
    1370:	74617263 	jalx	185c98c <__memory_size+0x183d18c>
    1374:	6d2f6863 	0x6d2f6863
    1378:	6a2f6670 	0x6a2f6670
    137c:	2f73626f 	sltiu	s3,k1,25199
    1380:	39333435 	xori	s3,t1,0x3435
    1384:	38342f35 	xori	s4,at,0x2f35
    1388:	2f343930 	sltiu	s4,t9,14640
    138c:	31303432 	andi	s0,t1,0x3432
    1390:	732f3839 	0x732f3839
    1394:	65726168 	0x65726168
    1398:	63672f64 	0x63672f64
    139c:	656e2f63 	0x656e2f63
    13a0:	62696c77 	0x62696c77
    13a4:	62696c2f 	0x62696c2f
    13a8:	6e692f63 	0x6e692f63
    13ac:	64756c63 	0x64756c63
    13b0:	61000065 	0x61000065
    13b4:	69786574 	0x69786574
    13b8:	00632e74 	teq	v1,v1,0xb9
    13bc:	61000001 	0x61000001
    13c0:	69786574 	0x69786574
    13c4:	00682e74 	teq	v1,t0,0xb9
    13c8:	73000001 	maddu	t8,zero
    13cc:	696c6474 	0x696c6474
    13d0:	00682e62 	0x682e62
    13d4:	00000002 	srl	zero,zero,0x0
    13d8:	a4020500 	sh	v0,1280(zero)
    13dc:	0380001d 	0x380001d
    13e0:	8183013f 	lb	v1,319(t4)
    13e4:	0c02834b 	jal	a0d2c <__memory_size+0x8152c>
    13e8:	a6010100 	sh	at,256(s0)
    13ec:	02000001 	movf	zero,s0,$fcc0
    13f0:	00018800 	sll	s1,at,0x0
    13f4:	fb010100 	sdc2	$1,256(t8)
    13f8:	01000d0e 	0x1000d0e
    13fc:	00010101 	0x10101
    1400:	00010000 	sll	zero,at,0x0
    1404:	732f0100 	0x732f0100
    1408:	74617263 	jalx	185c98c <__memory_size+0x183d18c>
    140c:	6d2f6863 	0x6d2f6863
    1410:	6a2f6670 	0x6a2f6670
    1414:	2f73626f 	sltiu	s3,k1,25199
    1418:	39333435 	xori	s3,t1,0x3435
    141c:	38342f35 	xori	s4,at,0x2f35
    1420:	2f343930 	sltiu	s4,t9,14640
    1424:	31303432 	andi	s0,t1,0x3432
    1428:	732f3839 	0x732f3839
    142c:	65726168 	0x65726168
    1430:	63672f64 	0x63672f64
    1434:	656e2f63 	0x656e2f63
    1438:	62696c77 	0x62696c77
    143c:	62696c2f 	0x62696c2f
    1440:	74732f63 	jalx	1ccbd8c <__memory_size+0x1cac58c>
    1444:	62696c64 	0x62696c64
    1448:	63732f00 	0x63732f00
    144c:	63746172 	0x63746172
    1450:	706d2f68 	lxhu	a1,v1,t5,3
    1454:	6f6a2f66 	0x6f6a2f66
    1458:	352f7362 	ori	t7,t1,0x7362
    145c:	35393334 	ori	t9,t1,0x3334
    1460:	3038342f 	andi	t8,at,0x342f
    1464:	322f3439 	andi	t7,s1,0x3439
    1468:	39313034 	xori	s1,t1,0x3034
    146c:	68732f38 	0x68732f38
    1470:	64657261 	0x64657261
    1474:	6363672f 	0x6363672f
    1478:	77656e2f 	jalx	d95b8bc <__memory_size+0xd93c0bc>
    147c:	2f62696c 	sltiu	v0,k1,26988
    1480:	6362696c 	0x6362696c
    1484:	636e692f 	0x636e692f
    1488:	6564756c 	0x6564756c
    148c:	7379732f 	0x7379732f
    1490:	63732f00 	0x63732f00
    1494:	63746172 	0x63746172
    1498:	706d2f68 	lxhu	a1,v1,t5,3
    149c:	6f6a2f66 	0x6f6a2f66
    14a0:	352f7362 	ori	t7,t1,0x7362
    14a4:	35393334 	ori	t9,t1,0x3334
    14a8:	3038342f 	andi	t8,at,0x342f
    14ac:	322f3439 	andi	t7,s1,0x3439
    14b0:	36323034 	ori	s2,s1,0x3034
    14b4:	6f772f32 	0x6f772f32
    14b8:	6f2f6b72 	0x6f2f6b72
    14bc:	6d2d6a62 	0x6d2d6a62
    14c0:	2d737069 	sltiu	s3,t3,28777
    14c4:	2d69746d 	sltiu	t1,t3,29805
    14c8:	2f666c65 	sltiu	a2,k1,27749
    14cc:	2f636367 	sltiu	v1,k1,25447
    14d0:	2f636367 	sltiu	v1,k1,25447
    14d4:	6c636e69 	0x6c636e69
    14d8:	00656475 	0x656475
    14dc:	7263732f 	0x7263732f
    14e0:	68637461 	0x68637461
    14e4:	66706d2f 	0x66706d2f
    14e8:	626f6a2f 	0x626f6a2f
    14ec:	34352f73 	ori	s5,at,0x2f73
    14f0:	2f353933 	sltiu	s5,t9,14643
    14f4:	39303834 	xori	s0,t1,0x3834
    14f8:	34322f34 	ori	s2,at,0x2f34
    14fc:	38393130 	xori	t9,at,0x3130
    1500:	6168732f 	0x6168732f
    1504:	2f646572 	sltiu	a0,k1,25970
    1508:	2f636367 	sltiu	v1,k1,25447
    150c:	6c77656e 	0x6c77656e
    1510:	6c2f6269 	0x6c2f6269
    1514:	2f636269 	sltiu	v1,k1,25193
    1518:	6c636e69 	0x6c636e69
    151c:	00656475 	0x656475
    1520:	69786500 	0x69786500
    1524:	00632e74 	teq	v1,v1,0xb9
    1528:	6c000001 	0x6c000001
    152c:	2e6b636f 	sltiu	t3,s3,25455
    1530:	00020068 	0x20068
    1534:	79745f00 	ori.b	$w28,$w11,0x74
    1538:	2e736570 	sltiu	s3,s3,25968
    153c:	00020068 	0x20068
    1540:	64747300 	0x64747300
    1544:	2e666564 	sltiu	a2,s3,25956
    1548:	00030068 	0x30068
    154c:	65657200 	0x65657200
    1550:	682e746e 	0x682e746e
    1554:	00000200 	sll	zero,zero,0x8
    1558:	6c647473 	0x6c647473
    155c:	682e6269 	0x682e6269
    1560:	00000400 	sll	zero,zero,0x10
    1564:	78657461 	ld.h	$w17,202(t6)
    1568:	682e7469 	0x682e7469
    156c:	00000100 	sll	zero,zero,0x4
    1570:	73696e75 	q16slr	xr9,xr11,xr5,xr10,13
    1574:	682e6474 	0x682e6474
    1578:	00000200 	sll	zero,zero,0x8
    157c:	02050000 	0x2050000
    1580:	80001dcc 	lb	zero,7628(zero)
    1584:	50013b03 	beql	zero,at,10194 <__isr_vec_space+0x10174>
    1588:	884a7a03 	lwl	t2,31235(v0)
    158c:	833d0884 	lb	sp,2180(t9)
    1590:	01000802 	0x1000802
    1594:	00012701 	0x12701
    1598:	21000200 	addi	zero,t0,512
    159c:	01000001 	movf	zero,t0,$fcc0
    15a0:	0d0efb01 	jal	43bec04 <__memory_size+0x439f404>
    15a4:	01010100 	0x1010100
    15a8:	00000001 	movf	zero,zero,$fcc0
    15ac:	01000001 	movf	zero,t0,$fcc0
    15b0:	7263732f 	0x7263732f
    15b4:	68637461 	0x68637461
    15b8:	66706d2f 	0x66706d2f
    15bc:	626f6a2f 	0x626f6a2f
    15c0:	34352f73 	ori	s5,at,0x2f73
    15c4:	2f353933 	sltiu	s5,t9,14643
    15c8:	39303834 	xori	s0,t1,0x3834
    15cc:	34322f34 	ori	s2,at,0x2f34
    15d0:	38393130 	xori	t9,at,0x3130
    15d4:	6168732f 	0x6168732f
    15d8:	2f646572 	sltiu	a0,k1,25970
    15dc:	2f636367 	sltiu	v1,k1,25447
    15e0:	6c77656e 	0x6c77656e
    15e4:	6c2f6269 	0x6c2f6269
    15e8:	2f636269 	sltiu	v1,k1,25193
    15ec:	6c636e69 	0x6c636e69
    15f0:	2f656475 	sltiu	a1,k1,25717
    15f4:	00737973 	tltu	v1,s3,0x1e5
    15f8:	7263732f 	0x7263732f
    15fc:	68637461 	0x68637461
    1600:	66706d2f 	0x66706d2f
    1604:	626f6a2f 	0x626f6a2f
    1608:	34352f73 	ori	s5,at,0x2f73
    160c:	2f353933 	sltiu	s5,t9,14643
    1610:	39303834 	xori	s0,t1,0x3834
    1614:	34322f34 	ori	s2,at,0x2f34
    1618:	32363230 	andi	s6,s1,0x3230
    161c:	726f772f 	0x726f772f
    1620:	626f2f6b 	0x626f2f6b
    1624:	696d2d6a 	0x696d2d6a
    1628:	6d2d7370 	0x6d2d7370
    162c:	652d6974 	0x652d6974
    1630:	672f666c 	0x672f666c
    1634:	672f6363 	0x672f6363
    1638:	692f6363 	0x692f6363
    163c:	756c636e 	jalx	5b18db8 <__memory_size+0x5af95b8>
    1640:	2f006564 	sltiu	zero,t8,25956
    1644:	61726373 	0x61726373
    1648:	2f686374 	sltiu	t0,k1,25460
    164c:	2f66706d 	sltiu	a2,k1,28781
    1650:	73626f6a 	s16ldd	xr13,k1,310,ptn0
    1654:	3334352f 	andi	s4,t9,0x352f
    1658:	342f3539 	ori	t7,at,0x3539
    165c:	34393038 	ori	t9,at,0x3038
    1660:	3034322f 	andi	s4,at,0x322f
    1664:	2f383931 	sltiu	t8,t9,14641
    1668:	72616873 	d32sar	xr1,xr10,xr5,xr8,9
    166c:	672f6465 	0x672f6465
    1670:	6e2f6363 	0x6e2f6363
    1674:	696c7765 	0x696c7765
    1678:	696c2f62 	0x696c2f62
    167c:	722f6362 	s8ldd	xr13,s1,-40,ptn3
    1680:	746e6565 	jalx	1b99594 <__memory_size+0x1b79d94>
    1684:	6f6c0000 	0x6f6c0000
    1688:	682e6b63 	0x682e6b63
    168c:	00000100 	sll	zero,zero,0x4
    1690:	7079745f 	udi15	v1,t9,t6,0x11
    1694:	682e7365 	0x682e7365
    1698:	00000100 	sll	zero,zero,0x4
    169c:	64647473 	0x64647473
    16a0:	682e6665 	0x682e6665
    16a4:	00000200 	sll	zero,zero,0x8
    16a8:	6e656572 	0x6e656572
    16ac:	00682e74 	teq	v1,t0,0xb9
    16b0:	69000001 	0x69000001
    16b4:	7275706d 	s16sdi	xr1,s3,-328,
    16b8:	00632e65 	0x632e65
    16bc:	00000003 	sra	zero,zero,0x0
    16c0:	00000175 	0x175
    16c4:	00680002 	0x680002
    16c8:	01010000 	0x1010000
    16cc:	000d0efb 	0xd0efb
    16d0:	01010101 	0x1010101
    16d4:	01000000 	0x1000000
    16d8:	2f010000 	sltiu	at,t8,0
    16dc:	61726373 	0x61726373
    16e0:	2f686374 	sltiu	t0,k1,25460
    16e4:	2f66706d 	sltiu	a2,k1,28781
    16e8:	73626f6a 	s16ldd	xr13,k1,310,ptn0
    16ec:	3334352f 	andi	s4,t9,0x352f
    16f0:	342f3539 	ori	t7,at,0x3539
    16f4:	34393038 	ori	t9,at,0x3038
    16f8:	3034322f 	andi	s4,at,0x322f
    16fc:	2f383931 	sltiu	t8,t9,14641
    1700:	72616873 	d32sar	xr1,xr10,xr5,xr8,9
    1704:	672f6465 	0x672f6465
    1708:	6e2f6363 	0x6e2f6363
    170c:	696c7765 	0x696c7765
    1710:	696c2f62 	0x696c2f62
    1714:	6d2f6362 	0x6d2f6362
    1718:	69686361 	0x69686361
    171c:	6d2f656e 	0x6d2f656e
    1720:	00737069 	0x737069
    1724:	6d656d00 	0x6d656d00
    1728:	2e797063 	sltiu	t9,s3,28771
    172c:	00010053 	0x10053
    1730:	05000000 	bltz	t0,1734 <__isr_vec_space+0x1714>
    1734:	001e0802 	srl	at,s8,0x0
    1738:	02bc0380 	0x2bc0380
    173c:	03144e01 	0x3144e01
    1740:	4b4b820a 	c2	0x14b820a
    1744:	134b8413 	beq	k0,t3,fffe2794 <__flash_start+0x403e2794>
    1748:	4b4b4b84 	c2	0x14b4b84
    174c:	4a00da03 	c2	0xda03
    1750:	0383134b 	0x383134b
    1754:	4c4b4a09 	0x4c4b4a09
    1758:	034b4b4b 	0x34b4b4b
    175c:	4b4f4a18 	c2	0x14f4a18
    1760:	034b8913 	0x34b8913
    1764:	4b4b4a09 	c2	0x14b4a09
    1768:	4e4b4b4b 	c3	0x4b4b4b
    176c:	4b4b4b4d 	c2	0x14b4b4d
    1770:	4b4b4b4b 	c2	0x14b4b4b
    1774:	4b4b4b4c 	c2	0x14b4b4c
    1778:	4b4b4b4b 	c2	0x14b4b4b
    177c:	4b4b4c4c 	c2	0x14b4c4c
    1780:	4b4b4b4b 	c2	0x14b4b4b
    1784:	134b4b4b 	beq	k0,t3,144b4 <__isr_vec_space+0x14494>
    1788:	4a090383 	c2	0x90383
    178c:	4b834c4b 	c2	0x1834c4b
    1790:	4b4b4b4b 	c2	0x14b4b4b
    1794:	4b4b4b4b 	c2	0x14b4b4b
    1798:	4b4b4b4b 	c2	0x14b4b4b
    179c:	4b4b4b4b 	c2	0x14b4b4b
    17a0:	4b4a0a03 	c2	0x14a0a03
    17a4:	4b4e8313 	c2	0x14e8313
    17a8:	86134b4b 	lh	s3,19275(s0)
    17ac:	4b4b8413 	c2	0x14b8413
    17b0:	0384134b 	0x384134b
    17b4:	134b820d 	beq	k0,t3,fffe1fec <__flash_start+0x403e1fec>
    17b8:	4b4b4b84 	c2	0x14b4b84
    17bc:	4a0b034b 	c2	0xb034b
    17c0:	4d83134b 	0x4d83134b
    17c4:	4b4b4c4b 	c2	0x14b4c4b
    17c8:	4b4a1103 	c2	0x14a1103
    17cc:	4b4f4b4b 	c2	0x14f4b4b
    17d0:	4c4b8613 	0x4c4b8613
    17d4:	4b4b4b4b 	c2	0x14b4b4b
    17d8:	4b4b4b4b 	c2	0x14b4b4b
    17dc:	4b4b4b4b 	c2	0x14b4b4b
    17e0:	4b4b4b4b 	c2	0x14b4b4b
    17e4:	4b4b4b4b 	c2	0x14b4b4b
    17e8:	4b4b4b4b 	c2	0x14b4b4b
    17ec:	4b4b4b4b 	c2	0x14b4b4b
    17f0:	4b4b4b4b 	c2	0x14b4b4b
    17f4:	4b4b4b4b 	c2	0x14b4b4b
    17f8:	4b4b4b4b 	c2	0x14b4b4b
    17fc:	4b4b4b4b 	c2	0x14b4b4b
    1800:	134b4b4b 	beq	k0,t3,14530 <__isr_vec_space+0x14510>
    1804:	4c4b5283 	0x4c4b5283
    1808:	4b4b4b83 	c2	0x14b4b83
    180c:	4b4b4b4b 	c2	0x14b4b4b
    1810:	4b4b4b4b 	c2	0x14b4b4b
    1814:	4b4b4b4b 	c2	0x14b4b4b
    1818:	4b4b4b4b 	c2	0x14b4b4b
    181c:	4b4b4b4b 	c2	0x14b4b4b
    1820:	4b504b4b 	c2	0x1504b4b
    1824:	4b4e8313 	c2	0x14e8313
    1828:	134b4b4b 	beq	k0,t3,14558 <__isr_vec_space+0x14538>
    182c:	4b841386 	c2	0x1841386
    1830:	84134b4b 	lh	s3,19275(zero)
    1834:	01000802 	0x1000802
    1838:	0000d001 	movf	k0,zero,$fcc0
    183c:	68000200 	0x68000200
    1840:	01000000 	0x1000000
    1844:	0d0efb01 	jal	43bec04 <__memory_size+0x439f404>
    1848:	01010100 	0x1010100
    184c:	00000001 	movf	zero,zero,$fcc0
    1850:	01000001 	movf	zero,t0,$fcc0
    1854:	7263732f 	0x7263732f
    1858:	68637461 	0x68637461
    185c:	66706d2f 	0x66706d2f
    1860:	626f6a2f 	0x626f6a2f
    1864:	34352f73 	ori	s5,at,0x2f73
    1868:	2f353933 	sltiu	s5,t9,14643
    186c:	39303834 	xori	s0,t1,0x3834
    1870:	34322f34 	ori	s2,at,0x2f34
    1874:	38393130 	xori	t9,at,0x3130
    1878:	6168732f 	0x6168732f
    187c:	2f646572 	sltiu	a0,k1,25970
    1880:	2f636367 	sltiu	v1,k1,25447
    1884:	6c77656e 	0x6c77656e
    1888:	6c2f6269 	0x6c2f6269
    188c:	2f636269 	sltiu	v1,k1,25193
    1890:	6863616d 	0x6863616d
    1894:	2f656e69 	sltiu	a1,k1,28265
    1898:	7370696d 	s16sdi	xr5,k1,52,
    189c:	656d0000 	0x656d0000
    18a0:	7465736d 	jalx	195cdb4 <__memory_size+0x193d5b4>
    18a4:	0100532e 	0x100532e
    18a8:	00000000 	nop
    18ac:	21a40205 	addi	a0,t5,517
    18b0:	e2038000 	sc	v1,-32768(s0)
    18b4:	134b0101 	beq	k0,t3,1cbc <__isr_vec_space+0x1c9c>
    18b8:	03831386 	0x3831386
    18bc:	034b4a09 	0x34b4a09
    18c0:	134b4a18 	beq	k0,t3,14124 <__isr_vec_space+0x14104>
    18c4:	31034b83 	andi	v1,t0,0x4b83
    18c8:	83134b4a 	lb	s3,19274(t8)
    18cc:	4a09034b 	c2	0x9034b
    18d0:	0383134b 	0x383134b
    18d4:	034b4a09 	0x34b4a09
    18d8:	874b4a0c 	lh	t3,18956(k0)
    18dc:	4b4b4d4b 	c2	0x14b4d4b
    18e0:	4b4b4b4b 	c2	0x14b4b4b
    18e4:	4b4b4b4b 	c2	0x14b4b4b
    18e8:	4b4b4b4b 	c2	0x14b4b4b
    18ec:	834b4b4b 	lb	t3,19275(k0)
    18f0:	4b834c50 	c2	0x1834c50
    18f4:	4b4b4b4b 	c2	0x14b4b4b
    18f8:	524b4b4b 	beql	s2,t3,14628 <__isr_vec_space+0x14608>
    18fc:	4e83134b 	c3	0x83134b
    1900:	1386134b 	beq	gp,a2,6630 <__isr_vec_space+0x6610>
    1904:	84134b84 	lh	s3,19332(zero)
    1908:	01000802 	0x1000802
    190c:	0001ba01 	0x1ba01
    1910:	80000200 	lb	zero,512(zero)
    1914:	01000001 	movf	zero,t0,$fcc0
    1918:	0d0efb01 	jal	43bec04 <__memory_size+0x439f404>
    191c:	01010100 	0x1010100
    1920:	00000001 	movf	zero,zero,$fcc0
    1924:	01000001 	movf	zero,t0,$fcc0
    1928:	7263732f 	0x7263732f
    192c:	68637461 	0x68637461
    1930:	66706d2f 	0x66706d2f
    1934:	626f6a2f 	0x626f6a2f
    1938:	34352f73 	ori	s5,at,0x2f73
    193c:	2f353933 	sltiu	s5,t9,14643
    1940:	39303834 	xori	s0,t1,0x3834
    1944:	34322f34 	ori	s2,at,0x2f34
    1948:	38393130 	xori	t9,at,0x3130
    194c:	6168732f 	0x6168732f
    1950:	2f646572 	sltiu	a0,k1,25970
    1954:	2f636367 	sltiu	v1,k1,25447
    1958:	6c77656e 	0x6c77656e
    195c:	6c2f6269 	0x6c2f6269
    1960:	2f636269 	sltiu	v1,k1,25193
    1964:	6c647473 	0x6c647473
    1968:	2f006269 	sltiu	zero,t8,25193
    196c:	61726373 	0x61726373
    1970:	2f686374 	sltiu	t0,k1,25460
    1974:	2f66706d 	sltiu	a2,k1,28781
    1978:	73626f6a 	s16ldd	xr13,k1,310,ptn0
    197c:	3334352f 	andi	s4,t9,0x352f
    1980:	342f3539 	ori	t7,at,0x3539
    1984:	34393038 	ori	t9,at,0x3038
    1988:	3034322f 	andi	s4,at,0x322f
    198c:	2f323632 	sltiu	s2,t9,13874
    1990:	6b726f77 	0x6b726f77
    1994:	6a626f2f 	0x6a626f2f
    1998:	70696d2d 	s16sdi	xr4,v1,182,ptn1
    199c:	746d2d73 	jalx	1b4b5cc <__memory_size+0x1b2bdcc>
    19a0:	6c652d69 	0x6c652d69
    19a4:	63672f66 	0x63672f66
    19a8:	63672f63 	0x63672f63
    19ac:	6e692f63 	0x6e692f63
    19b0:	64756c63 	0x64756c63
    19b4:	732f0065 	s8sdi	xr1,t9,-64,ptn3
    19b8:	74617263 	jalx	185c98c <__memory_size+0x183d18c>
    19bc:	6d2f6863 	0x6d2f6863
    19c0:	6a2f6670 	0x6a2f6670
    19c4:	2f73626f 	sltiu	s3,k1,25199
    19c8:	39333435 	xori	s3,t1,0x3435
    19cc:	38342f35 	xori	s4,at,0x2f35
    19d0:	2f343930 	sltiu	s4,t9,14640
    19d4:	31303432 	andi	s0,t1,0x3432
    19d8:	732f3839 	0x732f3839
    19dc:	65726168 	0x65726168
    19e0:	63672f64 	0x63672f64
    19e4:	656e2f63 	0x656e2f63
    19e8:	62696c77 	0x62696c77
    19ec:	62696c2f 	0x62696c2f
    19f0:	6e692f63 	0x6e692f63
    19f4:	64756c63 	0x64756c63
    19f8:	79732f65 	st.h	$w29,742(a1)
    19fc:	732f0073 	d32sar	xr1,xr0,xr12,xr11,12
    1a00:	74617263 	jalx	185c98c <__memory_size+0x183d18c>
    1a04:	6d2f6863 	0x6d2f6863
    1a08:	6a2f6670 	0x6a2f6670
    1a0c:	2f73626f 	sltiu	s3,k1,25199
    1a10:	39333435 	xori	s3,t1,0x3435
    1a14:	38342f35 	xori	s4,at,0x2f35
    1a18:	2f343930 	sltiu	s4,t9,14640
    1a1c:	31303432 	andi	s0,t1,0x3432
    1a20:	732f3839 	0x732f3839
    1a24:	65726168 	0x65726168
    1a28:	63672f64 	0x63672f64
    1a2c:	656e2f63 	0x656e2f63
    1a30:	62696c77 	0x62696c77
    1a34:	62696c2f 	0x62696c2f
    1a38:	6e692f63 	0x6e692f63
    1a3c:	64756c63 	0x64756c63
    1a40:	5f000065 	bgtzl	t8,1bd8 <__isr_vec_space+0x1bb8>
    1a44:	6574615f 	0x6574615f
    1a48:	2e746978 	sltiu	s4,s3,27000
    1a4c:	00010063 	0x10063
    1a50:	64747300 	0x64747300
    1a54:	2e666564 	sltiu	a2,s3,25956
    1a58:	00020068 	0x20068
    1a5c:	636f6c00 	0x636f6c00
    1a60:	00682e6b 	0x682e6b
    1a64:	5f000003 	bgtzl	t8,1a74 <__isr_vec_space+0x1a54>
    1a68:	65707974 	0x65707974
    1a6c:	00682e73 	tltu	v1,t0,0xb9
    1a70:	72000003 	0x72000003
    1a74:	746e6565 	jalx	1b99594 <__memory_size+0x1b79d94>
    1a78:	0300682e 	0x300682e
    1a7c:	74610000 	jalx	1840000 <__memory_size+0x1820800>
    1a80:	74697865 	jalx	1a5e194 <__memory_size+0x1a3e994>
    1a84:	0100682e 	0x100682e
    1a88:	74730000 	jalx	1cc0000 <__memory_size+0x1ca0800>
    1a8c:	62696c64 	0x62696c64
    1a90:	0400682e 	bltz	zero,1bb4c <__isr_vec_space+0x1bb2c>
    1a94:	00000000 	nop
    1a98:	22d00205 	addi	s0,s6,517
    1a9c:	c7038000 	lwc1	$f3,-32768(t8)
    1aa0:	03520100 	0x3520100
    1aa4:	03524a78 	0x3524a78
    1aa8:	ec084a78 	swc3	$8,19064(zero)
    1aac:	f983834b 	sdc2	$3,-31925(t4)
    1ab0:	8a8384f3 	lwl	v1,-31501(s4)
    1ab4:	4c4b4b49 	0x4c4b4b49
    1ab8:	1803514b 	0x1803514b
    1abc:	4b47bcba 	c2	0x147bcba
    1ac0:	08bc83bc 	j	2f20ef0 <__memory_size+0x2f016f0>
    1ac4:	20024b78 	addi	v0,zero,19320
    1ac8:	f2010100 	0xf2010100
    1acc:	02000001 	movf	zero,s0,$fcc0
    1ad0:	00017900 	sll	t7,at,0x4
    1ad4:	fb010100 	sdc2	$1,256(t8)
    1ad8:	01000d0e 	0x1000d0e
    1adc:	00010101 	0x10101
    1ae0:	00010000 	sll	zero,at,0x0
    1ae4:	732f0100 	0x732f0100
    1ae8:	74617263 	jalx	185c98c <__memory_size+0x183d18c>
    1aec:	6d2f6863 	0x6d2f6863
    1af0:	6a2f6670 	0x6a2f6670
    1af4:	2f73626f 	sltiu	s3,k1,25199
    1af8:	39333435 	xori	s3,t1,0x3435
    1afc:	38342f35 	xori	s4,at,0x2f35
    1b00:	2f343930 	sltiu	s4,t9,14640
    1b04:	31303432 	andi	s0,t1,0x3432
    1b08:	732f3839 	0x732f3839
    1b0c:	65726168 	0x65726168
    1b10:	63672f64 	0x63672f64
    1b14:	656e2f63 	0x656e2f63
    1b18:	62696c77 	0x62696c77
    1b1c:	62696c2f 	0x62696c2f
    1b20:	74732f63 	jalx	1ccbd8c <__memory_size+0x1cac58c>
    1b24:	62696c64 	0x62696c64
    1b28:	63732f00 	0x63732f00
    1b2c:	63746172 	0x63746172
    1b30:	706d2f68 	lxhu	a1,v1,t5,3
    1b34:	6f6a2f66 	0x6f6a2f66
    1b38:	352f7362 	ori	t7,t1,0x7362
    1b3c:	35393334 	ori	t9,t1,0x3334
    1b40:	3038342f 	andi	t8,at,0x342f
    1b44:	322f3439 	andi	t7,s1,0x3439
    1b48:	39313034 	xori	s1,t1,0x3034
    1b4c:	68732f38 	0x68732f38
    1b50:	64657261 	0x64657261
    1b54:	6363672f 	0x6363672f
    1b58:	77656e2f 	jalx	d95b8bc <__memory_size+0xd93c0bc>
    1b5c:	2f62696c 	sltiu	v0,k1,26988
    1b60:	6362696c 	0x6362696c
    1b64:	636e692f 	0x636e692f
    1b68:	6564756c 	0x6564756c
    1b6c:	7379732f 	0x7379732f
    1b70:	63732f00 	0x63732f00
    1b74:	63746172 	0x63746172
    1b78:	706d2f68 	lxhu	a1,v1,t5,3
    1b7c:	6f6a2f66 	0x6f6a2f66
    1b80:	352f7362 	ori	t7,t1,0x7362
    1b84:	35393334 	ori	t9,t1,0x3334
    1b88:	3038342f 	andi	t8,at,0x342f
    1b8c:	322f3439 	andi	t7,s1,0x3439
    1b90:	36323034 	ori	s2,s1,0x3034
    1b94:	6f772f32 	0x6f772f32
    1b98:	6f2f6b72 	0x6f2f6b72
    1b9c:	6d2d6a62 	0x6d2d6a62
    1ba0:	2d737069 	sltiu	s3,t3,28777
    1ba4:	2d69746d 	sltiu	t1,t3,29805
    1ba8:	2f666c65 	sltiu	a2,k1,27749
    1bac:	2f636367 	sltiu	v1,k1,25447
    1bb0:	2f636367 	sltiu	v1,k1,25447
    1bb4:	6c636e69 	0x6c636e69
    1bb8:	00656475 	0x656475
    1bbc:	7263732f 	0x7263732f
    1bc0:	68637461 	0x68637461
    1bc4:	66706d2f 	0x66706d2f
    1bc8:	626f6a2f 	0x626f6a2f
    1bcc:	34352f73 	ori	s5,at,0x2f73
    1bd0:	2f353933 	sltiu	s5,t9,14643
    1bd4:	39303834 	xori	s0,t1,0x3834
    1bd8:	34322f34 	ori	s2,at,0x2f34
    1bdc:	38393130 	xori	t9,at,0x3130
    1be0:	6168732f 	0x6168732f
    1be4:	2f646572 	sltiu	a0,k1,25970
    1be8:	2f636367 	sltiu	v1,k1,25447
    1bec:	6c77656e 	0x6c77656e
    1bf0:	6c2f6269 	0x6c2f6269
    1bf4:	2f636269 	sltiu	v1,k1,25193
    1bf8:	6c636e69 	0x6c636e69
    1bfc:	00656475 	0x656475
    1c00:	635f5f00 	0x635f5f00
    1c04:	5f6c6c61 	0x5f6c6c61
    1c08:	78657461 	ld.h	$w17,202(t6)
    1c0c:	632e7469 	0x632e7469
    1c10:	00000100 	sll	zero,zero,0x4
    1c14:	6b636f6c 	0x6b636f6c
    1c18:	0200682e 	0x200682e
    1c1c:	745f0000 	jalx	17c0000 <__memory_size+0x17a0800>
    1c20:	73657079 	0x73657079
    1c24:	0200682e 	0x200682e
    1c28:	74730000 	jalx	1cc0000 <__memory_size+0x1ca0800>
    1c2c:	66656464 	0x66656464
    1c30:	0300682e 	0x300682e
    1c34:	65720000 	0x65720000
    1c38:	2e746e65 	sltiu	s4,s3,28261
    1c3c:	00020068 	0x20068
    1c40:	64747300 	0x64747300
    1c44:	2e62696c 	sltiu	v0,s3,26988
    1c48:	00040068 	0x40068
    1c4c:	05000000 	bltz	t0,1c50 <__isr_vec_space+0x1c30>
    1c50:	0023e002 	ror	gp,v1,0x0
    1c54:	00c30380 	0xc30380
    1c58:	4a0f0301 	c2	0xf0301
    1c5c:	034a7103 	0x34a7103
    1c60:	034a00c4 	0x34a00c4
    1c64:	034a7fbc 	0x34a7fbc
    1c68:	64034a1c 	0x64034a1c
    1c6c:	00c4034a 	0xc4034a
    1c70:	7fbc034a 	0x7fbc034a
    1c74:	020f034a 	0x20f034a
    1c78:	49bb0124 	0x49bb0124
    1c7c:	0200894c 	syscall	0x80225
    1c80:	f2060104 	0xf2060104
    1c84:	02008906 	0x2008906
    1c88:	82060204 	lb	a2,516(s0)
    1c8c:	7708c006 	jalx	c230018 <__memory_size+0xc210818>
    1c90:	03f3884d 	break	0x3f3,0x221
    1c94:	02008209 	0x2008209
    1c98:	ba060104 	swr	a2,260(s0)
    1c9c:	02040200 	0x2040200
    1ca0:	ba5d0306 	swr	sp,774(s2)
    1ca4:	87ba2c03 	lh	k0,11267(sp)
    1ca8:	01040200 	0x1040200
    1cac:	8a06ba06 	lwl	a2,-17914(s0)
    1cb0:	034b8683 	0x34b8683
    1cb4:	f4f3825c 	sdc1	$f19,-32164(a3)
    1cb8:	82240387 	lb	a0,903(s1)
    1cbc:	01002c02 	0x1002c02
    1cc0:	00015601 	0x15601
    1cc4:	13000200 	beqz	t8,24c8 <__isr_vec_space+0x24a8>
    1cc8:	01000001 	movf	zero,t0,$fcc0
    1ccc:	0d0efb01 	jal	43bec04 <__memory_size+0x439f404>
    1cd0:	01010100 	0x1010100
    1cd4:	00000001 	movf	zero,zero,$fcc0
    1cd8:	01000001 	movf	zero,t0,$fcc0
    1cdc:	7263732f 	0x7263732f
    1ce0:	68637461 	0x68637461
    1ce4:	66706d2f 	0x66706d2f
    1ce8:	626f6a2f 	0x626f6a2f
    1cec:	34352f73 	ori	s5,at,0x2f73
    1cf0:	2f353933 	sltiu	s5,t9,14643
    1cf4:	39303834 	xori	s0,t1,0x3834
    1cf8:	34322f34 	ori	s2,at,0x2f34
    1cfc:	38393130 	xori	t9,at,0x3130
    1d00:	6168732f 	0x6168732f
    1d04:	2f646572 	sltiu	a0,k1,25970
    1d08:	2f636367 	sltiu	v1,k1,25447
    1d0c:	6762696c 	0x6762696c
    1d10:	73736f6c 	s16ldi	xr13,k1,438,ptn2
    1d14:	70696d2f 	0x70696d2f
    1d18:	68752f73 	0x68752f73
    1d1c:	732f0069 	0x732f0069
    1d20:	74617263 	jalx	185c98c <__memory_size+0x183d18c>
    1d24:	6d2f6863 	0x6d2f6863
    1d28:	6a2f6670 	0x6a2f6670
    1d2c:	2f73626f 	sltiu	s3,k1,25199
    1d30:	39333435 	xori	s3,t1,0x3435
    1d34:	38342f35 	xori	s4,at,0x2f35
    1d38:	2f343930 	sltiu	s4,t9,14640
    1d3c:	31303432 	andi	s0,t1,0x3432
    1d40:	732f3839 	0x732f3839
    1d44:	65726168 	0x65726168
    1d48:	63672f64 	0x63672f64
    1d4c:	656e2f63 	0x656e2f63
    1d50:	62696c77 	0x62696c77
    1d54:	62696c2f 	0x62696c2f
    1d58:	6e692f63 	0x6e692f63
    1d5c:	64756c63 	0x64756c63
    1d60:	616d2f65 	0x616d2f65
    1d64:	6e696863 	0x6e696863
    1d68:	732f0065 	s8sdi	xr1,t9,-64,ptn3
    1d6c:	74617263 	jalx	185c98c <__memory_size+0x183d18c>
    1d70:	6d2f6863 	0x6d2f6863
    1d74:	6a2f6670 	0x6a2f6670
    1d78:	2f73626f 	sltiu	s3,k1,25199
    1d7c:	39333435 	xori	s3,t1,0x3435
    1d80:	38342f35 	xori	s4,at,0x2f35
    1d84:	2f343930 	sltiu	s4,t9,14640
    1d88:	31303432 	andi	s0,t1,0x3432
    1d8c:	732f3839 	0x732f3839
    1d90:	65726168 	0x65726168
    1d94:	63672f64 	0x63672f64
    1d98:	656e2f63 	0x656e2f63
    1d9c:	62696c77 	0x62696c77
    1da0:	62696c2f 	0x62696c2f
    1da4:	6e692f63 	0x6e692f63
    1da8:	64756c63 	0x64756c63
    1dac:	75000065 	jalx	4000194 <__memory_size+0x3fe0994>
    1db0:	655f6968 	0x655f6968
    1db4:	2e746978 	sltiu	s4,s3,27000
    1db8:	00010063 	0x10063
    1dbc:	65645f00 	0x65645f00
    1dc0:	6c756166 	0x6c756166
    1dc4:	79745f74 	0x79745f74
    1dc8:	2e736570 	sltiu	s3,s3,25968
    1dcc:	00020068 	0x20068
    1dd0:	64747300 	0x64747300
    1dd4:	2e746e69 	sltiu	s4,s3,28265
    1dd8:	00030068 	0x30068
    1ddc:	05000000 	bltz	t0,1de0 <__isr_vec_space+0x1dc0>
    1de0:	00256002 	ror	t4,a1,0x0
    1de4:	013c0380 	0x13c0380
    1de8:	03821603 	0x3821603
    1dec:	14034a6a 	bne	zero,v1,14798 <__isr_vec_space+0x14778>
    1df0:	4a6c034a 	c2	0x6c034a
    1df4:	4c4a1203 	0x4c4a1203
    1df8:	034a6c03 	0x34a6c03
    1dfc:	6e034a12 	0x6e034a12
    1e00:	4a16034a 	c2	0x16034a
    1e04:	4b4a6a03 	c2	0x14a6a03
    1e08:	034c4b4b 	0x34c4b4b
    1e0c:	83be4a0d 	lb	s8,18957(sp)
    1e10:	0383837e 	0x383837e
    1e14:	0802f26d 	j	bc9b4 <__memory_size+0x9d1b4>
    1e18:	3e010100 	0x3e010100
    1e1c:	02000001 	movf	zero,s0,$fcc0
    1e20:	00011c00 	sll	v1,at,0x10
    1e24:	fb010100 	sdc2	$1,256(t8)
    1e28:	01000d0e 	0x1000d0e
    1e2c:	00010101 	0x10101
    1e30:	00010000 	sll	zero,at,0x0
    1e34:	732f0100 	0x732f0100
    1e38:	74617263 	jalx	185c98c <__memory_size+0x183d18c>
    1e3c:	6d2f6863 	0x6d2f6863
    1e40:	6a2f6670 	0x6a2f6670
    1e44:	2f73626f 	sltiu	s3,k1,25199
    1e48:	39333435 	xori	s3,t1,0x3435
    1e4c:	38342f35 	xori	s4,at,0x2f35
    1e50:	2f343930 	sltiu	s4,t9,14640
    1e54:	31303432 	andi	s0,t1,0x3432
    1e58:	732f3839 	0x732f3839
    1e5c:	65726168 	0x65726168
    1e60:	63672f64 	0x63672f64
    1e64:	696c2f63 	0x696c2f63
    1e68:	6f6c6762 	0x6f6c6762
    1e6c:	6d2f7373 	0x6d2f7373
    1e70:	2f737069 	sltiu	s3,k1,28777
    1e74:	00696875 	0x696875
    1e78:	7263732f 	0x7263732f
    1e7c:	68637461 	0x68637461
    1e80:	66706d2f 	0x66706d2f
    1e84:	626f6a2f 	0x626f6a2f
    1e88:	34352f73 	ori	s5,at,0x2f73
    1e8c:	2f353933 	sltiu	s5,t9,14643
    1e90:	39303834 	xori	s0,t1,0x3834
    1e94:	34322f34 	ori	s2,at,0x2f34
    1e98:	38393130 	xori	t9,at,0x3130
    1e9c:	6168732f 	0x6168732f
    1ea0:	2f646572 	sltiu	a0,k1,25970
    1ea4:	2f636367 	sltiu	v1,k1,25447
    1ea8:	6c77656e 	0x6c77656e
    1eac:	6c2f6269 	0x6c2f6269
    1eb0:	2f636269 	sltiu	v1,k1,25193
    1eb4:	6c636e69 	0x6c636e69
    1eb8:	2f656475 	sltiu	a1,k1,25717
    1ebc:	6863616d 	0x6863616d
    1ec0:	00656e69 	0x656e69
    1ec4:	7263732f 	0x7263732f
    1ec8:	68637461 	0x68637461
    1ecc:	66706d2f 	0x66706d2f
    1ed0:	626f6a2f 	0x626f6a2f
    1ed4:	34352f73 	ori	s5,at,0x2f73
    1ed8:	2f353933 	sltiu	s5,t9,14643
    1edc:	39303834 	xori	s0,t1,0x3834
    1ee0:	34322f34 	ori	s2,at,0x2f34
    1ee4:	38393130 	xori	t9,at,0x3130
    1ee8:	6168732f 	0x6168732f
    1eec:	2f646572 	sltiu	a0,k1,25970
    1ef0:	2f636367 	sltiu	v1,k1,25447
    1ef4:	6c77656e 	0x6c77656e
    1ef8:	6c2f6269 	0x6c2f6269
    1efc:	2f636269 	sltiu	v1,k1,25193
    1f00:	6c636e69 	0x6c636e69
    1f04:	00656475 	0x656475
    1f08:	69687500 	0x69687500
    1f0c:	7465675f 	jalx	1959d7c <__memory_size+0x193a57c>
    1f10:	6d61725f 	0x6d61725f
    1f14:	6e61725f 	0x6e61725f
    1f18:	632e6567 	0x632e6567
    1f1c:	00000100 	sll	zero,zero,0x4
    1f20:	6665645f 	0x6665645f
    1f24:	746c7561 	jalx	1b1d584 <__memory_size+0x1afdd84>
    1f28:	7079745f 	udi15	v1,t9,t6,0x11
    1f2c:	682e7365 	0x682e7365
    1f30:	00000200 	sll	zero,zero,0x8
    1f34:	69647473 	0x69647473
    1f38:	682e746e 	0x682e746e
    1f3c:	00000300 	sll	zero,zero,0xc
    1f40:	02050000 	0x2050000
    1f44:	800025e8 	lb	zero,9704(zero)
    1f48:	17012703 	bne	t8,at,bb58 <__isr_vec_space+0xbb38>
    1f4c:	4b454f45 	c2	0x1454f45
    1f50:	4c83bc4e 	0x4c83bc4e
    1f54:	4b835086 	c2	0x1835086
    1f58:	01000802 	0x1000802
    1f5c:	0000ed01 	0xed01
    1f60:	65000200 	0x65000200
    1f64:	01000000 	0x1000000
    1f68:	0d0efb01 	jal	43bec04 <__memory_size+0x439f404>
    1f6c:	01010100 	0x1010100
    1f70:	00000001 	movf	zero,zero,$fcc0
    1f74:	01000001 	movf	zero,t0,$fcc0
    1f78:	7263732f 	0x7263732f
    1f7c:	68637461 	0x68637461
    1f80:	66706d2f 	0x66706d2f
    1f84:	626f6a2f 	0x626f6a2f
    1f88:	34352f73 	ori	s5,at,0x2f73
    1f8c:	2f353933 	sltiu	s5,t9,14643
    1f90:	39303834 	xori	s0,t1,0x3834
    1f94:	34322f34 	ori	s2,at,0x2f34
    1f98:	38393130 	xori	t9,at,0x3130
    1f9c:	6168732f 	0x6168732f
    1fa0:	2f646572 	sltiu	a0,k1,25970
    1fa4:	2f636367 	sltiu	v1,k1,25447
    1fa8:	6762696c 	0x6762696c
    1fac:	73736f6c 	s16ldi	xr13,k1,438,ptn2
    1fb0:	70696d2f 	0x70696d2f
    1fb4:	61682f73 	0x61682f73
    1fb8:	6d00006c 	0x6d00006c
    1fbc:	6c743233 	0x6c743233
    1fc0:	706f5f62 	s8ldd	xr13,v1,-41,ptn3
    1fc4:	00532e73 	tltu	v0,s3,0xb9
    1fc8:	00000001 	movf	zero,zero,$fcc0
    1fcc:	34020500 	li	v0,0x500
    1fd0:	03800026 	xor	zero,gp,zero
    1fd4:	4b4c012e 	c2	0x14c012e
    1fd8:	4b4b4b4b 	c2	0x14b4b4b
    1fdc:	034b4d4c 	syscall	0xd2d35
    1fe0:	4b4b4a0d 	c2	0x14b4a0d
    1fe4:	4d4b4c4b 	0x4d4b4c4b
    1fe8:	4a0c034b 	c2	0xc034b
    1fec:	4b4c4b4b 	c2	0x14c4b4b
    1ff0:	4b4b4b4c 	c2	0x14b4b4c
    1ff4:	4b84134c 	c2	0x184134c
    1ff8:	4b4d8315 	c2	0x14d8315
    1ffc:	0f034b4d 	jal	c0d2d34 <__memory_size+0xc0b3534>
    2000:	4c4b4c4a 	0x4c4b4c4a
    2004:	4b4b4c4b 	c2	0x14b4c4b
    2008:	4b4b4b4b 	c2	0x14b4b4b
    200c:	0e03134b 	jal	80c4d2c <__memory_size+0x80a552c>
    2010:	4c4b4b82 	0x4c4b4b82
    2014:	844b4c4b 	lh	t3,19531(v0)
    2018:	4b4b4c4b 	c2	0x14b4c4b
    201c:	4b4b4c4c 	c2	0x14b4c4c
    2020:	83154b4d 	lb	s5,19277(t8)
    2024:	0c034b4d 	jal	d2d34 <__memory_size+0xb3534>
    2028:	4c4b4b4a 	0x4c4b4b4a
    202c:	844b4c4b 	lh	t3,19531(v0)
    2030:	4b4b4c4b 	c2	0x14b4c4b
    2034:	844b4b84 	lh	t3,19332(v0)
    2038:	4b838413 	c2	0x1838413
    203c:	4c4b4c4b 	0x4c4b4c4b
    2040:	4b4c844b 	c2	0x14c844b
    2044:	4d4c4b4c 	0x4d4c4b4c
    2048:	0004024b 	0x4024b
    204c:	01120101 	0x1120101
    2050:	00020000 	sll	zero,v0,0x0
    2054:	0000006b 	0x6b
    2058:	0efb0101 	jal	bec0404 <__memory_size+0xbea0c04>
    205c:	0101000d 	break	0x101
    2060:	00000101 	0x101
    2064:	00000100 	sll	zero,zero,0x4
    2068:	63732f01 	0x63732f01
    206c:	63746172 	0x63746172
    2070:	706d2f68 	lxhu	a1,v1,t5,3
    2074:	6f6a2f66 	0x6f6a2f66
    2078:	352f7362 	ori	t7,t1,0x7362
    207c:	35393334 	ori	t9,t1,0x3334
    2080:	3038342f 	andi	t8,at,0x342f
    2084:	322f3439 	andi	t7,s1,0x3439
    2088:	39313034 	xori	s1,t1,0x3034
    208c:	68732f38 	0x68732f38
    2090:	64657261 	0x64657261
    2094:	6363672f 	0x6363672f
    2098:	62696c2f 	0x62696c2f
    209c:	736f6c67 	0x736f6c67
    20a0:	696d2f73 	0x696d2f73
    20a4:	682f7370 	0x682f7370
    20a8:	00006c61 	0x6c61
    20ac:	7370696d 	s16sdi	xr5,k1,52,
    20b0:	6378655f 	0x6378655f
    20b4:	655f7470 	0x655f7470
    20b8:	7972746e 	0x7972746e
    20bc:	0100532e 	0x100532e
    20c0:	00000000 	nop
    20c4:	00000205 	0x205
    20c8:	c3038000 	ll	v1,-32768(t8)
    20cc:	4b830100 	c2	0x1830100
    20d0:	83838485 	lb	v1,-31611(gp)
    20d4:	83185402 	lb	t8,21506(t8)
    20d8:	17700283 	bne	k1,s0,2ae8 <__isr_vec_space+0x2ac8>
    20dc:	70028383 	s32max	xr14,xr0,xr10
    20e0:	02834d16 	0x2834d16
    20e4:	01010008 	0x1010008
    20e8:	9c020500 	0x9c020500
    20ec:	03800033 	tltu	gp,zero
    20f0:	4c0100f3 	0x4c0100f3
    20f4:	4b4b4b4d 	c2	0x14b4b4d
    20f8:	4b4b4b4b 	c2	0x14b4b4b
    20fc:	4b4b4b4b 	c2	0x14b4b4b
    2100:	4b4b4b4b 	c2	0x14b4b4b
    2104:	4b4b4b4b 	c2	0x14b4b4b
    2108:	4b4b4b4b 	c2	0x14b4b4b
    210c:	4b4c4b4b 	c2	0x14c4b4b
    2110:	4d4b4b4b 	0x4d4b4b4b
    2114:	4f4b4b4b 	c3	0x14b4b4b
    2118:	4b4d4b4b 	c2	0x14d4b4b
    211c:	4b4b4c4b 	c2	0x14b4c4b
    2120:	4c834b4b 	0x4c834b4b
    2124:	4b4c834b 	c2	0x14c834b
    2128:	4b4b4d4d 	c2	0x14b4d4d
    212c:	4d4b4b4b 	0x4d4b4b4b
    2130:	4e4d4d84 	c3	0x4d4d84
    2134:	4b4b8883 	c2	0x14b8883
    2138:	4b4b4d4b 	c2	0x14b4d4b
    213c:	4b4b4b4b 	c2	0x14b4b4b
    2140:	4b4b4b4b 	c2	0x14b4b4b
    2144:	4b4b4b4b 	c2	0x14b4b4b
    2148:	4b4b4b4b 	c2	0x14b4b4b
    214c:	4b4b4b4b 	c2	0x14b4b4b
    2150:	4c4c4b4b 	0x4c4c4b4b
    2154:	4b4b4b4b 	c2	0x14b4b4b
    2158:	4b4b4b4b 	c2	0x14b4b4b
    215c:	024c4b4b 	0x24c4b4b
    2160:	01010004 	sllv	zero,at,t0
    2164:	0000031f 	0x31f
    2168:	02330002 	0x2330002
    216c:	01010000 	0x1010000
    2170:	000d0efb 	0xd0efb
    2174:	01010101 	0x1010101
    2178:	01000000 	0x1000000
    217c:	2f010000 	sltiu	at,t8,0
    2180:	61726373 	0x61726373
    2184:	2f686374 	sltiu	t0,k1,25460
    2188:	2f66706d 	sltiu	a2,k1,28781
    218c:	73626f6a 	s16ldd	xr13,k1,310,ptn0
    2190:	3334352f 	andi	s4,t9,0x352f
    2194:	342f3539 	ori	t7,at,0x3539
    2198:	34393038 	ori	t9,at,0x3038
    219c:	3034322f 	andi	s4,at,0x322f
    21a0:	2f383931 	sltiu	t8,t9,14641
    21a4:	72616873 	d32sar	xr1,xr10,xr5,xr8,9
    21a8:	672f6465 	0x672f6465
    21ac:	6c2f6363 	0x6c2f6363
    21b0:	6c676269 	0x6c676269
    21b4:	2f73736f 	sltiu	s3,k1,29551
    21b8:	7370696d 	s16sdi	xr5,k1,52,
    21bc:	6c61682f 	0x6c61682f
    21c0:	63732f00 	0x63732f00
    21c4:	63746172 	0x63746172
    21c8:	706d2f68 	lxhu	a1,v1,t5,3
    21cc:	6f6a2f66 	0x6f6a2f66
    21d0:	352f7362 	ori	t7,t1,0x7362
    21d4:	35393334 	ori	t9,t1,0x3334
    21d8:	3038342f 	andi	t8,at,0x342f
    21dc:	322f3439 	andi	t7,s1,0x3439
    21e0:	36323034 	ori	s2,s1,0x3034
    21e4:	6f772f32 	0x6f772f32
    21e8:	6f2f6b72 	0x6f2f6b72
    21ec:	6d2d6a62 	0x6d2d6a62
    21f0:	2d737069 	sltiu	s3,t3,28777
    21f4:	2d69746d 	sltiu	t1,t3,29805
    21f8:	2f666c65 	sltiu	a2,k1,27749
    21fc:	2f636367 	sltiu	v1,k1,25447
    2200:	2f636367 	sltiu	v1,k1,25447
    2204:	6c636e69 	0x6c636e69
    2208:	00656475 	0x656475
    220c:	7263732f 	0x7263732f
    2210:	68637461 	0x68637461
    2214:	66706d2f 	0x66706d2f
    2218:	626f6a2f 	0x626f6a2f
    221c:	34352f73 	ori	s5,at,0x2f73
    2220:	2f353933 	sltiu	s5,t9,14643
    2224:	39303834 	xori	s0,t1,0x3834
    2228:	34322f34 	ori	s2,at,0x2f34
    222c:	38393130 	xori	t9,at,0x3130
    2230:	6168732f 	0x6168732f
    2234:	2f646572 	sltiu	a0,k1,25970
    2238:	2f636367 	sltiu	v1,k1,25447
    223c:	6c77656e 	0x6c77656e
    2240:	6c2f6269 	0x6c2f6269
    2244:	2f636269 	sltiu	v1,k1,25193
    2248:	6c636e69 	0x6c636e69
    224c:	2f656475 	sltiu	a1,k1,25717
    2250:	6863616d 	0x6863616d
    2254:	00656e69 	0x656e69
    2258:	7263732f 	0x7263732f
    225c:	68637461 	0x68637461
    2260:	66706d2f 	0x66706d2f
    2264:	626f6a2f 	0x626f6a2f
    2268:	34352f73 	ori	s5,at,0x2f73
    226c:	2f353933 	sltiu	s5,t9,14643
    2270:	39303834 	xori	s0,t1,0x3834
    2274:	34322f34 	ori	s2,at,0x2f34
    2278:	38393130 	xori	t9,at,0x3130
    227c:	6168732f 	0x6168732f
    2280:	2f646572 	sltiu	a0,k1,25970
    2284:	2f636367 	sltiu	v1,k1,25447
    2288:	6762696c 	0x6762696c
    228c:	73736f6c 	s16ldi	xr13,k1,438,ptn2
    2290:	70696d2f 	0x70696d2f
    2294:	6e692f73 	0x6e692f73
    2298:	64756c63 	0x64756c63
    229c:	696d2f65 	0x696d2f65
    22a0:	2f007370 	sltiu	zero,t8,29552
    22a4:	61726373 	0x61726373
    22a8:	2f686374 	sltiu	t0,k1,25460
    22ac:	2f66706d 	sltiu	a2,k1,28781
    22b0:	73626f6a 	s16ldd	xr13,k1,310,ptn0
    22b4:	3334352f 	andi	s4,t9,0x352f
    22b8:	342f3539 	ori	t7,at,0x3539
    22bc:	34393038 	ori	t9,at,0x3038
    22c0:	3034322f 	andi	s4,at,0x322f
    22c4:	2f383931 	sltiu	t8,t9,14641
    22c8:	72616873 	d32sar	xr1,xr10,xr5,xr8,9
    22cc:	672f6465 	0x672f6465
    22d0:	6e2f6363 	0x6e2f6363
    22d4:	696c7765 	0x696c7765
    22d8:	696c2f62 	0x696c2f62
    22dc:	692f6362 	0x692f6362
    22e0:	756c636e 	jalx	5b18db8 <__memory_size+0x5af95b8>
    22e4:	2f006564 	sltiu	zero,t8,25956
    22e8:	61726373 	0x61726373
    22ec:	2f686374 	sltiu	t0,k1,25460
    22f0:	2f66706d 	sltiu	a2,k1,28781
    22f4:	73626f6a 	s16ldd	xr13,k1,310,ptn0
    22f8:	3334352f 	andi	s4,t9,0x352f
    22fc:	342f3539 	ori	t7,at,0x3539
    2300:	34393038 	ori	t9,at,0x3038
    2304:	3034322f 	andi	s4,at,0x322f
    2308:	2f383931 	sltiu	t8,t9,14641
    230c:	72616873 	d32sar	xr1,xr10,xr5,xr8,9
    2310:	672f6465 	0x672f6465
    2314:	6e2f6363 	0x6e2f6363
    2318:	696c7765 	0x696c7765
    231c:	696c2f62 	0x696c2f62
    2320:	692f6362 	0x692f6362
    2324:	756c636e 	jalx	5b18db8 <__memory_size+0x5af95b8>
    2328:	732f6564 	s8ldi	xr5,t9,-39,ptn3
    232c:	00007379 	0x7379
    2330:	7370696d 	s16sdi	xr5,k1,52,
    2334:	6378655f 	0x6378655f
    2338:	685f7470 	0x685f7470
    233c:	6c646e61 	0x6c646e61
    2340:	632e7265 	0x632e7265
    2344:	00000100 	sll	zero,zero,0x4
    2348:	64647473 	0x64647473
    234c:	682e6665 	0x682e6665
    2350:	00000200 	sll	zero,zero,0x8
    2354:	6665645f 	0x6665645f
    2358:	746c7561 	jalx	1b1d584 <__memory_size+0x1afdd84>
    235c:	7079745f 	udi15	v1,t9,t6,0x11
    2360:	682e7365 	0x682e7365
    2364:	00000300 	sll	zero,zero,0xc
    2368:	6332336d 	0x6332336d
    236c:	00682e30 	tge	v1,t0,0xb8
    2370:	73000004 	msub	t8,zero
    2374:	6e696474 	0x6e696474
    2378:	00682e74 	teq	v1,t0,0xb9
    237c:	68000005 	0x68000005
    2380:	682e6c61 	0x682e6c61
    2384:	00000400 	sll	zero,zero,0x10
    2388:	69727473 	0x69727473
    238c:	682e676e 	0x682e676e
    2390:	00000500 	sll	zero,zero,0x14
    2394:	73696e75 	q16slr	xr9,xr11,xr5,xr10,13
    2398:	682e6474 	0x682e6474
    239c:	00000600 	sll	zero,zero,0x18
    23a0:	02050000 	0x2050000
    23a4:	800027f4 	lb	zero,10228(zero)
    23a8:	08013003 	j	4c00c <__memory_size+0x2c80c>
    23ac:	770883b2 	jalx	c220ec8 <__memory_size+0xc2016c8>
    23b0:	034a7603 	0x34a7603
    23b4:	f3494a0a 	0xf3494a0a
    23b8:	bc84ab08 	cache	0x4,-21752(a0)
    23bc:	08750883 	j	1d4220c <__memory_size+0x1d22a0c>
    23c0:	19031378 	0x19031378
    23c4:	f3814b82 	0xf3814b82
    23c8:	f5152402 	sdc1	$f21,9218(t0)
    23cc:	3d08bebe 	0x3d08bebe
    23d0:	7508bebd 	jalx	422faf4 <__memory_size+0x42102f4>
    23d4:	080b0384 	j	2c0e10 <__memory_size+0x2a1610>
    23d8:	f5f5f43c 	sdc1	$f21,-3012(t7)
    23dc:	4bbc4108 	c2	0x1bc4108
    23e0:	03f4f685 	0x3f4f685
    23e4:	034a0198 	0x34a0198
    23e8:	7dba7ee8 	0x7dba7ee8
    23ec:	9b03f383 	lwr	v1,-3197(t8)
    23f0:	ea03f201 	swc2	$3,-3583(s0)
    23f4:	96034a7e 	lhu	v1,19070(s0)
    23f8:	ea034a01 	swc2	$3,18945(s0)
    23fc:	bd85ba7e 	cache	0x5,-17794(t4)
    2400:	3f08bdbd 	0x3f08bdbd
    2404:	f3f34008 	0xf3f34008
    2408:	4b4b3e08 	c2	0x14b3e08
    240c:	f7854b4b 	sdc1	$f5,19275(gp)
    2410:	3e08f3f3 	0x3e08f3f3
    2414:	4c4b4b4b 	0x4c4b4b4b
    2418:	08f5f584 	j	3d7d610 <__memory_size+0x3d5de10>
    241c:	083f083f 	j	fc20fc <__memory_size+0xfa28fc>
    2420:	bd3f083f 	cache	0x1f,2111(t1)
    2424:	3f08f5bd 	0x3f08f5bd
    2428:	3f083f08 	0x3f083f08
    242c:	40083f08 	0x40083f08
    2430:	3d08ad08 	0x3d08ad08
    2434:	3e083d08 	0x3e083d08
    2438:	3d083d08 	0x3d083d08
    243c:	3e083d08 	0x3e083d08
    2440:	3d083d08 	0x3d083d08
    2444:	3e083d08 	0x3e083d08
    2448:	3d083d08 	0x3d083d08
    244c:	3e083d08 	0x3e083d08
    2450:	3d083d08 	0x3d083d08
    2454:	3e083d08 	0x3e083d08
    2458:	3d083d08 	0x3d083d08
    245c:	3e083d08 	0x3e083d08
    2460:	3d083d08 	0x3d083d08
    2464:	3e083d08 	0x3e083d08
    2468:	3d083d08 	0x3d083d08
    246c:	3f083d08 	0x3f083d08
    2470:	3f083d08 	0x3f083d08
    2474:	3e083d08 	0x3e083d08
    2478:	3d083d08 	0x3d083d08
    247c:	3f083d08 	0x3f083d08
    2480:	18024308 	0x18024308
    2484:	a6010100 	sh	at,256(s0)
    2488:	02000000 	0x2000000
    248c:	00006e00 	sll	t5,zero,0x18
    2490:	fb010100 	sdc2	$1,256(t8)
    2494:	01000d0e 	0x1000d0e
    2498:	00010101 	0x10101
    249c:	00010000 	sll	zero,at,0x0
    24a0:	732f0100 	0x732f0100
    24a4:	74617263 	jalx	185c98c <__memory_size+0x183d18c>
    24a8:	6d2f6863 	0x6d2f6863
    24ac:	6a2f6670 	0x6a2f6670
    24b0:	2f73626f 	sltiu	s3,k1,25199
    24b4:	39333435 	xori	s3,t1,0x3435
    24b8:	38342f35 	xori	s4,at,0x2f35
    24bc:	2f343930 	sltiu	s4,t9,14640
    24c0:	31303432 	andi	s0,t1,0x3432
    24c4:	732f3839 	0x732f3839
    24c8:	65726168 	0x65726168
    24cc:	63672f64 	0x63672f64
    24d0:	696c2f63 	0x696c2f63
    24d4:	6f6c6762 	0x6f6c6762
    24d8:	6d2f7373 	0x6d2f7373
    24dc:	2f737069 	sltiu	s3,k1,28777
    24e0:	006c6168 	0x6c6168
    24e4:	70696d00 	0x70696d00
    24e8:	78655f73 	0x78655f73
    24ec:	5f747063 	0x5f747063
    24f0:	69676572 	0x69676572
    24f4:	72657473 	d32sar	xr1,xr13,xr5,xr9,9
    24f8:	0100532e 	0x100532e
    24fc:	00000000 	nop
    2500:	2fa00205 	sltiu	zero,sp,517
    2504:	38038000 	xori	v1,zero,0x8000
    2508:	4b4b4f01 	c2	0x14b4f01
    250c:	4b838352 	c2	0x1838352
    2510:	844b4d83 	lh	t3,19843(v0)
    2514:	864a0903 	lh	t2,2307(s2)
    2518:	4d4d4b4b 	0x4d4d4b4b
    251c:	4c4b4b85 	0x4c4b4b85
    2520:	134b4b85 	beq	k0,t3,15338 <__isr_vec_space+0x15318>
    2524:	4b4b8586 	c2	0x14b8586
    2528:	4c854b4d 	0x4c854b4d
    252c:	01000802 	0x1000802
    2530:	00011701 	0x11701
    2534:	6a000200 	0x6a000200
    2538:	01000000 	0x1000000
    253c:	0d0efb01 	jal	43bec04 <__memory_size+0x439f404>
    2540:	01010100 	0x1010100
    2544:	00000001 	movf	zero,zero,$fcc0
    2548:	01000001 	movf	zero,t0,$fcc0
    254c:	7263732f 	0x7263732f
    2550:	68637461 	0x68637461
    2554:	66706d2f 	0x66706d2f
    2558:	626f6a2f 	0x626f6a2f
    255c:	34352f73 	ori	s5,at,0x2f73
    2560:	2f353933 	sltiu	s5,t9,14643
    2564:	39303834 	xori	s0,t1,0x3834
    2568:	34322f34 	ori	s2,at,0x2f34
    256c:	38393130 	xori	t9,at,0x3130
    2570:	6168732f 	0x6168732f
    2574:	2f646572 	sltiu	a0,k1,25970
    2578:	2f636367 	sltiu	v1,k1,25447
    257c:	6762696c 	0x6762696c
    2580:	73736f6c 	s16ldi	xr13,k1,438,ptn2
    2584:	70696d2f 	0x70696d2f
    2588:	61682f73 	0x61682f73
    258c:	6d00006c 	0x6d00006c
    2590:	5f737069 	0x5f737069
    2594:	70637865 	s8sdi	xr1,v1,-34,ptn0
    2598:	6f625f74 	0x6f625f74
    259c:	532e746f 	beql	t9,t6,1f75c <__isr_vec_space+0x1f73c>
    25a0:	00000100 	sll	zero,zero,0x4
    25a4:	02050000 	0x2050000
    25a8:	80003050 	lb	zero,12368(zero)
    25ac:	0100d003 	0x100d003
    25b0:	4b4c4b83 	c2	0x14c4b83
    25b4:	4b4b4b4b 	c2	0x14b4b4b
    25b8:	4b4b4b4b 	c2	0x14b4b4b
    25bc:	4c4b4b4b 	0x4c4b4b4b
    25c0:	4b4d4b4f 	c2	0x14d4b4f
    25c4:	874b4b4d 	lh	t3,19277(k0)
    25c8:	134d4d4b 	beq	k0,t5,15af8 <__isr_vec_space+0x15ad8>
    25cc:	4b820e03 	c2	0x1820e03
    25d0:	4b4b4b4c 	c2	0x14b4b4c
    25d4:	4c834d4b 	0x4c834d4b
    25d8:	854b4c4b 	lh	t3,19531(t2)
    25dc:	4b834d4b 	c2	0x1834d4b
    25e0:	4b4b4b4b 	c2	0x14b4b4b
    25e4:	4b4b4b4b 	c2	0x14b4b4b
    25e8:	4b4b4b4b 	c2	0x14b4b4b
    25ec:	4d4c4b52 	0x4d4c4b52
    25f0:	03134d4b 	0x3134d4b
    25f4:	4b4d8210 	c2	0x14d8210
    25f8:	83154b4b 	lb	s5,19275(t8)
    25fc:	4d4b4b4b 	0x4d4b4b4b
    2600:	4b4b4b4b 	c2	0x14b4b4b
    2604:	4b4b4b4b 	c2	0x14b4b4b
    2608:	4b4b4b4b 	c2	0x14b4b4b
    260c:	4b4b4b4b 	c2	0x14b4b4b
    2610:	4b4b4b4b 	c2	0x14b4b4b
    2614:	4b4b4b4b 	c2	0x14b4b4b
    2618:	4d4b4b4b 	0x4d4b4b4b
    261c:	15034b83 	bne	t0,v1,1542c <__isr_vec_space+0x1540c>
    2620:	034d4b4a 	0x34d4b4a
    2624:	4b83820f 	c2	0x183820f
    2628:	1103134b 	beq	t0,v1,7358 <__isr_vec_space+0x7338>
    262c:	4b838582 	c2	0x1838582
    2630:	4b4b854b 	c2	0x14b854b
    2634:	4b4b844b 	c2	0x14b844b
    2638:	524b4e4b 	beql	s2,t3,15f68 <__isr_vec_space+0x15f48>
    263c:	4c848483 	0x4c848483
    2640:	844b4b4b 	lh	t3,19275(v0)
    2644:	024c4c4b 	0x24c4c4b
    2648:	01010008 	0x1010008
    264c:	00000019 	multu	zero,zero
    2650:	00130002 	srl	zero,s3,0x0
    2654:	01010000 	0x1010000
    2658:	000d0efb 	0xd0efb
    265c:	01010101 	0x1010101
    2660:	01000000 	0x1000000
    2664:	00010000 	sll	zero,at,0x0
    2668:	0001db00 	sll	k1,at,0xc
    266c:	be000200 	cache	0x0,512(s0)
    2670:	01000001 	movf	zero,t0,$fcc0
    2674:	0d0efb01 	jal	43bec04 <__memory_size+0x439f404>
    2678:	01010100 	0x1010100
    267c:	00000001 	movf	zero,zero,$fcc0
    2680:	01000001 	movf	zero,t0,$fcc0
    2684:	7263732f 	0x7263732f
    2688:	68637461 	0x68637461
    268c:	66706d2f 	0x66706d2f
    2690:	626f6a2f 	0x626f6a2f
    2694:	34352f73 	ori	s5,at,0x2f73
    2698:	2f353933 	sltiu	s5,t9,14643
    269c:	39303834 	xori	s0,t1,0x3834
    26a0:	34322f34 	ori	s2,at,0x2f34
    26a4:	38393130 	xori	t9,at,0x3130
    26a8:	6168732f 	0x6168732f
    26ac:	2f646572 	sltiu	a0,k1,25970
    26b0:	2f636367 	sltiu	v1,k1,25447
    26b4:	6762696c 	0x6762696c
    26b8:	73736f6c 	s16ldi	xr13,k1,438,ptn2
    26bc:	70696d2f 	0x70696d2f
    26c0:	68752f73 	0x68752f73
    26c4:	732f0069 	0x732f0069
    26c8:	74617263 	jalx	185c98c <__memory_size+0x183d18c>
    26cc:	6d2f6863 	0x6d2f6863
    26d0:	6a2f6670 	0x6a2f6670
    26d4:	2f73626f 	sltiu	s3,k1,25199
    26d8:	39333435 	xori	s3,t1,0x3435
    26dc:	38342f35 	xori	s4,at,0x2f35
    26e0:	2f343930 	sltiu	s4,t9,14640
    26e4:	31303432 	andi	s0,t1,0x3432
    26e8:	732f3839 	0x732f3839
    26ec:	65726168 	0x65726168
    26f0:	63672f64 	0x63672f64
    26f4:	656e2f63 	0x656e2f63
    26f8:	62696c77 	0x62696c77
    26fc:	62696c2f 	0x62696c2f
    2700:	6e692f63 	0x6e692f63
    2704:	64756c63 	0x64756c63
    2708:	616d2f65 	0x616d2f65
    270c:	6e696863 	0x6e696863
    2710:	732f0065 	s8sdi	xr1,t9,-64,ptn3
    2714:	74617263 	jalx	185c98c <__memory_size+0x183d18c>
    2718:	6d2f6863 	0x6d2f6863
    271c:	6a2f6670 	0x6a2f6670
    2720:	2f73626f 	sltiu	s3,k1,25199
    2724:	39333435 	xori	s3,t1,0x3435
    2728:	38342f35 	xori	s4,at,0x2f35
    272c:	2f343930 	sltiu	s4,t9,14640
    2730:	31303432 	andi	s0,t1,0x3432
    2734:	732f3839 	0x732f3839
    2738:	65726168 	0x65726168
    273c:	63672f64 	0x63672f64
    2740:	656e2f63 	0x656e2f63
    2744:	62696c77 	0x62696c77
    2748:	62696c2f 	0x62696c2f
    274c:	6e692f63 	0x6e692f63
    2750:	64756c63 	0x64756c63
    2754:	732f0065 	s8sdi	xr1,t9,-64,ptn3
    2758:	74617263 	jalx	185c98c <__memory_size+0x183d18c>
    275c:	6d2f6863 	0x6d2f6863
    2760:	6a2f6670 	0x6a2f6670
    2764:	2f73626f 	sltiu	s3,k1,25199
    2768:	39333435 	xori	s3,t1,0x3435
    276c:	38342f35 	xori	s4,at,0x2f35
    2770:	2f343930 	sltiu	s4,t9,14640
    2774:	32303432 	andi	s0,s1,0x3432
    2778:	772f3236 	jalx	cbcc8d8 <__memory_size+0xcbad0d8>
    277c:	2f6b726f 	sltiu	t3,k1,29295
    2780:	2d6a626f 	sltiu	t2,t3,25199
    2784:	7370696d 	s16sdi	xr5,k1,52,
    2788:	69746d2d 	0x69746d2d
    278c:	666c652d 	0x666c652d
    2790:	6363672f 	0x6363672f
    2794:	6363672f 	0x6363672f
    2798:	636e692f 	0x636e692f
    279c:	6564756c 	0x6564756c
    27a0:	63732f00 	0x63732f00
    27a4:	63746172 	0x63746172
    27a8:	706d2f68 	lxhu	a1,v1,t5,3
    27ac:	6f6a2f66 	0x6f6a2f66
    27b0:	352f7362 	ori	t7,t1,0x7362
    27b4:	35393334 	ori	t9,t1,0x3334
    27b8:	3038342f 	andi	t8,at,0x342f
    27bc:	322f3439 	andi	t7,s1,0x3439
    27c0:	39313034 	xori	s1,t1,0x3034
    27c4:	68732f38 	0x68732f38
    27c8:	64657261 	0x64657261
    27cc:	6363672f 	0x6363672f
    27d0:	77656e2f 	jalx	d95b8bc <__memory_size+0xd93c0bc>
    27d4:	2f62696c 	sltiu	v0,k1,26988
    27d8:	6362696c 	0x6362696c
    27dc:	636e692f 	0x636e692f
    27e0:	6564756c 	0x6564756c
    27e4:	7379732f 	0x7379732f
    27e8:	68750000 	0x68750000
    27ec:	72775f69 	0x72775f69
    27f0:	2e657469 	sltiu	a1,s3,29801
    27f4:	00010063 	0x10063
    27f8:	65645f00 	0x65645f00
    27fc:	6c756166 	0x6c756166
    2800:	79745f74 	0x79745f74
    2804:	2e736570 	sltiu	s3,s3,25968
    2808:	00020068 	0x20068
    280c:	64747300 	0x64747300
    2810:	2e746e69 	sltiu	s4,s3,28265
    2814:	00030068 	0x30068
    2818:	64747300 	0x64747300
    281c:	2e666564 	sltiu	a2,s3,25956
    2820:	00040068 	0x40068
    2824:	72726500 	0x72726500
    2828:	682e6f6e 	0x682e6f6e
    282c:	00000500 	sll	zero,zero,0x14
    2830:	02050000 	0x2050000
    2834:	800032e8 	lb	zero,13032(zero)
    2838:	4e013403 	c3	0x13403
    283c:	508a454b 	beql	a0,t2,13d6c <__isr_vec_space+0x13d4c>
    2840:	02f64bf6 	tne	s7,s6,0x12f
    2844:	01010014 	0x1010014
    2848:	00000190 	0x190
    284c:	01770002 	0x1770002
    2850:	01010000 	0x1010000
    2854:	000d0efb 	0xd0efb
    2858:	01010101 	0x1010101
    285c:	01000000 	0x1000000
    2860:	2f010000 	sltiu	at,t8,0
    2864:	61726373 	0x61726373
    2868:	2f686374 	sltiu	t0,k1,25460
    286c:	2f66706d 	sltiu	a2,k1,28781
    2870:	73626f6a 	s16ldd	xr13,k1,310,ptn0
    2874:	3334352f 	andi	s4,t9,0x352f
    2878:	342f3539 	ori	t7,at,0x3539
    287c:	34393038 	ori	t9,at,0x3038
    2880:	3034322f 	andi	s4,at,0x322f
    2884:	2f383931 	sltiu	t8,t9,14641
    2888:	72616873 	d32sar	xr1,xr10,xr5,xr8,9
    288c:	672f6465 	0x672f6465
    2890:	6c2f6363 	0x6c2f6363
    2894:	6c676269 	0x6c676269
    2898:	2f73736f 	sltiu	s3,k1,29551
    289c:	7370696d 	s16sdi	xr5,k1,52,
    28a0:	6968752f 	0x6968752f
    28a4:	63732f00 	0x63732f00
    28a8:	63746172 	0x63746172
    28ac:	706d2f68 	lxhu	a1,v1,t5,3
    28b0:	6f6a2f66 	0x6f6a2f66
    28b4:	352f7362 	ori	t7,t1,0x7362
    28b8:	35393334 	ori	t9,t1,0x3334
    28bc:	3038342f 	andi	t8,at,0x342f
    28c0:	322f3439 	andi	t7,s1,0x3439
    28c4:	39313034 	xori	s1,t1,0x3034
    28c8:	68732f38 	0x68732f38
    28cc:	64657261 	0x64657261
    28d0:	6363672f 	0x6363672f
    28d4:	77656e2f 	jalx	d95b8bc <__memory_size+0xd93c0bc>
    28d8:	2f62696c 	sltiu	v0,k1,26988
    28dc:	6362696c 	0x6362696c
    28e0:	636e692f 	0x636e692f
    28e4:	6564756c 	0x6564756c
    28e8:	63616d2f 	0x63616d2f
    28ec:	656e6968 	0x656e6968
    28f0:	63732f00 	0x63732f00
    28f4:	63746172 	0x63746172
    28f8:	706d2f68 	lxhu	a1,v1,t5,3
    28fc:	6f6a2f66 	0x6f6a2f66
    2900:	352f7362 	ori	t7,t1,0x7362
    2904:	35393334 	ori	t9,t1,0x3334
    2908:	3038342f 	andi	t8,at,0x342f
    290c:	322f3439 	andi	t7,s1,0x3439
    2910:	39313034 	xori	s1,t1,0x3034
    2914:	68732f38 	0x68732f38
    2918:	64657261 	0x64657261
    291c:	6363672f 	0x6363672f
    2920:	77656e2f 	jalx	d95b8bc <__memory_size+0xd93c0bc>
    2924:	2f62696c 	sltiu	v0,k1,26988
    2928:	6362696c 	0x6362696c
    292c:	636e692f 	0x636e692f
    2930:	6564756c 	0x6564756c
    2934:	63732f00 	0x63732f00
    2938:	63746172 	0x63746172
    293c:	706d2f68 	lxhu	a1,v1,t5,3
    2940:	6f6a2f66 	0x6f6a2f66
    2944:	352f7362 	ori	t7,t1,0x7362
    2948:	35393334 	ori	t9,t1,0x3334
    294c:	3038342f 	andi	t8,at,0x342f
    2950:	322f3439 	andi	t7,s1,0x3439
    2954:	39313034 	xori	s1,t1,0x3034
    2958:	68732f38 	0x68732f38
    295c:	64657261 	0x64657261
    2960:	6363672f 	0x6363672f
    2964:	62696c2f 	0x62696c2f
    2968:	736f6c67 	0x736f6c67
    296c:	696d2f73 	0x696d2f73
    2970:	692f7370 	0x692f7370
    2974:	756c636e 	jalx	5b18db8 <__memory_size+0x5af95b8>
    2978:	6d2f6564 	0x6d2f6564
    297c:	00737069 	0x737069
    2980:	69687500 	0x69687500
    2984:	6378655f 	0x6378655f
    2988:	69747065 	0x69747065
    298c:	632e6e6f 	0x632e6e6f
    2990:	00000100 	sll	zero,zero,0x4
    2994:	6665645f 	0x6665645f
    2998:	746c7561 	jalx	1b1d584 <__memory_size+0x1afdd84>
    299c:	7079745f 	udi15	v1,t9,t6,0x11
    29a0:	682e7365 	0x682e7365
    29a4:	00000200 	sll	zero,zero,0x8
    29a8:	69647473 	0x69647473
    29ac:	682e746e 	0x682e746e
    29b0:	00000300 	sll	zero,zero,0xc
    29b4:	6332336d 	0x6332336d
    29b8:	00682e30 	tge	v1,t0,0xb8
    29bc:	68000004 	0x68000004
    29c0:	682e6c61 	0x682e6c61
    29c4:	00000400 	sll	zero,zero,0x10
    29c8:	02050000 	0x2050000
    29cc:	80003338 	lb	zero,13112(zero)
    29d0:	15013403 	bne	t0,at,f9e0 <__isr_vec_space+0xf9c0>
    29d4:	02504c4b 	0x2504c4b
    29d8:	01010008 	0x1010008
    29dc:	0000019b 	0x19b
    29e0:	01760002 	0x1760002
    29e4:	01010000 	0x1010000
    29e8:	000d0efb 	0xd0efb
    29ec:	01010101 	0x1010101
    29f0:	01000000 	0x1000000
    29f4:	2f010000 	sltiu	at,t8,0
    29f8:	61726373 	0x61726373
    29fc:	2f686374 	sltiu	t0,k1,25460
    2a00:	2f66706d 	sltiu	a2,k1,28781
    2a04:	73626f6a 	s16ldd	xr13,k1,310,ptn0
    2a08:	3334352f 	andi	s4,t9,0x352f
    2a0c:	342f3539 	ori	t7,at,0x3539
    2a10:	34393038 	ori	t9,at,0x3038
    2a14:	3034322f 	andi	s4,at,0x322f
    2a18:	2f383931 	sltiu	t8,t9,14641
    2a1c:	72616873 	d32sar	xr1,xr10,xr5,xr8,9
    2a20:	672f6465 	0x672f6465
    2a24:	6c2f6363 	0x6c2f6363
    2a28:	6c676269 	0x6c676269
    2a2c:	2f73736f 	sltiu	s3,k1,29551
    2a30:	7370696d 	s16sdi	xr5,k1,52,
    2a34:	6968752f 	0x6968752f
    2a38:	63732f00 	0x63732f00
    2a3c:	63746172 	0x63746172
    2a40:	706d2f68 	lxhu	a1,v1,t5,3
    2a44:	6f6a2f66 	0x6f6a2f66
    2a48:	352f7362 	ori	t7,t1,0x7362
    2a4c:	35393334 	ori	t9,t1,0x3334
    2a50:	3038342f 	andi	t8,at,0x342f
    2a54:	322f3439 	andi	t7,s1,0x3439
    2a58:	39313034 	xori	s1,t1,0x3034
    2a5c:	68732f38 	0x68732f38
    2a60:	64657261 	0x64657261
    2a64:	6363672f 	0x6363672f
    2a68:	62696c2f 	0x62696c2f
    2a6c:	736f6c67 	0x736f6c67
    2a70:	696d2f73 	0x696d2f73
    2a74:	692f7370 	0x692f7370
    2a78:	756c636e 	jalx	5b18db8 <__memory_size+0x5af95b8>
    2a7c:	6d2f6564 	0x6d2f6564
    2a80:	00737069 	0x737069
    2a84:	7263732f 	0x7263732f
    2a88:	68637461 	0x68637461
    2a8c:	66706d2f 	0x66706d2f
    2a90:	626f6a2f 	0x626f6a2f
    2a94:	34352f73 	ori	s5,at,0x2f73
    2a98:	2f353933 	sltiu	s5,t9,14643
    2a9c:	39303834 	xori	s0,t1,0x3834
    2aa0:	34322f34 	ori	s2,at,0x2f34
    2aa4:	38393130 	xori	t9,at,0x3130
    2aa8:	6168732f 	0x6168732f
    2aac:	2f646572 	sltiu	a0,k1,25970
    2ab0:	2f636367 	sltiu	v1,k1,25447
    2ab4:	6c77656e 	0x6c77656e
    2ab8:	6c2f6269 	0x6c2f6269
    2abc:	2f636269 	sltiu	v1,k1,25193
    2ac0:	6c636e69 	0x6c636e69
    2ac4:	2f656475 	sltiu	a1,k1,25717
    2ac8:	6863616d 	0x6863616d
    2acc:	00656e69 	0x656e69
    2ad0:	7263732f 	0x7263732f
    2ad4:	68637461 	0x68637461
    2ad8:	66706d2f 	0x66706d2f
    2adc:	626f6a2f 	0x626f6a2f
    2ae0:	34352f73 	ori	s5,at,0x2f73
    2ae4:	2f353933 	sltiu	s5,t9,14643
    2ae8:	39303834 	xori	s0,t1,0x3834
    2aec:	34322f34 	ori	s2,at,0x2f34
    2af0:	38393130 	xori	t9,at,0x3130
    2af4:	6168732f 	0x6168732f
    2af8:	2f646572 	sltiu	a0,k1,25970
    2afc:	2f636367 	sltiu	v1,k1,25447
    2b00:	6c77656e 	0x6c77656e
    2b04:	6c2f6269 	0x6c2f6269
    2b08:	2f636269 	sltiu	v1,k1,25193
    2b0c:	6c636e69 	0x6c636e69
    2b10:	00656475 	0x656475
    2b14:	69687500 	0x69687500
    2b18:	646e695f 	0x646e695f
    2b1c:	63657269 	0x63657269
    2b20:	00632e74 	teq	v1,v1,0xb9
    2b24:	6d000001 	0x6d000001
    2b28:	30633233 	andi	v1,v1,0x3233
    2b2c:	0200682e 	0x200682e
    2b30:	645f0000 	0x645f0000
    2b34:	75616665 	jalx	5859994 <__memory_size+0x583a194>
    2b38:	745f746c 	jalx	17dd1b0 <__memory_size+0x17bd9b0>
    2b3c:	73657079 	0x73657079
    2b40:	0300682e 	0x300682e
    2b44:	74730000 	jalx	1cc0000 <__memory_size+0x1ca0800>
    2b48:	746e6964 	jalx	1b9a590 <__memory_size+0x1b7ad90>
    2b4c:	0400682e 	bltz	zero,1cc08 <__isr_vec_space+0x1cbe8>
    2b50:	61680000 	0x61680000
    2b54:	00682e6c 	0x682e6c
    2b58:	00000002 	srl	zero,zero,0x0
    2b5c:	4c020500 	lwxc1	$f20,v0(zero)
    2b60:	03800033 	tltu	gp,zero
    2b64:	4b010123 	c2	0x1010123
    2b68:	4b4b464f 	c2	0x14b464f
    2b6c:	4f4f4e4b 	c3	0x14f4e4b
    2b70:	484d4b46 	0x484d4b46
    2b74:	08024d4c 	j	93530 <__memory_size+0x73d30>
    2b78:	41010100 	bc0t	2f7c <__isr_vec_space+0x2f5c>
    2b7c:	02000001 	movf	zero,s0,$fcc0
    2b80:	00012b00 	sll	a1,at,0xc
    2b84:	fb010100 	sdc2	$1,256(t8)
    2b88:	01000d0e 	0x1000d0e
    2b8c:	00010101 	0x10101
    2b90:	00010000 	sll	zero,at,0x0
    2b94:	732f0100 	0x732f0100
    2b98:	74617263 	jalx	185c98c <__memory_size+0x183d18c>
    2b9c:	6d2f6863 	0x6d2f6863
    2ba0:	6a2f6670 	0x6a2f6670
    2ba4:	2f73626f 	sltiu	s3,k1,25199
    2ba8:	39333435 	xori	s3,t1,0x3435
    2bac:	38342f35 	xori	s4,at,0x2f35
    2bb0:	2f343930 	sltiu	s4,t9,14640
    2bb4:	31303432 	andi	s0,t1,0x3432
    2bb8:	732f3839 	0x732f3839
    2bbc:	65726168 	0x65726168
    2bc0:	63672f64 	0x63672f64
    2bc4:	656e2f63 	0x656e2f63
    2bc8:	62696c77 	0x62696c77
    2bcc:	62696c2f 	0x62696c2f
    2bd0:	72652f63 	s8std	xr13,s3,75,ptn1
    2bd4:	006f6e72 	tlt	v1,t7,0x1b9
    2bd8:	7263732f 	0x7263732f
    2bdc:	68637461 	0x68637461
    2be0:	66706d2f 	0x66706d2f
    2be4:	626f6a2f 	0x626f6a2f
    2be8:	34352f73 	ori	s5,at,0x2f73
    2bec:	2f353933 	sltiu	s5,t9,14643
    2bf0:	39303834 	xori	s0,t1,0x3834
    2bf4:	34322f34 	ori	s2,at,0x2f34
    2bf8:	38393130 	xori	t9,at,0x3130
    2bfc:	6168732f 	0x6168732f
    2c00:	2f646572 	sltiu	a0,k1,25970
    2c04:	2f636367 	sltiu	v1,k1,25447
    2c08:	6c77656e 	0x6c77656e
    2c0c:	6c2f6269 	0x6c2f6269
    2c10:	2f636269 	sltiu	v1,k1,25193
    2c14:	6c636e69 	0x6c636e69
    2c18:	2f656475 	sltiu	a1,k1,25717
    2c1c:	00737973 	tltu	v1,s3,0x1e5
    2c20:	7263732f 	0x7263732f
    2c24:	68637461 	0x68637461
    2c28:	66706d2f 	0x66706d2f
    2c2c:	626f6a2f 	0x626f6a2f
    2c30:	34352f73 	ori	s5,at,0x2f73
    2c34:	2f353933 	sltiu	s5,t9,14643
    2c38:	39303834 	xori	s0,t1,0x3834
    2c3c:	34322f34 	ori	s2,at,0x2f34
    2c40:	32363230 	andi	s6,s1,0x3230
    2c44:	726f772f 	0x726f772f
    2c48:	626f2f6b 	0x626f2f6b
    2c4c:	696d2d6a 	0x696d2d6a
    2c50:	6d2d7370 	0x6d2d7370
    2c54:	652d6974 	0x652d6974
    2c58:	672f666c 	0x672f666c
    2c5c:	672f6363 	0x672f6363
    2c60:	692f6363 	0x692f6363
    2c64:	756c636e 	jalx	5b18db8 <__memory_size+0x5af95b8>
    2c68:	00006564 	0x6564
    2c6c:	6e727265 	0x6e727265
    2c70:	00632e6f 	0x632e6f
    2c74:	6c000001 	0x6c000001
    2c78:	2e6b636f 	sltiu	t3,s3,25455
    2c7c:	00020068 	0x20068
    2c80:	79745f00 	ori.b	$w28,$w11,0x74
    2c84:	2e736570 	sltiu	s3,s3,25968
    2c88:	00020068 	0x20068
    2c8c:	64747300 	0x64747300
    2c90:	2e666564 	sltiu	a2,s3,25956
    2c94:	00030068 	0x30068
    2c98:	65657200 	0x65657200
    2c9c:	682e746e 	0x682e746e
    2ca0:	00000200 	sll	zero,zero,0x8
    2ca4:	6e727265 	0x6e727265
    2ca8:	00682e6f 	0x682e6f
    2cac:	00000002 	srl	zero,zero,0x0
    2cb0:	90020500 	lbu	v0,1280(zero)
    2cb4:	03800033 	tltu	gp,zero
    2cb8:	0214010b 	0x214010b
    2cbc:	0101000c 	syscall	0x40400

Disassembly of section .debug_frame:

00000000 <.debug_frame>:
   0:	0000000c 	syscall
   4:	ffffffff 	sdc3	$31,-1(ra)
   8:	7c010001 	0x7c010001
   c:	001d0d1f 	0x1d0d1f
  10:	0000000c 	syscall
  14:	00000000 	nop
  18:	800006c0 	lb	zero,1728(zero)
  1c:	00000010 	mfhi	zero
  20:	00000014 	0x14
  24:	00000000 	nop
  28:	800006d0 	lb	zero,1744(zero)
  2c:	0000004c 	syscall	0x1
  30:	02080e44 	0x2080e44
  34:	00000e48 	0xe48
  38:	00000018 	mult	zero,zero
  3c:	00000000 	nop
  40:	8000071c 	lb	zero,1820(zero)
  44:	000000b8 	0xb8
  48:	44280e44 	0x44280e44
  4c:	b002019f 	0xb002019f
  50:	00df000e 	0xdf000e
  54:	00000018 	mult	zero,zero
  58:	00000000 	nop
  5c:	800007d4 	lb	zero,2004(zero)
  60:	000000c8 	0xc8
  64:	44200e44 	0x44200e44
  68:	c002019f 	ll	v0,415(zero)
  6c:	00df000e 	0xdf000e
  70:	00000018 	mult	zero,zero
  74:	00000000 	nop
  78:	8000089c 	lb	zero,2204(zero)
  7c:	00000020 	add	zero,zero,zero
  80:	44180e44 	0x44180e44
  84:	0e58019f 	jal	960067c <__memory_size+0x95e0e7c>
  88:	0000df00 	sll	k1,zero,0x1c
  8c:	0000000c 	syscall
  90:	ffffffff 	sdc3	$31,-1(ra)
  94:	7c010001 	0x7c010001
  98:	001d0d1f 	0x1d0d1f
  9c:	00000018 	mult	zero,zero
  a0:	0000008c 	syscall	0x2
  a4:	800008bc 	lb	zero,2236(zero)
  a8:	00000020 	add	zero,zero,zero
  ac:	44180e44 	0x44180e44
  b0:	0e58019f 	jal	960067c <__memory_size+0x95e0e7c>
  b4:	0000df00 	sll	k1,zero,0x1c
  b8:	0000001c 	0x1c
  bc:	0000008c 	syscall	0x2
  c0:	800008dc 	lb	zero,2268(zero)
  c4:	00000064 	0x64
  c8:	48180e44 	0x48180e44
  cc:	0290019f 	0x290019f
  d0:	000e5802 	srl	t3,t6,0x0
  d4:	0000dfd0 	0xdfd0
  d8:	0000001c 	0x1c
  dc:	0000008c 	syscall	0x2
  e0:	80000940 	lb	zero,2368(zero)
  e4:	0000004c 	syscall	0x1
  e8:	4c200e44 	0x4c200e44
  ec:	0291019f 	0x291019f
  f0:	0e7c0390 	jal	9f00e40 <__memory_size+0x9ee1640>
  f4:	dfd1d000 	ldc3	$17,-12288(s8)
  f8:	0000000c 	syscall
  fc:	0000008c 	syscall	0x2
 100:	8000098c 	lb	zero,2444(zero)
 104:	00000008 	jr	zero
 108:	00000020 	add	zero,zero,zero
 10c:	0000008c 	syscall	0x2
 110:	80000994 	lb	zero,2452(zero)
 114:	0000006c 	0x6c
 118:	4c200e44 	0x4c200e44
 11c:	0291019f 	0x291019f
 120:	5c020390 	0x5c020390
 124:	d1d0000e 	0xd1d0000e
 128:	000000df 	0xdf
 12c:	00000028 	0x28
 130:	0000008c 	syscall	0x2
 134:	80000a00 	lb	zero,2560(zero)
 138:	000000d4 	0xd4
 13c:	58280e44 	0x58280e44
 140:	0294019f 	0x294019f
 144:	04920393 	bltzall	a0,f94 <__isr_vec_space+0xf74>
 148:	06900591 	bltzal	s4,1790 <__isr_vec_space+0x1770>
 14c:	000eb802 	srl	s7,t6,0x0
 150:	d3d2d1d0 	0xd3d2d1d0
 154:	0000dfd4 	0xdfd4
 158:	0000001c 	0x1c
 15c:	0000008c 	syscall	0x2
 160:	80000ad4 	lb	zero,2772(zero)
 164:	000000cc 	syscall	0x3
 168:	48180e44 	0x48180e44
 16c:	0290019f 	0x290019f
 170:	000ec002 	srl	t8,t6,0x0
 174:	0000dfd0 	0xdfd0
 178:	00000018 	mult	zero,zero
 17c:	0000008c 	syscall	0x2
 180:	80000ba0 	lb	zero,2976(zero)
 184:	00000050 	0x50
 188:	4c200e44 	0x4c200e44
 18c:	0291019f 	0x291019f
 190:	00000390 	0x390
 194:	0000000c 	syscall
 198:	ffffffff 	sdc3	$31,-1(ra)
 19c:	7c010001 	0x7c010001
 1a0:	001d0d1f 	0x1d0d1f
 1a4:	0000000c 	syscall
 1a8:	00000194 	0x194
 1ac:	80000bf0 	lb	zero,3056(zero)
 1b0:	00000014 	0x14
 1b4:	0000001c 	0x1c
 1b8:	00000194 	0x194
 1bc:	80000c04 	lb	zero,3076(zero)
 1c0:	000000ac 	0xac
 1c4:	48180e44 	0x48180e44
 1c8:	0290019f 	0x290019f
 1cc:	000ea002 	srl	s4,t6,0x0
 1d0:	0000dfd0 	0xdfd0
 1d4:	0000000c 	syscall
 1d8:	ffffffff 	sdc3	$31,-1(ra)
 1dc:	7c010001 	0x7c010001
 1e0:	001d0d1f 	0x1d0d1f
 1e4:	0000000c 	syscall
 1e8:	000001d4 	0x1d4
 1ec:	80000cb0 	lb	zero,3248(zero)
 1f0:	00000040 	ssnop
 1f4:	0000000c 	syscall
 1f8:	000001d4 	0x1d4
 1fc:	80000cf0 	lb	zero,3312(zero)
 200:	0000003c 	0x3c
 204:	00000020 	add	zero,zero,zero
 208:	000001d4 	0x1d4
 20c:	80000d2c 	lb	zero,3372(zero)
 210:	0000005c 	0x5c
 214:	4c200e44 	0x4c200e44
 218:	0291019f 	0x291019f
 21c:	4c020390 	0x4c020390
 220:	d1d0000e 	0xd1d0000e
 224:	000000df 	0xdf
 228:	0000000c 	syscall
 22c:	000001d4 	0x1d4
 230:	80000d88 	lb	zero,3464(zero)
 234:	0000000c 	syscall
 238:	0000000c 	syscall
 23c:	ffffffff 	sdc3	$31,-1(ra)
 240:	7c010001 	0x7c010001
 244:	001d0d1f 	0x1d0d1f
 248:	0000000c 	syscall
 24c:	00000238 	0x238
 250:	80000d94 	lb	zero,3476(zero)
 254:	00000028 	0x28
 258:	00000028 	0x28
 25c:	00000238 	0x238
 260:	80000dbc 	lb	zero,3516(zero)
 264:	000001f8 	0x1f8
 268:	58280e44 	0x58280e44
 26c:	0294019f 	0x294019f
 270:	04920393 	bltzall	a0,10c0 <__isr_vec_space+0x10a0>
 274:	06900591 	bltzal	s4,18bc <__isr_vec_space+0x189c>
 278:	0e01dc03 	jal	807700c <__memory_size+0x805780c>
 27c:	d2d1d000 	0xd2d1d000
 280:	00dfd4d3 	0xdfd4d3
 284:	0000000c 	syscall
 288:	00000238 	0x238
 28c:	80000fb4 	lb	zero,4020(zero)
 290:	00000028 	0x28
 294:	0000000c 	syscall
 298:	00000238 	0x238
 29c:	80000fdc 	lb	zero,4060(zero)
 2a0:	00000008 	jr	zero
 2a4:	0000000c 	syscall
 2a8:	00000238 	0x238
 2ac:	80000fe4 	lb	zero,4068(zero)
 2b0:	00000008 	jr	zero
 2b4:	0000000c 	syscall
 2b8:	00000238 	0x238
 2bc:	80000fec 	lb	zero,4076(zero)
 2c0:	00000014 	0x14
 2c4:	0000000c 	syscall
 2c8:	00000238 	0x238
 2cc:	80001000 	lb	zero,4096(zero)
 2d0:	00000008 	jr	zero
 2d4:	0000000c 	syscall
 2d8:	00000238 	0x238
 2dc:	80001008 	lb	zero,4104(zero)
 2e0:	00000084 	0x84
 2e4:	0000000c 	syscall
 2e8:	00000238 	0x238
 2ec:	8000108c 	lb	zero,4236(zero)
 2f0:	00000008 	jr	zero
 2f4:	0000000c 	syscall
 2f8:	00000238 	0x238
 2fc:	80001094 	lb	zero,4244(zero)
 300:	00000078 	0x78
 304:	0000001c 	0x1c
 308:	00000238 	0x238
 30c:	8000110c 	lb	zero,4364(zero)
 310:	00000034 	teq	zero,zero
 314:	48180e44 	0x48180e44
 318:	0290019f 	0x290019f
 31c:	d0000e68 	0xd0000e68
 320:	000000df 	0xdf
 324:	0000000c 	syscall
 328:	00000238 	0x238
 32c:	80001140 	lb	zero,4416(zero)
 330:	00000084 	0x84
 334:	00000018 	mult	zero,zero
 338:	00000238 	0x238
 33c:	800011c4 	lb	zero,4548(zero)
 340:	0000001c 	0x1c
 344:	44180e44 	0x44180e44
 348:	0e54019f 	jal	950067c <__memory_size+0x94e0e7c>
 34c:	0000df00 	sll	k1,zero,0x1c
 350:	00000018 	mult	zero,zero
 354:	00000238 	0x238
 358:	800011e0 	lb	zero,4576(zero)
 35c:	0000001c 	0x1c
 360:	44180e44 	0x44180e44
 364:	0e54019f 	jal	950067c <__memory_size+0x94e0e7c>
 368:	0000df00 	sll	k1,zero,0x1c
 36c:	00000018 	mult	zero,zero
 370:	00000238 	0x238
 374:	800011fc 	lb	zero,4604(zero)
 378:	0000001c 	0x1c
 37c:	44180e44 	0x44180e44
 380:	0e54019f 	jal	950067c <__memory_size+0x94e0e7c>
 384:	0000df00 	sll	k1,zero,0x1c
 388:	0000000c 	syscall
 38c:	00000238 	0x238
 390:	80001218 	lb	zero,4632(zero)
 394:	00000010 	mfhi	zero
 398:	00000018 	mult	zero,zero
 39c:	00000238 	0x238
 3a0:	80001228 	lb	zero,4648(zero)
 3a4:	0000009c 	0x9c
 3a8:	44180e44 	0x44180e44
 3ac:	9402019f 	lhu	v0,415(zero)
 3b0:	00df000e 	0xdf000e
 3b4:	0000000c 	syscall
 3b8:	00000238 	0x238
 3bc:	800012c4 	lb	zero,4804(zero)
 3c0:	00000008 	jr	zero
 3c4:	0000000c 	syscall
 3c8:	00000238 	0x238
 3cc:	800012cc 	lb	zero,4812(zero)
 3d0:	00000064 	0x64
 3d4:	0000000c 	syscall
 3d8:	00000238 	0x238
 3dc:	80001330 	lb	zero,4912(zero)
 3e0:	00000048 	0x48
 3e4:	0000000c 	syscall
 3e8:	00000238 	0x238
 3ec:	80001378 	lb	zero,4984(zero)
 3f0:	0000006c 	0x6c
 3f4:	0000001c 	0x1c
 3f8:	00000238 	0x238
 3fc:	800013e4 	lb	zero,5092(zero)
 400:	00000094 	0x94
 404:	48180e44 	0x48180e44
 408:	0290019f 	0x290019f
 40c:	000e8802 	srl	s1,t6,0x0
 410:	0000dfd0 	0xdfd0
 414:	00000030 	tge	zero,zero
 418:	00000238 	0x238
 41c:	80001478 	lb	zero,5240(zero)
 420:	000000f4 	teq	zero,zero,0x3
 424:	64380e44 	0x64380e44
 428:	0297019f 	0x297019f
 42c:	04950396 	0x4950396
 430:	06930594 	bgezall	s4,1a84 <__isr_vec_space+0x1a64>
 434:	08910792 	j	2441e48 <__memory_size+0x2422648>
 438:	cc020990 	pref	0x2,2448(zero)
 43c:	d1d0000e 	0xd1d0000e
 440:	d5d4d3d2 	ldc1	$f20,-11310(t6)
 444:	00dfd7d6 	0xdfd7d6
 448:	0000000c 	syscall
 44c:	00000238 	0x238
 450:	8000156c 	lb	zero,5484(zero)
 454:	000000ec 	0xec
 458:	00000018 	mult	zero,zero
 45c:	00000238 	0x238
 460:	80001658 	lb	zero,5720(zero)
 464:	0000001c 	0x1c
 468:	44180e44 	0x44180e44
 46c:	0e54019f 	jal	950067c <__memory_size+0x94e0e7c>
 470:	0000df00 	sll	k1,zero,0x1c
 474:	0000000c 	syscall
 478:	ffffffff 	sdc3	$31,-1(ra)
 47c:	7c010001 	0x7c010001
 480:	001d0d1f 	0x1d0d1f
 484:	0000000c 	syscall
 488:	00000474 	teq	zero,zero,0x11
 48c:	80001674 	lb	zero,5748(zero)
 490:	00000008 	jr	zero
 494:	00000018 	mult	zero,zero
 498:	00000474 	teq	zero,zero,0x11
 49c:	8000167c 	lb	zero,5756(zero)
 4a0:	00000050 	0x50
 4a4:	44180e70 	0x44180e70
 4a8:	0e5c019f 	jal	970067c <__memory_size+0x96e0e7c>
 4ac:	0000df00 	sll	k1,zero,0x1c
 4b0:	00000028 	0x28
 4b4:	00000474 	teq	zero,zero,0x11
 4b8:	800016cc 	lb	zero,5836(zero)
 4bc:	00000184 	0x184
 4c0:	58280e44 	0x58280e44
 4c4:	0294019f 	0x294019f
 4c8:	04920393 	bltzall	a0,1318 <__isr_vec_space+0x12f8>
 4cc:	06900591 	bltzal	s4,1b14 <__isr_vec_space+0x1af4>
 4d0:	0e016803 	jal	805a00c <__memory_size+0x803a80c>
 4d4:	d2d1d000 	0xd2d1d000
 4d8:	00dfd4d3 	0xdfd4d3
 4dc:	00000028 	0x28
 4e0:	00000474 	teq	zero,zero,0x11
 4e4:	80001850 	lb	zero,6224(zero)
 4e8:	00000134 	teq	zero,zero,0x4
 4ec:	58280e44 	0x58280e44
 4f0:	0294019f 	0x294019f
 4f4:	04920393 	bltzall	a0,1344 <__isr_vec_space+0x1324>
 4f8:	06900591 	bltzal	s4,1b40 <__isr_vec_space+0x1b20>
 4fc:	0e011803 	jal	804600c <__memory_size+0x802680c>
 500:	d2d1d000 	0xd2d1d000
 504:	00dfd4d3 	0xdfd4d3
 508:	0000000c 	syscall
 50c:	ffffffff 	sdc3	$31,-1(ra)
 510:	7c010001 	0x7c010001
 514:	001d0d1f 	0x1d0d1f
 518:	00000030 	tge	zero,zero
 51c:	00000508 	0x508
 520:	80001984 	lb	zero,6532(zero)
 524:	0000015c 	0x15c
 528:	01800e44 	0x1800e44
 52c:	96019f60 	lhu	at,-24736(s0)
 530:	94039502 	lhu	v1,-27390(zero)
 534:	92059304 	lbu	a1,-27900(s0)
 538:	90079106 	lbu	a3,-28410(zero)
 53c:	01380308 	0x1380308
 540:	d1d0000e 	0xd1d0000e
 544:	d5d4d3d2 	ldc1	$f20,-11310(t6)
 548:	0000dfd6 	0xdfd6
 54c:	00000020 	add	zero,zero,zero
 550:	00000508 	0x508
 554:	80001ae0 	lb	zero,6880(zero)
 558:	00000078 	0x78
 55c:	4c200e44 	0x4c200e44
 560:	0291019f 	0x291019f
 564:	68020390 	0x68020390
 568:	d1d0000e 	0xd1d0000e
 56c:	000000df 	0xdf
 570:	0000000c 	syscall
 574:	00000508 	0x508
 578:	80001b58 	lb	zero,7000(zero)
 57c:	00000008 	jr	zero
 580:	0000000c 	syscall
 584:	00000508 	0x508
 588:	80001b60 	lb	zero,7008(zero)
 58c:	0000000c 	syscall
 590:	0000000c 	syscall
 594:	ffffffff 	sdc3	$31,-1(ra)
 598:	7c010001 	0x7c010001
 59c:	001d0d1f 	0x1d0d1f
 5a0:	0000001c 	0x1c
 5a4:	00000590 	0x590
 5a8:	80001b6c 	lb	zero,7020(zero)
 5ac:	00000040 	ssnop
 5b0:	44180e44 	0x44180e44
 5b4:	0290019f 	0x290019f
 5b8:	d0000e78 	0xd0000e78
 5bc:	000000df 	0xdf
 5c0:	00000018 	mult	zero,zero
 5c4:	00000590 	0x590
 5c8:	80001bac 	lb	zero,7084(zero)
 5cc:	00000030 	tge	zero,zero
 5d0:	44180e44 	0x44180e44
 5d4:	0e68019f 	jal	9a0067c <__memory_size+0x99e0e7c>
 5d8:	0000df00 	sll	k1,zero,0x1c
 5dc:	00000014 	0x14
 5e0:	00000590 	0x590
 5e4:	80001bdc 	lb	zero,7132(zero)
 5e8:	00000030 	tge	zero,zero
 5ec:	44180e44 	0x44180e44
 5f0:	0290019f 	0x290019f
 5f4:	0000001c 	0x1c
 5f8:	00000590 	0x590
 5fc:	80001c0c 	lb	zero,7180(zero)
 600:	00000150 	0x150
 604:	48200e44 	0x48200e44
 608:	0290019f 	0x290019f
 60c:	0e014403 	jal	805100c <__memory_size+0x803180c>
 610:	00dfd000 	0xdfd000
 614:	0000000c 	syscall
 618:	ffffffff 	sdc3	$31,-1(ra)
 61c:	7c010001 	0x7c010001
 620:	001d0d1f 	0x1d0d1f
 624:	00000018 	mult	zero,zero
 628:	00000614 	0x614
 62c:	80001da4 	lb	zero,7588(zero)
 630:	00000028 	0x28
 634:	50180e44 	beql	zero,t8,3f48 <__isr_vec_space+0x3f28>
 638:	0e54019f 	jal	950067c <__memory_size+0x94e0e7c>
 63c:	0000df00 	sll	k1,zero,0x1c
 640:	0000000c 	syscall
 644:	ffffffff 	sdc3	$31,-1(ra)
 648:	7c010001 	0x7c010001
 64c:	001d0d1f 	0x1d0d1f
 650:	00000014 	0x14
 654:	00000640 	sll	zero,zero,0x19
 658:	80001dcc 	lb	zero,7628(zero)
 65c:	0000003c 	0x3c
 660:	4c180e44 	0x4c180e44
 664:	019f0290 	0x19f0290
 668:	0000000c 	syscall
 66c:	ffffffff 	sdc3	$31,-1(ra)
 670:	7c010001 	0x7c010001
 674:	001d0d1f 	0x1d0d1f
 678:	0000002c 	0x2c
 67c:	00000668 	0x668
 680:	800022d0 	lb	zero,8912(zero)
 684:	00000110 	0x110
 688:	48280e44 	0x48280e44
 68c:	94480690 	lhu	t0,1680(v0)
 690:	03934802 	0x3934802
 694:	4c049248 	0x4c049248
 698:	019f0591 	0x19f0591
 69c:	000ee002 	srl	gp,t6,0x0
 6a0:	d3d2d1d0 	0xd3d2d1d0
 6a4:	0000dfd4 	0xdfd4
 6a8:	0000000c 	syscall
 6ac:	ffffffff 	sdc3	$31,-1(ra)
 6b0:	7c010001 	0x7c010001
 6b4:	001d0d1f 	0x1d0d1f
 6b8:	00000038 	0x38
 6bc:	000006a8 	0x6a8
 6c0:	800023e0 	lb	zero,9184(zero)
 6c4:	00000180 	sll	zero,zero,0x6
 6c8:	48400e44 	0x48400e44
 6cc:	97480793 	lhu	t0,1939(k0)
 6d0:	04965003 	0x4965003
 6d4:	9f600694 	0x9f600694
 6d8:	95029e01 	lhu	v0,-25087(t0)
 6dc:	91089205 	lbu	t0,-28155(t0)
 6e0:	030a9009 	0x30a9009
 6e4:	000e013c 	0xe013c
 6e8:	d3d2d1d0 	0xd3d2d1d0
 6ec:	d7d6d5d4 	ldc1	$f22,-10796(s8)
 6f0:	0000dfde 	0xdfde
 6f4:	0000000c 	syscall
 6f8:	ffffffff 	sdc3	$31,-1(ra)
 6fc:	7c010001 	0x7c010001
 700:	001d0d1f 	0x1d0d1f
 704:	00000020 	add	zero,zero,zero
 708:	000006f4 	teq	zero,zero,0x1b
 70c:	80002560 	lb	zero,9568(zero)
 710:	00000088 	0x88
 714:	44280e44 	0x44280e44
 718:	91480392 	lbu	t0,914(t2)
 71c:	05904804 	bltzal	t4,12730 <__isr_vec_space+0x12710>
 720:	9f029354 	0x9f029354
 724:	00000001 	movf	zero,zero,$fcc0
 728:	0000000c 	syscall
 72c:	ffffffff 	sdc3	$31,-1(ra)
 730:	7c010001 	0x7c010001
 734:	001d0d1f 	0x1d0d1f
 738:	0000000c 	syscall
 73c:	00000728 	0x728
 740:	800025e8 	lb	zero,9704(zero)
 744:	0000004c 	syscall	0x1
 748:	0000000c 	syscall
 74c:	ffffffff 	sdc3	$31,-1(ra)
 750:	7c010001 	0x7c010001
 754:	001d0d1f 	0x1d0d1f
 758:	00000024 	and	zero,zero,zero
 75c:	00000748 	0x748
 760:	800027f4 	lb	zero,10228(zero)
 764:	000000c0 	ehb
 768:	44280e44 	0x44280e44
 76c:	91480292 	lbu	t0,658(t2)
 770:	04904803 	bltzal	a0,12780 <__isr_vec_space+0x12760>
 774:	02019f4c 	syscall	0x8067d
 778:	d0000e9c 	0xd0000e9c
 77c:	00dfd2d1 	0xdfd2d1
 780:	0000000c 	syscall
 784:	00000748 	0x748
 788:	800028b4 	lb	zero,10420(zero)
 78c:	00000008 	jr	zero
 790:	0000003c 	0x3c
 794:	00000748 	0x748
 798:	800028bc 	lb	zero,10428(zero)
 79c:	000006e4 	0x6e4
 7a0:	50200e44 	beqzl	at,40b4 <__isr_vec_space+0x4094>
 7a4:	019f0490 	0x19f0490
 7a8:	48029248 	0x48029248
 7ac:	30030391 	andi	v1,zero,0x391
 7b0:	d1d00a01 	0xd1d00a01
 7b4:	0e48dfd2 	jal	9237f48 <__memory_size+0x9218748>
 7b8:	0a7c0b00 	j	9f02c00 <__memory_size+0x9ee3400>
 7bc:	dfd2d1d0 	ldc3	$18,-11824(s8)
 7c0:	0b000e48 	j	c003920 <__memory_size+0xbfe4120>
 7c4:	0e054403 	jal	815100c <__memory_size+0x813180c>
 7c8:	d2d1d000 	0xd2d1d000
 7cc:	000000df 	0xdf
 7d0:	0000000c 	syscall
 7d4:	ffffffff 	sdc3	$31,-1(ra)
 7d8:	7c010001 	0x7c010001
 7dc:	001d0d1f 	0x1d0d1f
 7e0:	0000001c 	0x1c
 7e4:	000007d0 	0x7d0
 7e8:	800032e8 	lb	zero,13032(zero)
 7ec:	00000050 	0x50
 7f0:	50200e44 	beqzl	at,4104 <__isr_vec_space+0x40e4>
 7f4:	0290019f 	0x290019f
 7f8:	d0000e7c 	0xd0000e7c
 7fc:	000000df 	0xdf
 800:	0000000c 	syscall
 804:	ffffffff 	sdc3	$31,-1(ra)
 808:	7c010001 	0x7c010001
 80c:	001d0d1f 	0x1d0d1f
 810:	0000000c 	syscall
 814:	00000800 	sll	at,zero,0x0
 818:	80003338 	lb	zero,13112(zero)
 81c:	00000014 	0x14
 820:	0000000c 	syscall
 824:	ffffffff 	sdc3	$31,-1(ra)
 828:	7c010001 	0x7c010001
 82c:	001d0d1f 	0x1d0d1f
 830:	0000000c 	syscall
 834:	00000820 	add	at,zero,zero
 838:	8000334c 	lb	zero,13132(zero)
 83c:	00000044 	0x44
 840:	0000000c 	syscall
 844:	ffffffff 	sdc3	$31,-1(ra)
 848:	7c010001 	0x7c010001
 84c:	001d0d1f 	0x1d0d1f
 850:	0000000c 	syscall
 854:	00000840 	sll	at,zero,0x1
 858:	80003390 	lb	zero,13200(zero)
 85c:	0000000c 	syscall

Disassembly of section .debug_str:

00000000 <.debug_str>:
       0:	74697277 	jalx	1a5c9dc <__memory_size+0x1a3d1dc>
       4:	6c615665 	0x6c615665
       8:	53376f54 	beql	t9,s7,1bd5c <__isr_vec_space+0x1bd3c>
       c:	44736765 	0x44736765
      10:	6c006365 	0x6c006365
      14:	725f6465 	s8sdi	xr1,s2,-39,
      18:	49006465 	bc2f	191b0 <__isr_vec_space+0x19190>
      1c:	53375f4f 	beql	t9,s7,17d5c <__isr_vec_space+0x17d3c>
      20:	00354745 	0x354745
      24:	68676968 	0x68676968
      28:	5f4f4900 	0x5f4f4900
      2c:	47455337 	bz.w	$w5,14d0c <__isr_vec_space+0x14cec>
      30:	64610036 	0x64610036
      34:	375f7264 	ori	ra,k0,0x7264
      38:	00474553 	0x474553
      3c:	4c5f4f49 	0x4c5f4f49
      40:	00524445 	0x524445
      44:	74697773 	jalx	1a5ddcc <__memory_size+0x1a3e5cc>
      48:	73656863 	s8std	xr1,k1,90,ptn1
      4c:	69727700 	0x69727700
      50:	61566574 	0x61566574
      54:	376f546c 	ori	t7,k1,0x546c
      58:	73676553 	udi3	k1,a3,t4,0x15
      5c:	31786548 	andi	t8,t3,0x6548
      60:	554e4700 	bnel	t2,t6,11c64 <__isr_vec_space+0x11c44>
      64:	34204320 	ori	zero,at,0x4320
      68:	322e392e 	andi	t6,s1,0x392e
      6c:	656d2d20 	0x656d2d20
      70:	6d2d206c 	0x6d2d206c
      74:	68637261 	0x68637261
      78:	34316d3d 	ori	s1,at,0x6d3d
      7c:	2d20636b 	sltiu	zero,t1,25451
      80:	666f736d 	0x666f736d
      84:	6c662d74 	0x6c662d74
      88:	2074616f 	addi	s4,v1,24943
      8c:	6c706d2d 	0x6c706d2d
      90:	6d2d2074 	0x6d2d2074
      94:	33737069 	andi	s3,k1,0x7069
      98:	20327232 	addi	s2,at,29234
      9c:	79736d2d 	0x79736d2d
      a0:	2069636e 	addi	t1,v1,25454
      a4:	62616d2d 	0x62616d2d
      a8:	32333d69 	andi	s3,s1,0x3d69
      ac:	20672d20 	addi	a3,v1,11552
      b0:	00314f2d 	0x314f2d
      b4:	756c6176 	jalx	5b185d8 <__memory_size+0x5af8dd8>
      b8:	6c675f65 	0x6c675f65
      bc:	6c61626f 	0x6c61626f
      c0:	5f4f4900 	0x5f4f4900
      c4:	47455337 	bz.w	$w5,14da4 <__isr_vec_space+0x14d84>
      c8:	72770031 	d32slr	xr0,xr0,xr12,xr13,9
      cc:	56657469 	bnel	s3,a1,1d274 <__isr_vec_space+0x1d254>
      d0:	6f546c61 	0x6f546c61
      d4:	67655337 	0x67655337
      d8:	78654873 	0x78654873
      dc:	5f4f4900 	0x5f4f4900
      e0:	47455337 	bz.w	$w5,14dc0 <__isr_vec_space+0x14da0>
      e4:	4f490033 	c3	0x1490033
      e8:	4553375f 	0x4553375f
      ec:	43003447 	c0	0x1003447
      f0:	73555c3a 	0x73555c3a
      f4:	5c737265 	0x5c737265
      f8:	30797a6c 	andi	t9,v1,0x7a6c
      fc:	6e4f5c35 	0x6e4f5c35
     100:	69724465 	0x69724465
     104:	315c6576 	andi	gp,t2,0x6576
     108:	39312d38 	xori	s1,t1,0x2d38
     10c:	6c61462d 	0x6c61462d
     110:	43535c6c 	c0	0x1535c6c
     114:	69675c44 	0x69675c44
     118:	72735c74 	q16sll	xr1,xr7,xr13,xr12,9
     11c:	4f490063 	c3	0x1490063
     120:	4553375f 	0x4553375f
     124:	49003047 	bc2f	c244 <__isr_vec_space+0xc224>
     128:	53375f4f 	beql	t9,s7,17e68 <__isr_vec_space+0x17e48>
     12c:	00374745 	0x374745
     130:	375f4f49 	ori	ra,k0,0x4f49
     134:	45474553 	0x45474553
     138:	4f49004e 	c3	0x149004e
     13c:	4553375f 	0x4553375f
     140:	64003247 	0x64003247
     144:	67756265 	0x67756265
     148:	6400632e 	0x6400632e
     14c:	74696769 	jalx	1a59da4 <__memory_size+0x1a3a5a4>
     150:	6c656400 	0x6c656400
     154:	65007961 	0x65007961
     158:	7469426e 	jalx	1a509b8 <__memory_size+0x1a311b8>
     15c:	6c646900 	0x6c646900
     160:	6f727065 	0x6f727065
     164:	65730063 	0x65730063
     168:	75635f74 	jalx	58d7dd0 <__memory_size+0x58b85d0>
     16c:	6e657272 	0x6e657272
     170:	69730074 	0x69730074
     174:	745f657a 	jalx	17d95e8 <__memory_size+0x17b9de8>
     178:	746e6900 	jalx	1b9a400 <__memory_size+0x1b7ac00>
     17c:	6c665f72 	0x6c665f72
     180:	5f006761 	bgtzl	t8,19f08 <__isr_vec_space+0x19ee8>
     184:	6e69755f 	0x6e69755f
     188:	745f3874 	jalx	17ce1d0 <__memory_size+0x17ae9d0>
     18c:	65727000 	0x65727000
     190:	6c610076 	0x6c610076
     194:	5f636f6c 	0x5f636f6c
     198:	636f7270 	0x636f7270
     19c:	6e6f6c00 	0x6e6f6c00
     1a0:	6f6c2067 	0x6f6c2067
     1a4:	7520676e 	jalx	4819db8 <__memory_size+0x47fa5b8>
     1a8:	6769736e 	0x6769736e
     1ac:	2064656e 	addi	a0,v1,25966
     1b0:	00746e69 	0x746e69
     1b4:	5f77656e 	0x5f77656e
     1b8:	65646f6e 	0x65646f6e
     1bc:	75706300 	jalx	5c18c00 <__memory_size+0x5bf9400>
     1c0:	6c64695f 	0x6c64695f
     1c4:	6f6c0065 	0x6f6c0065
     1c8:	6c20676e 	0x6c20676e
     1cc:	20676e6f 	addi	a3,v1,28271
     1d0:	00746e69 	0x746e69
     1d4:	61657263 	0x61657263
     1d8:	705f6574 	q16sll	xr5,xr9,xr13,xr7,1
     1dc:	00636f72 	tlt	v1,v1,0x1bd
     1e0:	65726170 	0x65726170
     1e4:	5f00746e 	bgtzl	t8,1d3a0 <__isr_vec_space+0x1d380>
     1e8:	73696c5f 	udi15	k1,t1,t5,0x11
     1ec:	64615f74 	0x64615f74
     1f0:	65720064 	0x65720064
     1f4:	00363167 	0x363167
     1f8:	31676572 	andi	a3,t3,0x6572
     1fc:	65720037 	0x65720037
     200:	00383167 	0x383167
     204:	31676572 	andi	a3,t3,0x6572
     208:	6f640039 	0x6f640039
     20c:	656c6275 	0x656c6275
     210:	6f727000 	0x6f727000
     214:	696c5f63 	0x696c5f63
     218:	5f007473 	bgtzl	t8,1d3e8 <__isr_vec_space+0x1d3c8>
     21c:	6e69755f 	0x6e69755f
     220:	5f323374 	0x5f323374
     224:	6f700074 	0x6f700074
     228:	695f6372 	0x695f6372
     22c:	726e0064 	s8ldi	xr1,s3,-128,ptn3
     230:	6f72705f 	0x6f72705f
     234:	73736563 	s8std	xr5,k1,-39,
     238:	67657200 	0x67657200
     23c:	72003032 	d32sarl	xr0,xr12,xr0,8
     240:	31326765 	andi	s2,t1,0x6765
     244:	67657200 	0x67657200
     248:	72003232 	d32sarl	xr8,xr12,xr0,8
     24c:	33326765 	andi	s2,t9,0x6765
     250:	726f6600 	0x726f6600
     254:	756f5f6b 	jalx	5bd7dac <__memory_size+0x5bb85ac>
     258:	65720074 	0x65720074
     25c:	00393267 	0x393267
     260:	636f7270 	0x636f7270
     264:	696e695f 	0x696e695f
     268:	63730074 	0x63730074
     26c:	75646568 	jalx	59195a0 <__memory_size+0x58f9da0>
     270:	7000656c 	s16ldi	xr5,zero,50,ptn0
     274:	65636f72 	0x65636f72
     278:	702f7373 	d32sar	xr13,xr12,xr13,xr11,0
     27c:	2e636f72 	sltiu	v1,s3,28530
     280:	68730063 	0x68730063
     284:	2074726f 	addi	s4,v1,29295
     288:	69736e75 	0x69736e75
     28c:	64656e67 	0x64656e67
     290:	746e6920 	jalx	1b9a480 <__memory_size+0x1b7ac80>
     294:	69727000 	0x69727000
     298:	7469726f 	jalx	1a5c9bc <__memory_size+0x1a3d1bc>
     29c:	6f620079 	0x6f620079
     2a0:	6e006c6f 	0x6e006c6f
     2a4:	5f646565 	0x5f646565
     2a8:	63736572 	0x63736572
     2ac:	00646568 	0x646568
     2b0:	735f7366 	s32mulu	xr13,xr12,k0,ra
     2b4:	63757274 	0x63757274
     2b8:	64690074 	0x64690074
     2bc:	705f656c 	s16ldi	xr5,v0,-78,ptn3
     2c0:	6e006469 	0x6e006469
     2c4:	73656d61 	0x73656d61
     2c8:	65636170 	0x65636170
     2cc:	67657200 	0x67657200
     2d0:	72003033 	d32sar	xr0,xr12,xr0,xr0,8
     2d4:	31336765 	andi	s3,t1,0x6765
     2d8:	635f5f00 	0x635f5f00
     2dc:	65727275 	0x65727275
     2e0:	745f746e 	jalx	17dd1b8 <__memory_size+0x17bd9b8>
     2e4:	006b7361 	0x6b7361
     2e8:	657a6973 	0x657a6973
     2ec:	65707974 	0x65707974
     2f0:	65747000 	0x65747000
     2f4:	7000705f 	udi15	zero,zero,t6,0x1
     2f8:	745f6574 	jalx	17d95d0 <__memory_size+0x17b9dd0>
     2fc:	73696c00 	0x73696c00
     300:	696c5f74 	0x696c5f74
     304:	5f006b6e 	bgtzl	t8,1b0c0 <__isr_vec_space+0x1b0a0>
     308:	6e69755f 	0x6e69755f
     30c:	5f343674 	0x5f343674
     310:	6c660074 	0x6c660074
     314:	0074616f 	0x74616f
     318:	69736e75 	0x69736e75
     31c:	64656e67 	0x64656e67
     320:	61686320 	0x61686320
     324:	68730072 	0x68730072
     328:	2074726f 	addi	s4,v1,29295
     32c:	00746e69 	0x746e69
     330:	736c6166 	s32mulu	xr5,xr8,k1,t4
     334:	72700065 	s8sdi	xr1,s3,0,
     338:	725f636f 	0x725f636f
     33c:	5f006e75 	bgtzl	t8,1bd14 <__isr_vec_space+0x1bcf4>
     340:	746e695f 	jalx	1b9a57c <__memory_size+0x1b7ad7c>
     344:	745f3233 	jalx	17cc8cc <__memory_size+0x17ad0cc>
     348:	74657300 	jalx	195cc00 <__memory_size+0x193d400>
     34c:	6b5f7075 	0x6b5f7075
     350:	63617473 	0x63617473
     354:	656d006b 	0x656d006b
     358:	7970636d 	0x7970636d
     35c:	696e6900 	0x696e6900
     360:	696c5f74 	0x696c5f74
     364:	685f7473 	0x685f7473
     368:	00646165 	0x646165
     36c:	746e6f63 	jalx	1b9bd8c <__memory_size+0x1b7c58c>
     370:	00747865 	0x747865
     374:	5f746573 	0x5f746573
     378:	636f7270 	0x636f7270
     37c:	6d616e5f 	0x6d616e5f
     380:	77730065 	jalx	dcc0194 <__memory_size+0xdca0994>
     384:	68637469 	0x68637469
     388:	006f745f 	0x6f745f
     38c:	736d656d 	s16sdi	xr5,k1,-334,ptn1
     390:	66007465 	0x66007465
     394:	73656c69 	0x73656c69
     398:	7274735f 	udi15	s3,s4,t6,0xd
     39c:	00746375 	0x746375
     3a0:	6b736174 	0x6b736174
     3a4:	7274735f 	udi15	s3,s4,t6,0xd
     3a8:	00746375 	0x746375
     3ac:	74696e69 	jalx	1a5b9a4 <__memory_size+0x1a3c1a4>
     3b0:	69616d5f 	0x69616d5f
     3b4:	6177006e 	0x6177006e
     3b8:	7075656b 	s16std	xr5,v1,-334,
     3bc:	6f72705f 	0x6f72705f
     3c0:	6d6b0063 	0x6d6b0063
     3c4:	6f6c6c61 	0x6f6c6c61
     3c8:	69700063 	0x69700063
     3cc:	00745f64 	0x745f64
     3d0:	656c6966 	0x656c6966
     3d4:	63730073 	0x63730073
     3d8:	75646568 	jalx	59195a0 <__memory_size+0x58f9da0>
     3dc:	732f656c 	s16ldi	xr5,t9,-78,ptn1
     3e0:	64656863 	0x64656863
     3e4:	6300632e 	0x6300632e
     3e8:	65727275 	0x65727275
     3ec:	685f746e 	0x685f746e
     3f0:	65686769 	0x65686769
     3f4:	70007473 	d32sar	xr1,xr13,xr1,xr0,0
     3f8:	695f6d6d 	0x695f6d6d
     3fc:	0074696e 	0x74696e
     400:	65657266 	0x65657266
     404:	6761705f 	0x6761705f
     408:	635f7365 	0x635f7365
     40c:	746e756f 	jalx	1b9d5bc <__memory_size+0x1b7ddbc>
     410:	6d6d7000 	0x6d6d7000
     414:	6174735f 	0x6174735f
     418:	745f6b63 	jalx	17dad8c <__memory_size+0x17bb58c>
     41c:	7000706f 	0x7000706f
     420:	665f6d6d 	0x665f6d6d
     424:	5f656572 	0x5f656572
     428:	65676170 	0x65676170
     42c:	79687000 	ori.b	$w0,$w14,0x68
     430:	6761705f 	0x6761705f
     434:	6f635f65 	0x6f635f65
     438:	00746e75 	0x746e75
     43c:	5f6d6d70 	0x5f6d6d70
     440:	63617473 	0x63617473
     444:	6d70006b 	0x6d70006b
     448:	6c615f6d 	0x6c615f6d
     44c:	5f636f6c 	0x5f636f6c
     450:	65676170 	0x65676170
     454:	2f6d6d00 	sltiu	t5,k1,27904
     458:	2e6d6d70 	sltiu	t5,s3,28016
     45c:	65730063 	0x65730063
     460:	61705f74 	0x61705f74
     464:	755f6567 	jalx	57d959c <__memory_size+0x57b9d9c>
     468:	6c6c616e 	0x6c6c616e
     46c:	7461636f 	jalx	1858dbc <__memory_size+0x18395bc>
     470:	70006465 	s8sdi	xr1,zero,25,ptn0
     474:	615f7968 	0x615f7968
     478:	00726464 	0x726464
     47c:	5f746567 	0x5f746567
     480:	5f657470 	0x5f657470
     484:	705f7962 	s8ldd	xr5,v0,-34,ptn7
     488:	5f656761 	0x5f656761
     48c:	72646461 	0x72646461
     490:	6d6d7600 	0x6d6d7600
     494:	6572665f 	0x6572665f
     498:	61705f65 	0x61705f65
     49c:	67006567 	0x67006567
     4a0:	705f7465 	s8sdi	xr1,v0,-35,
     4a4:	615f7968 	0x615f7968
     4a8:	5f726464 	0x5f726464
     4ac:	765f7962 	jalx	97de588 <__memory_size+0x97bed88>
     4b0:	615f7269 	0x615f7269
     4b4:	00726464 	0x726464
     4b8:	5f746567 	0x5f746567
     4bc:	5f6e7076 	0x5f6e7076
     4c0:	6d6f7266 	0x6d6f7266
     4c4:	6761705f 	0x6761705f
     4c8:	64615f65 	0x64615f65
     4cc:	67007264 	0x67007264
     4d0:	705f7465 	s8sdi	xr1,v0,-35,
     4d4:	665f6e70 	0x665f6e70
     4d8:	5f6d6f72 	0x5f6d6f72
     4dc:	65676170 	0x65676170
     4e0:	6464615f 	0x6464615f
     4e4:	69760072 	0x69760072
     4e8:	61705f72 	0x61705f72
     4ec:	615f6567 	0x615f6567
     4f0:	00726464 	0x726464
     4f4:	5f746573 	0x5f746573
     4f8:	5f6e7070 	0x5f6e7070
     4fc:	705f6f74 	q16sll	xr13,xr11,xr13,xr7,1
     500:	70006574 	q16sll	xr5,xr9,xr1,xr0,0
     504:	615f6574 	0x615f6574
     508:	00726464 	0x726464
     50c:	6f6c6c61 	0x6f6c6c61
     510:	6c625f63 	0x6c625f63
     514:	006b636f 	0x6b636f
     518:	6b73616d 	0x6b73616d
     51c:	74656700 	jalx	1959c00 <__memory_size+0x193a400>
     520:	6469705f 	0x6469705f
     524:	6f72665f 	0x6f72665f
     528:	74705f6d 	jalx	1c17db4 <__memory_size+0x1bf85b4>
     52c:	65670065 	0x65670065
     530:	70705f74 	q16sll	xr13,xr7,xr1,xr12,1
     534:	72665f6e 	0x72665f6e
     538:	705f6d6f 	0x705f6d6f
     53c:	69006574 	0x69006574
     540:	70735f73 	d32sar	xr13,xr7,xr13,xr12,1
     544:	5f74696c 	0x5f74696c
     548:	636f6c62 	0x636f6c62
     54c:	6c62006b 	0x6c62006b
     550:	5f6b636f 	0x5f6b636f
     554:	657a6973 	0x657a6973
     558:	74657300 	jalx	195cc00 <__memory_size+0x193d400>
     55c:	6761705f 	0x6761705f
     560:	74735f65 	jalx	1cd7d94 <__memory_size+0x1cb8594>
     564:	73757461 	0x73757461
     568:	6d6d7600 	0x6d6d7600
     56c:	6c6c615f 	0x6c6c615f
     570:	705f636f 	0x705f636f
     574:	00656761 	0x656761
     578:	5f746573 	0x5f746573
     57c:	5f6e7076 	0x5f6e7076
     580:	705f6f74 	q16sll	xr13,xr11,xr13,xr7,1
     584:	73006574 	q16sll	xr5,xr9,xr1,xr0,12
     588:	705f7465 	s8sdi	xr1,v0,-35,
     58c:	5f656761 	0x5f656761
     590:	65736572 	0x65736572
     594:	64657672 	0x64657672
     598:	6e696600 	0x6e696600
     59c:	6c625f64 	0x6c625f64
     5a0:	006b636f 	0x6b636f
     5a4:	5f746567 	0x5f746567
     5a8:	5f6e7076 	0x5f6e7076
     5ac:	6d6f7266 	0x6d6f7266
     5b0:	6574705f 	0x6574705f
     5b4:	7a697300 	nori.b	$w12,$w14,0x69
     5b8:	70755f65 	s8sdi	xr13,v1,87,
     5bc:	756f725f 	jalx	5bdc97c <__memory_size+0x5bbd17c>
     5c0:	6700646e 	0x6700646e
     5c4:	705f7465 	s8sdi	xr1,v0,-35,
     5c8:	5f656761 	0x5f656761
     5cc:	74617473 	jalx	185d1cc <__memory_size+0x183d9cc>
     5d0:	62007375 	0x62007375
     5d4:	6b636f6c 	0x6b636f6c
     5d8:	7864695f 	0x7864695f
     5dc:	74656700 	jalx	1959c00 <__memory_size+0x193a400>
     5e0:	6e70705f 	0x6e70705f
     5e4:	5f79625f 	0x5f79625f
     5e8:	006e7076 	tne	v1,t6,0x1c1
     5ec:	5f6d6d76 	0x5f6d6d76
     5f0:	74696e69 	jalx	1a5b9a4 <__memory_size+0x1a3c1a4>
     5f4:	6f6c6200 	0x6f6c6200
     5f8:	6f5f6b63 	0x6f5f6b63
     5fc:	65736666 	0x65736666
     600:	74700074 	jalx	1c001d0 <__memory_size+0x1be09d0>
     604:	6c625f65 	0x6c625f65
     608:	5f6b636f 	0x5f6b636f
     60c:	67616c66 	0x67616c66
     610:	755f5f00 	jalx	57d7c00 <__memory_size+0x57b8400>
     614:	31746e69 	andi	s4,t3,0x6e69
     618:	00745f36 	tne	v1,s4,0x17c
     61c:	5f746567 	0x5f746567
     620:	65676170 	0x65676170
     624:	6174735f 	0x6174735f
     628:	5f737574 	0x5f737574
     62c:	6d6f7266 	0x6d6f7266
     630:	6574705f 	0x6574705f
     634:	74656700 	jalx	1959c00 <__memory_size+0x193a400>
     638:	6975735f 	0x6975735f
     63c:	6c626174 	0x6c626174
     640:	6c625f65 	0x6c625f65
     644:	5f6b636f 	0x5f6b636f
     648:	6d6f7266 	0x6d6f7266
     64c:	6574705f 	0x6574705f
     650:	79687000 	ori.b	$w0,$w14,0x68
     654:	6761705f 	0x6761705f
     658:	64615f65 	0x64615f65
     65c:	76007264 	jalx	801c990 <__memory_size+0x7ffd190>
     660:	705f6d6d 	s16sdi	xr5,v0,-74,
     664:	5f656761 	0x5f656761
     668:	72646461 	0x72646461
     66c:	65726600 	0x65726600
     670:	6c625f65 	0x6c625f65
     674:	006b636f 	0x6b636f
     678:	762f6d6d 	jalx	8bdb5b4 <__memory_size+0x8bbbdb4>
     67c:	632e6d6d 	0x632e6d6d
     680:	74657300 	jalx	195cc00 <__memory_size+0x193d400>
     684:	6761705f 	0x6761705f
     688:	6c615f65 	0x6c615f65
     68c:	61636f6c 	0x61636f6c
     690:	00646574 	teq	v1,a0,0x195
     694:	5f746572 	0x5f746572
     698:	72646461 	0x72646461
     69c:	72666b00 	0x72666b00
     6a0:	6d006565 	0x6d006565
     6a4:	6d6d2f6d 	0x6d6d2f6d
     6a8:	7000632e 	0x7000632e
     6ac:	5f656761 	0x5f656761
     6b0:	6f6c6c61 	0x6f6c6c61
     6b4:	64615f63 	0x64615f63
     6b8:	00737264 	0x737264
     6bc:	5f77656e 	0x5f77656e
     6c0:	636f6c62 	0x636f6c62
     6c4:	64615f6b 	0x64615f6b
     6c8:	61007264 	0x61007264
     6cc:	5f726464 	0x5f726464
     6d0:	705f6f74 	q16sll	xr13,xr11,xr13,xr7,1
     6d4:	70007274 	q16sll	xr9,xr12,xr1,xr0,0
     6d8:	625f7274 	0x625f7274
     6dc:	6b636f6c 	0x6b636f6c
     6e0:	6464615f 	0x6464615f
     6e4:	61700072 	0x61700072
     6e8:	615f6567 	0x615f6567
     6ec:	636f6c6c 	0x636f6c6c
     6f0:	756f635f 	jalx	5bd8d7c <__memory_size+0x5bb957c>
     6f4:	0073746e 	0x73746e
     6f8:	74736574 	jalx	1cd95d0 <__memory_size+0x1cb9dd0>
     6fc:	6572665f 	0x6572665f
     700:	656d5f65 	0x656d5f65
     704:	79726f6d 	0x79726f6d
     708:	64646100 	0x64646100
     70c:	72745f72 	0x72745f72
     710:	695f6575 	0x695f6575
     714:	6100746e 	0x6100746e
     718:	5f726464 	0x5f726464
     71c:	6f6c6c61 	0x6f6c6c61
     720:	6d6d0063 	0x6d6d0063
     724:	5f6d6d2f 	0x5f6d6d2f
     728:	74736574 	jalx	1cd95d0 <__memory_size+0x1cb9dd0>
     72c:	6100632e 	0x6100632e
     730:	5f726464 	0x5f726464
     734:	65757274 	0x65757274
     738:	646e6900 	0x646e6900
     73c:	005f7865 	0x5f7865
     740:	74736574 	jalx	1cd95d0 <__memory_size+0x1cb9dd0>
     744:	5f77725f 	0x5f77725f
     748:	6f6d656d 	0x6f6d656d
     74c:	74007972 	jalx	1e5c8 <__isr_vec_space+0x1e5a8>
     750:	5f747365 	0x5f747365
     754:	626f6c67 	0x626f6c67
     758:	765f6c61 	jalx	97db184 <__memory_size+0x97bb984>
     75c:	61697261 	0x61697261
     760:	00656c62 	0x656c62
     764:	6f6c6c61 	0x6f6c6c61
     768:	69735f63 	0x69735f63
     76c:	7400657a 	jalx	195e8 <__isr_vec_space+0x195c8>
     770:	5f747365 	0x5f747365
     774:	6f6c6c61 	0x6f6c6c61
     778:	656d5f63 	0x656d5f63
     77c:	79726f6d 	0x79726f6d
     780:	64646100 	0x64646100
     784:	63003172 	0x63003172
     788:	65737561 	0x65737561
     78c:	6e696c00 	0x6e696c00
     790:	7874636b 	0x7874636b
     794:	696d5f00 	0x696d5f00
     798:	685f7370 	0x685f7370
     79c:	6c646e61 	0x6c646e61
     7a0:	78655f65 	st.h	$w29,202(t3)
     7a4:	74706563 	jalx	1c1958c <__memory_size+0x1bf9d8c>
     7a8:	006e6f69 	0x6e6f69
     7ac:	74736574 	jalx	1cd95d0 <__memory_size+0x1cb9dd0>
     7b0:	6d6d765f 	0x6d6d765f
     7b4:	67657200 	0x67657200
     7b8:	745f3233 	jalx	17cc8cc <__memory_size+0x17ad0cc>
     7bc:	69616d00 	0x69616d00
     7c0:	00632e6e 	0x632e6e
     7c4:	6c626c74 	0x6c626c74
     7c8:	00745f6f 	0x745f6f
     7cc:	74637067 	jalx	18dc19c <__memory_size+0x18bc99c>
     7d0:	696d0078 	0x696d0078
     7d4:	745f7370 	jalx	17dcdc0 <__memory_size+0x17bd5c0>
     7d8:	6977626c 	0x6977626c
     7dc:	61620032 	0x61620032
     7e0:	64617664 	0x64617664
     7e4:	74007264 	jalx	1c990 <__isr_vec_space+0x1c970>
     7e8:	5f747365 	0x5f747365
     7ec:	006d6d70 	tge	v1,t5,0x1b5
     7f0:	78655f5f 	0x78655f5f
     7f4:	74706563 	jalx	1c1958c <__memory_size+0x1bf9d8c>
     7f8:	5f6e6f69 	0x5f6e6f69
     7fc:	646e6168 	0x646e6168
     800:	6200656c 	0x6200656c
     804:	69706461 	0x69706461
     808:	7274736e 	0x7274736e
     80c:	64616200 	0x64616200
     810:	74736e69 	jalx	1cdb9a4 <__memory_size+0x1cbc1a4>
     814:	6c740072 	0x6c740072
     818:	5f696862 	0x5f696862
     81c:	5f5f0074 	0x5f5f0074
     820:	78657461 	ld.h	$w17,202(t6)
     824:	745f7469 	jalx	17dd1a4 <__memory_size+0x17bd9a4>
     828:	73657079 	0x73657079
     82c:	63732f00 	0x63732f00
     830:	63746172 	0x63746172
     834:	706d2f68 	lxhu	a1,v1,t5,3
     838:	6f6a2f66 	0x6f6a2f66
     83c:	352f7362 	ori	t7,t1,0x7362
     840:	35393334 	ori	t9,t1,0x3334
     844:	3038342f 	andi	t8,at,0x342f
     848:	322f3439 	andi	t7,s1,0x3439
     84c:	39313034 	xori	s1,t1,0x3034
     850:	68732f38 	0x68732f38
     854:	64657261 	0x64657261
     858:	6363672f 	0x6363672f
     85c:	77656e2f 	jalx	d95b8bc <__memory_size+0xd93c0bc>
     860:	2f62696c 	sltiu	v0,k1,26988
     864:	6362696c 	0x6362696c
     868:	6474732f 	0x6474732f
     86c:	2f62696c 	sltiu	v0,k1,26988
     870:	78657461 	ld.h	$w17,202(t6)
     874:	632e7469 	0x632e7469
     878:	725f5f00 	0x725f5f00
     87c:	73696765 	s8sdi	xr13,k1,89,ptn2
     880:	5f726574 	0x5f726574
     884:	74697865 	jalx	1a5e194 <__memory_size+0x1a3e994>
     888:	636f7270 	0x636f7270
     88c:	655f5f00 	0x655f5f00
     890:	6e6f5f74 	0x6e6f5f74
     894:	74697865 	jalx	1a5e194 <__memory_size+0x1a3e994>
     898:	554e4700 	bnel	t2,t6,1249c <__isr_vec_space+0x1247c>
     89c:	34204320 	ori	zero,at,0x4320
     8a0:	322e392e 	andi	t6,s1,0x392e
     8a4:	656d2d20 	0x656d2d20
     8a8:	6d2d206c 	0x6d2d206c
     8ac:	33737069 	andi	s3,k1,0x7069
     8b0:	20327232 	addi	s2,at,29234
     8b4:	62616d2d 	0x62616d2d
     8b8:	32333d69 	andi	s3,s1,0x3d69
     8bc:	736d2d20 	0x736d2d20
     8c0:	2d74666f 	sltiu	s4,t3,26223
     8c4:	616f6c66 	0x616f6c66
     8c8:	6d2d2074 	0x6d2d2074
     8cc:	65746e69 	0x65746e69
     8d0:	6e696c72 	0x6e696c72
     8d4:	696d2d6b 	0x696d2d6b
     8d8:	36317370 	ori	s1,s1,0x7370
     8dc:	636d2d20 	0x636d2d20
     8e0:	2d65646f 	sltiu	a1,t3,25711
     8e4:	64616572 	0x64616572
     8e8:	656c6261 	0x656c6261
     8ec:	206f6e3d 	addi	t7,v1,28221
     8f0:	6f6e6d2d 	0x6f6e6d2d
     8f4:	6f70672d 	0x6f70672d
     8f8:	2d207470 	sltiu	zero,t1,29808
     8fc:	7370696d 	s16sdi	xr5,k1,52,
     900:	32723233 	andi	s2,s3,0x3233
     904:	616d2d20 	0x616d2d20
     908:	333d6962 	andi	sp,t9,0x6962
     90c:	6d2d2032 	0x6d2d2032
     910:	74666f73 	jalx	199bdcc <__memory_size+0x197c5cc>
     914:	6f6c662d 	0x6f6c662d
     918:	2d207461 	sltiu	zero,t1,29793
     91c:	746c706d 	jalx	1b1c1b4 <__memory_size+0x1afc9b4>
     920:	736d2d20 	0x736d2d20
     924:	69636e79 	0x69636e79
     928:	20672d20 	addi	a3,v1,11552
     92c:	20324f2d 	addi	s2,at,20269
     930:	20734f2d 	addi	s3,v1,20269
     934:	6f6e662d 	0x6f6e662d
     938:	6975622d 	0x6975622d
     93c:	6e69746c 	0x6e69746c
     940:	655f5f00 	0x655f5f00
     944:	78635f74 	0x78635f74
     948:	5f5f0061 	0x5f5f0061
     94c:	615f7465 	0x615f7465
     950:	69786574 	0x69786574
     954:	645f0074 	0x645f0074
     958:	685f6f73 	0x685f6f73
     95c:	6c646e61 	0x6c646e61
     960:	725f0065 	s8sdi	xr1,s2,-64,
     964:	34646e61 	ori	a0,v1,0x6e61
     968:	655f0038 	0x655f0038
     96c:	6772656d 	0x6772656d
     970:	79636e65 	st.h	$w25,710(t5)
     974:	63775f00 	0x63775f00
     978:	6d6f7472 	0x6d6f7472
     97c:	74735f62 	jalx	1cd7d88 <__memory_size+0x1cb8588>
     980:	00657461 	0x657461
     984:	7363775f 	udi15	k1,v1,t6,0x1d
     988:	6d6f7472 	0x6d6f7472
     98c:	735f7362 	s8ldd	xr13,k0,-36,ptn7
     990:	65746174 	0x65746174
     994:	626c5f00 	0x626c5f00
     998:	7a697366 	st.w	$w13,-1628(t6)
     99c:	6d5f0065 	0x6d5f0065
     9a0:	6f747262 	0x6f747262
     9a4:	735f6377 	q16sar	xr13,xr8,xr13,xr7,13
     9a8:	65746174 	0x65746174
     9ac:	63775f00 	0x63775f00
     9b0:	626d6f74 	0x626d6f74
     9b4:	6174735f 	0x6174735f
     9b8:	5f006574 	bgtzl	t8,19f8c <__isr_vec_space+0x19f6c>
     9bc:	5f6d745f 	0x5f6d745f
     9c0:	00636573 	tltu	v1,v1,0x195
     9c4:	7562755f 	jalx	589d57c <__memory_size+0x587dd7c>
     9c8:	5f5f0066 	0x5f5f0066
     9cc:	685f6d74 	0x685f6d74
     9d0:	0072756f 	0x72756f
     9d4:	66735f5f 	0x66735f5f
     9d8:	6e6f5f00 	0x6e6f5f00
     9dc:	6978655f 	0x6978655f
     9e0:	72615f74 	q16sll	xr13,xr7,xr5,xr8,9
     9e4:	5f007367 	bgtzl	t8,1d784 <__isr_vec_space+0x1d764>
     9e8:	6b6f6f63 	0x6b6f6f63
     9ec:	5f006569 	bgtzl	t8,19f94 <__isr_vec_space+0x19f74>
     9f0:	6c67735f 	0x6c67735f
     9f4:	5f006575 	bgtzl	t8,19fcc <__isr_vec_space+0x19fac>
     9f8:	67616c66 	0x67616c66
     9fc:	695f0073 	0x695f0073
     a00:	78635f73 	0x78635f73
     a04:	735f0061 	0x735f0061
     a08:	6e696474 	0x6e696474
     a0c:	6c625f00 	0x6c625f00
     a10:	7a69736b 	0x7a69736b
     a14:	635f0065 	0x635f0065
     a18:	75627476 	jalx	589d1d8 <__memory_size+0x587d9d8>
     a1c:	6d5f0066 	0x6d5f0066
     a20:	74727362 	jalx	1c9cd88 <__memory_size+0x1c7d588>
     a24:	7363776f 	0x7363776f
     a28:	6174735f 	0x6174735f
     a2c:	5f006574 	bgtzl	t8,1a000 <__isr_vec_space+0x19fe0>
     a30:	6c72626d 	0x6c72626d
     a34:	735f6e65 	s8sdi	xr9,k0,-37,
     a38:	65746174 	0x65746174
     a3c:	6e665f00 	0x6e665f00
     a40:	73677261 	0x73677261
     a44:	6e665f00 	0x6e665f00
     a48:	735f0073 	d32sar	xr1,xr0,xr12,xr7,13
     a4c:	006e6769 	0x6e6769
     a50:	6f6c665f 	0x6f6c665f
     a54:	745f6b63 	jalx	17dad8c <__memory_size+0x17bb58c>
     a58:	74735f00 	jalx	1cd7c00 <__memory_size+0x1cb8400>
     a5c:	72726564 	s8ldi	xr5,s3,-103,ptn4
     a60:	69425f00 	0x69425f00
     a64:	746e6967 	jalx	1b9a59c <__memory_size+0x1b7ad9c>
     a68:	61675f00 	0x61675f00
     a6c:	5f616d6d 	0x5f616d6d
     a70:	6e676973 	0x6e676973
     a74:	006d6167 	0x6d6167
     a78:	6165725f 	0x6165725f
     a7c:	725f0064 	s8ldi	xr1,s2,-64,ptn7
     a80:	6c757365 	0x6c757365
     a84:	006b5f74 	teq	v1,t3,0x17d
     a88:	6d745f5f 	0x6d745f5f
     a8c:	775f5f00 	jalx	d7d7c00 <__memory_size+0xd7b8400>
     a90:	00626863 	0x626863
     a94:	6474735f 	0x6474735f
     a98:	0074756f 	0x74756f
     a9c:	7476635f 	jalx	1d98d7c <__memory_size+0x1d7957c>
     aa0:	006e656c 	0x6e656c
     aa4:	6c69665f 	0x6c69665f
     aa8:	6e5f0065 	0x6e5f0065
     aac:	73626f69 	0x73626f69
     ab0:	74615f00 	jalx	1857c00 <__memory_size+0x1838400>
     ab4:	74697865 	jalx	1a5e194 <__memory_size+0x1a3e994>
     ab8:	735f0030 	d32sll	xr0,xr0,xr12,xr7,13
     abc:	616e6769 	0x616e6769
     ac0:	75625f6c 	jalx	5897db0 <__memory_size+0x58785b0>
     ac4:	615f0066 	0x615f0066
     ac8:	69746373 	0x69746373
     acc:	625f656d 	0x625f656d
     ad0:	5f006675 	bgtzl	t8,1a4a8 <__isr_vec_space+0x1a488>
     ad4:	75736572 	jalx	5cd95c8 <__memory_size+0x5cb9dc8>
     ad8:	5f00746c 	bgtzl	t8,1dc8c <__isr_vec_space+0x1dc6c>
     adc:	6863775f 	0x6863775f
     ae0:	6e697700 	0x6e697700
     ae4:	00745f74 	teq	v1,s4,0x17d
     ae8:	616c665f 	0x616c665f
     aec:	00327367 	0x327367
     af0:	6972775f 	0x6972775f
     af4:	5f006574 	bgtzl	t8,1a0c8 <__isr_vec_space+0x1a0a8>
     af8:	5f6d745f 	0x5f6d745f
     afc:	72616579 	0x72616579
     b00:	656e5f00 	0x656e5f00
     b04:	00667478 	0x667478
     b08:	6d745f5f 	0x6d745f5f
     b0c:	6e6f6d5f 	0x6e6f6d5f
     b10:	735f5f00 	0x735f5f00
     b14:	69646964 	0x69646964
     b18:	0074696e 	0x74696e
     b1c:	66666f5f 	0x66666f5f
     b20:	5f00745f 	bgtzl	t8,1dca0 <__isr_vec_space+0x1dc80>
     b24:	6c61635f 	0x6c61635f
     b28:	78655f6c 	0x78655f6c
     b2c:	72707469 	0x72707469
     b30:	0073636f 	0x73636f
     b34:	6572665f 	0x6572665f
     b38:	73696c65 	s8sdi	xr1,k1,91,ptn2
     b3c:	6d5f0074 	0x6d5f0074
     b40:	61747362 	0x61747362
     b44:	745f6574 	jalx	17d95d0 <__memory_size+0x17b9dd0>
     b48:	4f4c5f00 	c3	0x14c5f00
     b4c:	525f4b43 	beql	s2,ra,1385c <__isr_vec_space+0x1383c>
     b50:	52554345 	beql	s2,s5,11868 <__isr_vec_space+0x11848>
     b54:	45564953 	0x45564953
     b58:	5f00545f 	bgtzl	t8,15cd8 <__isr_vec_space+0x15cb8>
     b5c:	5f6d745f 	0x5f6d745f
     b60:	7961646d 	0x7961646d
     b64:	656e5f00 	0x656e5f00
     b68:	685f0077 	0x685f0077
     b6c:	7272655f 	udi15	s3,s2,t4,0x15
     b70:	5f006f6e 	bgtzl	t8,1c92c <__isr_vec_space+0x1c90c>
     b74:	5f6d745f 	0x5f6d745f
     b78:	79616479 	0x79616479
     b7c:	735f5f00 	0x735f5f00
     b80:	00667562 	0x667562
     b84:	626f695f 	0x626f695f
     b88:	5f5f0073 	0x5f5f0073
     b8c:	454c4946 	bc1any4f	$fcc3,130a8 <__isr_vec_space+0x13088>
     b90:	63732f00 	0x63732f00
     b94:	63746172 	0x63746172
     b98:	706d2f68 	lxhu	a1,v1,t5,3
     b9c:	6f6a2f66 	0x6f6a2f66
     ba0:	352f7362 	ori	t7,t1,0x7362
     ba4:	35393334 	ori	t9,t1,0x3334
     ba8:	3038342f 	andi	t8,at,0x342f
     bac:	322f3439 	andi	t7,s1,0x3439
     bb0:	39313034 	xori	s1,t1,0x3034
     bb4:	68732f38 	0x68732f38
     bb8:	64657261 	0x64657261
     bbc:	6363672f 	0x6363672f
     bc0:	77656e2f 	jalx	d95b8bc <__memory_size+0xd93c0bc>
     bc4:	2f62696c 	sltiu	v0,k1,26988
     bc8:	6362696c 	0x6362696c
     bcc:	6474732f 	0x6474732f
     bd0:	2f62696c 	sltiu	v0,k1,26988
     bd4:	74697865 	jalx	1a5e194 <__memory_size+0x1a3e994>
     bd8:	5f00632e 	bgtzl	t8,19894 <__isr_vec_space+0x19874>
     bdc:	4946735f 	0x4946735f
     be0:	5f00454c 	bgtzl	t8,12114 <__isr_vec_space+0x120f4>
     be4:	7473626d 	jalx	1cd89b4 <__memory_size+0x1cb91b4>
     be8:	00657461 	0x657461
     bec:	6e61725f 	0x6e61725f
     bf0:	656e5f64 	0x656e5f64
     bf4:	5f007478 	bgtzl	t8,1ddd8 <__isr_vec_space+0x1ddb8>
     bf8:	656c626d 	0x656c626d
     bfc:	74735f6e 	jalx	1cd7db8 <__memory_size+0x1cb85b8>
     c00:	00657461 	0x657461
     c04:	636e695f 	0x636e695f
     c08:	6e695f00 	0x6e695f00
     c0c:	635f0064 	0x635f0064
     c10:	65727275 	0x65727275
     c14:	6c5f746e 	0x6c5f746e
     c18:	6c61636f 	0x6c61636f
     c1c:	5f5f0065 	0x5f5f0065
     c20:	61656c63 	0x61656c63
     c24:	0070756e 	0x70756e
     c28:	78616d5f 	0x78616d5f
     c2c:	00736477 	0x736477
     c30:	6565725f 	0x6565725f
     c34:	5f00746e 	bgtzl	t8,1ddf0 <__isr_vec_space+0x1ddd0>
     c38:	64656573 	0x64656573
     c3c:	635f5f00 	0x635f5f00
     c40:	746e756f 	jalx	1b9d5bc <__memory_size+0x1b7ddbc>
     c44:	765f5f00 	jalx	97d7c00 <__memory_size+0x97b8400>
     c48:	65756c61 	0x65756c61
     c4c:	65735f00 	0x65735f00
     c50:	5f006b65 	bgtzl	t8,1b9e8 <__isr_vec_space+0x1b9c8>
     c54:	736f7066 	s32mulu	xr1,xr12,k1,t7
     c58:	5f00745f 	bgtzl	t8,1ddd8 <__isr_vec_space+0x1ddb8>
     c5c:	5f6d745f 	0x5f6d745f
     c60:	006e696d 	0x6e696d
     c64:	6c756d5f 	0x6c756d5f
     c68:	735f0074 	q16sll	xr1,xr0,xr12,xr7,13
     c6c:	6f747274 	0x6f747274
     c70:	616c5f6b 	0x616c5f6b
     c74:	5f007473 	bgtzl	t8,1de44 <__isr_vec_space+0x1de24>
     c78:	79746e66 	st.w	$w25,1488(t5)
     c7c:	00736570 	tge	v1,s3,0x195
     c80:	4c555f5f 	0x4c555f5f
     c84:	00676e6f 	0x676e6f
     c88:	7465675f 	jalx	1959d7c <__memory_size+0x193a57c>
     c8c:	65746164 	0x65746164
     c90:	7272655f 	udi15	s3,s2,t4,0x15
     c94:	6c675f00 	0x6c675f00
     c98:	6c61626f 	0x6c61626f
     c9c:	706d695f 	udi15	v1,t5,t5,0x5
     ca0:	5f657275 	0x5f657275
     ca4:	00727470 	tge	v1,s2,0x1d1
     ca8:	7275635f 	udi15	s3,s5,t4,0xd
     cac:	746e6572 	jalx	1b995c8 <__memory_size+0x1b79dc8>
     cb0:	7461635f 	jalx	1858d7c <__memory_size+0x183957c>
     cb4:	726f6765 	s8sdi	xr13,s3,-39,ptn3
     cb8:	755f0079 	jalx	57c01e4 <__memory_size+0x57a09e4>
     cbc:	6573756e 	0x6573756e
     cc0:	61725f64 	0x61725f64
     cc4:	5f00646e 	bgtzl	t8,19e80 <__isr_vec_space+0x19e60>
     cc8:	00736477 	0x736477
     ccc:	6d745f5f 	0x6d745f5f
     cd0:	6164775f 	0x6164775f
     cd4:	675f0079 	0x675f0079
     cd8:	0065756c 	0x65756c
     cdc:	616d6e5f 	0x616d6e5f
     ce0:	636f6c6c 	0x636f6c6c
     ce4:	366c5f00 	ori	t4,s3,0x5f00
     ce8:	625f6134 	0x625f6134
     cec:	5f006675 	bgtzl	t8,1a6c4 <__isr_vec_space+0x1a6a4>
     cf0:	5f676973 	0x5f676973
     cf4:	636e7566 	0x636e7566
     cf8:	626e5f00 	0x626e5f00
     cfc:	5f006675 	bgtzl	t8,1a6d4 <__isr_vec_space+0x1a6b4>
     d00:	73756e75 	q16slr	xr9,xr11,xr5,xr13,13
     d04:	5f006465 	bgtzl	t8,19e9c <__isr_vec_space+0x19e7c>
     d08:	5f6d745f 	0x5f6d745f
     d0c:	73647369 	0x73647369
     d10:	6c5f0074 	0x6c5f0074
     d14:	6c61636f 	0x6c61636f
     d18:	656d6974 	0x656d6974
     d1c:	6675625f 	0x6675625f
     d20:	6c635f00 	0x6c635f00
     d24:	0065736f 	0x65736f
     d28:	3834725f 	xori	s4,at,0x725f
     d2c:	626d5f00 	0x626d5f00
     d30:	63776f74 	0x63776f74
     d34:	6174735f 	0x6174735f
     d38:	5f006574 	bgtzl	t8,1a30c <__isr_vec_space+0x1a2ec>
     d3c:	00733570 	tge	v1,s3,0xd5
     d40:	75706d69 	jalx	5c1b5a4 <__memory_size+0x5bfbda4>
     d44:	645f6572 	0x645f6572
     d48:	00617461 	0x617461
     d4c:	7263732f 	0x7263732f
     d50:	68637461 	0x68637461
     d54:	66706d2f 	0x66706d2f
     d58:	626f6a2f 	0x626f6a2f
     d5c:	34352f73 	ori	s5,at,0x2f73
     d60:	2f353933 	sltiu	s5,t9,14643
     d64:	39303834 	xori	s0,t1,0x3834
     d68:	34322f34 	ori	s2,at,0x2f34
     d6c:	38393130 	xori	t9,at,0x3130
     d70:	6168732f 	0x6168732f
     d74:	2f646572 	sltiu	a0,k1,25970
     d78:	2f636367 	sltiu	v1,k1,25447
     d7c:	6c77656e 	0x6c77656e
     d80:	6c2f6269 	0x6c2f6269
     d84:	2f636269 	sltiu	v1,k1,25193
     d88:	6e656572 	0x6e656572
     d8c:	6d692f74 	0x6d692f74
     d90:	65727570 	0x65727570
     d94:	2f00632e 	sltiu	zero,t8,25390
     d98:	61726373 	0x61726373
     d9c:	2f686374 	sltiu	t0,k1,25460
     da0:	2f66706d 	sltiu	a2,k1,28781
     da4:	73626f6a 	s16ldd	xr13,k1,310,ptn0
     da8:	3334352f 	andi	s4,t9,0x352f
     dac:	342f3539 	ori	t7,at,0x3539
     db0:	34393038 	ori	t9,at,0x3038
     db4:	3034322f 	andi	s4,at,0x322f
     db8:	2f383931 	sltiu	t8,t9,14641
     dbc:	72616873 	d32sar	xr1,xr10,xr5,xr8,9
     dc0:	672f6465 	0x672f6465
     dc4:	6e2f6363 	0x6e2f6363
     dc8:	696c7765 	0x696c7765
     dcc:	696c2f62 	0x696c2f62
     dd0:	732f6362 	s8ldd	xr13,t9,-40,ptn3
     dd4:	696c6474 	0x696c6474
     dd8:	5f5f2f62 	0x5f5f2f62
     ddc:	78657461 	ld.h	$w17,202(t6)
     de0:	632e7469 	0x632e7469
     de4:	73616c00 	0x73616c00
     de8:	72007074 	q16sll	xr1,xr12,xr1,xr0,8
     dec:	61747365 	0x61747365
     df0:	5f007472 	bgtzl	t8,1dfbc <__isr_vec_space+0x1df9c>
     df4:	6574615f 	0x6574615f
     df8:	5f746978 	0x5f746978
     dfc:	6b636f6c 	0x6b636f6c
     e00:	63732f00 	0x63732f00
     e04:	63746172 	0x63746172
     e08:	706d2f68 	lxhu	a1,v1,t5,3
     e0c:	6f6a2f66 	0x6f6a2f66
     e10:	352f7362 	ori	t7,t1,0x7362
     e14:	35393334 	ori	t9,t1,0x3334
     e18:	3038342f 	andi	t8,at,0x342f
     e1c:	322f3439 	andi	t7,s1,0x3439
     e20:	39313034 	xori	s1,t1,0x3034
     e24:	68732f38 	0x68732f38
     e28:	64657261 	0x64657261
     e2c:	6363672f 	0x6363672f
     e30:	77656e2f 	jalx	d95b8bc <__memory_size+0xd93c0bc>
     e34:	2f62696c 	sltiu	v0,k1,26988
     e38:	6362696c 	0x6362696c
     e3c:	6474732f 	0x6474732f
     e40:	2f62696c 	sltiu	v0,k1,26988
     e44:	61635f5f 	0x61635f5f
     e48:	615f6c6c 	0x615f6c6c
     e4c:	69786574 	0x69786574
     e50:	00632e74 	teq	v1,v1,0xb9
     e54:	7263732f 	0x7263732f
     e58:	68637461 	0x68637461
     e5c:	66706d2f 	0x66706d2f
     e60:	626f6a2f 	0x626f6a2f
     e64:	34352f73 	ori	s5,at,0x2f73
     e68:	2f353933 	sltiu	s5,t9,14643
     e6c:	39303834 	xori	s0,t1,0x3834
     e70:	34322f34 	ori	s2,at,0x2f34
     e74:	38393130 	xori	t9,at,0x3130
     e78:	6168732f 	0x6168732f
     e7c:	2f646572 	sltiu	a0,k1,25970
     e80:	2f636367 	sltiu	v1,k1,25447
     e84:	6762696c 	0x6762696c
     e88:	73736f6c 	s16ldi	xr13,k1,438,ptn2
     e8c:	70696d2f 	0x70696d2f
     e90:	68752f73 	0x68752f73
     e94:	68752f69 	0x68752f69
     e98:	78655f69 	0x78655f69
     e9c:	632e7469 	0x632e7469
     ea0:	725f5f00 	0x725f5f00
     ea4:	72757465 	s8sdi	xr1,s3,93,
     ea8:	6f745f6e 	0x6f745f6e
     eac:	6f6f625f 	0x6f6f625f
     eb0:	78650074 	0x78650074
     eb4:	635f7469 	0x635f7469
     eb8:	0065646f 	0x65646f
     ebc:	78655f5f 	0x78655f5f
     ec0:	47007469 	bz.b	$w0,1e068 <__isr_vec_space+0x1e048>
     ec4:	4320554e 	c0	0x120554e
     ec8:	392e3420 	xori	t6,t1,0x3420
     ecc:	2d20322e 	sltiu	zero,t1,12846
     ed0:	206c656d 	addi	t4,v1,25965
     ed4:	6f636d2d 	0x6f636d2d
     ed8:	722d6564 	s8ldi	xr5,s1,89,ptn3
     edc:	61646165 	0x61646165
     ee0:	3d656c62 	0x3d656c62
     ee4:	2d206f6e 	sltiu	zero,t1,28526
     ee8:	746e696d 	jalx	1b9a5b4 <__memory_size+0x1b7adb4>
     eec:	696c7265 	0x696c7265
     ef0:	6d2d6b6e 	0x6d2d6b6e
     ef4:	31737069 	andi	s3,t3,0x7069
     ef8:	6d2d2036 	0x6d2d2036
     efc:	65646f63 	0x65646f63
     f00:	6165722d 	0x6165722d
     f04:	6c626164 	0x6c626164
     f08:	6f6e3d65 	0x6f6e3d65
     f0c:	6e6d2d20 	0x6e6d2d20
     f10:	70672d6f 	0x70672d6f
     f14:	2074706f 	addi	s4,v1,28783
     f18:	70696d2d 	s16sdi	xr4,v1,182,ptn1
     f1c:	72323373 	d32sar	xr13,xr12,xr8,xr12,8
     f20:	6d2d2032 	0x6d2d2032
     f24:	3d696261 	0x3d696261
     f28:	2d203233 	sltiu	zero,t1,12851
     f2c:	666f736d 	0x666f736d
     f30:	6c662d74 	0x6c662d74
     f34:	2074616f 	addi	s4,v1,24943
     f38:	6c706d2d 	0x6c706d2d
     f3c:	6d2d2074 	0x6d2d2074
     f40:	636e7973 	0x636e7973
     f44:	672d2069 	0x672d2069
     f48:	20672d20 	addi	a3,v1,11552
     f4c:	20324f2d 	addi	s2,at,20269
     f50:	20734f2d 	addi	s3,v1,20269
     f54:	20324f2d 	addi	s2,at,20269
     f58:	20324f2d 	addi	s2,at,20269
     f5c:	00734f2d 	0x734f2d
     f60:	73755f5f 	udi15	k1,s5,t3,0x1d
     f64:	78655f65 	st.h	$w29,202(t3)
     f68:	5f747063 	0x5f747063
     f6c:	746f6f62 	jalx	1bdbd88 <__memory_size+0x1bbc588>
     f70:	67726100 	0x67726100
     f74:	5f5f0031 	0x5f5f0031
     f78:	5f746567 	0x5f746567
     f7c:	72617473 	d32sar	xr1,xr13,xr5,xr8,9
     f80:	5f707574 	0x5f707574
     f84:	00564542 	0x564542
     f88:	7263732f 	0x7263732f
     f8c:	68637461 	0x68637461
     f90:	66706d2f 	0x66706d2f
     f94:	626f6a2f 	0x626f6a2f
     f98:	34352f73 	ori	s5,at,0x2f73
     f9c:	2f353933 	sltiu	s5,t9,14643
     fa0:	39303834 	xori	s0,t1,0x3834
     fa4:	34322f34 	ori	s2,at,0x2f34
     fa8:	38393130 	xori	t9,at,0x3130
     fac:	6168732f 	0x6168732f
     fb0:	2f646572 	sltiu	a0,k1,25970
     fb4:	2f636367 	sltiu	v1,k1,25447
     fb8:	6762696c 	0x6762696c
     fbc:	73736f6c 	s16ldi	xr13,k1,438,ptn2
     fc0:	70696d2f 	0x70696d2f
     fc4:	68752f73 	0x68752f73
     fc8:	68752f69 	0x68752f69
     fcc:	65675f69 	0x65675f69
     fd0:	61725f74 	0x61725f74
     fd4:	61725f6d 	0x61725f6d
     fd8:	2e65676e 	sltiu	a1,s3,26478
     fdc:	5f5f0063 	0x5f5f0063
     fe0:	6f6d656d 	0x6f6d656d
     fe4:	735f7972 	0x735f7972
     fe8:	00657a69 	0x657a69
     fec:	78655f72 	0x78655f72
     ff0:	746e6574 	jalx	1b995d0 <__memory_size+0x1b79dd0>
     ff4:	6d617200 	0x6d617200
     ff8:	7478655f 	jalx	1e1957c <__memory_size+0x1df9d7c>
     ffc:	00746e65 	0x746e65
    1000:	656d5f5f 	0x656d5f5f
    1004:	79726f6d 	0x79726f6d
    1008:	7361625f 	udi15	k1,at,t4,0x9
    100c:	5f720065 	0x5f720065
    1010:	65736162 	0x65736162
    1014:	6d617200 	0x6d617200
    1018:	7361625f 	udi15	k1,at,t4,0x9
    101c:	675f0065 	0x675f0065
    1020:	725f7465 	s8sdi	xr1,s2,-35,
    1024:	725f6d61 	0x725f6d61
    1028:	65676e61 	0x65676e61
    102c:	74757000 	jalx	1d5c000 <__memory_size+0x1d3c800>
    1030:	00736e73 	tltu	v1,s3,0x1b9
    1034:	68635f5f 	0x68635f5f
    1038:	5f6e6961 	0x5f6e6961
    103c:	5f696875 	0x5f696875
    1040:	70637865 	s8sdi	xr1,v1,-34,ptn0
    1044:	5f5f0074 	0x5f5f0074
    1048:	5f696875 	0x5f696875
    104c:	69646e69 	0x69646e69
    1050:	74636572 	jalx	18d95c8 <__memory_size+0x18b9dc8>
    1054:	655f5f00 	0x655f5f00
    1058:	70656378 	0x70656378
    105c:	6e6f6974 	0x6e6f6974
    1060:	6e61685f 	0x6e61685f
    1064:	5f656c64 	0x5f656c64
    1068:	62726576 	0x62726576
    106c:	0065736f 	0x65736f
    1070:	66696873 	0x66696873
    1074:	74730074 	jalx	1cc01d0 <__memory_size+0x1ca09d0>
    1078:	6e656c72 	0x6e656c72
    107c:	736f7000 	0x736f7000
    1080:	72730074 	q16sll	xr1,xr0,xr12,xr12,9
    1084:	745f6765 	jalx	17d9d94 <__memory_size+0x17ba594>
    1088:	755f5f00 	jalx	57d7c00 <__memory_size+0x57b8400>
    108c:	655f6968 	0x655f6968
    1090:	70656378 	0x70656378
    1094:	6e6f6974 	0x6e6f6974
    1098:	665f5f00 	0x665f5f00
    109c:	6873756c 	0x6873756c
    10a0:	5f6f745f 	0x5f6f745f
    10a4:	6f72657a 	0x6f72657a
    10a8:	74757000 	jalx	1d5c000 <__memory_size+0x1d3c800>
    10ac:	73646e73 	d32sar	xr9,xr11,xr1,xr9,13
    10b0:	63732f00 	0x63732f00
    10b4:	63746172 	0x63746172
    10b8:	706d2f68 	lxhu	a1,v1,t5,3
    10bc:	6f6a2f66 	0x6f6a2f66
    10c0:	352f7362 	ori	t7,t1,0x7362
    10c4:	35393334 	ori	t9,t1,0x3334
    10c8:	3038342f 	andi	t8,at,0x342f
    10cc:	322f3439 	andi	t7,s1,0x3439
    10d0:	39313034 	xori	s1,t1,0x3034
    10d4:	68732f38 	0x68732f38
    10d8:	64657261 	0x64657261
    10dc:	6363672f 	0x6363672f
    10e0:	62696c2f 	0x62696c2f
    10e4:	736f6c67 	0x736f6c67
    10e8:	696d2f73 	0x696d2f73
    10ec:	682f7370 	0x682f7370
    10f0:	6d2f6c61 	0x6d2f6c61
    10f4:	5f737069 	0x5f737069
    10f8:	70637865 	s8sdi	xr1,v1,-34,ptn0
    10fc:	61685f74 	0x61685f74
    1100:	656c646e 	0x656c646e
    1104:	00632e72 	tlt	v1,v1,0xb9
    1108:	69676964 	0x69676964
    110c:	2f007374 	sltiu	zero,t8,29556
    1110:	61726373 	0x61726373
    1114:	2f686374 	sltiu	t0,k1,25460
    1118:	2f66706d 	sltiu	a2,k1,28781
    111c:	73626f6a 	s16ldd	xr13,k1,310,ptn0
    1120:	3334352f 	andi	s4,t9,0x352f
    1124:	342f3539 	ori	t7,at,0x3539
    1128:	34393038 	ori	t9,at,0x3038
    112c:	3034322f 	andi	s4,at,0x322f
    1130:	2f383931 	sltiu	t8,t9,14641
    1134:	72616873 	d32sar	xr1,xr10,xr5,xr8,9
    1138:	672f6465 	0x672f6465
    113c:	6e2f6363 	0x6e2f6363
    1140:	696c7765 	0x696c7765
    1144:	696c2f62 	0x696c2f62
    1148:	6d2f6362 	0x6d2f6362
    114c:	69686361 	0x69686361
    1150:	6d2f656e 	0x6d2f656e
    1154:	2f737069 	sltiu	s3,k1,28777
    1158:	6c727473 	0x6c727473
    115c:	632e6e65 	0x632e6e65
    1160:	77656e00 	jalx	d95b800 <__memory_size+0xd93c000>
    1164:	7272655f 	udi15	s3,s2,t4,0x15
    1168:	61006f6e 	0x61006f6e
    116c:	00326772 	tlt	at,s2,0x19d
    1170:	7263732f 	0x7263732f
    1174:	68637461 	0x68637461
    1178:	66706d2f 	0x66706d2f
    117c:	626f6a2f 	0x626f6a2f
    1180:	34352f73 	ori	s5,at,0x2f73
    1184:	2f353933 	sltiu	s5,t9,14643
    1188:	39303834 	xori	s0,t1,0x3834
    118c:	34322f34 	ori	s2,at,0x2f34
    1190:	38393130 	xori	t9,at,0x3130
    1194:	6168732f 	0x6168732f
    1198:	2f646572 	sltiu	a0,k1,25970
    119c:	2f636367 	sltiu	v1,k1,25447
    11a0:	6762696c 	0x6762696c
    11a4:	73736f6c 	s16ldi	xr13,k1,438,ptn2
    11a8:	70696d2f 	0x70696d2f
    11ac:	68752f73 	0x68752f73
    11b0:	68752f69 	0x68752f69
    11b4:	72775f69 	0x72775f69
    11b8:	2e657469 	sltiu	a1,s3,29801
    11bc:	72610063 	s8std	xr1,s3,64,ptn0
    11c0:	5f003367 	bgtzl	t8,df60 <__isr_vec_space+0xdf40>
    11c4:	7272655f 	udi15	s3,s2,t4,0x15
    11c8:	65006f6e 	0x65006f6e
    11cc:	6f6e7272 	0x6f6e7272
    11d0:	706d745f 	udi15	v1,t5,t6,0x11
    11d4:	63732f00 	0x63732f00
    11d8:	63746172 	0x63746172
    11dc:	706d2f68 	lxhu	a1,v1,t5,3
    11e0:	6f6a2f66 	0x6f6a2f66
    11e4:	352f7362 	ori	t7,t1,0x7362
    11e8:	35393334 	ori	t9,t1,0x3334
    11ec:	3038342f 	andi	t8,at,0x342f
    11f0:	322f3439 	andi	t7,s1,0x3439
    11f4:	39313034 	xori	s1,t1,0x3034
    11f8:	68732f38 	0x68732f38
    11fc:	64657261 	0x64657261
    1200:	6363672f 	0x6363672f
    1204:	62696c2f 	0x62696c2f
    1208:	736f6c67 	0x736f6c67
    120c:	696d2f73 	0x696d2f73
    1210:	752f7370 	jalx	4bdcdc0 <__memory_size+0x4bbd5c0>
    1214:	752f6968 	jalx	4bda5a0 <__memory_size+0x4bbada0>
    1218:	655f6968 	0x655f6968
    121c:	70656378 	0x70656378
    1220:	6e6f6974 	0x6e6f6974
    1224:	2f00632e 	sltiu	zero,t8,25390
    1228:	61726373 	0x61726373
    122c:	2f686374 	sltiu	t0,k1,25460
    1230:	2f66706d 	sltiu	a2,k1,28781
    1234:	73626f6a 	s16ldd	xr13,k1,310,ptn0
    1238:	3334352f 	andi	s4,t9,0x352f
    123c:	342f3539 	ori	t7,at,0x3539
    1240:	34393038 	ori	t9,at,0x3038
    1244:	3034322f 	andi	s4,at,0x322f
    1248:	2f383931 	sltiu	t8,t9,14641
    124c:	72616873 	d32sar	xr1,xr10,xr5,xr8,9
    1250:	672f6465 	0x672f6465
    1254:	6c2f6363 	0x6c2f6363
    1258:	6c676269 	0x6c676269
    125c:	2f73736f 	sltiu	s3,k1,29551
    1260:	7370696d 	s16sdi	xr5,k1,52,
    1264:	6968752f 	0x6968752f
    1268:	6968752f 	0x6968752f
    126c:	646e695f 	0x646e695f
    1270:	63657269 	0x63657269
    1274:	00632e74 	teq	v1,v1,0xb9
    1278:	31746572 	andi	s4,t3,0x6572
    127c:	74657200 	jalx	195c800 <__memory_size+0x193d000>
    1280:	72610032 	0x72610032
    1284:	2f003467 	sltiu	zero,t8,13415
    1288:	61726373 	0x61726373
    128c:	2f686374 	sltiu	t0,k1,25460
    1290:	2f66706d 	sltiu	a2,k1,28781
    1294:	73626f6a 	s16ldd	xr13,k1,310,ptn0
    1298:	3334352f 	andi	s4,t9,0x352f
    129c:	342f3539 	ori	t7,at,0x3539
    12a0:	34393038 	ori	t9,at,0x3038
    12a4:	3034322f 	andi	s4,at,0x322f
    12a8:	2f383931 	sltiu	t8,t9,14641
    12ac:	72616873 	d32sar	xr1,xr10,xr5,xr8,9
    12b0:	672f6465 	0x672f6465
    12b4:	6e2f6363 	0x6e2f6363
    12b8:	696c7765 	0x696c7765
    12bc:	696c2f62 	0x696c2f62
    12c0:	652f6362 	0x652f6362
    12c4:	6f6e7272 	0x6f6e7272
    12c8:	7272652f 	0x7272652f
    12cc:	632e6f6e 	0x632e6f6e
	...

Disassembly of section .debug_loc:

00000000 <.debug_loc>:
       0:	0000005c 	0x5c
       4:	000000ac 	0xac
       8:	ac540001 	sw	s4,1(v0)
       c:	07000000 	bltz	t8,10 <ABIFlags_flags1>
      10:	01000001 	movf	zero,t0,$fcc0
      14:	00005400 	sll	t2,zero,0x10
      18:	00000000 	nop
      1c:	006c0000 	0x6c0000
      20:	00800000 	0x800000
      24:	00060000 	sll	zero,a2,0x0
      28:	0014049e 	0x14049e
      2c:	0080bf80 	0x80bf80
      30:	01070000 	0x1070000
      34:	00010000 	sll	zero,at,0x0
      38:	00000055 	0x55
      3c:	00000000 	nop
      40:	00011400 	sll	v0,at,0x10
      44:	0001cf00 	sll	t9,at,0x1c
      48:	54000100 	bnezl	zero,44c <__isr_vec_space+0x42c>
      4c:	000001cf 	sync	0x7
      50:	000001dc 	0x1dc
      54:	01f30004 	sllv	zero,s3,t7
      58:	00009f54 	0x9f54
      5c:	00000000 	nop
      60:	01dc0000 	0x1dc0000
      64:	01e80000 	0x1e80000
      68:	00010000 	sll	zero,at,0x0
      6c:	0001e854 	0x1e854
      70:	0001fc00 	sll	ra,at,0x10
      74:	f3000400 	0xf3000400
      78:	009f5401 	0x9f5401
      7c:	00000000 	nop
      80:	dc000000 	ldc3	$0,0(zero)
      84:	ef000001 	swc3	$0,1(t8)
      88:	01000001 	movf	zero,t0,$fcc0
      8c:	01ef5500 	0x1ef5500
      90:	01fc0000 	0x1fc0000
      94:	00040000 	sll	zero,a0,0x0
      98:	9f5501f3 	0x9f5501f3
	...
      a8:	0000000c 	syscall
      ac:	0c540001 	jal	1500004 <__memory_size+0x14e0804>
      b0:	20000000 	addi	zero,zero,0
      b4:	04000000 	bltz	zero,b8 <__isr_vec_space+0x98>
      b8:	5401f300 	bnel	zero,at,ffffccbc <__flash_start+0x403fccbc>
      bc:	0000009f 	0x9f
      c0:	00000000 	nop
      c4:	00002000 	sll	a0,zero,0x0
      c8:	00003300 	sll	a2,zero,0xc
      cc:	54000100 	bnezl	zero,4d0 <__isr_vec_space+0x4b0>
      d0:	00000033 	tltu	zero,zero
      d4:	00000084 	0x84
      d8:	01f30004 	sllv	zero,s3,t7
      dc:	00009f54 	0x9f54
      e0:	00000000 	nop
      e4:	00340000 	0x340000
      e8:	00400000 	0x400000
      ec:	00010000 	sll	zero,at,0x0
      f0:	00004052 	mflhxu	t0
      f4:	00007c00 	sll	t7,zero,0x10
      f8:	60000100 	0x60000100
      fc:	0000007c 	0x7c
     100:	00000084 	0x84
     104:	00520001 	0x520001
     108:	00000000 	nop
     10c:	84000000 	lh	zero,0(zero)
     110:	a0000000 	sb	zero,0(zero)
     114:	01000000 	0x1000000
     118:	00a05400 	0xa05400
     11c:	00ab0000 	0xab0000
     120:	00030000 	sll	zero,v1,0x0
     124:	ab9f7474 	swl	ra,29812(gp)
     128:	c8000000 	lwc2	$0,0(zero)
     12c:	03000000 	0x3000000
     130:	9f748000 	0x9f748000
     134:	000000c8 	0xc8
     138:	000000d0 	0xd0
     13c:	01f30004 	sllv	zero,s3,t7
     140:	00009f54 	0x9f54
     144:	00000000 	nop
     148:	00840000 	0x840000
     14c:	00a40000 	0xa40000
     150:	00010000 	sll	zero,at,0x0
     154:	0000a455 	0xa455
     158:	0000c400 	sll	t8,zero,0x10
     15c:	61000100 	0x61000100
     160:	000000c4 	0xc4
     164:	000000d0 	0xd0
     168:	01f30004 	sllv	zero,s3,t7
     16c:	00009f55 	0x9f55
     170:	00000000 	nop
     174:	00d80000 	0xd80000
     178:	00f80000 	0xf80000
     17c:	00010000 	sll	zero,at,0x0
     180:	0000f854 	0xf854
     184:	00013000 	sll	a2,at,0x0
     188:	60000100 	0x60000100
     18c:	00000130 	tge	zero,zero,0x4
     190:	00000144 	0x144
     194:	01f30004 	sllv	zero,s3,t7
     198:	00009f54 	0x9f54
     19c:	00000000 	nop
     1a0:	00f40000 	0xf40000
     1a4:	01300000 	0x1300000
     1a8:	00010000 	sll	zero,at,0x0
     1ac:	00000061 	0x61
     1b0:	00000000 	nop
     1b4:	0000f400 	sll	s8,zero,0x10
     1b8:	0000f800 	sll	ra,zero,0x0
     1bc:	54000100 	bnezl	zero,5c0 <__isr_vec_space+0x5a0>
     1c0:	000000f8 	0xf8
     1c4:	00000130 	tge	zero,zero,0x4
     1c8:	00600001 	movf	zero,v1,$fcc0
     1cc:	00000000 	nop
     1d0:	2c000000 	sltiu	zero,zero,0
     1d4:	30000001 	andi	zero,zero,0x1
     1d8:	01000001 	movf	zero,t0,$fcc0
     1dc:	00006100 	sll	t4,zero,0x4
     1e0:	00000000 	nop
     1e4:	01440000 	0x1440000
     1e8:	01840000 	0x1840000
     1ec:	00010000 	sll	zero,at,0x0
     1f0:	00018454 	0x18454
     1f4:	0001f400 	sll	s8,at,0x10
     1f8:	62000100 	0x62000100
     1fc:	000001f4 	teq	zero,zero,0x7
     200:	00000218 	0x218
     204:	01f30004 	sllv	zero,s3,t7
     208:	00009f54 	0x9f54
     20c:	00000000 	nop
     210:	01440000 	0x1440000
     214:	018b0000 	0x18b0000
     218:	00010000 	sll	zero,at,0x0
     21c:	00018b55 	0x18b55
     220:	00021800 	sll	v1,v0,0x0
     224:	f3000400 	0xf3000400
     228:	009f5501 	0x9f5501
     22c:	00000000 	nop
     230:	44000000 	mfc1	zero,$f0
     234:	8b000001 	lwl	zero,1(t8)
     238:	01000001 	movf	zero,t0,$fcc0
     23c:	018b5600 	0x18b5600
     240:	01f40000 	0x1f40000
     244:	00010000 	sll	zero,at,0x0
     248:	0001f463 	0x1f463
     24c:	00021800 	sll	v1,v0,0x0
     250:	f3000400 	0xf3000400
     254:	009f5601 	0x9f5601
     258:	00000000 	nop
     25c:	8c000000 	lw	zero,0(zero)
     260:	98000001 	lwr	zero,1(zero)
     264:	01000001 	movf	zero,t0,$fcc0
     268:	01985200 	0x1985200
     26c:	01f40000 	0x1f40000
     270:	00010000 	sll	zero,at,0x0
     274:	00000060 	0x60
     278:	00000000 	nop
     27c:	0001f400 	sll	s8,at,0x10
     280:	00020000 	sll	zero,v0,0x0
     284:	64000100 	0x64000100
     288:	00000200 	sll	zero,zero,0x8
     28c:	00000218 	0x218
     290:	00520001 	0x520001
     294:	00000000 	nop
     298:	6c000000 	0x6c000000
     29c:	0c000001 	jal	4 <ABIFlags_gpr_size>
     2a0:	01000002 	0x1000002
     2a4:	00006100 	sll	t4,zero,0x4
     2a8:	00000000 	nop
     2ac:	01a40000 	0x1a40000
     2b0:	01f40000 	0x1f40000
     2b4:	00010000 	sll	zero,at,0x0
     2b8:	00000060 	0x60
     2bc:	00000000 	nop
     2c0:	0001c400 	sll	t8,at,0x10
     2c4:	0001f400 	sll	s8,at,0x10
     2c8:	03000600 	0x3000600
     2cc:	80003fc8 	lb	zero,16328(zero)
     2d0:	0000009f 	0x9f
     2d4:	00000000 	nop
     2d8:	0001c400 	sll	t8,at,0x10
     2dc:	0001ef00 	sll	sp,at,0x1c
     2e0:	53000100 	beqzl	t8,6e4 <__isr_vec_space+0x6c4>
     2e4:	000001ef 	0x1ef
     2e8:	000001f4 	teq	zero,zero,0x7
     2ec:	d4800004 	ldc1	$f0,4(a0)
     2f0:	00009f00 	sll	s3,zero,0x1c
     2f4:	00000000 	nop
     2f8:	01cc0000 	0x1cc0000
     2fc:	01e80000 	0x1e80000
     300:	00010000 	sll	zero,at,0x0
     304:	0001e854 	0x1e854
     308:	0001ef00 	sll	sp,at,0x1c
     30c:	73000200 	0x73000200
	...
     318:	0001cc00 	sll	t9,at,0x10
     31c:	0001f400 	sll	s8,at,0x10
     320:	03000600 	0x3000600
     324:	80003fc8 	lb	zero,16328(zero)
     328:	0000009f 	0x9f
     32c:	00000000 	nop
     330:	0001cc00 	sll	t9,at,0x10
     334:	0001ef00 	sll	sp,at,0x1c
     338:	53000100 	beqzl	t8,73c <__isr_vec_space+0x71c>
     33c:	000001ef 	0x1ef
     340:	000001f4 	teq	zero,zero,0x7
     344:	d4800004 	ldc1	$f0,4(a0)
     348:	00009f00 	sll	s3,zero,0x1c
     34c:	00000000 	nop
     350:	023c0000 	0x23c0000
     354:	02dc0000 	0x2dc0000
     358:	00010000 	sll	zero,at,0x0
     35c:	00000060 	0x60
     360:	00000000 	nop
     364:	00004000 	sll	t0,zero,0x0
     368:	00007400 	sll	t6,zero,0x10
     36c:	52000100 	beqzl	s0,770 <__isr_vec_space+0x750>
     370:	0000009c 	0x9c
     374:	000000a3 	0xa3
     378:	00520001 	0x520001
     37c:	00000000 	nop
     380:	20000000 	addi	zero,zero,0
     384:	40000000 	mfc0	zero,c0_index
     388:	02000000 	0x2000000
     38c:	6c9f3000 	0x6c9f3000
     390:	74000000 	jalx	0 <hardware_exit_hook>
     394:	01000000 	0x1000000
     398:	00005300 	sll	t2,zero,0xc
     39c:	00000000 	nop
     3a0:	00200000 	0x200000
     3a4:	00400000 	0x400000
     3a8:	00020000 	sll	zero,v0,0x0
     3ac:	004c9f30 	tge	v0,t4,0x27c
     3b0:	006c0000 	0x6c0000
     3b4:	00040000 	sll	zero,a0,0x0
     3b8:	9f7fac72 	0x9f7fac72
     3bc:	0000006c 	0x6c
     3c0:	00000074 	teq	zero,zero,0x1
     3c4:	00600001 	movf	zero,v1,$fcc0
     3c8:	00000000 	nop
     3cc:	20000000 	addi	zero,zero,0
     3d0:	40000000 	mfc0	zero,c0_index
     3d4:	02000000 	0x2000000
     3d8:	409f3000 	mtc0	ra,c0_wired
     3dc:	b8000000 	swr	zero,0(zero)
     3e0:	01000000 	0x1000000
     3e4:	00006000 	sll	t4,zero,0x0
     3e8:	00000000 	nop
     3ec:	00280000 	0x280000
     3f0:	00380000 	0x380000
     3f4:	00010000 	sll	zero,at,0x0
     3f8:	00000052 	mflhxu	zero
     3fc:	00000000 	nop
     400:	00009800 	sll	s3,zero,0x0
     404:	0000a800 	sll	s5,zero,0x0
     408:	41000400 	bc0f	140c <__isr_vec_space+0x13ec>
     40c:	a89f243d 	swl	ra,9277(a0)
     410:	d0000000 	0xd0000000
     414:	01000000 	0x1000000
     418:	00006000 	sll	t4,zero,0x0
     41c:	00000000 	nop
     420:	00980000 	0x980000
     424:	00a80000 	0xa80000
     428:	00020000 	sll	zero,v0,0x0
     42c:	00009f30 	tge	zero,zero,0x27c
	...
     438:	00100000 	sll	zero,s0,0x0
     43c:	00010000 	sll	zero,at,0x0
     440:	00001054 	0x1054
     444:	00002800 	sll	a1,zero,0x0
     448:	f3000400 	0xf3000400
     44c:	009f5401 	0x9f5401
     450:	00000000 	nop
     454:	44000000 	mfc1	zero,$f0
     458:	60000000 	0x60000000
     45c:	02000000 	0x2000000
     460:	609f3000 	0x609f3000
     464:	18000000 	blez	zero,468 <__isr_vec_space+0x448>
     468:	01000002 	0x1000002
     46c:	00006000 	sll	t4,zero,0x0
     470:	00000000 	nop
     474:	00440000 	0x440000
     478:	00600000 	0x600000
     47c:	00030000 	sll	zero,v1,0x0
     480:	609f2208 	0x609f2208
     484:	08000000 	j	0 <hardware_exit_hook>
     488:	01000002 	0x1000002
     48c:	00006400 	sll	t4,zero,0x10
     490:	00000000 	nop
     494:	00ac0000 	0xac0000
     498:	00c00000 	0xc00000
     49c:	00020000 	sll	zero,v0,0x0
     4a0:	00c09f30 	tge	a2,zero,0x27c
     4a4:	00e00000 	0xe00000
     4a8:	00020000 	sll	zero,v0,0x0
     4ac:	00e09f31 	tgeu	a3,zero,0x27c
     4b0:	00fc0000 	0xfc0000
     4b4:	00020000 	sll	zero,v0,0x0
     4b8:	00fc9f32 	tlt	a3,gp,0x27c
     4bc:	01140000 	0x1140000
     4c0:	00020000 	sll	zero,v0,0x0
     4c4:	01149f33 	tltu	t0,s4,0x27c
     4c8:	01280000 	0x1280000
     4cc:	00020000 	sll	zero,v0,0x0
     4d0:	01289f34 	teq	t1,t0,0x27c
     4d4:	01540000 	0x1540000
     4d8:	00020000 	sll	zero,v0,0x0
     4dc:	00009f35 	0x9f35
     4e0:	00000000 	nop
     4e4:	00ac0000 	0xac0000
     4e8:	00b40000 	0xb40000
     4ec:	00020000 	sll	zero,v0,0x0
     4f0:	00b49f30 	tge	a1,s4,0x27c
     4f4:	00d40000 	0xd40000
     4f8:	00040000 	sll	zero,a0,0x0
     4fc:	9f04000a 	0x9f04000a
     500:	000000d4 	0xd4
     504:	000000f4 	teq	zero,zero,0x3
     508:	000a0004 	sllv	zero,t2,zero
     50c:	00f49f06 	0xf49f06
     510:	010c0000 	0x10c0000
     514:	00040000 	sll	zero,a0,0x0
     518:	9f07000a 	0x9f07000a
     51c:	0000010c 	syscall	0x4
     520:	00000120 	0x120
     524:	000a0004 	sllv	zero,t2,zero
     528:	01209f08 	0x1209f08
     52c:	01540000 	0x1540000
     530:	00040000 	sll	zero,a0,0x0
     534:	9f09000a 	0x9f09000a
     538:	00000154 	0x154
     53c:	00000220 	0x220
     540:	00520001 	0x520001
     544:	00000000 	nop
     548:	ac000000 	sw	zero,0(zero)
     54c:	c0000000 	ll	zero,0(zero)
     550:	04000000 	bltz	zero,554 <__isr_vec_space+0x534>
     554:	24484000 	addiu	t0,v0,16384
     558:	0000c09f 	0xc09f
     55c:	0000e000 	sll	gp,zero,0x0
     560:	40000400 	0x40000400
     564:	e09f2447 	sc	ra,9287(a0)
     568:	fc000000 	sdc3	$0,0(zero)
     56c:	04000000 	bltz	zero,570 <__isr_vec_space+0x550>
     570:	24464000 	addiu	a2,v0,16384
     574:	0000fc9f 	0xfc9f
     578:	00011400 	sll	v0,at,0x10
     57c:	40000400 	0x40000400
     580:	149f2445 	bne	a0,ra,9698 <__isr_vec_space+0x9678>
     584:	28000001 	slti	zero,zero,1
     588:	04000001 	bltz	zero,590 <__isr_vec_space+0x570>
     58c:	24444000 	addiu	a0,v0,16384
     590:	0001289f 	0x1289f
     594:	00015400 	sll	t2,at,0x10
     598:	40000400 	0x40000400
     59c:	549f2443 	bnel	a0,ra,96ac <__isr_vec_space+0x968c>
     5a0:	20000001 	addi	zero,zero,1
     5a4:	01000002 	0x1000002
     5a8:	00005300 	sll	t2,zero,0xc
     5ac:	00000000 	nop
     5b0:	00ac0000 	0xac0000
     5b4:	00cc0000 	0xcc0000
     5b8:	00040000 	sll	zero,a0,0x0
     5bc:	9f04000a 	0x9f04000a
     5c0:	000000cc 	syscall	0x3
     5c4:	000000ec 	0xec
     5c8:	000a0004 	sllv	zero,t2,zero
     5cc:	00ec9f02 	0xec9f02
     5d0:	01540000 	0x1540000
     5d4:	00040000 	sll	zero,a0,0x0
     5d8:	9f01000a 	0x9f01000a
     5dc:	00000154 	0x154
     5e0:	00000198 	0x198
     5e4:	80080003 	lb	t0,3(zero)
     5e8:	0001989f 	0x1989f
     5ec:	0001dc00 	sll	k1,at,0x10
     5f0:	08000300 	j	c00 <__isr_vec_space+0xbe0>
     5f4:	01dc9f40 	0x1dc9f40
     5f8:	02200000 	0x2200000
     5fc:	00030000 	sll	zero,v1,0x0
     600:	009f2008 	0x9f2008
     604:	00000000 	nop
     608:	ec000000 	swc3	$0,0(zero)
     60c:	04000000 	bltz	zero,610 <__isr_vec_space+0x5f0>
     610:	02000001 	movf	zero,s0,$fcc0
     614:	049f3000 	synci	12288(a0)
     618:	18000001 	blez	zero,620 <__isr_vec_space+0x600>
     61c:	02000001 	movf	zero,s0,$fcc0
     620:	189f3100 	0x189f3100
     624:	2c000001 	sltiu	zero,zero,1
     628:	02000001 	movf	zero,s0,$fcc0
     62c:	2c9f3200 	sltiu	ra,a0,12800
     630:	54000001 	bnezl	zero,638 <__isr_vec_space+0x618>
     634:	02000001 	movf	zero,s0,$fcc0
     638:	009f3300 	0x9f3300
     63c:	00000000 	nop
     640:	20000000 	addi	zero,zero,0
     644:	30000002 	andi	zero,zero,0x2
     648:	01000002 	0x1000002
     64c:	02305400 	0x2305400
     650:	02480000 	0x2480000
     654:	00040000 	sll	zero,a0,0x0
     658:	9f5401f3 	0x9f5401f3
	...
     664:	00000274 	teq	zero,zero,0x9
     668:	00000278 	0x278
     66c:	78540001 	bmnzi.b	$w0,$w0,0x54
     670:	7c000002 	0x7c000002
     674:	07000002 	bltz	t8,680 <__isr_vec_space+0x660>
     678:	0b007400 	j	c01d000 <__memory_size+0xbffd800>
     67c:	9f1af000 	0x9f1af000
     680:	0000027c 	0x27c
     684:	000002f8 	0x2f8
     688:	01f30008 	0x1f30008
     68c:	f0000b54 	0xf0000b54
     690:	00009f1a 	0x9f1a
     694:	00000000 	nop
     698:	027c0000 	0x27c0000
     69c:	02a80000 	0x2a80000
     6a0:	00020000 	sll	zero,v0,0x0
     6a4:	02c49f30 	tge	s6,a0,0x27c
     6a8:	02cc0000 	0x2cc0000
     6ac:	00020000 	sll	zero,v0,0x0
     6b0:	02dc9f30 	tge	s6,gp,0x27c
     6b4:	02e40000 	0x2e40000
     6b8:	00020000 	sll	zero,v0,0x0
     6bc:	02e49f30 	tge	s7,a0,0x27c
     6c0:	02f80000 	0x2f80000
     6c4:	00020000 	sll	zero,v0,0x0
     6c8:	00009f31 	tgeu	zero,zero,0x27c
     6cc:	00000000 	nop
     6d0:	02780000 	0x2780000
     6d4:	027c0000 	0x27c0000
     6d8:	00070000 	sll	zero,a3,0x0
     6dc:	000b0074 	teq	zero,t3,0x1
     6e0:	7c9f1af0 	dpsu.h.qbl	$ac3,a0,ra
     6e4:	f8000002 	sdc2	$0,2(zero)
     6e8:	08000002 	j	8 <ABIFlags_isa_ext>
     6ec:	5401f300 	bnel	zero,at,ffffd2f0 <__flash_start+0x403fd2f0>
     6f0:	1af0000b 	0x1af0000b
     6f4:	0000009f 	0x9f
     6f8:	00000000 	nop
     6fc:	00028400 	sll	s0,v0,0x10
     700:	00028c00 	sll	s1,v0,0x10
     704:	72000200 	0x72000200
     708:	00028c00 	sll	s1,v0,0x10
     70c:	0002a800 	sll	s5,v0,0x0
     710:	03000600 	0x3000600
     714:	80003fc4 	lb	zero,16324(zero)
     718:	0002a806 	srlv	s5,v0,zero
     71c:	0002c400 	sll	t8,v0,0x10
     720:	72000200 	0x72000200
     724:	0002c400 	sll	t8,v0,0x10
     728:	0002cc00 	sll	t9,v0,0x10
     72c:	03000600 	0x3000600
     730:	80003fc4 	lb	zero,16324(zero)
     734:	0002dc06 	0x2dc06
     738:	0002e400 	sll	gp,v0,0x10
     73c:	03000600 	0x3000600
     740:	80003fc4 	lb	zero,16324(zero)
     744:	00000006 	srlv	zero,zero,zero
     748:	00000000 	nop
     74c:	00030000 	sll	zero,v1,0x0
     750:	00032c00 	sll	a1,v1,0x10
     754:	30000200 	andi	zero,zero,0x200
     758:	00035c9f 	0x35c9f
     75c:	00036400 	sll	t4,v1,0x10
     760:	30000200 	andi	zero,zero,0x200
     764:	0003649f 	0x3649f
     768:	00037800 	sll	t7,v1,0x0
     76c:	31000200 	andi	zero,t0,0x200
     770:	0000009f 	0x9f
     774:	00000000 	nop
     778:	00030c00 	sll	at,v1,0x10
     77c:	00032c00 	sll	a1,v1,0x10
     780:	52000d00 	beqzl	s0,3b84 <__isr_vec_space+0x3b64>
     784:	c4030493 	lwc1	$f3,1171(zero)
     788:	0680003f 	bltz	s4,888 <__isr_vec_space+0x868>
     78c:	04930423 	bgezall	a0,181c <__isr_vec_space+0x17fc>
     790:	00000330 	tge	zero,zero,0xc
     794:	00000340 	sll	zero,zero,0xd
     798:	00730008 	0x730008
     79c:	04730493 	bgezall	v1,19ec <__isr_vec_space+0x19cc>
     7a0:	035c0493 	0x35c0493
     7a4:	03640000 	0x3640000
     7a8:	000d0000 	sll	zero,t5,0x0
     7ac:	03049352 	0x3049352
     7b0:	80003fc4 	lb	zero,16324(zero)
     7b4:	93042306 	lbu	a0,8966(t8)
     7b8:	00000004 	sllv	zero,zero,zero
     7bc:	00000000 	nop
     7c0:	00037800 	sll	t7,v1,0x0
     7c4:	00038800 	sll	s1,v1,0x0
     7c8:	54000100 	bnezl	zero,bcc <__isr_vec_space+0xbac>
     7cc:	00000388 	0x388
     7d0:	00000398 	0x398
     7d4:	98600001 	lwr	zero,1(v1)
     7d8:	ac000003 	sw	zero,3(zero)
     7dc:	04000003 	bltz	zero,7ec <__isr_vec_space+0x7cc>
     7e0:	5401f300 	bnel	zero,at,ffffd3e4 <__flash_start+0x403fd3e4>
     7e4:	0000009f 	0x9f
     7e8:	00000000 	nop
     7ec:	00039000 	sll	s2,v1,0x0
     7f0:	00039400 	sll	s2,v1,0x10
     7f4:	52000100 	beqzl	s0,bf8 <__isr_vec_space+0xbd8>
     7f8:	00000000 	nop
     7fc:	00000000 	nop
     800:	00000390 	0x390
     804:	00000394 	0x394
     808:	0080000c 	syscall	0x20000
     80c:	1af0000b 	0x1af0000b
     810:	243c0072 	addiu	gp,at,114
     814:	039c9f21 	0x39c9f21
     818:	03ac0000 	0x3ac0000
     81c:	00010000 	sll	zero,at,0x0
     820:	00000052 	mflhxu	zero
     824:	00000000 	nop
     828:	0003ac00 	sll	s5,v1,0x10
     82c:	0003f400 	sll	s8,v1,0x10
     830:	54000100 	bnezl	zero,c34 <__isr_vec_space+0xc14>
     834:	000003f4 	teq	zero,zero,0xf
     838:	00000408 	jr.hb	zero
     83c:	01f30004 	sllv	zero,s3,t7
     840:	04089f54 	tgei	zero,-24748
     844:	04300000 	bltzal	at,848 <__isr_vec_space+0x828>
     848:	00010000 	sll	zero,at,0x0
     84c:	00000054 	0x54
     850:	00000000 	nop
     854:	0003ac00 	sll	s5,v1,0x10
     858:	0003ec00 	sll	sp,v1,0x10
     85c:	55000100 	bnezl	t0,c60 <__isr_vec_space+0xc40>
     860:	000003ec 	0x3ec
     864:	000003f0 	tge	zero,zero,0xf
     868:	00750005 	lsa	zero,v1,s5,0x1
     86c:	f09f2434 	0xf09f2434
     870:	30000003 	andi	zero,zero,0x3
     874:	01000004 	sllv	zero,zero,t0
     878:	00005500 	sll	t2,zero,0x14
     87c:	00000000 	nop
     880:	03b80000 	0x3b80000
     884:	03d80000 	0x3d80000
     888:	00020000 	sll	zero,v0,0x0
     88c:	041c9f30 	bposge32	fffe8550 <__flash_start+0x403e8550>
     890:	04240000 	0x4240000
     894:	00020000 	sll	zero,v0,0x0
     898:	04249f30 	0x4249f30
     89c:	04300000 	bltzal	at,8a0 <__isr_vec_space+0x880>
     8a0:	00020000 	sll	zero,v0,0x0
     8a4:	00009f31 	tgeu	zero,zero,0x27c
     8a8:	00000000 	nop
     8ac:	03c40000 	0x3c40000
     8b0:	03d80000 	0x3d80000
     8b4:	00060000 	sll	zero,a2,0x0
     8b8:	58049353 	0x58049353
     8bc:	03d80493 	0x3d80493
     8c0:	03dc0000 	0x3dc0000
     8c4:	00070000 	sll	zero,a3,0x0
     8c8:	04930072 	bgezall	a0,a94 <__isr_vec_space+0xa74>
     8cc:	dc049358 	ldc3	$4,-27816(zero)
     8d0:	ec000003 	swc3	$0,3(zero)
     8d4:	08000003 	j	c <ABIFlags_ases>
     8d8:	93007200 	lbu	zero,29184(t8)
     8dc:	93047204 	lbu	a0,29188(t8)
     8e0:	00040804 	sllv	at,a0,zero
     8e4:	00043000 	sll	a2,a0,0x0
     8e8:	53000600 	beqzl	t8,20ec <__isr_vec_space+0x20cc>
     8ec:	93580493 	lbu	t8,1171(k0)
     8f0:	00000004 	sllv	zero,zero,zero
     8f4:	00000000 	nop
     8f8:	0003ec00 	sll	sp,v1,0x10
     8fc:	00040800 	sll	at,a0,0x0
     900:	09000300 	j	4000c00 <__memory_size+0x3fe1400>
     904:	00009fcf 	0x9fcf
     908:	00000000 	nop
     90c:	04300000 	bltzal	at,910 <__isr_vec_space+0x8f0>
     910:	043f0000 	synci	0(at)
     914:	00010000 	sll	zero,at,0x0
     918:	00043f54 	0x43f54
     91c:	00044c00 	sll	t1,a0,0x10
     920:	f3000400 	0xf3000400
     924:	009f5401 	0x9f5401
     928:	00000000 	nop
     92c:	4c000000 	lwxc1	$f0,zero(zero)
     930:	5b000004 	blezl	t8,944 <__isr_vec_space+0x924>
     934:	01000004 	sllv	zero,zero,t0
     938:	045b5400 	0x45b5400
     93c:	04680000 	tgei	v1,0
     940:	00040000 	sll	zero,a0,0x0
     944:	9f5401f3 	0x9f5401f3
	...
     950:	00000468 	0x468
     954:	00000477 	0x477
     958:	77540001 	jalx	d500004 <__memory_size+0xd4e0804>
     95c:	84000004 	lh	zero,4(zero)
     960:	04000004 	bltz	zero,974 <__isr_vec_space+0x954>
     964:	5401f300 	bnel	zero,at,ffffd568 <__flash_start+0x403fd568>
     968:	0000009f 	0x9f
     96c:	00000000 	nop
     970:	00049400 	sll	s2,a0,0x10
     974:	0004ac00 	sll	s5,a0,0x10
     978:	54000100 	bnezl	zero,d7c <__isr_vec_space+0xd5c>
     97c:	000004ac 	0x4ac
     980:	00000530 	tge	zero,zero,0x14
     984:	01f30004 	sllv	zero,s3,t7
     988:	00009f54 	0x9f54
     98c:	00000000 	nop
     990:	04a00000 	bltz	a1,994 <__isr_vec_space+0x974>
     994:	04d00000 	bltzal	a2,998 <__isr_vec_space+0x978>
     998:	00020000 	sll	zero,v0,0x0
     99c:	05089f30 	tgei	t0,-24784
     9a0:	05100000 	bltzal	t0,9a4 <__isr_vec_space+0x984>
     9a4:	00020000 	sll	zero,v0,0x0
     9a8:	05109f30 	bltzal	t0,fffe866c <__flash_start+0x403e866c>
     9ac:	05240000 	0x5240000
     9b0:	00020000 	sll	zero,v0,0x0
     9b4:	00009f31 	tgeu	zero,zero,0x27c
     9b8:	00000000 	nop
     9bc:	049c0000 	0x49c0000
     9c0:	04ac0000 	teqi	a1,0
     9c4:	00010000 	sll	zero,at,0x0
     9c8:	0004ac54 	0x4ac54
     9cc:	00053000 	sll	a2,a1,0x0
     9d0:	f3000400 	0xf3000400
     9d4:	009f5401 	0x9f5401
     9d8:	00000000 	nop
     9dc:	b0000000 	0xb0000000
     9e0:	d0000004 	0xd0000004
     9e4:	06000004 	bltz	s0,9f8 <__isr_vec_space+0x9d8>
     9e8:	04935400 	bgezall	a0,159ec <__isr_vec_space+0x159cc>
     9ec:	d0049355 	0xd0049355
     9f0:	d4000004 	ldc1	$f0,4(zero)
     9f4:	07000004 	bltz	t8,a08 <__isr_vec_space+0x9e8>
     9f8:	93007200 	lbu	zero,29184(t8)
     9fc:	04935504 	bgezall	a0,15e10 <__isr_vec_space+0x15df0>
     a00:	000004d4 	0x4d4
     a04:	000004e4 	0x4e4
     a08:	00720008 	0x720008
     a0c:	04720493 	bltzall	v1,1c5c <__isr_vec_space+0x1c3c>
     a10:	04f40493 	0x4f40493
     a14:	05240000 	0x5240000
     a18:	00060000 	sll	zero,a2,0x0
     a1c:	55049354 	bnel	t0,a0,fffe5770 <__flash_start+0x403e5770>
     a20:	00000493 	0x493
     a24:	00000000 	nop
     a28:	05380000 	0x5380000
     a2c:	05400000 	bltz	t2,a30 <__isr_vec_space+0xa10>
     a30:	00060000 	sll	zero,a2,0x0
     a34:	55049354 	bnel	t0,a0,fffe5788 <__flash_start+0x403e5788>
     a38:	05400493 	bltz	t2,1c88 <__isr_vec_space+0x1c68>
     a3c:	058c0000 	teqi	t4,0
     a40:	00060000 	sll	zero,a2,0x0
     a44:	04f503f3 	0x4f503f3
     a48:	058c9f25 	teqi	t4,-24795
     a4c:	05940000 	0x5940000
     a50:	00060000 	sll	zero,a2,0x0
     a54:	55049354 	bnel	t0,a0,fffe57a8 <__flash_start+0x403e57a8>
     a58:	05940493 	0x5940493
     a5c:	059c0000 	0x59c0000
     a60:	00060000 	sll	zero,a2,0x0
     a64:	04f503f3 	0x4f503f3
     a68:	00009f25 	0x9f25
     a6c:	00000000 	nop
     a70:	05380000 	0x5380000
     a74:	05580000 	0x5580000
     a78:	00020000 	sll	zero,v0,0x0
     a7c:	05589f4c 	0x5589f4c
     a80:	058c0000 	teqi	t4,0
     a84:	00010000 	sll	zero,at,0x0
     a88:	00058c52 	0x58c52
     a8c:	00059400 	sll	s2,a1,0x10
     a90:	4c000200 	lwxc1	$f8,zero(zero)
     a94:	0000009f 	0x9f
     a98:	00000000 	nop
     a9c:	00059c00 	sll	s3,a1,0x10
     aa0:	0005d000 	sll	k0,a1,0x0
     aa4:	54000100 	bnezl	zero,ea8 <__isr_vec_space+0xe88>
     aa8:	000005d0 	0x5d0
     aac:	000005e4 	0x5e4
     ab0:	01f30004 	sllv	zero,s3,t7
     ab4:	00009f54 	0x9f54
     ab8:	00000000 	nop
     abc:	05e40000 	0x5e40000
     ac0:	05e80000 	tgei	t7,0
     ac4:	00010000 	sll	zero,at,0x0
     ac8:	0005e854 	0x5e854
     acc:	00065000 	sll	t2,a2,0x0
     ad0:	f3000400 	0xf3000400
     ad4:	009f5401 	0x9f5401
     ad8:	00000000 	nop
     adc:	e8000000 	swc2	$0,0(zero)
     ae0:	2c000005 	sltiu	zero,zero,5
     ae4:	01000006 	srlv	zero,zero,t0
     ae8:	062c5400 	teqi	s1,21504
     aec:	06500000 	bltzal	s2,af0 <__isr_vec_space+0xad0>
     af0:	00080000 	sll	zero,t0,0x0
     af4:	0a5401f3 	j	95007cc <__memory_size+0x94e0fcc>
     af8:	9f1a0fff 	0x9f1a0fff
	...
     b04:	000005e8 	0x5e8
     b08:	00000604 	0x604
     b0c:	9f300002 	0x9f300002
     b10:	00000604 	0x604
     b14:	00000624 	0x624
     b18:	24520001 	addiu	s2,v0,1
     b1c:	28000006 	slti	zero,zero,6
     b20:	02000006 	srlv	zero,zero,s0
     b24:	009f3000 	0x9f3000
     b28:	00000000 	nop
     b2c:	50000000 	beqzl	zero,b30 <__isr_vec_space+0xb10>
     b30:	60000006 	0x60000006
     b34:	01000006 	srlv	zero,zero,t0
     b38:	06605400 	bltz	s3,15b3c <__isr_vec_space+0x15b1c>
     b3c:	06640000 	0x6640000
     b40:	00010000 	sll	zero,at,0x0
     b44:	00066455 	0x66455
     b48:	0006e400 	sll	gp,a2,0x10
     b4c:	f3000400 	0xf3000400
     b50:	009f5401 	0x9f5401
     b54:	00000000 	nop
     b58:	60000000 	0x60000000
     b5c:	af000006 	sw	zero,6(t8)
     b60:	01000006 	srlv	zero,zero,t0
     b64:	06af5400 	0x6af5400
     b68:	06e40000 	0x6e40000
     b6c:	00080000 	sll	zero,t0,0x0
     b70:	0b5401f3 	j	d5007cc <__memory_size+0xd4e0fcc>
     b74:	9f1af000 	0x9f1af000
	...
     b80:	00000664 	0x664
     b84:	000006af 	0x6af
     b88:	af550001 	sw	s5,1(k0)
     b8c:	e4000006 	swc1	$f0,6(zero)
     b90:	08000006 	j	18 <ABIFlags_flags2+0x4>
     b94:	5401f300 	bnel	zero,at,ffffd798 <__flash_start+0x403fd798>
     b98:	1a0fff0a 	0x1a0fff0a
     b9c:	0000009f 	0x9f
     ba0:	00000000 	nop
     ba4:	00066400 	sll	t4,a2,0x10
     ba8:	00068400 	sll	s0,a2,0x10
     bac:	30000200 	andi	zero,zero,0x200
     bb0:	0006849f 	0x6849f
     bb4:	0006a400 	sll	s4,a2,0x10
     bb8:	60000100 	0x60000100
     bbc:	000006a4 	0x6a4
     bc0:	000006a8 	0x6a8
     bc4:	9f300002 	0x9f300002
	...
     bd0:	000006e4 	0x6e4
     bd4:	00000730 	tge	zero,zero,0x1c
     bd8:	30540001 	andi	s4,v0,0x1
     bdc:	c0000007 	ll	zero,7(zero)
     be0:	01000007 	srav	zero,zero,t0
     be4:	07c06400 	bltz	s8,19be8 <__isr_vec_space+0x19bc8>
     be8:	07d80000 	0x7d80000
     bec:	00040000 	sll	zero,a0,0x0
     bf0:	9f5401f3 	0x9f5401f3
	...
     bfc:	000006e4 	0x6e4
     c00:	00000730 	tge	zero,zero,0x1c
     c04:	30550001 	andi	s5,v0,0x1
     c08:	b4000007 	0xb4000007
     c0c:	01000007 	srav	zero,zero,t0
     c10:	07b46700 	0x7b46700
     c14:	07d80000 	0x7d80000
     c18:	00040000 	sll	zero,a0,0x0
     c1c:	9f5501f3 	0x9f5501f3
	...
     c28:	00000714 	0x714
     c2c:	00000730 	tge	zero,zero,0x1c
     c30:	9f300002 	0x9f300002
	...
     c3c:	0000076c 	0x76c
     c40:	00000784 	0x784
     c44:	00520001 	0x520001
     c48:	00000000 	nop
     c4c:	34000000 	li	zero,0x0
     c50:	c8000007 	lwc2	$0,7(zero)
     c54:	06000007 	bltz	s0,c74 <__isr_vec_space+0xc54>
     c58:	04936100 	bgezall	a0,1905c <__isr_vec_space+0x1903c>
     c5c:	00049362 	0x49362
     c60:	00000000 	nop
     c64:	d8000000 	ldc2	$0,0(zero)
     c68:	e0000007 	sc	zero,7(zero)
     c6c:	01000007 	srav	zero,zero,t0
     c70:	07e05400 	bltz	ra,15c74 <__isr_vec_space+0x15c54>
     c74:	08c40000 	j	3100000 <__memory_size+0x30e0800>
     c78:	00040000 	sll	zero,a0,0x0
     c7c:	9f5401f3 	0x9f5401f3
	...
     c88:	000007d8 	0x7d8
     c8c:	00000864 	0x864
     c90:	64550001 	0x64550001
     c94:	90000008 	lbu	zero,8(zero)
     c98:	04000008 	bltz	zero,cbc <__isr_vec_space+0xc9c>
     c9c:	5501f300 	bnel	t0,at,ffffd8a0 <__flash_start+0x403fd8a0>
     ca0:	0008909f 	0x8909f
     ca4:	0008b400 	sll	s6,t0,0x10
     ca8:	55000100 	bnezl	t0,10ac <__isr_vec_space+0x108c>
     cac:	000008b4 	teq	zero,zero,0x22
     cb0:	000008c4 	0x8c4
     cb4:	01f30004 	sllv	zero,s3,t7
     cb8:	00009f55 	0x9f55
     cbc:	00000000 	nop
     cc0:	07e00000 	bltz	ra,cc4 <__isr_vec_space+0xca4>
     cc4:	08000000 	j	0 <hardware_exit_hook>
     cc8:	00020000 	sll	zero,v0,0x0
     ccc:	08a09f30 	j	2827cc0 <__memory_size+0x28084c0>
     cd0:	08a80000 	j	2a00000 <__memory_size+0x29e0800>
     cd4:	00020000 	sll	zero,v0,0x0
     cd8:	08a89f30 	j	2a27cc0 <__memory_size+0x2a084c0>
     cdc:	08b40000 	j	2d00000 <__memory_size+0x2ce0800>
     ce0:	00020000 	sll	zero,v0,0x0
     ce4:	00009f31 	tgeu	zero,zero,0x27c
     ce8:	00000000 	nop
     cec:	07dc0000 	0x7dc0000
     cf0:	07e00000 	bltz	ra,cf4 <__isr_vec_space+0xcd4>
     cf4:	00010000 	sll	zero,at,0x0
     cf8:	0007e054 	0x7e054
     cfc:	0008c400 	sll	t8,t0,0x10
     d00:	f3000400 	0xf3000400
     d04:	009f5401 	0x9f5401
     d08:	00000000 	nop
     d0c:	e8000000 	swc2	$0,0(zero)
     d10:	ec000007 	swc3	$0,7(zero)
     d14:	02000007 	srav	zero,zero,s0
     d18:	ec007300 	swc3	$0,29440(zero)
     d1c:	00000007 	srav	zero,zero,zero
     d20:	06000008 	bltz	s0,d44 <__isr_vec_space+0xd24>
     d24:	3fc40300 	0x3fc40300
     d28:	00068000 	sll	s0,a2,0x0
     d2c:	14000008 	bnez	zero,d50 <__isr_vec_space+0xd30>
     d30:	02000008 	jr	s0
     d34:	a0007300 	sb	zero,29440(zero)
     d38:	a8000008 	swl	zero,8(zero)
     d3c:	06000008 	bltz	s0,d60 <__isr_vec_space+0xd40>
     d40:	3fc40300 	0x3fc40300
     d44:	00068000 	sll	s0,a2,0x0
     d48:	00000000 	nop
     d4c:	c4000000 	lwc1	$f0,0(zero)
     d50:	cc000008 	pref	0x0,8(zero)
     d54:	01000008 	jr	t0
     d58:	08cc5400 	j	3315000 <__memory_size+0x32f5800>
     d5c:	08e00000 	j	3800000 <__memory_size+0x37e0800>
     d60:	00040000 	sll	zero,a0,0x0
     d64:	9f5401f3 	0x9f5401f3
	...
     d70:	00000058 	0x58
     d74:	0000009f 	0x9f
     d78:	9f540001 	0x9f540001
     d7c:	fc000000 	sdc3	$0,0(zero)
     d80:	01000000 	0x1000000
     d84:	00fc6200 	0xfc6200
     d88:	011b0000 	0x11b0000
     d8c:	00010000 	sll	zero,at,0x0
     d90:	00011b54 	0x11b54
     d94:	00019800 	sll	s3,at,0x0
     d98:	62000100 	0x62000100
     d9c:	00000198 	0x198
     da0:	0000019f 	0x19f
     da4:	9f540001 	0x9f540001
     da8:	cc000001 	pref	0x0,1(zero)
     dac:	01000001 	movf	zero,t0,$fcc0
     db0:	01cc6200 	0x1cc6200
     db4:	01dc0000 	0x1dc0000
     db8:	00040000 	sll	zero,a0,0x0
     dbc:	9f5401f3 	0x9f5401f3
	...
     dc8:	00000058 	0x58
     dcc:	0000009f 	0x9f
     dd0:	9f550001 	0x9f550001
     dd4:	fc000000 	sdc3	$0,0(zero)
     dd8:	01000000 	0x1000000
     ddc:	00fc6100 	0xfc6100
     de0:	011b0000 	0x11b0000
     de4:	00010000 	sll	zero,at,0x0
     de8:	00019852 	0x19852
     dec:	00019f00 	sll	s3,at,0x1c
     df0:	52000100 	beqzl	s0,11f4 <__isr_vec_space+0x11d4>
     df4:	0000019f 	0x19f
     df8:	000001b8 	0x1b8
     dfc:	00610001 	movt	zero,v1,$fcc0
     e00:	00000000 	nop
     e04:	84000000 	lh	zero,0(zero)
     e08:	98000000 	lwr	zero,0(zero)
     e0c:	02000000 	0x2000000
     e10:	149f3000 	bne	a0,ra,ce14 <__isr_vec_space+0xcdf4>
     e14:	60000001 	0x60000001
     e18:	01000001 	movf	zero,t0,$fcc0
     e1c:	01986400 	0x1986400
     e20:	01b80000 	0x1b80000
     e24:	00020000 	sll	zero,v0,0x0
     e28:	00009f31 	tgeu	zero,zero,0x27c
     e2c:	00000000 	nop
     e30:	011c0000 	0x11c0000
     e34:	012b0000 	0x12b0000
     e38:	00010000 	sll	zero,at,0x0
     e3c:	00014852 	0x14852
     e40:	00015700 	sll	t2,at,0x1c
     e44:	52000100 	beqzl	s0,1248 <__isr_vec_space+0x1228>
     e48:	000001a0 	0x1a0
     e4c:	000001af 	0x1af
     e50:	00520001 	0x520001
     e54:	00000000 	nop
     e58:	30000000 	andi	zero,zero,0x0
     e5c:	34000001 	li	zero,0x1
     e60:	01000001 	movf	zero,t0,$fcc0
     e64:	01345200 	0x1345200
     e68:	01980000 	0x1980000
     e6c:	00010000 	sll	zero,at,0x0
     e70:	0001b063 	0x1b063
     e74:	0001b800 	sll	s7,at,0x0
     e78:	52000100 	beqzl	s0,127c <__isr_vec_space+0x125c>
     e7c:	00000000 	nop
     e80:	00000000 	nop
     e84:	00000130 	tge	zero,zero,0x4
     e88:	00000140 	pause
     e8c:	9f310002 	0x9f310002
     e90:	00000140 	pause
     e94:	00000160 	0x160
     e98:	b0600001 	0xb0600001
     e9c:	b8000001 	swr	zero,1(zero)
     ea0:	02000001 	movf	zero,s0,$fcc0
     ea4:	009f3100 	0x9f3100
     ea8:	00000000 	nop
     eac:	a4000000 	sh	zero,0(zero)
     eb0:	b3000000 	0xb3000000
     eb4:	01000000 	0x1000000
     eb8:	00b35200 	0xb35200
     ebc:	00e40000 	0xe40000
     ec0:	00010000 	sll	zero,at,0x0
     ec4:	0000e460 	0xe460
     ec8:	0000f300 	sll	s8,zero,0xc
     ecc:	52000100 	beqzl	s0,12d0 <__isr_vec_space+0x12b0>
     ed0:	000000f3 	tltu	zero,zero,0x3
     ed4:	000000fc 	0xfc
     ed8:	00600001 	movf	zero,v1,$fcc0
     edc:	00000000 	nop
     ee0:	c4000000 	lwc1	$f0,0(zero)
     ee4:	d3000000 	0xd3000000
     ee8:	01000000 	0x1000000
     eec:	00005200 	sll	t2,zero,0x8
     ef0:	00000000 	nop
     ef4:	01dc0000 	0x1dc0000
     ef8:	02480000 	0x2480000
     efc:	00010000 	sll	zero,at,0x0
     f00:	00024854 	0x24854
     f04:	0002d000 	sll	k0,v0,0x0
     f08:	f3000400 	0xf3000400
     f0c:	d09f5401 	0xd09f5401
     f10:	ef000002 	swc3	$0,2(t8)
     f14:	01000002 	0x1000002
     f18:	02ef5400 	0x2ef5400
     f1c:	03100000 	0x3100000
     f20:	00040000 	sll	zero,a0,0x0
     f24:	9f5401f3 	0x9f5401f3
	...
     f30:	000001f8 	0x1f8
     f34:	00000248 	0x248
     f38:	48540001 	0x48540001
     f3c:	d0000002 	0xd0000002
     f40:	04000002 	bltz	zero,f4c <__isr_vec_space+0xf2c>
     f44:	5401f300 	bnel	zero,at,ffffdb48 <__flash_start+0x403fdb48>
     f48:	0002d09f 	0x2d09f
     f4c:	0002ef00 	sll	sp,v0,0x1c
     f50:	54000100 	bnezl	zero,1354 <__isr_vec_space+0x1334>
     f54:	000002ef 	0x2ef
     f58:	00000310 	0x310
     f5c:	01f30004 	sllv	zero,s3,t7
     f60:	00009f54 	0x9f54
     f64:	00000000 	nop
     f68:	01f80000 	0x1f80000
     f6c:	02480000 	0x2480000
     f70:	00070000 	sll	zero,a3,0x0
     f74:	000b0074 	teq	zero,t3,0x1
     f78:	489f1af0 	0x489f1af0
     f7c:	d0000002 	0xd0000002
     f80:	08000002 	j	8 <ABIFlags_isa_ext>
     f84:	5401f300 	bnel	zero,at,ffffdb88 <__flash_start+0x403fdb88>
     f88:	1af0000b 	0x1af0000b
     f8c:	0002d09f 	0x2d09f
     f90:	0002ef00 	sll	sp,v0,0x1c
     f94:	74000700 	jalx	1c00 <__isr_vec_space+0x1be0>
     f98:	f0000b00 	0xf0000b00
     f9c:	02ef9f1a 	0x2ef9f1a
     fa0:	03100000 	0x3100000
     fa4:	00080000 	sll	zero,t0,0x0
     fa8:	0b5401f3 	j	d5007cc <__memory_size+0xd4e0fcc>
     fac:	9f1af000 	0x9f1af000
	...
     fb8:	000001f8 	0x1f8
     fbc:	00000218 	0x218
     fc0:	9f300002 	0x9f300002
     fc4:	00000218 	0x218
     fc8:	0000022c 	0x22c
     fcc:	74600001 	jalx	1800004 <__memory_size+0x17e0804>
     fd0:	a0000002 	sb	zero,2(zero)
     fd4:	01000002 	0x1000002
     fd8:	02a06000 	0x2a06000
     fdc:	02b00000 	0x2b00000
     fe0:	000a0000 	sll	zero,t2,0x0
     fe4:	00415803 	0x415803
     fe8:	00722080 	0x722080
     fec:	02b09f22 	0x2b09f22
     ff0:	02b80000 	0x2b80000
     ff4:	00090000 	sll	zero,t1,0x0
     ff8:	58030072 	0x58030072
     ffc:	1c800041 	bgtz	a0,1104 <__isr_vec_space+0x10e4>
    1000:	0002b89f 	0x2b89f
    1004:	0002c400 	sll	t8,v0,0x10
    1008:	03000a00 	0x3000a00
    100c:	80004158 	lb	zero,16728(zero)
    1010:	22007220 	addi	zero,s0,29216
    1014:	0002d09f 	0x2d09f
    1018:	0002dc00 	sll	k1,v0,0x10
    101c:	30000200 	andi	zero,zero,0x200
    1020:	0002dc9f 	0x2dc9f
    1024:	0002e800 	sll	sp,v0,0x0
    1028:	60000100 	0x60000100
	...
    1034:	00000254 	0x254
    1038:	0000025b 	0x25b
    103c:	5b520001 	0x5b520001
    1040:	70000002 	mul	zero,zero,zero
    1044:	01000002 	0x1000002
    1048:	00006300 	sll	t4,zero,0xc
    104c:	00000000 	nop
    1050:	022c0000 	0x22c0000
    1054:	02480000 	0x2480000
    1058:	00010000 	sll	zero,at,0x0
    105c:	00024854 	0x24854
    1060:	00027000 	sll	t6,v0,0x0
    1064:	61000100 	0x61000100
	...
    1070:	0000023c 	0x23c
    1074:	000002d0 	0x2d0
    1078:	00640001 	movf	zero,v1,$fcc1
    107c:	00000000 	nop
    1080:	3c000000 	lui	zero,0x0
    1084:	48000002 	mfc2	zero,$0,2
    1088:	02000002 	0x2000002
    108c:	489f3000 	mtc2	ra,$6
    1090:	70000002 	mul	zero,zero,zero
    1094:	01000002 	0x1000002
    1098:	02746200 	0x2746200
    109c:	02d00000 	0x2d00000
    10a0:	00010000 	sll	zero,at,0x0
    10a4:	00000054 	0x54
    10a8:	00000000 	nop
    10ac:	00007c00 	sll	t7,zero,0x10
    10b0:	00008800 	sll	s1,zero,0x0
    10b4:	30000200 	andi	zero,zero,0x200
    10b8:	0000c49f 	0xc49f
    10bc:	00014800 	sll	t1,at,0x0
    10c0:	63000100 	0x63000100
	...
    10cc:	0000017c 	0x17c
    10d0:	00000187 	0x187
    10d4:	87520001 	lh	s2,1(k0)
    10d8:	cc000001 	pref	0x0,1(zero)
    10dc:	01000001 	movf	zero,t0,$fcc0
    10e0:	00006000 	sll	t4,zero,0x0
    10e4:	00000000 	nop
    10e8:	018c0000 	0x18c0000
    10ec:	01930000 	0x1930000
    10f0:	00010000 	sll	zero,at,0x0
    10f4:	00019352 	0x19352
    10f8:	0001c800 	sll	t9,at,0x0
    10fc:	61000100 	0x61000100
	...
    1108:	00000010 	mfhi	zero
    110c:	00000014 	0x14
    1110:	9f300002 	0x9f300002
    1114:	00000014 	0x14
    1118:	00000038 	0x38
    111c:	23080006 	addi	t0,t8,6
    1120:	9f1c0080 	0x9f1c0080
	...
    112c:	0000001c 	0x1c
    1130:	00000023 	negu	zero,zero
    1134:	00520001 	0x520001
    1138:	00000000 	nop
    113c:	a0000000 	sb	zero,0(zero)
    1140:	d8000000 	ldc2	$0,0(zero)
    1144:	01000000 	0x1000000
    1148:	00d85400 	0xd85400
    114c:	00e80000 	0xe80000
    1150:	00010000 	sll	zero,at,0x0
    1154:	0000e860 	0xe860
    1158:	0000ec00 	sll	sp,zero,0x10
    115c:	54000100 	bnezl	zero,1560 <__isr_vec_space+0x1540>
    1160:	000000ec 	0xec
    1164:	000000fc 	0xfc
    1168:	fc600001 	sdc3	$0,1(v1)
    116c:	00000000 	nop
    1170:	01000001 	movf	zero,t0,$fcc0
    1174:	01005400 	0x1005400
    1178:	01100000 	0x1100000
    117c:	00010000 	sll	zero,at,0x0
    1180:	00011060 	0x11060
    1184:	00011400 	sll	v0,at,0x10
    1188:	54000100 	bnezl	zero,158c <__isr_vec_space+0x156c>
    118c:	00000114 	0x114
    1190:	0000012c 	0x12c
    1194:	2c600001 	sltiu	zero,v1,1
    1198:	d8000001 	ldc2	$0,1(zero)
    119c:	04000001 	bltz	zero,11a4 <__isr_vec_space+0x1184>
    11a0:	5401f300 	bnel	zero,at,ffffdda4 <__flash_start+0x403fdda4>
    11a4:	0001d89f 	0x1d89f
    11a8:	0001e000 	sll	gp,at,0x0
    11ac:	60000100 	0x60000100
    11b0:	000001e0 	0x1e0
    11b4:	000001f0 	tge	zero,zero,0x7
    11b8:	01f30004 	sllv	zero,s3,t7
    11bc:	00009f54 	0x9f54
    11c0:	00000000 	nop
    11c4:	00a00000 	0xa00000
    11c8:	00df0000 	0xdf0000
    11cc:	00010000 	sll	zero,at,0x0
    11d0:	0000df55 	0xdf55
    11d4:	0000e800 	sll	sp,zero,0x0
    11d8:	f3000400 	0xf3000400
    11dc:	e89f5501 	swc2	$31,21761(a0)
    11e0:	f3000000 	0xf3000000
    11e4:	01000000 	0x1000000
    11e8:	00f35500 	0xf35500
    11ec:	00fc0000 	0xfc0000
    11f0:	00040000 	sll	zero,a0,0x0
    11f4:	9f5501f3 	0x9f5501f3
    11f8:	000000fc 	0xfc
    11fc:	00000107 	0x107
    1200:	07550001 	0x7550001
    1204:	10000001 	b	120c <__isr_vec_space+0x11ec>
    1208:	04000001 	bltz	zero,1210 <__isr_vec_space+0x11f0>
    120c:	5501f300 	bnel	t0,at,ffffde10 <__flash_start+0x403fde10>
    1210:	0001109f 	0x1109f
    1214:	00011b00 	sll	v1,at,0xc
    1218:	55000100 	bnezl	t0,161c <__isr_vec_space+0x15fc>
    121c:	0000011b 	0x11b
    1220:	000001d8 	0x1d8
    1224:	01f30004 	sllv	zero,s3,t7
    1228:	01d89f55 	0x1d89f55
    122c:	01df0000 	0x1df0000
    1230:	00010000 	sll	zero,at,0x0
    1234:	0001df55 	0x1df55
    1238:	0001f000 	sll	s8,at,0x0
    123c:	f3000400 	0xf3000400
    1240:	009f5501 	0x9f5501
    1244:	00000000 	nop
    1248:	2c000000 	sltiu	zero,zero,0
    124c:	33000001 	andi	zero,t8,0x1
    1250:	01000001 	movf	zero,t0,$fcc0
    1254:	00005400 	sll	t2,zero,0x10
    1258:	00000000 	nop
    125c:	012c0000 	0x12c0000
    1260:	01ac0000 	0x1ac0000
    1264:	00010000 	sll	zero,at,0x0
    1268:	00000060 	0x60
    126c:	00000000 	nop
    1270:	00014800 	sll	t1,at,0x0
    1274:	00014c00 	sll	t1,at,0x10
    1278:	52000100 	beqzl	s0,167c <__isr_vec_space+0x165c>
    127c:	00000160 	0x160
    1280:	00000164 	0x164
    1284:	80520001 	lb	s2,1(v0)
    1288:	84000001 	lh	zero,1(zero)
    128c:	01000001 	movf	zero,t0,$fcc0
    1290:	01985200 	0x1985200
    1294:	019c0000 	0x19c0000
    1298:	00010000 	sll	zero,at,0x0
    129c:	00000052 	mflhxu	zero
	...
    12a8:	00001000 	sll	v0,zero,0x0
    12ac:	54000100 	bnezl	zero,16b0 <__isr_vec_space+0x1690>
    12b0:	00000010 	mfhi	zero
    12b4:	0000001b 	divu	zero,zero,zero
    12b8:	1b550001 	0x1b550001
    12bc:	28000000 	slti	zero,zero,0
    12c0:	04000000 	bltz	zero,12c4 <__isr_vec_space+0x12a4>
    12c4:	5401f300 	bnel	zero,at,ffffdec8 <__flash_start+0x403fdec8>
    12c8:	0000009f 	0x9f
	...
    12d4:	00001700 	sll	v0,zero,0x1c
    12d8:	54000100 	bnezl	zero,16dc <__isr_vec_space+0x16bc>
    12dc:	00000017 	0x17
    12e0:	0000003c 	0x3c
    12e4:	00600001 	movf	zero,v1,$fcc0
	...
    12f0:	64000000 	0x64000000
    12f4:	01000000 	0x1000000
    12f8:	00645400 	0x645400
    12fc:	01040000 	0x1040000
    1300:	00010000 	sll	zero,at,0x0
    1304:	00010461 	0x10461
    1308:	00011000 	sll	v0,at,0x0
    130c:	f3000400 	0xf3000400
    1310:	009f5401 	0x9f5401
	...
    131c:	64000000 	0x64000000
    1320:	01000000 	0x1000000
    1324:	00645500 	0x645500
    1328:	006c0000 	0x6c0000
    132c:	00010000 	sll	zero,at,0x0
    1330:	00006c62 	0x6c62
    1334:	00007300 	sll	t6,zero,0xc
    1338:	55000100 	bnezl	t0,173c <__isr_vec_space+0x171c>
    133c:	00000073 	tltu	zero,zero,0x1
    1340:	00000100 	sll	zero,zero,0x4
    1344:	00620001 	0x620001
    1348:	10000001 	b	1350 <__isr_vec_space+0x1330>
    134c:	04000001 	bltz	zero,1354 <__isr_vec_space+0x1334>
    1350:	5501f300 	bnel	t0,at,ffffdf54 <__flash_start+0x403fdf54>
    1354:	0000009f 	0x9f
	...
    1360:	00006400 	sll	t4,zero,0x10
    1364:	56000100 	bnezl	s0,1768 <__isr_vec_space+0x1748>
    1368:	00000064 	0x64
    136c:	0000006c 	0x6c
    1370:	6c640001 	0x6c640001
    1374:	73000000 	madd	t8,zero
    1378:	01000000 	0x1000000
    137c:	00735600 	0x735600
    1380:	00f80000 	0xf80000
    1384:	00010000 	sll	zero,at,0x0
    1388:	0000f864 	0xf864
    138c:	00011000 	sll	v0,at,0x0
    1390:	f3000400 	0xf3000400
    1394:	009f5601 	0x9f5601
	...
    13a0:	64000000 	0x64000000
    13a4:	01000000 	0x1000000
    13a8:	00645700 	0x645700
    13ac:	006c0000 	0x6c0000
    13b0:	00010000 	sll	zero,at,0x0
    13b4:	00006c63 	0x6c63
    13b8:	00007300 	sll	t6,zero,0xc
    13bc:	57000100 	bnezl	t8,17c0 <__isr_vec_space+0x17a0>
    13c0:	00000073 	tltu	zero,zero,0x1
    13c4:	000000fc 	0xfc
    13c8:	fc630001 	sdc3	$3,1(v1)
    13cc:	10000000 	b	13d0 <__isr_vec_space+0x13b0>
    13d0:	04000001 	bltz	zero,13d8 <__isr_vec_space+0x13b8>
    13d4:	5701f300 	bnel	t8,at,ffffdfd8 <__flash_start+0x403fdfd8>
    13d8:	0000009f 	0x9f
    13dc:	00000000 	nop
    13e0:	00009c00 	sll	s3,zero,0x10
    13e4:	0000d400 	sll	k0,zero,0x10
    13e8:	72000400 	0x72000400
    13ec:	009f0188 	0x9f0188
    13f0:	00000000 	nop
    13f4:	34000000 	li	zero,0x0
    13f8:	58000000 	blezl	zero,13fc <__isr_vec_space+0x13dc>
    13fc:	01000000 	0x1000000
    1400:	00585200 	0x585200
    1404:	00640000 	0x640000
    1408:	00030000 	sll	zero,v1,0x0
    140c:	6c02c880 	0x6c02c880
    1410:	73000000 	madd	t8,zero
    1414:	03000000 	0x3000000
    1418:	02c88000 	0x2c88000
    141c:	00000074 	teq	zero,zero,0x1
    1420:	000000e8 	0xe8
    1424:	00520001 	0x520001
	...
    1430:	4c000000 	lwxc1	$f0,zero(zero)
    1434:	01000000 	0x1000000
    1438:	004c5400 	0x4c5400
    143c:	01600000 	0x1600000
    1440:	00010000 	sll	zero,at,0x0
    1444:	00016066 	0x16066
    1448:	00018000 	sll	s0,at,0x0
    144c:	f3000400 	0xf3000400
    1450:	009f5401 	0x9f5401
	...
    145c:	4c000000 	lwxc1	$f0,zero(zero)
    1460:	01000000 	0x1000000
    1464:	004c5500 	0x4c5500
    1468:	01680000 	0x1680000
    146c:	00010000 	sll	zero,at,0x0
    1470:	00016864 	0x16864
    1474:	00018000 	sll	s0,at,0x0
    1478:	f3000400 	0xf3000400
    147c:	009f5501 	0x9f5501
    1480:	00000000 	nop
    1484:	10000000 	b	1488 <__isr_vec_space+0x1468>
    1488:	18000001 	blez	zero,1490 <__isr_vec_space+0x1470>
    148c:	02000001 	movf	zero,s0,$fcc0
    1490:	1c008200 	bgtz	zero,fffe1c94 <__flash_start+0x403e1c94>
    1494:	24000001 	li	zero,1
    1498:	01000001 	movf	zero,t0,$fcc0
    149c:	00005200 	sll	t2,zero,0x8
    14a0:	00000000 	nop
    14a4:	00580000 	0x580000
    14a8:	011c0000 	0x11c0000
    14ac:	00010000 	sll	zero,at,0x0
    14b0:	00011c62 	0x11c62
    14b4:	00012400 	sll	a0,at,0x10
    14b8:	52000100 	beqzl	s0,18bc <__isr_vec_space+0x189c>
    14bc:	00000124 	0x124
    14c0:	00000170 	tge	zero,zero,0x5
    14c4:	00620001 	0x620001
    14c8:	00000000 	nop
    14cc:	10000000 	b	14d0 <__isr_vec_space+0x14b0>
    14d0:	18000001 	blez	zero,14d8 <__isr_vec_space+0x14b8>
    14d4:	07000001 	bltz	t8,14dc <__isr_vec_space+0x14bc>
    14d8:	06008200 	bltz	s0,fffe1cdc <__flash_start+0x403e1cdc>
    14dc:	9f018823 	0x9f018823
    14e0:	0000011c 	0x11c
    14e4:	00000124 	0x124
    14e8:	88720004 	lwl	s2,4(v1)
    14ec:	00009f01 	0x9f01
    14f0:	00000000 	nop
    14f4:	00680000 	0x680000
    14f8:	01540000 	0x1540000
    14fc:	00010000 	sll	zero,at,0x0
    1500:	00000065 	0x65
    1504:	00000000 	nop
    1508:	00007800 	sll	t7,zero,0x0
    150c:	0000e400 	sll	gp,zero,0x10
    1510:	31000500 	andi	zero,t0,0x500
    1514:	9f240085 	0x9f240085
    1518:	000000e4 	0xe4
    151c:	000000ec 	0xec
    1520:	85310005 	lh	s1,5(t1)
    1524:	249f2401 	addiu	ra,a0,9217
    1528:	54000001 	bnezl	zero,1530 <__isr_vec_space+0x1510>
    152c:	05000001 	bltz	t0,1534 <__isr_vec_space+0x1514>
    1530:	00853100 	0x853100
    1534:	00009f24 	0x9f24
    1538:	00000000 	nop
    153c:	00900000 	0x900000
    1540:	00c70000 	0xc70000
    1544:	00010000 	sll	zero,at,0x0
    1548:	00012453 	0x12453
    154c:	00013b00 	sll	a3,at,0xc
    1550:	53000100 	beqzl	t8,1954 <__isr_vec_space+0x1934>
    1554:	00000144 	0x144
    1558:	0000014b 	0x14b
    155c:	00530001 	0x530001
    1560:	00000000 	nop
    1564:	b4000000 	0xb4000000
    1568:	e0000000 	sc	zero,0(zero)
    156c:	01000000 	0x1000000
    1570:	01246e00 	0x1246e00
    1574:	01540000 	0x1540000
    1578:	00010000 	sll	zero,at,0x0
    157c:	0000006e 	0x6e
	...
    1588:	00003400 	sll	a2,zero,0x10
    158c:	54000100 	bnezl	zero,1990 <__isr_vec_space+0x1970>
    1590:	00000034 	teq	zero,zero
    1594:	00000088 	0x88
    1598:	00630001 	0x630001
	...
    15a4:	38000000 	xori	zero,zero,0x0
    15a8:	01000000 	0x1000000
    15ac:	00385400 	0x385400
    15b0:	004c0000 	0x4c0000
    15b4:	00010000 	sll	zero,at,0x0
    15b8:	00000056 	0x56
	...
    15c4:	00003800 	sll	a3,zero,0x0
    15c8:	55000100 	bnezl	t0,19cc <__isr_vec_space+0x19ac>
    15cc:	00000038 	0x38
    15d0:	0000004c 	syscall	0x1
    15d4:	00570001 	0x570001
	...
    15e0:	2b000000 	slti	zero,t8,0
    15e4:	01000000 	0x1000000
    15e8:	002b5400 	0x2b5400
    15ec:	00b40000 	0xb40000
    15f0:	00010000 	sll	zero,at,0x0
    15f4:	0000b461 	0xb461
    15f8:	0000c000 	sll	t8,zero,0x0
    15fc:	f3000400 	0xf3000400
    1600:	009f5401 	0x9f5401
	...
    160c:	2b000000 	slti	zero,t8,0
    1610:	01000000 	0x1000000
    1614:	002b5500 	0x2b5500
    1618:	00b00000 	0xb00000
    161c:	00010000 	sll	zero,at,0x0
    1620:	0000b062 	0xb062
    1624:	0000c000 	sll	t8,zero,0x0
    1628:	f3000400 	0xf3000400
    162c:	009f5501 	0x9f5501
	...
    1638:	2b000000 	slti	zero,t8,0
    163c:	01000000 	0x1000000
    1640:	002b5600 	0x2b5600
    1644:	00b80000 	0xb80000
    1648:	00010000 	sll	zero,at,0x0
    164c:	0000b860 	0xb860
    1650:	0000c000 	sll	t8,zero,0x0
    1654:	f3000400 	0xf3000400
    1658:	009f5601 	0x9f5601
    165c:	00000000 	nop
    1660:	04000000 	bltz	zero,1664 <__isr_vec_space+0x1644>
    1664:	54000000 	bnezl	zero,1668 <__isr_vec_space+0x1648>
    1668:	02000000 	0x2000000
    166c:	54689100 	bnel	v1,t0,fffe5a70 <__flash_start+0x403e5a70>
    1670:	87000000 	lh	zero,0(t8)
    1674:	02000000 	0x2000000
    1678:	87007500 	lh	zero,29952(t8)
    167c:	b8000000 	swr	zero,0(zero)
    1680:	02000000 	0x2000000
    1684:	b8689100 	swr	t0,-28416(v1)
    1688:	c0000000 	ll	zero,0(zero)
    168c:	02000000 	0x2000000
    1690:	00688d00 	0x688d00
    1694:	00000000 	nop
    1698:	3c000000 	lui	zero,0x0
    169c:	4c000000 	lwxc1	$f0,zero(zero)
    16a0:	02000000 	0x2000000
    16a4:	609f4c00 	0x609f4c00
    16a8:	68000000 	0x68000000
    16ac:	01000000 	0x1000000
    16b0:	00685200 	0x685200
    16b4:	00740000 	0x740000
    16b8:	00090000 	sll	zero,t1,0x0
    16bc:	1c007331 	bgtz	zero,1e384 <__isr_vec_space+0x1e364>
    16c0:	1c232432 	0x1c232432
    16c4:	0000749f 	0x749f
    16c8:	00008700 	sll	s0,zero,0x1c
    16cc:	73000800 	madd	$ac1,t8,zero
    16d0:	1efc0900 	0x1efc0900
    16d4:	009f1c23 	0x9f1c23
    16d8:	00000000 	nop
    16dc:	04000000 	bltz	zero,16e0 <__isr_vec_space+0x16c0>
    16e0:	4c000000 	lwxc1	$f0,zero(zero)
    16e4:	02000000 	0x2000000
    16e8:	609f3000 	0x609f3000
    16ec:	87000000 	lh	zero,0(t8)
    16f0:	01000000 	0x1000000
    16f4:	00005300 	sll	t2,zero,0xc
    16f8:	00000000 	nop
    16fc:	00c00000 	0xc00000
    1700:	00c70000 	0xc70000
    1704:	00010000 	sll	zero,at,0x0
    1708:	0000c754 	0xc754
    170c:	0000c800 	sll	t9,zero,0x0
    1710:	f3000400 	0xf3000400
    1714:	009f5401 	0x9f5401
    1718:	00000000 	nop
    171c:	c0000000 	ll	zero,0(zero)
    1720:	c7000000 	lwc1	$f0,0(t8)
    1724:	01000000 	0x1000000
    1728:	00c75500 	0xc75500
    172c:	00c80000 	0xc80000
    1730:	00040000 	sll	zero,a0,0x0
    1734:	9f5501f3 	0x9f5501f3
	...
    1740:	000000c0 	ehb
    1744:	000000c7 	0xc7
    1748:	c7560001 	lwc1	$f22,1(k0)
    174c:	c8000000 	lwc2	$0,0(zero)
    1750:	04000000 	bltz	zero,1754 <__isr_vec_space+0x1734>
    1754:	5601f300 	bnel	s0,at,ffffe358 <__flash_start+0x403fe358>
    1758:	0000009f 	0x9f
    175c:	00000000 	nop
    1760:	0000c800 	sll	t9,zero,0x0
    1764:	00011000 	sll	v0,at,0x0
    1768:	54000100 	bnezl	zero,1b6c <__isr_vec_space+0x1b4c>
    176c:	00000110 	0x110
    1770:	00000118 	0x118
    1774:	18600001 	blez	v1,177c <__isr_vec_space+0x175c>
    1778:	1c000001 	bgtz	zero,1780 <__isr_vec_space+0x1760>
    177c:	01000001 	movf	zero,t0,$fcc0
    1780:	011c5400 	0x11c5400
    1784:	01240000 	0x1240000
    1788:	00010000 	sll	zero,at,0x0
    178c:	00012460 	0x12460
    1790:	00012800 	sll	a1,at,0x0
    1794:	54000100 	bnezl	zero,1b98 <__isr_vec_space+0x1b78>
    1798:	00000128 	0x128
    179c:	00000130 	tge	zero,zero,0x4
    17a0:	30600001 	andi	zero,v1,0x1
    17a4:	34000001 	li	zero,0x1
    17a8:	01000001 	movf	zero,t0,$fcc0
    17ac:	01345400 	0x1345400
    17b0:	01500000 	0x1500000
    17b4:	00010000 	sll	zero,at,0x0
    17b8:	00015060 	0x15060
    17bc:	00015400 	sll	t2,at,0x10
    17c0:	54000100 	bnezl	zero,1bc4 <__isr_vec_space+0x1ba4>
    17c4:	00000154 	0x154
    17c8:	0000015c 	0x15c
    17cc:	5c600001 	bgtzl	v1,17d4 <__isr_vec_space+0x17b4>
    17d0:	64000001 	0x64000001
    17d4:	01000001 	movf	zero,t0,$fcc0
    17d8:	01645400 	0x1645400
    17dc:	017c0000 	0x17c0000
    17e0:	00010000 	sll	zero,at,0x0
    17e4:	00017c60 	0x17c60
    17e8:	00018400 	sll	s0,at,0x10
    17ec:	54000100 	bnezl	zero,1bf0 <__isr_vec_space+0x1bd0>
    17f0:	00000184 	0x184
    17f4:	00000190 	0x190
    17f8:	90600001 	lbu	zero,1(v1)
    17fc:	a8000001 	swl	zero,1(zero)
    1800:	01000001 	movf	zero,t0,$fcc0
    1804:	01a85400 	0x1a85400
    1808:	01ec0000 	0x1ec0000
    180c:	00010000 	sll	zero,at,0x0
    1810:	0001ec60 	0x1ec60
    1814:	0001fc00 	sll	ra,at,0x10
    1818:	54000100 	bnezl	zero,1c1c <__isr_vec_space+0x1bfc>
    181c:	000001fc 	0x1fc
    1820:	0000021c 	0x21c
    1824:	1c600001 	bgtz	v1,182c <__isr_vec_space+0x180c>
    1828:	23000002 	addi	zero,t8,2
    182c:	01000002 	0x1000002
    1830:	02235400 	0x2235400
    1834:	02240000 	0x2240000
    1838:	00040000 	sll	zero,a0,0x0
    183c:	9f5401f3 	0x9f5401f3
    1840:	00000224 	0x224
    1844:	00000243 	sra	zero,zero,0x9
    1848:	43540001 	c0	0x1540001
    184c:	60000002 	0x60000002
    1850:	01000002 	0x1000002
    1854:	02606000 	0x2606000
    1858:	02670000 	0x2670000
    185c:	00010000 	sll	zero,at,0x0
    1860:	00026754 	0x26754
    1864:	00026800 	sll	t5,v0,0x0
    1868:	f3000400 	0xf3000400
    186c:	689f5401 	0x689f5401
    1870:	6c000002 	0x6c000002
    1874:	01000002 	0x1000002
    1878:	026c5400 	0x26c5400
    187c:	02740000 	0x2740000
    1880:	00010000 	sll	zero,at,0x0
    1884:	00027460 	0x27460
    1888:	00027800 	sll	t7,v0,0x0
    188c:	54000100 	bnezl	zero,1c90 <__isr_vec_space+0x1c70>
    1890:	00000278 	0x278
    1894:	00000280 	sll	zero,zero,0xa
    1898:	80600001 	lb	zero,1(v1)
    189c:	84000002 	lh	zero,2(zero)
    18a0:	01000002 	0x1000002
    18a4:	02845400 	0x2845400
    18a8:	028c0000 	0x28c0000
    18ac:	00010000 	sll	zero,at,0x0
    18b0:	00028c60 	0x28c60
    18b4:	00029400 	sll	s2,v0,0x10
    18b8:	54000100 	bnezl	zero,1cbc <__isr_vec_space+0x1c9c>
    18bc:	00000294 	0x294
    18c0:	000002a0 	0x2a0
    18c4:	a0600001 	sb	zero,1(v1)
    18c8:	a8000002 	swl	zero,2(zero)
    18cc:	01000002 	0x1000002
    18d0:	02a85400 	0x2a85400
    18d4:	02b40000 	0x2b40000
    18d8:	00010000 	sll	zero,at,0x0
    18dc:	0002b460 	0x2b460
    18e0:	0002dc00 	sll	k1,v0,0x10
    18e4:	54000100 	bnezl	zero,1ce8 <__isr_vec_space+0x1cc8>
    18e8:	000002dc 	0x2dc
    18ec:	00000310 	0x310
    18f0:	10600001 	beqz	v1,18f8 <__isr_vec_space+0x18d8>
    18f4:	38000003 	xori	zero,zero,0x3
    18f8:	01000003 	0x1000003
    18fc:	03385400 	0x3385400
    1900:	036c0000 	0x36c0000
    1904:	00010000 	sll	zero,at,0x0
    1908:	00036c60 	0x36c60
    190c:	00037400 	sll	t6,v1,0x10
    1910:	54000100 	bnezl	zero,1d14 <__isr_vec_space+0x1cf4>
    1914:	00000374 	teq	zero,zero,0xd
    1918:	0000037c 	0x37c
    191c:	7c600001 	0x7c600001
    1920:	84000003 	lh	zero,3(zero)
    1924:	01000003 	0x1000003
    1928:	03845400 	0x3845400
    192c:	03900000 	0x3900000
    1930:	00010000 	sll	zero,at,0x0
    1934:	00039060 	0x39060
    1938:	00039800 	sll	s3,v1,0x0
    193c:	54000100 	bnezl	zero,1d40 <__isr_vec_space+0x1d20>
    1940:	00000398 	0x398
    1944:	000003a4 	0x3a4
    1948:	a4600001 	sh	zero,1(v1)
    194c:	ac000003 	sw	zero,3(zero)
    1950:	01000003 	0x1000003
    1954:	03ac5400 	0x3ac5400
    1958:	03b80000 	0x3b80000
    195c:	00010000 	sll	zero,at,0x0
    1960:	0003b860 	0x3b860
    1964:	0003c000 	sll	t8,v1,0x0
    1968:	54000100 	bnezl	zero,1d6c <__isr_vec_space+0x1d4c>
    196c:	000003c0 	sll	zero,zero,0xf
    1970:	000003cc 	syscall	0xf
    1974:	cc600001 	pref	0x0,1(v1)
    1978:	d0000003 	0xd0000003
    197c:	01000003 	0x1000003
    1980:	03d05400 	0x3d05400
    1984:	03d80000 	0x3d80000
    1988:	00010000 	sll	zero,at,0x0
    198c:	0003d860 	0x3d860
    1990:	0003dc00 	sll	k1,v1,0x10
    1994:	54000100 	bnezl	zero,1d98 <__isr_vec_space+0x1d78>
    1998:	000003dc 	0x3dc
    199c:	000003e4 	0x3e4
    19a0:	e4600001 	swc1	$f0,1(v1)
    19a4:	e8000003 	swc2	$0,3(zero)
    19a8:	01000003 	0x1000003
    19ac:	03e85400 	0x3e85400
    19b0:	03f40000 	0x3f40000
    19b4:	00010000 	sll	zero,at,0x0
    19b8:	0003f460 	0x3f460
    19bc:	0003fc00 	sll	ra,v1,0x10
    19c0:	54000100 	bnezl	zero,1dc4 <__isr_vec_space+0x1da4>
    19c4:	000003fc 	0x3fc
    19c8:	00000408 	jr.hb	zero
    19cc:	08600001 	j	1800004 <__memory_size+0x17e0804>
    19d0:	10000004 	b	19e4 <__isr_vec_space+0x19c4>
    19d4:	01000004 	sllv	zero,zero,t0
    19d8:	04105400 	bltzal	zero,169dc <__isr_vec_space+0x169bc>
    19dc:	041c0000 	bposge32	19e0 <__isr_vec_space+0x19c0>
    19e0:	00010000 	sll	zero,at,0x0
    19e4:	00041c60 	0x41c60
    19e8:	00042400 	sll	a0,a0,0x10
    19ec:	54000100 	bnezl	zero,1df0 <__isr_vec_space+0x1dd0>
    19f0:	00000424 	0x424
    19f4:	00000430 	tge	zero,zero,0x10
    19f8:	30600001 	andi	zero,v1,0x1
    19fc:	38000004 	xori	zero,zero,0x4
    1a00:	01000004 	sllv	zero,zero,t0
    1a04:	04385400 	0x4385400
    1a08:	04440000 	0x4440000
    1a0c:	00010000 	sll	zero,at,0x0
    1a10:	00044460 	0x44460
    1a14:	00044800 	sll	t1,a0,0x0
    1a18:	54000100 	bnezl	zero,1e1c <__isr_vec_space+0x1dfc>
    1a1c:	00000448 	0x448
    1a20:	000007a4 	0x7a4
    1a24:	a4600001 	sh	zero,1(v1)
    1a28:	ac000007 	sw	zero,7(zero)
    1a2c:	04000007 	bltz	zero,1a4c <__isr_vec_space+0x1a2c>
    1a30:	5401f300 	bnel	zero,at,ffffe634 <__flash_start+0x403fe634>
    1a34:	0000009f 	0x9f
    1a38:	00000000 	nop
    1a3c:	0000c800 	sll	t9,zero,0x0
    1a40:	00010c00 	sll	at,at,0x10
    1a44:	55000100 	bnezl	t0,1e48 <__isr_vec_space+0x1e28>
    1a48:	0000010c 	syscall	0x4
    1a4c:	00000118 	0x118
    1a50:	01f30004 	sllv	zero,s3,t7
    1a54:	01189f55 	0x1189f55
    1a58:	013c0000 	0x13c0000
    1a5c:	00010000 	sll	zero,at,0x0
    1a60:	00013c55 	0x13c55
    1a64:	00015000 	sll	t2,at,0x0
    1a68:	f3000400 	0xf3000400
    1a6c:	509f5501 	beql	a0,ra,16e74 <__isr_vec_space+0x16e54>
    1a70:	60000001 	0x60000001
    1a74:	01000001 	movf	zero,t0,$fcc0
    1a78:	01605500 	0x1605500
    1a7c:	017c0000 	0x17c0000
    1a80:	00040000 	sll	zero,a0,0x0
    1a84:	9f5501f3 	0x9f5501f3
    1a88:	0000017c 	0x17c
    1a8c:	00000180 	sll	zero,zero,0x6
    1a90:	80550001 	lb	s5,1(v0)
    1a94:	90000001 	lbu	zero,1(zero)
    1a98:	04000001 	bltz	zero,1aa0 <__isr_vec_space+0x1a80>
    1a9c:	5501f300 	bnel	t0,at,ffffe6a0 <__flash_start+0x403fe6a0>
    1aa0:	0001909f 	0x1909f
    1aa4:	0001b400 	sll	s6,at,0x10
    1aa8:	55000100 	bnezl	t0,1eac <__isr_vec_space+0x1e8c>
    1aac:	000001b4 	teq	zero,zero,0x6
    1ab0:	000001c0 	sll	zero,zero,0x7
    1ab4:	01f30004 	sllv	zero,s3,t7
    1ab8:	01c09f55 	0x1c09f55
    1abc:	01c40000 	0x1c40000
    1ac0:	00010000 	sll	zero,at,0x0
    1ac4:	0001c455 	0x1c455
    1ac8:	0001ec00 	sll	sp,at,0x10
    1acc:	f3000400 	0xf3000400
    1ad0:	ec9f5501 	swc3	$31,21761(a0)
    1ad4:	fc000001 	sdc3	$0,1(zero)
    1ad8:	01000001 	movf	zero,t0,$fcc0
    1adc:	01fc5500 	0x1fc5500
    1ae0:	02240000 	0x2240000
    1ae4:	00040000 	sll	zero,a0,0x0
    1ae8:	9f5501f3 	0x9f5501f3
    1aec:	00000224 	0x224
    1af0:	00000243 	sra	zero,zero,0x9
    1af4:	43550001 	c0	0x1550001
    1af8:	68000002 	0x68000002
    1afc:	04000002 	bltz	zero,1b08 <__isr_vec_space+0x1ae8>
    1b00:	5501f300 	bnel	t0,at,ffffe704 <__flash_start+0x403fe704>
    1b04:	0002689f 	0x2689f
    1b08:	00029000 	sll	s2,v0,0x0
    1b0c:	55000100 	bnezl	t0,1f10 <__isr_vec_space+0x1ef0>
    1b10:	00000290 	0x290
    1b14:	000002a0 	0x2a0
    1b18:	01f30004 	sllv	zero,s3,t7
    1b1c:	02a09f55 	0x2a09f55
    1b20:	02a40000 	0x2a40000
    1b24:	00010000 	sll	zero,at,0x0
    1b28:	0002a455 	0x2a455
    1b2c:	0002b400 	sll	s6,v0,0x10
    1b30:	f3000400 	0xf3000400
    1b34:	b49f5501 	0xb49f5501
    1b38:	00000002 	srl	zero,zero,0x0
    1b3c:	01000003 	0x1000003
    1b40:	03005500 	0x3005500
    1b44:	03100000 	0x3100000
    1b48:	00040000 	sll	zero,a0,0x0
    1b4c:	9f5501f3 	0x9f5501f3
    1b50:	00000310 	0x310
    1b54:	0000035c 	0x35c
    1b58:	5c550001 	0x5c550001
    1b5c:	6c000003 	0x6c000003
    1b60:	04000003 	bltz	zero,1b70 <__isr_vec_space+0x1b50>
    1b64:	5501f300 	bnel	t0,at,ffffe768 <__flash_start+0x403fe768>
    1b68:	00036c9f 	0x36c9f
    1b6c:	00037000 	sll	t6,v1,0x0
    1b70:	55000100 	bnezl	t0,1f74 <__isr_vec_space+0x1f54>
    1b74:	00000370 	tge	zero,zero,0xd
    1b78:	0000037c 	0x37c
    1b7c:	01f30004 	sllv	zero,s3,t7
    1b80:	037c9f55 	0x37c9f55
    1b84:	03800000 	0x3800000
    1b88:	00010000 	sll	zero,at,0x0
    1b8c:	00038055 	0x38055
    1b90:	00039000 	sll	s2,v1,0x0
    1b94:	f3000400 	0xf3000400
    1b98:	909f5501 	lbu	ra,21761(a0)
    1b9c:	94000003 	lhu	zero,3(zero)
    1ba0:	01000003 	0x1000003
    1ba4:	03945500 	0x3945500
    1ba8:	03a40000 	0x3a40000
    1bac:	00040000 	sll	zero,a0,0x0
    1bb0:	9f5501f3 	0x9f5501f3
    1bb4:	000003a4 	0x3a4
    1bb8:	000003a8 	0x3a8
    1bbc:	a8550001 	swl	s5,1(v0)
    1bc0:	b8000003 	swr	zero,3(zero)
    1bc4:	04000003 	bltz	zero,1bd4 <__isr_vec_space+0x1bb4>
    1bc8:	5501f300 	bnel	t0,at,ffffe7cc <__flash_start+0x403fe7cc>
    1bcc:	0003b89f 	0x3b89f
    1bd0:	0003bc00 	sll	s7,v1,0x10
    1bd4:	55000100 	bnezl	t0,1fd8 <__isr_vec_space+0x1fb8>
    1bd8:	000003bc 	0x3bc
    1bdc:	000003cc 	syscall	0xf
    1be0:	01f30004 	sllv	zero,s3,t7
    1be4:	03cc9f55 	0x3cc9f55
    1be8:	03ec0000 	0x3ec0000
    1bec:	00010000 	sll	zero,at,0x0
    1bf0:	0003ec55 	0x3ec55
    1bf4:	0003f400 	sll	s8,v1,0x10
    1bf8:	f3000400 	0xf3000400
    1bfc:	f49f5501 	sdc1	$f31,21761(a0)
    1c00:	f8000003 	sdc2	$0,3(zero)
    1c04:	01000003 	0x1000003
    1c08:	03f85500 	0x3f85500
    1c0c:	04080000 	tgei	zero,0
    1c10:	00040000 	sll	zero,a0,0x0
    1c14:	9f5501f3 	0x9f5501f3
    1c18:	00000408 	jr.hb	zero
    1c1c:	0000040c 	syscall	0x10
    1c20:	0c550001 	jal	1540004 <__memory_size+0x1520804>
    1c24:	1c000004 	bgtz	zero,1c38 <__isr_vec_space+0x1c18>
    1c28:	04000004 	bltz	zero,1c3c <__isr_vec_space+0x1c1c>
    1c2c:	5501f300 	bnel	t0,at,ffffe830 <__flash_start+0x403fe830>
    1c30:	00041c9f 	0x41c9f
    1c34:	00042000 	sll	a0,a0,0x0
    1c38:	55000100 	bnezl	t0,203c <__isr_vec_space+0x201c>
    1c3c:	00000420 	0x420
    1c40:	00000430 	tge	zero,zero,0x10
    1c44:	01f30004 	sllv	zero,s3,t7
    1c48:	04309f55 	bltzal	at,fffe99a0 <__flash_start+0x403e99a0>
    1c4c:	04340000 	0x4340000
    1c50:	00010000 	sll	zero,at,0x0
    1c54:	00043455 	0x43455
    1c58:	00044400 	sll	t0,a0,0x10
    1c5c:	f3000400 	0xf3000400
    1c60:	449f5501 	0x449f5501
    1c64:	4c000004 	mfc3	zero,$0,4
    1c68:	01000004 	sllv	zero,zero,t0
    1c6c:	044c5500 	teqi	v0,21760
    1c70:	07ac0000 	teqi	sp,0
    1c74:	00040000 	sll	zero,a0,0x0
    1c78:	9f5501f3 	0x9f5501f3
	...
    1c84:	000002c8 	0x2c8
    1c88:	000002cc 	syscall	0xb
    1c8c:	00520001 	0x520001
    1c90:	00000000 	nop
    1c94:	d8000000 	ldc2	$0,0(zero)
    1c98:	e0000002 	sc	zero,2(zero)
    1c9c:	01000002 	0x1000002
    1ca0:	00005300 	sll	t2,zero,0xc
    1ca4:	00000000 	nop
    1ca8:	02ec0000 	0x2ec0000
    1cac:	02f00000 	0x2f00000
    1cb0:	000d0000 	sll	zero,t5,0x0
    1cb4:	ff110072 	sdc3	$17,114(t8)
    1cb8:	1a77f7ff 	0x1a77f7ff
    1cbc:	21244440 	addi	a0,t1,17472
    1cc0:	0000009f 	0x9f
    1cc4:	00000000 	nop
    1cc8:	0002ec00 	sll	sp,v0,0x10
    1ccc:	0002f000 	sll	s8,v0,0x0
    1cd0:	52000100 	beqzl	s0,20d4 <__isr_vec_space+0x20b4>
    1cd4:	00000000 	nop
    1cd8:	00000000 	nop
    1cdc:	00000324 	0x324
    1ce0:	00000328 	0x328
    1ce4:	00520001 	0x520001
    1ce8:	00000000 	nop
    1cec:	34000000 	li	zero,0x0
    1cf0:	3c000003 	lui	zero,0x3
    1cf4:	01000003 	0x1000003
    1cf8:	00005300 	sll	t2,zero,0xc
    1cfc:	00000000 	nop
    1d00:	03480000 	0x3480000
    1d04:	034c0000 	0x34c0000
    1d08:	000d0000 	sll	zero,t5,0x0
    1d0c:	ff110072 	sdc3	$17,114(t8)
    1d10:	1a77f7ff 	0x1a77f7ff
    1d14:	21244440 	addi	a0,t1,17472
    1d18:	0000009f 	0x9f
    1d1c:	00000000 	nop
    1d20:	00034800 	sll	t1,v1,0x0
    1d24:	00034c00 	sll	t1,v1,0x10
    1d28:	52000100 	beqzl	s0,212c <__isr_vec_space+0x210c>
    1d2c:	00000000 	nop
	...
    1d38:	00000018 	mult	zero,zero
    1d3c:	18540001 	0x18540001
    1d40:	50000000 	beqzl	zero,1d44 <__isr_vec_space+0x1d24>
    1d44:	04000000 	bltz	zero,1d48 <__isr_vec_space+0x1d28>
    1d48:	5401f300 	bnel	zero,at,ffffe94c <__flash_start+0x403fe94c>
    1d4c:	0000009f 	0x9f
	...
    1d58:	00001800 	sll	v1,zero,0x0
    1d5c:	55000100 	bnezl	t0,2160 <__isr_vec_space+0x2140>
    1d60:	00000018 	mult	zero,zero
    1d64:	00000050 	0x50
    1d68:	01f30004 	sllv	zero,s3,t7
    1d6c:	00009f55 	0x9f55
	...
    1d78:	00330000 	0x330000
    1d7c:	00010000 	sll	zero,at,0x0
    1d80:	00003356 	0x3356
    1d84:	00005000 	sll	t2,zero,0x0
    1d88:	f3000400 	0xf3000400
    1d8c:	009f5601 	0x9f5601
	...
    1d98:	08000000 	j	0 <hardware_exit_hook>
    1d9c:	01000000 	0x1000000
    1da0:	00085400 	sll	t2,t0,0x10
    1da4:	00440000 	0x440000
    1da8:	00010000 	sll	zero,at,0x0
    1dac:	00000058 	0x58
    1db0:	00000000 	nop
	...

Disassembly of section .debug_ranges:

00000000 <.debug_ranges>:
   0:	000002f4 	teq	zero,zero,0xb
   4:	000002fc 	0x2fc
   8:	00000314 	0x314
   c:	00000324 	0x324
	...
  18:	00000284 	0x284
  1c:	00000298 	0x298
  20:	000002a8 	0x2a8
  24:	000002b4 	teq	zero,zero,0xa
  28:	000002e4 	0x2e4
  2c:	000002ec 	0x2ec
	...
  38:	0000030c 	syscall	0xc
  3c:	0000031c 	0x31c
  40:	00000330 	tge	zero,zero,0xc
  44:	00000338 	0x338
  48:	00000364 	0x364
  4c:	0000036c 	0x36c
	...
  58:	000003c4 	0x3c4
  5c:	000003c8 	0x3c8
  60:	000003dc 	0x3dc
  64:	000003e0 	0x3e0
	...
  70:	000004b0 	tge	zero,zero,0x12
  74:	000004c0 	sll	zero,zero,0x13
  78:	000004d4 	0x4d4
  7c:	000004dc 	0x4dc
  80:	00000510 	0x510
  84:	00000518 	0x518
	...
  90:	00000724 	0x724
  94:	00000728 	0x728
  98:	0000075c 	0x75c
  9c:	0000079c 	0x79c
	...
  a8:	000007e8 	0x7e8
  ac:	000007f0 	tge	zero,zero,0x1f
  b0:	00000800 	sll	at,zero,0x0
  b4:	00000808 	0x808
	...
  c0:	00000084 	0x84
  c4:	00000098 	0x98
  c8:	000000fc 	0xfc
  cc:	000001b0 	tge	zero,zero,0x6
	...
  d8:	00000014 	0x14
  dc:	00000018 	mult	zero,zero
  e0:	00000078 	0x78
  e4:	000000e0 	0xe0
  e8:	00000124 	0x124
  ec:	0000014c 	syscall	0x5
	...
  f8:	ffffffff 	sdc3	$31,-1(ra)
  fc:	00000000 	nop
 100:	80000000 	lb	zero,0(zero)
 104:	80000194 	lb	zero,404(zero)
 108:	8000339c 	lb	zero,13212(zero)
 10c:	80003564 	lb	zero,13668(zero)
	...

Disassembly of section .reginfo:

00000000 <.reginfo>:
   0:	b200037c 	0xb200037c
	...
  14:	8000bf90 	lb	zero,-16496(zero)

Disassembly of section .pdr:

00000000 <.pdr>:
   0:	80000204 	lb	zero,516(zero)
	...
  20:	80000320 	lb	zero,800(zero)
	...
  40:	80000384 	lb	zero,900(zero)
	...
  60:	80000458 	lb	zero,1112(zero)
	...
  80:	8000063c 	lb	zero,1596(zero)
	...
  a0:	8000063c 	lb	zero,1596(zero)
	...
  c0:	80000640 	lb	zero,1600(zero)
	...
  e0:	800006c0 	lb	zero,1728(zero)
	...
  f8:	0000001d 	0x1d
  fc:	0000001f 	0x1f
 100:	800006d0 	lb	zero,1744(zero)
	...
 114:	00000008 	jr	zero
 118:	0000001d 	0x1d
 11c:	0000001f 	0x1f
 120:	8000071c 	lb	zero,1820(zero)
 124:	80000000 	lb	zero,0(zero)
 128:	fffffffc 	sdc3	$31,-4(ra)
	...
 134:	00000028 	0x28
 138:	0000001d 	0x1d
 13c:	0000001f 	0x1f
 140:	800007d4 	lb	zero,2004(zero)
 144:	80000000 	lb	zero,0(zero)
 148:	fffffffc 	sdc3	$31,-4(ra)
	...
 154:	00000020 	add	zero,zero,zero
 158:	0000001d 	0x1d
 15c:	0000001f 	0x1f
 160:	8000089c 	lb	zero,2204(zero)
 164:	80000000 	lb	zero,0(zero)
 168:	fffffffc 	sdc3	$31,-4(ra)
	...
 174:	00000018 	mult	zero,zero
 178:	0000001d 	0x1d
 17c:	0000001f 	0x1f
 180:	800008bc 	lb	zero,2236(zero)
 184:	80000000 	lb	zero,0(zero)
 188:	fffffffc 	sdc3	$31,-4(ra)
	...
 194:	00000018 	mult	zero,zero
 198:	0000001d 	0x1d
 19c:	0000001f 	0x1f
 1a0:	800008dc 	lb	zero,2268(zero)
 1a4:	80010000 	lb	at,0(zero)
 1a8:	fffffffc 	sdc3	$31,-4(ra)
	...
 1b4:	00000018 	mult	zero,zero
 1b8:	0000001d 	0x1d
 1bc:	0000001f 	0x1f
 1c0:	80000940 	lb	zero,2368(zero)
 1c4:	80030000 	lb	v1,0(zero)
 1c8:	fffffffc 	sdc3	$31,-4(ra)
	...
 1d4:	00000020 	add	zero,zero,zero
 1d8:	0000001d 	0x1d
 1dc:	0000001f 	0x1f
 1e0:	8000098c 	lb	zero,2444(zero)
	...
 1f8:	0000001d 	0x1d
 1fc:	0000001f 	0x1f
 200:	80000994 	lb	zero,2452(zero)
 204:	80030000 	lb	v1,0(zero)
 208:	fffffffc 	sdc3	$31,-4(ra)
	...
 214:	00000020 	add	zero,zero,zero
 218:	0000001d 	0x1d
 21c:	0000001f 	0x1f
 220:	80000a00 	lb	zero,2560(zero)
 224:	801f0000 	lb	ra,0(zero)
 228:	fffffffc 	sdc3	$31,-4(ra)
	...
 234:	00000028 	0x28
 238:	0000001d 	0x1d
 23c:	0000001f 	0x1f
 240:	80000ad4 	lb	zero,2772(zero)
 244:	80010000 	lb	at,0(zero)
 248:	fffffffc 	sdc3	$31,-4(ra)
	...
 254:	00000018 	mult	zero,zero
 258:	0000001d 	0x1d
 25c:	0000001f 	0x1f
 260:	80000ba0 	lb	zero,2976(zero)
 264:	80030000 	lb	v1,0(zero)
 268:	fffffffc 	sdc3	$31,-4(ra)
	...
 274:	00000020 	add	zero,zero,zero
 278:	0000001d 	0x1d
 27c:	0000001f 	0x1f
 280:	80000bf0 	lb	zero,3056(zero)
	...
 298:	0000001d 	0x1d
 29c:	0000001f 	0x1f
 2a0:	80000c04 	lb	zero,3076(zero)
 2a4:	80010000 	lb	at,0(zero)
 2a8:	fffffffc 	sdc3	$31,-4(ra)
	...
 2b4:	00000018 	mult	zero,zero
 2b8:	0000001d 	0x1d
 2bc:	0000001f 	0x1f
 2c0:	80000cb0 	lb	zero,3248(zero)
	...
 2d8:	0000001d 	0x1d
 2dc:	0000001f 	0x1f
 2e0:	80000cf0 	lb	zero,3312(zero)
	...
 2f8:	0000001d 	0x1d
 2fc:	0000001f 	0x1f
 300:	80000d2c 	lb	zero,3372(zero)
 304:	80030000 	lb	v1,0(zero)
 308:	fffffffc 	sdc3	$31,-4(ra)
	...
 314:	00000020 	add	zero,zero,zero
 318:	0000001d 	0x1d
 31c:	0000001f 	0x1f
 320:	80000d88 	lb	zero,3464(zero)
	...
 338:	0000001d 	0x1d
 33c:	0000001f 	0x1f
 340:	80000d94 	lb	zero,3476(zero)
	...
 358:	0000001d 	0x1d
 35c:	0000001f 	0x1f
 360:	80000dbc 	lb	zero,3516(zero)
 364:	801f0000 	lb	ra,0(zero)
 368:	fffffffc 	sdc3	$31,-4(ra)
	...
 374:	00000028 	0x28
 378:	0000001d 	0x1d
 37c:	0000001f 	0x1f
 380:	80000fb4 	lb	zero,4020(zero)
	...
 398:	0000001d 	0x1d
 39c:	0000001f 	0x1f
 3a0:	80000fdc 	lb	zero,4060(zero)
	...
 3b8:	0000001d 	0x1d
 3bc:	0000001f 	0x1f
 3c0:	80000fe4 	lb	zero,4068(zero)
	...
 3d8:	0000001d 	0x1d
 3dc:	0000001f 	0x1f
 3e0:	80000fec 	lb	zero,4076(zero)
	...
 3f8:	0000001d 	0x1d
 3fc:	0000001f 	0x1f
 400:	80001000 	lb	zero,4096(zero)
	...
 418:	0000001d 	0x1d
 41c:	0000001f 	0x1f
 420:	80001008 	lb	zero,4104(zero)
	...
 438:	0000001d 	0x1d
 43c:	0000001f 	0x1f
 440:	8000108c 	lb	zero,4236(zero)
	...
 458:	0000001d 	0x1d
 45c:	0000001f 	0x1f
 460:	80001094 	lb	zero,4244(zero)
	...
 478:	0000001d 	0x1d
 47c:	0000001f 	0x1f
 480:	8000110c 	lb	zero,4364(zero)
 484:	80010000 	lb	at,0(zero)
 488:	fffffffc 	sdc3	$31,-4(ra)
	...
 494:	00000018 	mult	zero,zero
 498:	0000001d 	0x1d
 49c:	0000001f 	0x1f
 4a0:	80001140 	lb	zero,4416(zero)
	...
 4b8:	0000001d 	0x1d
 4bc:	0000001f 	0x1f
 4c0:	800011c4 	lb	zero,4548(zero)
 4c4:	80000000 	lb	zero,0(zero)
 4c8:	fffffffc 	sdc3	$31,-4(ra)
	...
 4d4:	00000018 	mult	zero,zero
 4d8:	0000001d 	0x1d
 4dc:	0000001f 	0x1f
 4e0:	800011e0 	lb	zero,4576(zero)
 4e4:	80000000 	lb	zero,0(zero)
 4e8:	fffffffc 	sdc3	$31,-4(ra)
	...
 4f4:	00000018 	mult	zero,zero
 4f8:	0000001d 	0x1d
 4fc:	0000001f 	0x1f
 500:	800011fc 	lb	zero,4604(zero)
 504:	80000000 	lb	zero,0(zero)
 508:	fffffffc 	sdc3	$31,-4(ra)
	...
 514:	00000018 	mult	zero,zero
 518:	0000001d 	0x1d
 51c:	0000001f 	0x1f
 520:	80001218 	lb	zero,4632(zero)
	...
 538:	0000001d 	0x1d
 53c:	0000001f 	0x1f
 540:	80001228 	lb	zero,4648(zero)
 544:	80000000 	lb	zero,0(zero)
 548:	fffffffc 	sdc3	$31,-4(ra)
	...
 554:	00000018 	mult	zero,zero
 558:	0000001d 	0x1d
 55c:	0000001f 	0x1f
 560:	800012c4 	lb	zero,4804(zero)
	...
 578:	0000001d 	0x1d
 57c:	0000001f 	0x1f
 580:	800012cc 	lb	zero,4812(zero)
	...
 598:	0000001d 	0x1d
 59c:	0000001f 	0x1f
 5a0:	80001330 	lb	zero,4912(zero)
	...
 5b8:	0000001d 	0x1d
 5bc:	0000001f 	0x1f
 5c0:	80001378 	lb	zero,4984(zero)
	...
 5d8:	0000001d 	0x1d
 5dc:	0000001f 	0x1f
 5e0:	800013e4 	lb	zero,5092(zero)
 5e4:	80010000 	lb	at,0(zero)
 5e8:	fffffffc 	sdc3	$31,-4(ra)
	...
 5f4:	00000018 	mult	zero,zero
 5f8:	0000001d 	0x1d
 5fc:	0000001f 	0x1f
 600:	80001478 	lb	zero,5240(zero)
 604:	80ff0000 	lb	ra,0(a3)
 608:	fffffffc 	sdc3	$31,-4(ra)
	...
 614:	00000038 	0x38
 618:	0000001d 	0x1d
 61c:	0000001f 	0x1f
 620:	8000156c 	lb	zero,5484(zero)
	...
 638:	0000001d 	0x1d
 63c:	0000001f 	0x1f
 640:	80001658 	lb	zero,5720(zero)
 644:	80000000 	lb	zero,0(zero)
 648:	fffffffc 	sdc3	$31,-4(ra)
	...
 654:	00000018 	mult	zero,zero
 658:	0000001d 	0x1d
 65c:	0000001f 	0x1f
 660:	80001674 	lb	zero,5748(zero)
	...
 678:	0000001d 	0x1d
 67c:	0000001f 	0x1f
 680:	8000167c 	lb	zero,5756(zero)
 684:	80000000 	lb	zero,0(zero)
 688:	fffffffc 	sdc3	$31,-4(ra)
	...
 694:	00000018 	mult	zero,zero
 698:	0000001d 	0x1d
 69c:	0000001f 	0x1f
 6a0:	800016cc 	lb	zero,5836(zero)
 6a4:	801f0000 	lb	ra,0(zero)
 6a8:	fffffffc 	sdc3	$31,-4(ra)
	...
 6b4:	00000028 	0x28
 6b8:	0000001d 	0x1d
 6bc:	0000001f 	0x1f
 6c0:	80001850 	lb	zero,6224(zero)
 6c4:	801f0000 	lb	ra,0(zero)
 6c8:	fffffffc 	sdc3	$31,-4(ra)
	...
 6d4:	00000028 	0x28
 6d8:	0000001d 	0x1d
 6dc:	0000001f 	0x1f
 6e0:	80001984 	lb	zero,6532(zero)
 6e4:	807f0000 	lb	ra,0(v1)
 6e8:	fffffffc 	sdc3	$31,-4(ra)
	...
 6f4:	00000080 	sll	zero,zero,0x2
 6f8:	0000001d 	0x1d
 6fc:	0000001f 	0x1f
 700:	80001ae0 	lb	zero,6880(zero)
 704:	80030000 	lb	v1,0(zero)
 708:	fffffffc 	sdc3	$31,-4(ra)
	...
 714:	00000020 	add	zero,zero,zero
 718:	0000001d 	0x1d
 71c:	0000001f 	0x1f
 720:	80001b58 	lb	zero,7000(zero)
	...
 738:	0000001d 	0x1d
 73c:	0000001f 	0x1f
 740:	80001b60 	lb	zero,7008(zero)
	...
 758:	0000001d 	0x1d
 75c:	0000001f 	0x1f
 760:	80001b6c 	lb	zero,7020(zero)
 764:	80010000 	lb	at,0(zero)
 768:	fffffffc 	sdc3	$31,-4(ra)
	...
 774:	00000018 	mult	zero,zero
 778:	0000001d 	0x1d
 77c:	0000001f 	0x1f
 780:	80001bac 	lb	zero,7084(zero)
 784:	80000000 	lb	zero,0(zero)
 788:	fffffffc 	sdc3	$31,-4(ra)
	...
 794:	00000018 	mult	zero,zero
 798:	0000001d 	0x1d
 79c:	0000001f 	0x1f
 7a0:	80001bdc 	lb	zero,7132(zero)
 7a4:	80010000 	lb	at,0(zero)
 7a8:	fffffffc 	sdc3	$31,-4(ra)
	...
 7b4:	00000018 	mult	zero,zero
 7b8:	0000001d 	0x1d
 7bc:	0000001f 	0x1f
 7c0:	80001c0c 	lb	zero,7180(zero)
 7c4:	80010000 	lb	at,0(zero)
 7c8:	fffffffc 	sdc3	$31,-4(ra)
	...
 7d4:	00000020 	add	zero,zero,zero
 7d8:	0000001d 	0x1d
 7dc:	0000001f 	0x1f
 7e0:	80001da4 	lb	zero,7588(zero)
 7e4:	80000000 	lb	zero,0(zero)
 7e8:	fffffffc 	sdc3	$31,-4(ra)
	...
 7f4:	00000018 	mult	zero,zero
 7f8:	0000001d 	0x1d
 7fc:	0000001f 	0x1f
 800:	80001dcc 	lb	zero,7628(zero)
 804:	80010000 	lb	at,0(zero)
 808:	fffffffc 	sdc3	$31,-4(ra)
	...
 814:	00000018 	mult	zero,zero
 818:	0000001d 	0x1d
 81c:	0000001f 	0x1f
 820:	80001e08 	lb	zero,7688(zero)
	...
 840:	800021a4 	lb	zero,8612(zero)
	...
 860:	800022d0 	lb	zero,8912(zero)
 864:	801f0000 	lb	ra,0(zero)
 868:	fffffffc 	sdc3	$31,-4(ra)
	...
 874:	00000028 	0x28
 878:	0000001d 	0x1d
 87c:	0000001f 	0x1f
 880:	800023e0 	lb	zero,9184(zero)
 884:	c0ff0000 	ll	ra,0(a3)
 888:	fffffffc 	sdc3	$31,-4(ra)
	...
 894:	00000040 	ssnop
 898:	0000001d 	0x1d
 89c:	0000001f 	0x1f
 8a0:	80002560 	lb	zero,9568(zero)
 8a4:	800f0000 	lb	t7,0(zero)
 8a8:	fffffffc 	sdc3	$31,-4(ra)
	...
 8b4:	00000028 	0x28
 8b8:	0000001d 	0x1d
 8bc:	0000001f 	0x1f
 8c0:	800025e8 	lb	zero,9704(zero)
	...
 8d8:	0000001d 	0x1d
 8dc:	0000001f 	0x1f
 8e0:	80002634 	lb	zero,9780(zero)
	...
 900:	8000265c 	lb	zero,9820(zero)
	...
 920:	8000267c 	lb	zero,9852(zero)
	...
 940:	800026c8 	lb	zero,9928(zero)
	...
 960:	80002700 	lb	zero,9984(zero)
	...
 980:	8000275c 	lb	zero,10076(zero)
	...
 9a0:	80000000 	lb	zero,0(zero)
	...
 9c0:	8000339c 	lb	zero,13212(zero)
	...
 9d4:	000000b0 	tge	zero,zero,0x2
 9d8:	0000001d 	0x1d
 9dc:	00000000 	nop
 9e0:	800027f4 	lb	zero,10228(zero)
 9e4:	80070000 	lb	a3,0(zero)
 9e8:	fffffffc 	sdc3	$31,-4(ra)
	...
 9f4:	00000028 	0x28
 9f8:	0000001d 	0x1d
 9fc:	0000001f 	0x1f
 a00:	800028b4 	lb	zero,10420(zero)
	...
 a18:	0000001d 	0x1d
 a1c:	0000001f 	0x1f
 a20:	800028bc 	lb	zero,10428(zero)
 a24:	80070000 	lb	a3,0(zero)
 a28:	fffffffc 	sdc3	$31,-4(ra)
	...
 a34:	00000020 	add	zero,zero,zero
 a38:	0000001d 	0x1d
 a3c:	0000001f 	0x1f
 a40:	80002fa0 	lb	zero,12192(zero)
	...
 a60:	80003050 	lb	zero,12368(zero)
	...
 a80:	800030cc 	lb	zero,12492(zero)
	...
 aa0:	8000316c 	lb	zero,12652(zero)
	...
 ac0:	80003224 	lb	zero,12836(zero)
	...
 ae0:	8000323c 	lb	zero,12860(zero)
	...
 b00:	800032cc 	lb	zero,13004(zero)
	...
 b20:	800032e8 	lb	zero,13032(zero)
 b24:	80010000 	lb	at,0(zero)
 b28:	fffffffc 	sdc3	$31,-4(ra)
	...
 b34:	00000020 	add	zero,zero,zero
 b38:	0000001d 	0x1d
 b3c:	0000001f 	0x1f
 b40:	80003338 	lb	zero,13112(zero)
	...
 b58:	0000001d 	0x1d
 b5c:	0000001f 	0x1f
 b60:	8000334c 	lb	zero,13132(zero)
	...
 b78:	0000001d 	0x1d
 b7c:	0000001f 	0x1f
 b80:	80003390 	lb	zero,13200(zero)
	...
 b98:	0000001d 	0x1d
 b9c:	0000001f 	0x1f

Disassembly of section .gnu.attributes:

00000000 <.gnu.attributes>:
   0:	00000f41 	0xf41
   4:	756e6700 	jalx	5b99c00 <__memory_size+0x5b7a400>
   8:	00070100 	sll	zero,a3,0x4
   c:	03040000 	0x3040000

Disassembly of section .comment:

00000000 <.comment>:
   0:	3a434347 	xori	v1,s2,0x4347
   4:	6f432820 	0x6f432820
   8:	63736564 	0x63736564
   c:	20657061 	addi	a1,v1,28769
  10:	20554e47 	addi	s5,v0,20039
  14:	6c6f6f54 	0x6c6f6f54
  18:	30322073 	andi	s2,at,0x2073
  1c:	302e3631 	andi	t6,at,0x3631
  20:	33302d35 	andi	s0,t9,0x2d35
  24:	726f6620 	0x726f6620
  28:	50494d20 	beql	v0,t1,134ac <__isr_vec_space+0x1348c>
  2c:	544d2053 	bnel	v0,t5,817c <__isr_vec_space+0x815c>
  30:	61422049 	0x61422049
  34:	4d206572 	0x4d206572
  38:	6c617465 	0x6c617465
  3c:	2e342029 	sltiu	s4,s1,8233
  40:	00322e39 	0x322e39
