	.section .mdebug.abi32
	.previous
	.nan	legacy
	.module	softfloat
	.module	oddspreg
	.text
.Ltext0:
	.cfi_sections	.debug_frame
	.rdata
	.align	2
.LC0:
	.word	-2147340608
	.word	-2147340672
	.word	-2147341184
	.word	-2147342336
	.word	-2147343360
	.word	-2147344384
	.word	-2147340288
	.word	-2147336192
	.word	-2147332096
	.word	-2147323904
	.text
	.align	2
	.globl	test_alloc_memory
.LFB14 = .
	.file 1 "mm/mm_test.c"
	.loc 1 8 0
	.cfi_startproc
	.set	nomips16
	.set	nomicromips
	.ent	test_alloc_memory
	.type	test_alloc_memory, @function
test_alloc_memory:
	.frame	$sp,128,$31		# vars= 80, regs= 8/0, args= 16, gp= 0
	.mask	0x807f0000,-4
	.fmask	0x00000000,0
	.set	noreorder
	.set	nomacro
	addiu	$sp,$sp,-128
	.cfi_def_cfa_offset 128
	sw	$31,124($sp)
	sw	$22,120($sp)
	sw	$21,116($sp)
	sw	$20,112($sp)
	sw	$19,108($sp)
	sw	$18,104($sp)
	sw	$17,100($sp)
	sw	$16,96($sp)
	.cfi_offset 31, -4
	.cfi_offset 22, -8
	.cfi_offset 21, -12
	.cfi_offset 20, -16
	.cfi_offset 19, -20
	.cfi_offset 18, -24
	.cfi_offset 17, -28
	.cfi_offset 16, -32
	.loc 1 10 0
	lui	$2,%hi(.LC0)
	lw	$11,%lo(.LC0)($2)
	addiu	$2,$2,%lo(.LC0)
	lw	$10,4($2)
	lw	$9,8($2)
	lw	$8,12($2)
	lw	$7,16($2)
	lw	$6,20($2)
	lw	$5,24($2)
	lw	$4,28($2)
	lw	$3,32($2)
	lw	$2,36($2)
	sw	$11,16($sp)
	sw	$10,20($sp)
	sw	$9,24($sp)
	sw	$8,28($sp)
	sw	$7,32($sp)
	sw	$6,36($sp)
	sw	$5,40($sp)
	sw	$4,44($sp)
	sw	$3,48($sp)
	sw	$2,52($sp)
.LVL0 = .
	move	$2,$0
	.loc 1 15 0
	li	$6,-2147483648			# 0xffffffff80000000
	.loc 1 14 0
	li	$5,40			# 0x28
.LVL1 = .
.L2:
	addiu	$3,$sp,56
	addu	$4,$3,$2
	addiu	$3,$sp,16
	addu	$3,$3,$2
	.loc 1 15 0 discriminator 3
	lw	$3,0($3)
	addu	$3,$3,$6
	addiu	$2,$2,4
	.loc 1 14 0 discriminator 3
	bne	$2,$5,.L2
	sw	$3,0($4)

	lui	$17,%hi(alloc_size)
	addiu	$17,$17,%lo(alloc_size)
	addiu	$18,$sp,56
	.loc 1 14 0 is_stmt 0
	move	$19,$0
	.loc 1 20 0 is_stmt 1
	li	$20,1			# 0x1
	.loc 1 17 0
	li	$21,10			# 0xa
.L6:
.LVL2 = .
	.loc 1 19 0
	lw	$4,%gp_rel(pid)($28)
	jal	kmalloc
	lw	$5,0($17)

.LVL3 = .
	move	$16,$2
	.loc 1 20 0
	jal	get_page_status
	move	$4,$2

.LVL4 = .
	beql	$2,$20,.L3
	lw	$2,0($18)

	.loc 1 23 0
	jal	writeValTo7SegsHex
	li	$4,-1			# 0xffffffffffffffff

.LVL5 = .
	.loc 1 24 0
	b	.L4
	li	$2,1			# 0x1

.L3:
	.loc 1 27 0
	beql	$16,$2,.L5
	addiu	$19,$19,1

	.loc 1 34 0
	jal	writeValTo7SegsHex
	li	$4,-16			# 0xfffffffffffffff0

.LVL6 = .
	.loc 1 35 0
	jal	writeValTo7SegsDec
	move	$4,$19

.LVL7 = .
	.loc 1 36 0
	jal	writeValTo7SegsHex
	move	$4,$16

.LVL8 = .
	.loc 1 37 0
	b	.L4
	li	$2,2			# 0x2

.L5:
.LVL9 = .
	addiu	$17,$17,4
	.loc 1 17 0 discriminator 2
	bne	$19,$21,.L6
	addiu	$18,$18,4

	.loc 1 41 0
	jal	writeValTo7SegsHex
	move	$4,$0

.LVL10 = .
	.loc 1 42 0
	li	$2,3			# 0x3
.L4:
	.loc 1 43 0
	lw	$31,124($sp)
	lw	$22,120($sp)
	lw	$21,116($sp)
	lw	$20,112($sp)
	lw	$19,108($sp)
.LVL11 = .
	lw	$18,104($sp)
	lw	$17,100($sp)
	lw	$16,96($sp)
	jr	$31
	addiu	$sp,$sp,128

	.cfi_def_cfa_offset 0
	.cfi_restore 16
	.cfi_restore 17
	.cfi_restore 18
	.cfi_restore 19
	.cfi_restore 20
	.cfi_restore 21
	.cfi_restore 22
	.cfi_restore 31
	.set	macro
	.set	reorder
	.end	test_alloc_memory
	.cfi_endproc
.LFE14:
	.size	test_alloc_memory, .-test_alloc_memory
	.align	2
	.globl	test_rw_memory
.LFB15 = .
	.loc 1 45 0
	.cfi_startproc
	.set	nomips16
	.set	nomicromips
	.ent	test_rw_memory
	.type	test_rw_memory, @function
test_rw_memory:
	.frame	$sp,32,$31		# vars= 0, regs= 4/0, args= 16, gp= 0
	.mask	0x80070000,-4
	.fmask	0x00000000,0
	.set	noreorder
	.set	nomacro
	addiu	$sp,$sp,-32
	.cfi_def_cfa_offset 32
	sw	$31,28($sp)
	sw	$18,24($sp)
	sw	$17,20($sp)
	sw	$16,16($sp)
	.cfi_offset 31, -4
	.cfi_offset 18, -8
	.cfi_offset 17, -12
	.cfi_offset 16, -16
	.loc 1 48 0
	move	$4,$0
	jal	kmalloc
	li	$5,128			# 0x80

.LVL12 = .
	move	$18,$2
.LVL13 = .
	.loc 1 49 0
	li	$4,1			# 0x1
	jal	kmalloc
	li	$5,128			# 0x80

.LVL14 = .
	move	$17,$2
.LVL15 = .
	.loc 1 50 0
	li	$4,1			# 0x1
	jal	kmalloc
	li	$5,4096			# 0x1000

.LVL16 = .
	move	$16,$2
.LVL17 = .
	.loc 1 52 0
	jal	writeValTo7SegsHex
	move	$4,$18

.LVL18 = .
	.loc 1 53 0
	jal	writeValTo7SegsHex
	move	$4,$17

.LVL19 = .
	.loc 1 54 0
	jal	writeValTo7SegsHex
	move	$4,$16

.LVL20 = .
	.loc 1 57 0
	li	$16,131072			# 0x20000
.LVL21 = .
	li	$2,123			# 0x7b
	sw	$2,11400($16)
	.loc 1 58 0
	jal	writeValTo7SegsDec
	li	$4,123			# 0x7b

.LVL22 = .
	.loc 1 59 0
	li	$2,456			# 0x1c8
	sw	$2,15496($16)
	.loc 1 60 0
	jal	writeValTo7SegsDec
	li	$4,456			# 0x1c8

.LVL23 = .
	.loc 1 61 0
	li	$2,987			# 0x3db
	sw	$2,20476($16)
	.loc 1 62 0
	jal	writeValTo7SegsDec
	li	$4,987			# 0x3db

.LVL24 = .
	.loc 1 65 0
	li	$2,1			# 0x1
	lw	$31,28($sp)
	lw	$18,24($sp)
.LVL25 = .
	lw	$17,20($sp)
.LVL26 = .
	lw	$16,16($sp)
	jr	$31
	addiu	$sp,$sp,32

	.cfi_def_cfa_offset 0
	.cfi_restore 16
	.cfi_restore 17
	.cfi_restore 18
	.cfi_restore 31
	.set	macro
	.set	reorder
	.end	test_rw_memory
	.cfi_endproc
.LFE15:
	.size	test_rw_memory, .-test_rw_memory
	.align	2
	.globl	test_free_memory
.LFB16 = .
	.loc 1 67 0
	.cfi_startproc
	.set	nomips16
	.set	nomicromips
	.ent	test_free_memory
	.type	test_free_memory, @function
test_free_memory:
	.frame	$sp,0,$31		# vars= 0, regs= 0/0, args= 0, gp= 0
	.mask	0x00000000,0
	.fmask	0x00000000,0
	.set	noreorder
	.set	nomacro
	.loc 1 69 0
	jr	$31
	li	$2,1			# 0x1

	.set	macro
	.set	reorder
	.end	test_free_memory
	.cfi_endproc
.LFE16:
	.size	test_free_memory, .-test_free_memory
	.align	2
	.globl	test_global_variable
.LFB17 = .
	.loc 1 71 0
	.cfi_startproc
	.set	nomips16
	.set	nomicromips
	.ent	test_global_variable
	.type	test_global_variable, @function
test_global_variable:
	.frame	$sp,0,$31		# vars= 0, regs= 0/0, args= 0, gp= 0
	.mask	0x00000000,0
	.fmask	0x00000000,0
	.set	noreorder
	.set	nomacro
	.loc 1 73 0
	li	$2,2			# 0x2
	jr	$31
	sw	$2,%gp_rel(index_)($28)

	.set	macro
	.set	reorder
	.end	test_global_variable
	.cfi_endproc
.LFE17:
	.size	test_global_variable, .-test_global_variable
	.globl	index_
	.section	.sbss,"aw",@nobits
	.align	2
	.type	index_, @object
	.size	index_, 4
index_:
	.space	4
	.globl	alloc_size
	.data
	.align	2
	.type	alloc_size, @object
	.size	alloc_size, 40
alloc_size:
	.word	33
	.word	64
	.word	128
	.word	256
	.word	512
	.word	1024
	.word	2048
	.word	4096
	.word	6144
	.word	4096
	.globl	pid
	.section	.sbss
	.align	2
	.type	pid, @object
	.size	pid, 4
pid:
	.space	4

	.comm	pte_p,4,4
	.text
.Letext0:
	.file 2 "c:\\progra~1\\imagin~1\\toolch~1\\mips-mti-elf\\2016.05-03\\mips-mti-elf\\include\\machine\\_default_types.h"
	.file 3 "c:\\progra~1\\imagin~1\\toolch~1\\mips-mti-elf\\2016.05-03\\mips-mti-elf\\include\\stdint.h"
	.file 4 "c:\\progra~1\\imagin~1\\toolch~1\\mips-mti-elf\\2016.05-03\\lib\\gcc\\mips-mti-elf\\4.9.2\\include\\stddef.h"
	.file 5 "c:\\progra~1\\imagin~1\\toolch~1\\mips-mti-elf\\2016.05-03\\mips-mti-elf\\include\\sys\\types.h"
	.file 6 "./include/types.h"
	.file 7 "./include/mm/vmm.h"
	.file 8 "./include/mm/mm.h"
	.file 9 "./include/debug.h"